MODULE windows x86 3438A3F0B12841B9B08E28E1BEE095451 nss3.pdb
FUNC 1000 6 4 nss_mktemp
FUNC 1006 e8 18 nss_makeFlags
FUNC 10ee 15b 24 nss_MkConfigString
FUNC 1249 73 28 PK11_ConfigurePKCS11
FUNC 12bc 30 0 PK11_UnconfigurePKCS11
FUNC 12ec ed 10 nss_FindExternalRootPaths
FUNC 13d9 7a 8 nss_FindExternalRoot
FUNC 1453 24a 48 nss_InitModules
FUNC 169d 2b 0 nss_doLockInit
FUNC 16c8 30 8 nss_GetShutdownEntry
FUNC 16f8 57 0 nss_InitShutdownList
FUNC 174f 72 0 nss_ShutdownShutdownList
FUNC 17c1 ae 0 nss_Shutdown
FUNC 186f 64 0 NSS_Shutdown
FUNC 18d3 2e 4 nss_RemoveList
FUNC 1901 91 4 NSS_ShutdownContext
FUNC 1992 16 0 NSS_IsInitialized
FUNC 19a8 e8 4 NSS_VersionCheck
FUNC 1a90 6 0 NSS_GetVersion
FUNC 1a96 35d 50 nss_Init
FUNC 1df3 23c 4 NSS_Init
FUNC 202f 23b 4 NSS_InitReadWrite
FUNC 226a 2e4 14 NSS_Initialize
FUNC 254e a7 18 NSS_InitContext
FUNC 25f5 2e9 28 NSS_InitWithMerge
FUNC 28de 1af 4 NSS_NoDB_Init
FUNC 2a8d 109 8 NSS_RegisterShutdown
FUNC 2b96 90 8 NSS_UnregisterShutdown
FUNC 2c26 5 4 PORT_Alloc
FUNC 2c2b 5 8 PORT_Realloc
FUNC 2c30 5 4 PORT_ZAlloc
FUNC 2c35 5 4 PORT_Free
FUNC 2c3a 5 8 PORT_ZFree
FUNC 2c3f 5 4 PORT_Strdup
FUNC 2c44 5 4 PORT_SetError
FUNC 2c49 5 0 PORT_GetError
FUNC 2c4e 5 4 PORT_NewArena
FUNC 2c53 5 8 PORT_ArenaAlloc
FUNC 2c58 5 8 PORT_ArenaZAlloc
FUNC 2c5d 5 8 PORT_FreeArena
FUNC 2c62 5 10 PORT_ArenaGrow
FUNC 2c67 5 4 PORT_ArenaMark
FUNC 2c6c 5 8 PORT_ArenaRelease
FUNC 2c71 5 8 PORT_ArenaUnmark
FUNC 2c76 5 8 PORT_ArenaStrdup
FUNC 2c7b 5 4 PORT_SetUCS4_UTF8ConversionFunction
FUNC 2c80 5 4 PORT_SetUCS2_ASCIIConversionFunction
FUNC 2c85 5 4 PORT_SetUCS2_UTF8ConversionFunction
FUNC 2c8a 9 18 PORT_UCS2_UTF8Conversion
FUNC 2c93 9 1c PORT_UCS2_ASCIIConversion
FUNC 2c9c 5 8 NSS_PutEnv
FUNC 2ca1 5 4 SECOID_FindOID
FUNC 2ca6 5 4 SECOID_FindOIDTag
FUNC 2cab 5 4 SECOID_FindOIDByTag
FUNC 2cb0 5 10 SECOID_SetAlgorithmID
FUNC 2cb5 5 c SECOID_CopyAlgorithmID
FUNC 2cba 5 4 SECOID_GetAlgorithmTag
FUNC 2cbf 5 8 SECOID_DestroyAlgorithmID
FUNC 2cc4 5 8 SECOID_CompareAlgorithmID
FUNC 2cc9 5 4 SECOID_FindOIDTagDescription
FUNC 2cce 5 4 SECOID_AddEntry
FUNC 2cd3 5 c SECITEM_AllocItem
FUNC 2cd8 5 8 SECITEM_CompareItem
FUNC 2cdd 5 8 SECITEM_ItemsAreEqual
FUNC 2ce2 5 c SECITEM_CopyItem
FUNC 2ce7 5 4 SECITEM_DupItem
FUNC 2cec 5 8 SECITEM_ArenaDupItem
FUNC 2cf1 5 8 SECITEM_FreeItem
FUNC 2cf6 5 8 SECITEM_ZfreeItem
FUNC 2cfb 5 c SGN_CreateDigestInfo
FUNC 2d00 5 4 SGN_DestroyDigestInfo
FUNC 2d05 5 c SGN_CopyDigestInfo
FUNC 2d0a 5 8 SGN_CompareDigestInfo
FUNC 2d0f 5 10 DER_Encode
FUNC 2d14 5 c DER_Lengths
FUNC 2d19 5 4 DER_GetInteger
FUNC 2d1e 15 c DER_TimeToUTCTime
FUNC 2d33 5 8 DER_AsciiToTime
FUNC 2d38 5 8 DER_UTCTimeToTime
FUNC 2d3d 5 4 DER_UTCTimeToAscii
FUNC 2d42 5 4 DER_UTCDayToAscii
FUNC 2d47 5 4 DER_GeneralizedDayToAscii
FUNC 2d4c 5 4 DER_TimeChoiceDayToAscii
FUNC 2d51 15 c DER_TimeToGeneralizedTime
FUNC 2d66 19 10 DER_TimeToGeneralizedTimeArena
FUNC 2d7f 5 8 DER_GeneralizedTimeToTime
FUNC 2d84 15 c CERT_GenTime2FormattedAscii
FUNC 2d99 5 8 DER_DecodeTimeChoice
FUNC 2d9e 19 10 DER_EncodeTimeChoice
FUNC 2db7 5 c SEC_ASN1DecoderStart
FUNC 2dbc 5 c SEC_ASN1DecoderUpdate
FUNC 2dc1 5 4 SEC_ASN1DecoderFinish
FUNC 2dc6 5 8 SEC_ASN1DecoderAbort
FUNC 2dcb 5 10 SEC_ASN1DecoderSetFilterProc
FUNC 2dd0 5 4 SEC_ASN1DecoderClearFilterProc
FUNC 2dd5 5 c SEC_ASN1DecoderSetNotifyProc
FUNC 2dda 5 4 SEC_ASN1DecoderClearNotifyProc
FUNC 2ddf 9 14 SEC_ASN1Decode
FUNC 2de8 5 10 SEC_ASN1DecodeItem
FUNC 2ded 5 10 SEC_QuickDERDecodeItem
FUNC 2df2 5 10 SEC_ASN1EncoderStart
FUNC 2df7 5 c SEC_ASN1EncoderUpdate
FUNC 2dfc 5 4 SEC_ASN1EncoderFinish
FUNC 2e01 5 8 SEC_ASN1EncoderAbort
FUNC 2e06 5 c SEC_ASN1EncoderSetNotifyProc
FUNC 2e0b 5 4 SEC_ASN1EncoderClearNotifyProc
FUNC 2e10 5 4 SEC_ASN1EncoderSetStreaming
FUNC 2e15 5 4 SEC_ASN1EncoderClearStreaming
FUNC 2e1a 5 4 SEC_ASN1EncoderSetTakeFromBuf
FUNC 2e1f 5 4 SEC_ASN1EncoderClearTakeFromBuf
FUNC 2e24 5 10 SEC_ASN1Encode
FUNC 2e29 5 10 SEC_ASN1EncodeItem
FUNC 2e2e 5 c SEC_ASN1EncodeInteger
FUNC 2e33 5 c SEC_ASN1EncodeUnsignedInteger
FUNC 2e38 5 8 SEC_ASN1DecodeInteger
FUNC 2e3d 5 4 SEC_ASN1LengthLength
FUNC 2e42 5 8 BTOA_DataToAscii
FUNC 2e47 5 8 ATOB_AsciiToData
FUNC 2e4c 5 8 ATOB_ConvertAsciiToItem
FUNC 2e51 5 4 BTOA_ConvertItemToAscii
FUNC 2e56 5 8 NSSBase64Decoder_Create
FUNC 2e5b 5 8 NSSBase64Encoder_Create
FUNC 2e60 5 c NSSBase64Decoder_Update
FUNC 2e65 5 c NSSBase64Encoder_Update
FUNC 2e6a 5 8 NSSBase64Decoder_Destroy
FUNC 2e6f 5 8 NSSBase64Encoder_Destroy
FUNC 2e74 5 10 NSSBase64_DecodeBuffer
FUNC 2e79 5 10 NSSBase64_EncodeItem
FUNC 2e7e 5 8 NSSRWLock_New
FUNC 2e83 5 4 SECMOD_GetReadLock
FUNC 2e88 5 4 SECMOD_ReleaseReadLock
FUNC 2e8d 5 4 NSSRWLock_UnlockWrite
FUNC 2e92 5 4 NSSRWLock_HaveWriteLock
FUNC 2e97 6 8 NSS_Get_SECOID_AlgorithmIDTemplate
FUNC 2e9d 6 8 NSS_Get_SEC_AnyTemplate
FUNC 2ea3 6 8 NSS_Get_SEC_BMPStringTemplate
FUNC 2ea9 6 8 NSS_Get_SEC_BitStringTemplate
FUNC 2eaf 6 8 NSS_Get_SEC_BooleanTemplate
FUNC 2eb5 6 8 NSS_Get_SEC_GeneralizedTimeTemplate
FUNC 2ebb 6 8 NSS_Get_SEC_IA5StringTemplate
FUNC 2ec1 6 8 NSS_Get_SEC_IntegerTemplate
FUNC 2ec7 6 8 NSS_Get_SEC_NullTemplate
FUNC 2ecd 6 8 NSS_Get_SEC_ObjectIDTemplate
FUNC 2ed3 6 8 NSS_Get_SEC_OctetStringTemplate
FUNC 2ed9 6 8 NSS_Get_SEC_PointerToAnyTemplate
FUNC 2edf 6 8 NSS_Get_SEC_PointerToOctetStringTemplate
FUNC 2ee5 6 8 NSS_Get_SEC_SetOfAnyTemplate
FUNC 2eeb 6 8 NSS_Get_SEC_UTCTimeTemplate
FUNC 2ef1 6 8 NSS_Get_SEC_UTF8StringTemplate
FUNC 2ef7 6 8 NSS_Get_sgn_DigestInfoTemplate
FUNC 2efd 79 8 CERT_Hexify
FUNC 2f76 456 4 CERT_FormatName
FUNC 33cc 6 8 NSS_Get_CERT_CertificateRequestTemplate
FUNC 33d2 e5 10 CERT_CreateCertificate
FUNC 34b7 19 4 CERT_DestroyCertificateRequest
FUNC 34d0 c 8 setCRExt
FUNC 34dc 15 4 CERT_StartCertificateRequestAttributes
FUNC 34f1 dd 4 CERT_FinishCertificateRequestAttributes
FUNC 35ce 55 8 CERT_GetCertificateRequestExtensions
FUNC 3623 169 c CERT_CreateCertificateRequest
FUNC 378c 1c 8 SetCrlExts
FUNC 37a8 15 4 CERT_StartCRLExtensions
FUNC 37bd c 8 SetCrlEntryExts
FUNC 37c9 18 8 CERT_StartCRLEntryExtensions
FUNC 37e1 88 c CERT_FindCRLNumberExten
FUNC 3869 9f 8 CERT_FindCRLEntryReasonExten
FUNC 3908 39 4 SEC_RegisterDefaultHttpClient
FUNC 3941 4b 8 CERT_RegisterAlternateOCSPAIAInfoCallBack
FUNC 398c 44 4 ocsp_CacheKeyHashFunction
FUNC 39d0 4b 8 ocsp_CacheKeyCompareFunction
FUNC 3a1b 71 0 ocsp_CopyRevokedInfo
FUNC 3a8c 3f 0 ocsp_CopyCertStatus
FUNC 3acb 39 0 ocsp_AddCacheItemToLinkedList
FUNC 3b04 66 0 ocsp_RemoveCacheItemFromLinkedList
FUNC 3b6a 45 0 ocsp_MakeCacheEntryMostRecent
FUNC 3baf 68 4 ocsp_FindCacheEntry
FUNC 3c17 5f 0 ocsp_RemoveCacheItem
FUNC 3c76 3e 0 ocsp_CheckCacheSize
FUNC 3cb4 37 0 CERT_ClearOCSPCache
FUNC 3ceb a0 4 ocsp_CreateCacheItemAndConsumeCertID
FUNC 3d8b a7 0 ocsp_SetCacheItemResponse
FUNC 3e32 9f 0 ocsp_FreshenCacheItemNextFetchAttemptTime
FUNC 3ed1 3e 0 ocsp_IsCacheItemFresh
FUNC 3f0f bc c ocsp_CreateOrUpdateCacheEntry
FUNC 3fcb 41 4 CERT_SetOCSPFailureMode
FUNC 400c 85 c CERT_OCSPCacheSettings
FUNC 4091 c 4 CERT_SetOCSPTimeout
FUNC 409d 8f 0 OCSP_InitGlobal
FUNC 412c 8d 0 OCSP_ShutdownGlobal
FUNC 41b9 37 0 SEC_GetRegisteredHttpClient
FUNC 41f0 3c c CERT_EncodeOCSPRequest
FUNC 422c 2e 4 CERT_DestroyOCSPCertID
FUNC 425a b3 8 ocsp_DigestValue
FUNC 430d 3d 10 CERT_GetSPKIDigest
FUNC 434a 28 8 cert_GetSubjectNameDigest
FUNC 4372 13a c ocsp_CreateCertID
FUNC 44ac 41 c CERT_CreateOCSPCertID
FUNC 44ed c 8 SetSingleReqExts
FUNC 44f9 ad 4 ocsp_AddServiceLocatorExtension
FUNC 45a6 c4 10 ocsp_CreateSingleRequestList
FUNC 466a 6a c ocsp_CreateRequestFromCert
FUNC 46d4 49 0 ocsp_prepareEmptyOCSPRequest
FUNC 471d 5b 18 cert_CreateSingleCertOCSPRequest
FUNC 4778 6c 14 CERT_CreateOCSPRequest
FUNC 47e4 f 8 SetRequestExts
FUNC 47f3 105 8 CERT_AddOCSPAcceptableResponses
FUNC 48f8 56 4 CERT_DestroyOCSPRequest
FUNC 494e 10f 8 ocsp_FinishDecodingSingleResponses
FUNC 4a5d 123 4 ocsp_DecodeBasicOCSPResponse
FUNC 4b80 3f 0 ocsp_DecodeResponseBytes
FUNC 4bbf a2 4 CERT_DecodeOCSPResponse
FUNC 4c61 18 8 ocsp_GetResponseData
FUNC 4c79 13 4 ocsp_GetResponseSignature
FUNC 4c8c 36 4 CERT_DestroyOCSPResponse
FUNC 4cc2 15f c ocsp_ParseURL
FUNC 4e21 fd 4 ocsp_ConnectToHost
FUNC 4f1e 10b 4 ocsp_SendEncodedRequest
FUNC 5029 43 10 ocsp_read
FUNC 506c 336 8 ocsp_GetEncodedResponse
FUNC 53a2 19 10 CERT_ParseURL
FUNC 53bb 142 8 fetchOcspHttpClientV1
FUNC 54fd b5 18 ocsp_GetEncodedOCSPResponseFromRequest
FUNC 55b2 80 4 ocsp_CertIsOCSPDesignatedResponder
FUNC 5632 a3 0 ocsp_matchcert
FUNC 56d5 7c 10 ocsp_VerifyResponseSignature
FUNC 5751 c4 0 ocsp_CertIDsMatch
FUNC 5815 41 4 ocsp_GetSingleResponseForCertID
FUNC 5856 27 4 ocsp_GetCheckingContext
FUNC 587d 1a 4 ocsp_CertGetDefaultResponder
FUNC 5897 2c 8 ocsp_CertIsOCSPDefaultResponder
FUNC 58c3 174 14 ocsp_AuthorizedResponderForCertID
FUNC 5a37 10c 4 CERT_GetOCSPAuthorityInfoAccessLocation
FUNC 5b43 83 10 ocsp_GetResponderLocation
FUNC 5bc6 3d c ocsp_CertRevokedAfter
FUNC 5c03 3a 8 ocsp_CertHasGoodStatus
FUNC 5c3d c2 18 ocsp_GetCachedOCSPResponseStatusIfFresh
FUNC 5cff 2c 0 ocsp_FetchingFailureIsVerificationFailure
FUNC 5d2b 41 8 cert_RememberOCSPProcessingFailure
FUNC 5d6c 48 4 ocsp_DestroyStatusChecking
FUNC 5db4 52 4 ocsp_InitStatusChecking
FUNC 5e06 114 c CERT_SetOCSPDefaultResponder
FUNC 5f1a b9 4 CERT_EnableOCSPDefaultResponder
FUNC 5fd3 4f 4 CERT_DisableOCSPDefaultResponder
FUNC 6022 4e 4 CERT_GetOCSPResponseStatus
FUNC 6070 15d 10 ocsp_GetSignerCertificate
FUNC 61cd 144 14 CERT_VerifyOCSPResponseSignature
FUNC 6311 3d 8 ocsp_HandleOldSingleResponse
FUNC 634e 120 14 ocsp_VerifySingleResponse
FUNC 646e 5e 14 ocsp_GetVerifiedSingleResponseForCertID
FUNC 64cc 8c 20 cert_ProcessOCSPResponse
FUNC 6558 109 24 ocsp_CacheEncodedOCSPResponse
FUNC 6661 23 18 CERT_GetOCSPStatusForCertID
FUNC 6684 95 18 CERT_CacheOCSPResponseFromSideChannel
FUNC 6719 fe 18 ocsp_GetOCSPStatusFromNetwork
FUNC 6817 96 14 CERT_CheckOCSPStatus
FUNC 68ad 53 4 CERT_DisableOCSPChecking
FUNC 6900 40 4 CERT_EnableOCSPChecking
FUNC 6940 5f 8 CERT_MatchNickname
FUNC 699f 101 14 CERT_FindUserCertByUsage
FUNC 6aa0 e4 8 CollectNicknames
FUNC 6b84 be c CERT_GetCertNicknames
FUNC 6c42 10 4 CERT_FreeNicknames
FUNC 6c52 6d c CollectDistNames
FUNC 6cbf ad 4 CERT_DupDistNames
FUNC 6d6c a2 4 CERT_GetSSLCACerts
FUNC 6e0e a7 4 CERT_DistNamesFromCertList
FUNC 6eb5 4b 4 CERT_FindCRLDistributionPoints
FUNC 6f00 34 14 CERT_ImportCRL
FUNC 6f34 165 10 cert_ImportCAChain
FUNC 7099 17 c CERT_ImportCAChain
FUNC 70b0 17 c CERT_ImportCAChainTrusted
FUNC 70c7 19e c CERT_CertChainFromCert
FUNC 7265 77 4 CERT_CertListFromCert
FUNC 72dc 9e 4 CERT_DupCertList
FUNC 737a 11 4 CERT_DestroyCertificateList
FUNC 738b 16e 14 CERT_FindUserCertsByUsage
FUNC 74f9 1b 4 CERT_CertTimesValid
FUNC 7514 86 c CERT_VerifySignedDataWithPublicKey
FUNC 759a 33 c CERT_VerifySignedDataWithPublicKeyInfo
FUNC 75cd 4b 14 CERT_VerifySignedData
FUNC 7618 1e 18 SEC_CheckCRL
FUNC 7636 c2 10 CERT_FindCertIssuer
FUNC 76f8 84 c CERT_TrustFlagsForCACertUsage
FUNC 777c a9 14 cert_AddToVerifyLog
FUNC 7825 6f6 28 cert_VerifyCertChainOld
FUNC 7f1b 56 28 cert_VerifyCertChain
FUNC 7f71 29 20 CERT_VerifyCertChain
FUNC 7f9a 28d 20 CERT_VerifyCACertForUsage
FUNC 8227 e8 10 cert_CheckLeafTrust
FUNC 830f 2c0 28 CERT_VerifyCertificate
FUNC 85cf 1ea 20 CERT_VerifyCert
FUNC 87b9 2c 1c CERT_VerifyCertificateNow
FUNC 87e5 26 14 CERT_VerifyCertNow
FUNC 880b cc 10 CERT_FilterCertListByCANames
FUNC 88d7 ab 10 CERT_GetCertNicknameWithValidity
FUNC 8982 cd c CERT_NicknameStringsFromCertList
FUNC 8a4f 97 10 CERT_GetCertChainFromCert
FUNC 8ae6 11 4 CERT_SetUsePKIXForValidation
FUNC 8af7 6 0 CERT_GetUsePKIXForValidation
FUNC 8afd 151 c cert_ProcessingParamsSetKeyAndCertUsage
FUNC 8c4e 5d9 24 cert_CreatePkixProcessingParams
FUNC 9227 282 c cert_PkixToNssCertsChain
FUNC 94a9 10a 10 cert_BuildAndValidateChain
FUNC 95b3 82 4 cert_PkixErrorToNssCode
FUNC 9635 180 c cert_GetLogFromVerifyNode
FUNC 97b5 35e 18 cert_GetBuildResults
FUNC 9b13 cb 24 cert_VerifyCertChainPkix
FUNC 9bde f1 8 cert_GetTargetCertConstraints
FUNC 9ccf ab 0 cert_GetCertStores
FUNC 9d7a ce c cert_PKIXMakeOIDList
FUNC 9e48 1c 8 cert_pkix_FindOutputParam
FUNC 9e64 61 18 setRevocationMethod
FUNC 9ec5 308 c cert_pkixSetParam
FUNC a1cd 44 4 cert_pkixDestroyValOutParam
FUNC a211 6 0 CERT_GetClassicOCSPEnabledSoftFailurePolicy
FUNC a217 6 0 CERT_GetClassicOCSPEnabledHardFailurePolicy
FUNC a21d 6 0 CERT_GetClassicOCSPDisabledPolicy
FUNC a223 6 0 CERT_GetPKIXVerifyNistRevocationPolicy
FUNC a229 4a 4 CERT_DestroyCERTRevocationFlags
FUNC a273 332 18 CERT_PKIXVerifyCert
FUNC a5a5 82 10 CERT_AllocCERTRevocationFlags
FUNC a627 ed c CERT_EncodeCRLDistributionPoints
FUNC a714 127 8 CERT_DecodeCRLDistributionPoints
FUNC a83b 3 4 pk11_notify
FUNC a83e 1 c __PBE_DestroyContext
FUNC a83f 8 10 null_hash_end
FUNC a847 9 0 md2_NewContext
FUNC a850 9 0 md5_NewContext
FUNC a859 9 0 sha1_NewContext
FUNC a862 c 0 sha224_NewContext
FUNC a86e c 0 sha256_NewContext
FUNC a87a c 0 sha384_NewContext
FUNC a886 c 0 sha512_NewContext
FUNC a892 d 4 HASH_GetHashObject
FUNC a89f 4f 4 HASH_GetHashTypeByOidTag
FUNC a8ee 4a 4 HASH_GetHashOidTagByHMACOidTag
FUNC a938 1c 4 HASH_GetHashObjectByOidTag
FUNC a954 15 4 HASH_ResultLenByOidTag
FUNC a969 21 4 HASH_ResultLen
FUNC a98a 9 4 HASH_ResultLenContext
FUNC a993 43 4 HASH_Create
FUNC a9d6 39 4 HASH_Clone
FUNC aa0f 1a 4 HASH_Destroy
FUNC aa29 e 4 HASH_Begin
FUNC aa37 18 c HASH_Update
FUNC aa4f 1c 10 HASH_End
FUNC aa6b a 4 HASH_GetType
FUNC aa75 4f 10 HASH_HashBuf
FUNC aac4 6 8 NSS_Get_SECKEY_DSAPublicKeyTemplate
FUNC aaca 6 8 NSS_Get_SECKEY_RSAPublicKeyTemplate
FUNC aad0 6 8 NSS_Get_SECKEY_RSAPSSParamsTemplate
FUNC aad6 6 8 NSS_Get_CERT_SubjectPublicKeyInfoTemplate
FUNC aadc 50 c SECKEY_CreateRSAPrivateKey
FUNC ab2c 98 c SECKEY_CreateDHPrivateKey
FUNC abc4 77 c SECKEY_CreateECPrivateKey
FUNC ac3b 3c 4 SECKEY_DestroyPrivateKey
FUNC ac77 47 4 SECKEY_DestroyPublicKey
FUNC acbe 60 c SECKEY_CopySubjectPublicKeyInfo
FUNC ad1e fd 8 seckey_UpdateCertPQGChain
FUNC ae1b 24 4 SECKEY_UpdateCertPQG
FUNC ae3f 73 c SECKEY_DSADecodePQG
FUNC aeb2 89 4 seckey_GetKeyType
FUNC af3b 16 4 CERT_GetCertKeyType
FUNC af51 1c7 4 seckey_ExtractPublicKey
FUNC b118 5 4 SECKEY_ExtractPublicKey
FUNC b11d 35 4 CERT_ExtractPublicKey
FUNC b152 1aa 4 SECKEY_ECParamsToKeySize
FUNC b2fc 230 4 SECKEY_ECParamsToBasePointOrderLen
FUNC b52c 62 4 SECKEY_PublicKeyStrength
FUNC b58e 3e 4 SECKEY_PublicKeyStrengthInBits
FUNC b5cc 44 4 SECKEY_SignatureLen
FUNC b610 ad 4 SECKEY_CopyPrivateKey
FUNC b6bd 14a 4 SECKEY_CopyPublicKey
FUNC b807 bd 4 SECKEY_ConvertToPublicKey
FUNC b8c4 197 4 SECKEY_CreateSubjectPublicKeyInfo
FUNC ba5b 31 4 SECKEY_EncodeDERSubjectPublicKeyInfo
FUNC ba8c 84 4 SECKEY_DecodeDERSubjectPublicKeyInfo
FUNC bb10 7d 8 SECKEY_DestroyPrivateKeyInfo
FUNC bb8d 73 8 SECKEY_DestroyEncryptedPrivateKeyInfo
FUNC bc00 5d c SECKEY_CopyPrivateKeyInfo
FUNC bc5d 46 c SECKEY_CopyEncryptedPrivateKeyInfo
FUNC bca3 f9 8 SECKEY_ImportDERPublicKey
FUNC bd9c 37 0 SECKEY_NewPrivateKeyList
FUNC bdd3 23 4 SECKEY_RemovePrivateKeyListNode
FUNC bdf6 35 8 SECKEY_AddPublicKeyToListTail
FUNC be2b 23 4 SECKEY_RemovePublicKeyListNode
FUNC be4e 3c 4 SECKEY_CacheStaticFlags
FUNC be8a 22 4 SECKEY_DestroyPrivateKeyList
FUNC beac 22 4 SECKEY_DestroyPublicKeyList
FUNC bece 7e 8 SGN_NewContext
FUNC bf4c 32 8 SGN_DestroyContext
FUNC bf7e 46 4 SGN_Begin
FUNC bfc4 2f c SGN_Update
FUNC bff3 175 8 SGN_End
FUNC c168 5c 14 SEC_SignData
FUNC c1c4 6 8 NSS_Get_CERT_SignedDataTemplate
FUNC c1ca ce 18 SEC_DerSignData
FUNC c298 ef 10 SGN_Digest
FUNC c387 c5 8 SEC_GetSignatureAlgorithmOidTag
FUNC c44c ce 1c DecryptSigBlock
FUNC c51a 96 8 decodeECorDSASignature
FUNC c5b0 2bf 14 sec_DecodeSigAlg
FUNC c86f 4c 8 VFY_DestroyContext
FUNC c8bb 57 4 VFY_Begin
FUNC c912 35 c VFY_Update
FUNC c947 12e 8 VFY_EndWithSignature
FUNC ca75 e 4 VFY_End
FUNC ca83 11c 10 vfy_CreateContext
FUNC cb9f 40 10 VFY_CreateContext
FUNC cbdf 21 18 VFY_CreateContextDirect
FUNC cc00 4a 14 VFY_CreateContextWithAlgorithmID
FUNC cc4a a3 c vfy_VerifyDigest
FUNC cced 21 18 VFY_VerifyDigestDirect
FUNC cd0e 44 14 VFY_VerifyDigest
FUNC cd52 66 18 VFY_VerifyDigestWithAlgorithmID
FUNC cdb8 5f 18 vfy_VerifyData
FUNC ce17 27 20 VFY_VerifyDataDirect
FUNC ce3e 41 18 VFY_VerifyData
FUNC ce7f 4d 1c VFY_VerifyDataWithAlgorithmID
FUNC cecc 50 8 DSAU_ConvertUnsignedToSigned
FUNC cf1c 76 8 DSAU_ConvertSignedToFixedUnsigned
FUNC cf92 be 8 common_EncodeDerSig
FUNC d050 bc 4 common_DecodeDerSig
FUNC d10c 26 8 DSAU_EncodeDerSig
FUNC d132 2d c DSAU_EncodeDerSigWithLen
FUNC d15f 10 4 DSAU_DecodeDerSig
FUNC d16f 13 8 DSAU_DecodeDerSigToLen
FUNC d182 32 10 nssSession_ImportNSS3Session
FUNC d1b4 56 c nssSlot_CreateSession
FUNC d20a 2a 4 nssSession_Destroy
FUNC d234 79 4 nssSlot_CreateFromPK11SlotInfo
FUNC d2ad 106 8 nssToken_CreateFromPK11SlotInfo
FUNC d3b3 20 4 nssToken_UpdateName
FUNC d3d3 b 4 nssSlot_IsPermanent
FUNC d3de e 4 nssSlot_IsFriendly
FUNC d3ec 35 4 nssToken_Refresh
FUNC d421 4c 4 nssSlot_Refresh
FUNC d46d 11 4 nssToken_GetTrustOrder
FUNC d47e 1c 4 nssSlot_IsLoggedIn
FUNC d49a 10 4 nssToken_NotifyCertsNotVisible
FUNC d4aa 31 4 pk11_Attr2SecItem
FUNC d4db 152 8 pk11_get_EC_PointLenInBytes
FUNC d62d b9 8 pk11_get_Decoded_ECPoint
FUNC d6e6 39f c PK11_ExtractPublicKey
FUNC da85 f4 14 PK11_MakePrivKey
FUNC db79 e 4 PK11_GetSlotFromPrivateKey
FUNC db87 71 4 PK11_GetPrivateModulusLen
FUNC dbf8 72 8 PK11_MakeKEAPubKey
FUNC dc6a 1cf 28 PK11_ImportEncryptedPrivateKeyInfo
FUNC de39 5 4 PK11_DEREncodePublicKey
FUNC de3e 12 4 PK11_GetPrivateKeyNickname
FUNC de50 17 8 PK11_SetPublicKeyNickname
FUNC de67 b7 4 PK11_GetPQGParamsFromPrivateKey
FUNC df1e 93 8 PK11_ConvertSessionPrivKeyToTokenPrivKey
FUNC dfb1 45 8 PK11_DeleteTokenPrivateKey
FUNC dff6 27 4 PK11_DeleteTokenPublicKey
FUNC e01d 50 c pk11_DoKeys
FUNC e06d 73 c PK11_TraversePrivateKeysInSlot
FUNC e0e0 47 8 pk11_FindPrivateKeyFromCertID
FUNC e127 2a c PK11_FindKeyByKeyID
FUNC e151 c3 4 PK11_MakeIDFromPubKey
FUNC e214 12 4 PK11_GetLowLevelKeyIDForPrivateKey
FUNC e226 17 8 privateKeyListCallback
FUNC e23d 31 4 PK11_ListPrivateKeysInSlot
FUNC e26e cb 8 PK11_ListPublicKeysInSlot
FUNC e339 c3 c PK11_ListPrivKeysInSlot
FUNC e3fc 2e 0 pk11_MakeIDFromPublicKey
FUNC e42a 40a c PK11_ImportPublicKey
FUNC e834 39b 10 pk11_loadPrivKeyWithFlags
FUNC ebcf 31 10 pk11_loadPrivKey
FUNC ec00 1c 14 PK11_LoadPrivKey
FUNC ec1c a91 20 PK11_GenerateKeyPairWithOpFlags
FUNC f6ad 23 18 PK11_GenerateKeyPairWithFlags
FUNC f6d0 36 1c PK11_GenerateKeyPair
FUNC f706 272 18 PK11_ExportEncryptedPrivKeyInfo
FUNC f978 40 18 PK11_ExportEncryptedPrivateKeyInfo
FUNC f9b8 8e 8 PK11_CopyTokenPrivKeyToSessionPrivKey
FUNC fa46 f0 8 pk11_CheckPassword
FUNC fb36 cc 8 PK11_CheckUserPassword
FUNC fc02 42 4 PK11_Logout
FUNC fc44 e 4 PK11_SlotDBUpdate
FUNC fc52 21 c PK11_SetSlotPWValues
FUNC fc73 3e c PK11_GetSlotPWValues
FUNC fcb1 be 8 PK11_CheckSSOPassword
FUNC fd6f 110 c PK11_InitPin
FUNC fe7f b3 c PK11_ChangePW
FUNC ff32 a 4 PK11_SetPasswordFunc
FUNC ff3c 50 0 PK11_LogoutAll
FUNC ff8c 8 4 PK11_GetMinimumPwdLength
FUNC ff94 b 4 PK11_ProtectedAuthenticationPath
FUNC ff9f 30 4 PK11_NeedPWInitForSlot
FUNC ffcf 1e 0 PK11_NeedPWInit
FUNC ffed 24 c pk11_InDelayPeriod
FUNC 10011 145 8 PK11_IsLoggedIn
FUNC 10156 1f 8 pk11_LoginStillRequired
FUNC 10175 11e c PK11_DoPassword
FUNC 10293 83 8 PK11_HandlePasswordCheck
FUNC 10316 1e c PK11_Authenticate
FUNC 10334 2b c pk11_AuthenticateUnfriendly
FUNC 1035f 23 8 convert_cert
FUNC 10382 138 8 pk11_buildNickname
FUNC 104ba 10b c PK11_IsUserCert
FUNC 105c5 64 8 pk11_isID0
FUNC 10629 ee 10 pk11_fastCert
FUNC 10717 163 c PK11_MakeCertFromHandle
FUNC 1087a 38 4 PK11_GetCertFromPrivateKey
FUNC 108b2 16 8 fake_der_cb
FUNC 108c8 4c c PK11_TraverseSlotCerts
FUNC 10914 a4 c transfer_token_certs_to_collection
FUNC 109b8 208 8 PK11_FindCertFromNickname
FUNC 10bc0 80 c FindCertsEmailCallback
FUNC 10c40 7f 8 PK11_FindCertsFromEmailAddress
FUNC 10cbf 233 8 PK11_FindCertsFromNickname
FUNC 10ef2 50 4 PK11_GetPubIndexKeyID
FUNC 10f42 2c 4 pk11_mkcertKeyID
FUNC 10f6e 21b 14 PK11_ImportCert
FUNC 11189 4a 14 PK11_ImportDERCert
FUNC 111d3 60 10 pk11_getcerthandle
FUNC 11233 d5 c PK11_FindPrivateKeyFromCert
FUNC 11308 f9 c PK11_KeyForCertExists
FUNC 11401 38 c PK11_KeyForDERCertExists
FUNC 11439 4f c PK11_ImportCertForKey
FUNC 11488 40 c PK11_ImportDERCertForKey
FUNC 114c8 86 c pk11_FindCertObjectByTemplate
FUNC 1154e 165 c PK11_FindCertByIssuerAndSNOnToken
FUNC 116b3 e3 10 pk11_AllFindCertObjectByRecipient
FUNC 11796 150 c PK11_FindCertByIssuerAndSN
FUNC 118e6 a8 c PK11_FindObjectForCert
FUNC 1198e a3 8 PK11_FindKeyByAnyCert
FUNC 11a31 37 c pk11_FindPubKeyByAnyCert
FUNC 11a68 115 10 PK11_TraverseCertsForSubjectInSlot
FUNC 11b7d 155 10 PK11_TraverseCertsForNicknameInSlot
FUNC 11cd2 fb c PK11_TraverseCertsInSlot
FUNC 11dcd 6b c PK11_FindCertFromDERCertItem
FUNC 11e38 84 8 pk11_findKeyObjectByDERCert
FUNC 11ebc 3a c PK11_FindKeyByDERCert
FUNC 11ef6 43 14 PK11_ImportCertForKeyToSlot
FUNC 11f39 3e 4 PK11_FortezzaHasKEA
FUNC 11f77 27 0 pk11_GetKEAMate
FUNC 11f9e 66 8 PK11_FindBestKEAMatch
FUNC 12004 60 c PK11_FindCertInSlot
FUNC 12064 18e 8 pk11ListCertCallback
FUNC 121f2 44 8 PK11_ListCerts
FUNC 12236 ac c PK11_GetLowLevelKeyIDForCert
FUNC 122e2 ad 8 listCertsCallback
FUNC 1238f 3e 4 PK11_ListCertsInSlot
FUNC 123cd a7 8 PK11_GetAllSlotsForCert
FUNC 12474 66 8 PK11_DeleteTokenCertAndKey
FUNC 124da 131 4 pk11_keyIDHash_populate
FUNC 1260b 20b 10 pk11_FindCertObjectByRecipientNew
FUNC 12816 68 c pk11_AllFindCertObjectByRecipientNew
FUNC 1287e 5f 14 PK11_FindCertAndKeyByRecipientList
FUNC 128dd 84 8 PK11_FindCertAndKeyByRecipientListNew
FUNC 12961 19 c PK11_FindCertFromDERCert
FUNC 1297a 28 4 PK11_EnterContextMonitor
FUNC 129a2 28 4 PK11_ExitContextMonitor
FUNC 129ca 72 8 PK11_DestroyContext
FUNC 12a3c 77 0 pk11_saveContextHelper
FUNC 12ab3 16 c pk11_saveContext
FUNC 12ac9 57 c pk11_restoreContext
FUNC 12b20 82 10 PK11_SaveContext
FUNC 12ba2 77 10 PK11_SaveContextAlloc
FUNC 12c19 157 4 pk11_Finalize
FUNC 12d70 10d 10 PK11_DigestFinal
FUNC 12e7d 108 0 pk11_context_init
FUNC 12f85 13f 10 pk11_CreateNewContextInSlot
FUNC 130c4 4a 10 PK11_CreateContextBySymKey
FUNC 1310e 61 4 PK11_CreateDigestContext
FUNC 1316f e8 4 PK11_CloneContext
FUNC 13257 6b c PK11_RestoreContext
FUNC 132c2 5b 4 PK11_DigestBegin
FUNC 1331d 1ec 18 PK11_CipherOp
FUNC 13509 f2 c PK11_DigestOp
FUNC 135fb 123 8 PK11_DigestKey
FUNC 1371e 22 4 PK11_Finalize
FUNC 13740 7c 1c __PK11_CreateContextByRawKey
FUNC 137bc 8e 10 PK11_HashBuf
FUNC 1384a 24a 4 PK11_MapError
FUNC 13a94 42 4 pk11_FindRSAPubKey
FUNC 13ad6 1c3 18 pk11_KeyExchange
FUNC 13c99 f 0 SECMOD_NewListLock
FUNC 13ca8 5 4 NSSRWLock_Destroy
FUNC 13cad 5 4 SECMOD_GetWriteLock
FUNC 13cb2 10 8 SECMOD_RemoveList
FUNC 13cc2 2b c SECMOD_AddList
FUNC 13ced 67c 8 get_attr_type_str
FUNC 14369 a6 8 get_obj_class
FUNC 1440f 72 8 get_trust_val
FUNC 14481 5d4 0 log_rv
FUNC 14a55 67 4 log_state
FUNC 14abc 6c 8 log_handle
FUNC 14b28 d08 0 print_mechanism
FUNC 15830 12d 8 get_key_type
FUNC 1595d 36f 0 print_attr_value
FUNC 15ccc 18 0 print_template
FUNC 15ce4 1c 4 nssdbg_finish_time
FUNC 15d00 1c 4 nssdbg_start_time
FUNC 15d1c 66 4 NSSDBGC_Initialize
FUNC 15d82 68 4 NSSDBGC_Finalize
FUNC 15dea e0 4 NSSDBGC_GetInfo
FUNC 15eca 68 4 NSSDBGC_GetFunctionList
FUNC 15f32 e7 c NSSDBGC_GetSlotList
FUNC 16019 140 8 NSSDBGC_GetSlotInfo
FUNC 16159 1c1 8 NSSDBGC_GetTokenInfo
FUNC 1631a b5 c NSSDBGC_GetMechanismList
FUNC 163cf 9c c NSSDBGC_GetMechanismInfo
FUNC 1646b b6 10 NSSDBGC_InitToken
FUNC 16521 97 c NSSDBGC_InitPIN
FUNC 165b8 c9 14 NSSDBGC_SetPIN
FUNC 16681 fe 14 NSSDBGC_OpenSession
FUNC 1677f 6b 4 NSSDBGC_CloseSession
FUNC 167ea 68 4 NSSDBGC_CloseAllSessions
FUNC 16852 f0 8 NSSDBGC_GetSessionInfo
FUNC 16942 ae c NSSDBGC_GetOperationState
FUNC 169f0 b7 14 NSSDBGC_SetOperationState
FUNC 16aa7 b0 10 NSSDBGC_Login
FUNC 16b57 5f 4 NSSDBGC_Logout
FUNC 16bb6 c9 10 NSSDBGC_CreateObject
FUNC 16c7f da 14 NSSDBGC_CopyObject
FUNC 16d59 6f 8 NSSDBGC_DestroyObject
FUNC 16dc8 a6 c NSSDBGC_GetObjectSize
FUNC 16e6e b3 10 NSSDBGC_GetAttributeValue
FUNC 16f21 b3 10 NSSDBGC_SetAttributeValue
FUNC 16fd4 a2 c NSSDBGC_FindObjectsInit
FUNC 17076 101 10 NSSDBGC_FindObjects
FUNC 17177 5f 4 NSSDBGC_FindObjectsFinal
FUNC 171d6 96 c NSSDBGC_EncryptInit
FUNC 1726c e0 14 NSSDBGC_Encrypt
FUNC 1734c e0 14 NSSDBGC_EncryptUpdate
FUNC 1742c b1 c NSSDBGC_EncryptFinal
FUNC 174dd 99 c NSSDBGC_DecryptInit
FUNC 17576 e3 14 NSSDBGC_Decrypt
FUNC 17659 e3 14 NSSDBGC_DecryptUpdate
FUNC 1773c b1 c NSSDBGC_DecryptFinal
FUNC 177ed 89 8 NSSDBGC_DigestInit
FUNC 17876 e3 14 NSSDBGC_Digest
FUNC 17959 9a c NSSDBGC_DigestUpdate
FUNC 179f3 65 8 NSSDBGC_DigestKey
FUNC 17a58 b1 c NSSDBGC_DigestFinal
FUNC 17b09 99 c NSSDBGC_SignInit
FUNC 17ba2 e3 14 NSSDBGC_Sign
FUNC 17c85 9a c NSSDBGC_SignUpdate
FUNC 17d1f b1 c NSSDBGC_SignFinal
FUNC 17dd0 99 c NSSDBGC_SignRecoverInit
FUNC 17e69 e3 14 NSSDBGC_SignRecover
FUNC 17f4c 99 c NSSDBGC_VerifyInit
FUNC 17fe8 cc 14 NSSDBGC_Verify
FUNC 180b4 9a c NSSDBGC_VerifyUpdate
FUNC 1814e 9a c NSSDBGC_VerifyFinal
FUNC 181e8 99 c NSSDBGC_VerifyRecoverInit
FUNC 18281 e3 14 NSSDBGC_VerifyRecover
FUNC 18364 e3 14 NSSDBGC_DigestEncryptUpdate
FUNC 18447 e3 14 NSSDBGC_DecryptDigestUpdate
FUNC 1852a e3 14 NSSDBGC_SignEncryptUpdate
FUNC 1860d e3 14 NSSDBGC_DecryptVerifyUpdate
FUNC 186f0 ed 14 NSSDBGC_GenerateKey
FUNC 187dd 152 20 NSSDBGC_GenerateKeyPair
FUNC 1892f f5 18 NSSDBGC_WrapKey
FUNC 18a24 131 20 NSSDBGC_UnwrapKey
FUNC 18b55 ff 18 NSSDBGC_DeriveKey
FUNC 18c54 9a c NSSDBGC_SeedRandom
FUNC 18cee 9a c NSSDBGC_GenerateRandom
FUNC 18d88 62 4 NSSDBGC_GetFunctionStatus
FUNC 18dea 62 4 NSSDBGC_CancelFunction
FUNC 18e4c 9f c NSSDBGC_WaitForSlotEvent
FUNC 18eeb 2c8 4 nss_InsertDeviceLog
FUNC 191b3 5f 0 getPrintTime
FUNC 19212 1d8 0 print_final_statistics
FUNC 193ea 16 4 secmodCreateMutext
FUNC 19400 e 4 secmodDestroyMutext
FUNC 1940e e 4 secmodLockMutext
FUNC 1941c e 4 secmodUnlockMutext
FUNC 1942a 30 c pk11_setGlobalOptions
FUNC 1945a 6 0 pk11_getFinalizeModulesOption
FUNC 19460 14a 0 secmod_handleReload
FUNC 195aa 12e c secmod_ModuleInit
FUNC 196d8 8a 8 SECMOD_SetRootCerts
FUNC 19762 29 0 softoken_LoadDSO
FUNC 1978b 34e 8 secmod_LoadPKCS11Module
FUNC 19ad9 a5 4 SECMOD_UnloadModule
FUNC 19b7e f 0 nss_DumpModuleLog
FUNC 19b8d 36 4 pk11_lookup
FUNC 19bc3 38 4 PK11_GetBestWrapMechanism
FUNC 19bfb e5 4 PK11_GetKeyMechanism
FUNC 19ce0 379 8 PK11_GetKeyType
FUNC 1a059 3b0 8 PK11_GetKeyGenWithSize
FUNC 1a409 222 8 PK11_GetBlockSize
FUNC 1a62b 210 4 PK11_GetIVLength
FUNC 1a83b 356 c pk11_ParamFromIVWithLen
FUNC 1ab91 13 8 PK11_ParamFromIV
FUNC 1aba4 d3 c PK11_IVFromParam
FUNC 1ac77 22 4 rc2_map
FUNC 1ac99 4b 4 pk11_GenIV
FUNC 1ace4 2ed 8 pk11_GenerateNewParamWithKeyLen
FUNC 1afd1 1f 8 PK11_GenerateNewParam
FUNC 1aff0 16 4 PK11_AlgtagToMechanism
FUNC 1b006 15 4 PK11_MechanismToAlgtag
FUNC 1b01b a4 4 PK11_GetPadMechanism
FUNC 1b0bf 1ad 10 PK11_MapPBEMechanismToCryptoMechanism
FUNC 1b26c 27 4 PK11_MapSignKeyType
FUNC 1b293 f 4 pk11_mapWrapKeyType
FUNC 1b2a2 17 4 PK11_FortezzaMapSig
FUNC 1b2b9 e 4 PK11_GetKeyGen
FUNC 1b2c7 4d9 4 PK11_ParamFromAlgid
FUNC 1b7a0 388 10 PK11_ParamToAlgid
FUNC 1bb28 59 c pk11_setAttributes
FUNC 1bb81 53 18 pk11_copyAttributes
FUNC 1bbd4 51 14 pk11_matchAcrossTokens
FUNC 1bc25 aa 14 pk11_encrypt
FUNC 1bccf 7e 8 pk11_getPrivateKeyUsage
FUNC 1bd4d 212 c pk11_mergePrivateKey
FUNC 1bf5f 4f 4 pk11_incrementID
FUNC 1bfae e7 0 pk11_getSecretKeyFlags
FUNC 1c095 2bc 14 pk11_mergeSecretKey
FUNC 1c351 ea 10 pk11_mergePublicKey
FUNC 1c43b d0 0 pk11_IncrementNickname
FUNC 1c50b 21b 14 pk11_mergeCert
FUNC 1c726 10a 14 pk11_mergeCrl
FUNC 1c830 10a 14 pk11_mergeSmime
FUNC 1c93a 59 8 pk11_mergeTrustEntry
FUNC 1c993 2df 10 pk11_mergeTrust
FUNC 1cc72 ad 8 pk11_mergeObject
FUNC 1cd1f 44 10 pk11_newMergeLogNode
FUNC 1cd63 a2 18 pk11_mergeByObjectIDs
FUNC 1ce05 11a 14 PK11_MergeTokens
FUNC 1cf1f 3b 0 PK11_CreateMergeLog
FUNC 1cf5a 1a 4 PK11_DestroyMergeLog
FUNC 1cf74 47 10 pk11_GetTrustField
FUNC 1cfbb 149 c pk11_HandleTrustObject
FUNC 1d104 136 c pk11_CollectCrls
FUNC 1d23a 82 c PK11_LookupCrls
FUNC 1d2bc 1bd c pk11_RetrieveCrlsCallback
FUNC 1d479 81 c pk11_RetrieveCrls
FUNC 1d4fa 1bc 14 PK11_FindCrlByName
FUNC 1d6b6 6e 14 PK11_PutCrl
FUNC 1d724 73 4 SEC_DeletePermCRL
FUNC 1d797 1e2 10 PK11_FindSMimeProfile
FUNC 1d979 13c 14 PK11_SaveSMimeProfile
FUNC 1dab5 eb 20 PK11_ImportCRL
FUNC 1dba0 68 8 PK11_BlockData
FUNC 1dc08 2c 8 PK11_DestroyObject
FUNC 1dc34 55 8 PK11_DestroyTokenObject
FUNC 1dc89 d0 14 PK11_ReadAttribute
FUNC 1dd59 5d c PK11_ReadULongAttribute
FUNC 1ddb6 5f c PK11_HasAttributeSet
FUNC 1de15 14a 14 PK11_GetAttributes
FUNC 1df5f 16 8 PK11_IsPermObject
FUNC 1df75 57 8 PK11_GetObjectNickname
FUNC 1dfcc 82 c PK11_SetObjectNickname
FUNC 1e04e 1f 4 pk11_SignedToUnsigned
FUNC 1e06d 56 8 pk11_GetNewSession
FUNC 1e0c3 32 c pk11_CloseSession
FUNC 1e0f5 8e 18 PK11_CreateNewObject
FUNC 1e183 55 c pk11_OpFlagsToAttributes
FUNC 1e1d8 16 4 pk11_BadAttrFlags
FUNC 1e1ee 62 10 pk11_AttrFlagsToAttributes
FUNC 1e250 13b 0 pk11_backupGetSignLength
FUNC 1e38b b6 4 PK11_SignatureLen
FUNC 1e441 49 8 PK11_CopyKey
FUNC 1e48a 23 c pk11_FindAttrInTemplate
FUNC 1e4ad 172 10 PK11_VerifyRecover
FUNC 1e61f 159 10 PK11_Verify
FUNC 1e778 133 c PK11_Sign
FUNC 1e8ab 123 14 pk11_PrivDecryptRaw
FUNC 1e9ce 35 18 PK11_PubDecryptRaw
FUNC 1ea03 35 18 PK11_PrivDecryptPKCS1
FUNC 1ea38 140 10 pk11_PubEncryptRaw
FUNC 1eb78 31 14 PK11_PubEncryptRaw
FUNC 1eba9 31 14 PK11_PubEncryptPKCS1
FUNC 1ebda 32d 34 PK11_UnwrapPrivKey
FUNC 1ef07 14c 1c PK11_WrapPrivKey
FUNC 1f053 25 4 PK11_UnlinkGenericObject
FUNC 1f078 29 4 PK11_DestroyGenericObject
FUNC 1f0a1 32 4 PK11_DestroyGenericObjects
FUNC 1f0d3 6f 10 PK11_CreateGenericObject
FUNC 1f142 a5 10 PK11_WriteRawAttribute
FUNC 1f1e7 51 10 PK11_ReadRawAttribute
FUNC 1f238 97 c pk11_FindObjectByTemplate
FUNC 1f2cf 100 10 pk11_FindObjectsByTemplate
FUNC 1f3cf c5 c PK11_MatchItem
FUNC 1f494 5b 8 PK11_TraverseSlot
FUNC 1f4ef 62 10 pk11_TraverseAllSlots
FUNC 1f551 76 8 pk11_GetLowLevelKeyFromHandle
FUNC 1f5c7 28 8 PK11_LinkGenericObject
FUNC 1f5ef b4 8 PK11_FindGenericObjects
FUNC 1f6a3 3b 0 secmod_argGetPair
FUNC 1f6de 1f 0 secmod_argIsQuote
FUNC 1f6fd 1f 0 secmod_argStrip
FUNC 1f71c 57 0 secmod_argFindEnd
FUNC 1f773 7e 8 secmod_argFetchValue
FUNC 1f7f1 35 0 secmod_argSkipParameter
FUNC 1f826 126 c secmod_argParseModuleSpec
FUNC 1f94c b4 0 secmod_argGetParamValue
FUNC 1fa00 70 c secmod_argHasFlag
FUNC 1fa70 61 0 secmod_argSetNewCipherFlags
FUNC 1fad1 92 0 secmod_argDecodeNumber
FUNC 1fb63 39 4 secmod_argReadLong
FUNC 1fb9c a6 0 secmod_argSlotFlags
FUNC 1fc42 ae 0 secmod_argDecodeSingleSlotInfo
FUNC 1fcf0 67 4 secmod_argGetName
FUNC 1fd57 114 8 secmod_argParseSlotInfo
FUNC 1fe6b 69 8 secmod_formatValue
FUNC 1fed4 f1 8 secmod_formatPair
FUNC 1ffc5 15 0 secmod_freePair
FUNC 1ffda c6 14 secmod_mkNSSFlags
FUNC 200a0 bd 8 secmod_mkCipherFlags
FUNC 2015d 7c 4 secmod_mkSlotFlags
FUNC 201d9 116 14 secmod_mkSlotString
FUNC 202ef 1a4 28 secmod_mkNSS
FUNC 20493 85 c secmod_mkNewModuleSpec
FUNC 20518 95 0 secmod_NewModule
FUNC 205ad 1a3 10 SECMOD_CreateModule
FUNC 20750 e 4 SECMOD_GetSkipFirstFlag
FUNC 2075e f 4 SECMOD_GetDefaultModDBFlag
FUNC 2076d e 4 secmod_IsInternalKeySlot
FUNC 2077b 1b 8 secmod_SetInternalKeySlotFlag
FUNC 20796 ee 8 secmod_getConfigDir
FUNC 20884 75 0 secmod_configIsDBM
FUNC 208f9 28 0 secmod_matchPrefix
FUNC 20921 a8 c secmod_MatchConfigList
FUNC 209c9 3d 8 secmod_FreeConfigList
FUNC 20a06 3a 8 secmod_FreeChildren
FUNC 20a40 24 4 secmod_escapeSize
FUNC 20a64 40 4 secmod_addEscape
FUNC 20aa4 43 c secmod_DoubleEscape
FUNC 20ae7 40 4 secmod_getChildLength
FUNC 20b27 8d 4 secmod_mkTokenChild
FUNC 20bb4 155 0 secmod_mkModuleSpec
FUNC 20d09 1b 4 SECMOD_GetModuleSpecList
FUNC 20d24 46 4 SECMOD_AddPermDB
FUNC 20d6a 46 4 SECMOD_DeletePermDB
FUNC 20db0 24 8 SECMOD_FreeModuleSpecList
FUNC 20dd4 1eb c SECMOD_LoadModule
FUNC 20fbf 50 c SECMOD_LoadUserModule
FUNC 2100f 50 4 SECMOD_UnloadUserModule
FUNC 2105f 8b 10 secmod_doDescCopy
FUNC 210ea 412 14 secmod_ParseModuleSpecForTokens
FUNC 214fc c4 c secmod_GetConfigList
FUNC 215c0 1d4 18 secmod_MkAppendTokensList
FUNC 21794 6e 4 sec_pkcs5GetCryptoFromAlgTag
FUNC 21802 66 8 sec_pkcs5_v2_get_v2_param
FUNC 21868 19 4 sec_pkcs5_v2_destroy_v2_param
FUNC 21881 57 4 SEC_PKCS5GetCryptoAlgorithm
FUNC 218d8 11 4 SEC_PKCS5IsAlgorithmPBEAlg
FUNC 218e9 13 4 SEC_PKCS5IsAlgorithmPBEAlgTag
FUNC 218fc 31 0 sec_pkcs5v2_get_pbe
FUNC 2192d 94 8 SEC_PKCS5GetPBEAlgorithm
FUNC 219c1 7d 4 sec_pkcs5v2_key_length
FUNC 21a3e c0 4 SEC_PKCS5GetKeyLength
FUNC 21afe 1b 4 sec_pkcs5_is_algorithm_v2_pkcs12_algorithm
FUNC 21b19 1b 4 sec_pkcs5_is_algorithm_v2_pkcs5_algorithm
FUNC 21b34 dc 10 sec_pkcs5_create_pbe_parameter
FUNC 21c10 259 1c sec_pkcs5CreateAlgorithmID
FUNC 21e69 1d6 8 pbe_PK11AlgidToParam
FUNC 2203f 65 10 PBE_PK11ParamToAlgid
FUNC 220a4 5 4 SECMOD_PubCipherFlagstoInternal
FUNC 220a9 e 4 PBE_DestroyContext
FUNC 220b7 33 0 pk11_destroy_ck_pbe_params
FUNC 220ea 98 c PK11_CreatePBEParams
FUNC 22182 23 4 PK11_DestroyPBEParams
FUNC 221a5 1b c PK11_CreatePBEAlgorithmID
FUNC 221c0 21 18 PK11_CreatePBEV2AlgorithmID
FUNC 221e1 8d 1c pk11_RawPBEKeyGenWithKeyType
FUNC 2226e 36 18 PK11_RawPBEKeyGen
FUNC 222a4 ef 14 PK11_PBEKeyGen
FUNC 22393 14f 18 PBE_CreateContext
FUNC 224e2 115 c SEC_PKCS5GetIV
FUNC 225f7 13 8 PK11_GetPBEIV
FUNC 2260a 82 10 pk11_GetPBECryptoMechanism
FUNC 2268c 17 c PK11_GetPBECryptoMechanism
FUNC 226a3 6 8 NSS_Get_SECKEY_EncryptedPrivateKeyInfoTemplate
FUNC 226a9 6 8 NSS_Get_SECKEY_PointerToEncryptedPrivateKeyInfoTemplate
FUNC 226af 6 8 NSS_Get_SECKEY_PrivateKeyInfoTemplate
FUNC 226b5 6 8 NSS_Get_SECKEY_PointerToPrivateKeyInfoTemplate
FUNC 226bb 4d0 24 PK11_ImportAndReturnPrivateKey
FUNC 22b8b 148 24 PK11_ImportPrivateKeyInfoAndReturnKey
FUNC 22cd3 27 20 PK11_ImportPrivateKeyInfo
FUNC 22cfa 84 24 PK11_ImportDERPrivateKeyInfoAndReturnKey
FUNC 22d7e 27 20 PK11_ImportDERPrivateKeyInfo
FUNC 22da5 28f 10 PK11_PQG_ParamGenSeedLen
FUNC 23034 17 c PK11_PQG_ParamGen
FUNC 2304b 16d c PK11_PQG_VerifyParams
FUNC 231b8 45 4 PK11_PQG_DestroyParams
FUNC 231fd 3a 4 PK11_PQG_DestroyVerify
FUNC 23237 77 c PK11_PQG_NewParams
FUNC 232ae 17 8 PK11_PQG_GetPrimeFromParams
FUNC 232c5 17 8 PK11_PQG_GetSubPrimeFromParams
FUNC 232dc 17 8 PK11_PQG_GetBaseFromParams
FUNC 232f3 69 c PK11_PQG_NewVerify
FUNC 2335c 17 8 PK11_PQG_GetSeedFromVerify
FUNC 23373 17 8 PK11_PQG_GetHFromVerify
FUNC 2338a 55 0 padBlock
FUNC 233df 8a 4 unpadBlock
FUNC 23469 c 0 pk11sdr_Init
FUNC 23475 19 0 pk11sdr_Shutdown
FUNC 2348e 209 10 PK11SDR_Encrypt
FUNC 23697 94 18 pk11Decrypt
FUNC 2372b 1ed c PK11SDR_Decrypt
FUNC 23918 19 0 pk11_EnterKeyMonitor
FUNC 23931 19 0 pk11_ExitKeyMonitor
FUNC 2394a 55 4 PK11_CleanKeyList
FUNC 2399f fc 4 PK11_FreeSymKey
FUNC 23a9b f 4 PK11_ReferenceSymKey
FUNC 23aaa 7 4 PK11_GetMechanism
FUNC 23ab1 11 4 PK11_GetSymKeyType
FUNC 23ac2 f 4 PK11_GetNextSymKey
FUNC 23ad1 12 4 PK11_GetSymKeyNickname
FUNC 23ae3 17 8 PK11_SetSymKeyNickname
FUNC 23afa 27 c PK11_SetSymKeyUserData
FUNC 23b21 29 c PK11_SetWrapKey
FUNC 23b4a 2c 4 PK11_VerifyKeyOK
FUNC 23b76 52 4 PK11_ExtractKeyValue
FUNC 23bc8 30 4 PK11_DeleteTokenSymKey
FUNC 23bf8 8 4 PK11_GetKeyData
FUNC 23c00 30 4 pk11_GetPredefinedKeyLength
FUNC 23c30 77 4 PK11_GetKeyLength
FUNC 23ca7 b6 8 PK11_GetKeyStrength
FUNC 23d5d 162 c pk11_HandWrap
FUNC 23ebf c 4 PK11_SetFortezzaHack
FUNC 23ecb 6e c PK11_GenerateFortezzaIV
FUNC 23f39 bd 4 pk11_getKeyFromList
FUNC 23ff6 85 10 pk11_CreateSymKey
FUNC 2407b 7b 1c PK11_SymKeyFromHandle
FUNC 240f6 3e 14 PK11_GetWrapKey
FUNC 24134 95 18 pk11_ImportSymKeyWithTempl
FUNC 241c9 79 18 PK11_ImportSymKey
FUNC 24242 fb 20 PK11_ImportSymKeyWithFlags
FUNC 2433d 85 10 PK11_FindFixedKey
FUNC 243c2 10e c PK11_ListFixedKeysInSlot
FUNC 244d0 58 18 pk11_CopyToSlotPerm
FUNC 24528 1d 10 pk11_CopyToSlot
FUNC 24545 62 c pk11_ForceSlot
FUNC 245a7 1c1 1c PK11_KeyGenWithTemplate
FUNC 24768 98 8 PK11_ConvertSessionSymKeyToTokenSymKey
FUNC 24800 140 10 PK11_PubWrapSymKey
FUNC 24940 200 14 PK11_WrapSymKey
FUNC 24b40 28c 24 PK11_DeriveWithTemplate
FUNC 24dcc 384 28 PK11_PubDerive
FUNC 25150 22e 24 pk11_PubDeriveECKeyWithKDF
FUNC 2537e 64 30 PK11_PubDeriveWithKDF
FUNC 253e2 202 24 pk11_HandUnwrap
FUNC 255e4 369 2c pk11_AnyUnwrapKey
FUNC 2594d 32 1c PK11_UnwrapSymKey
FUNC 2597f 54 20 PK11_UnwrapSymKeyWithFlags
FUNC 259d3 7e 24 PK11_UnwrapSymKeyWithFlagsPerm
FUNC 25a51 6e 14 PK11_PubUnwrapSymKey
FUNC 25abf 97 18 PK11_PubUnwrapSymKeyWithFlags
FUNC 25b56 c7 1c PK11_PubUnwrapSymKeyWithFlagsPerm
FUNC 25c1d 75 8 PK11_CopySymKeyForSigning
FUNC 25c92 44 14 PK11_MoveSymKey
FUNC 25cd6 123 24 pk11_TokenKeyGenWithFlagsAndKeyType
FUNC 25df9 27 20 PK11_TokenKeyGenWithFlags
FUNC 25e20 67 1c PK11_TokenKeyGen
FUNC 25e87 20 14 PK11_KeyGen
FUNC 25ea7 20 c PK11_GenDES3TokenKey
FUNC 25ec7 24 18 PK11_Derive
FUNC 25eeb 46 1c PK11_DeriveWithFlags
FUNC 25f31 70 20 PK11_DeriveWithFlagsPerm
FUNC 25fa1 14 4 PK11_GetDefaultArray
FUNC 25fb5 34 0 PK11_NewSlotList
FUNC 25fe9 35 8 PK11_MoveListToList
FUNC 2601e 28 4 PK11_GetFirstSafe
FUNC 26046 125 4 PK11_NewSlotInfo
FUNC 2616b f 4 PK11_ReferenceSlot
FUNC 2617a 70 4 PK11_DestroySlot
FUNC 261ea 18 4 PK11_FreeSlot
FUNC 26202 f 4 PK11_EnterSlotMonitor
FUNC 26211 f 4 PK11_ExitSlotMonitor
FUNC 26220 85 4 PK11_GetRWSession
FUNC 262a5 1c 8 PK11_RWSessionHasLock
FUNC 262c1 3f 8 PK11_RestoreROSession
FUNC 26300 113 0 PK11_InitSlotLists
FUNC 26413 1a7 4 PK11_GetSlotList
FUNC 265ba 5e 10 PK11_MakeString
FUNC 26618 12c 4 PK11_ReadMechanismList
FUNC 26744 a8 4 PK11_TokenRefresh
FUNC 267ec 8 4 PK11_IsDisabled
FUNC 267f4 8 4 PK11_GetDisabledReason
FUNC 267fc 15 4 PK11_UserDisableSlot
FUNC 26811 17 4 PK11_UserEnableSlot
FUNC 26828 b 4 PK11_HasRootCerts
FUNC 26833 8 4 PK11_GetNextGenericObject
FUNC 2683b 8 4 PK11_GetDefaultFlags
FUNC 26843 8 4 PK11_IsHW
FUNC 2684b d 4 PK11_IsRemovable
FUNC 26858 8 4 PK11_IsInternal
FUNC 26860 8 4 nssToken_GetDefaultSession
FUNC 26868 1a 4 PK11_IsFriendly
FUNC 26882 a 4 PK11_GetTokenName
FUNC 2688c a 4 PK11_GetSlotName
FUNC 26896 c 4 PK11_GetSlotSeries
FUNC 268a2 c 4 PK11_GetCurrentWrapIndex
FUNC 268ae 8 4 PK11_GetSlotID
FUNC 268b6 b 4 PK11_GetModuleID
FUNC 268c1 23 0 pk11_zeroTerminatedToBlankPadded
FUNC 268e4 82 8 PK11_GetSlotInfo
FUNC 26966 b9 8 PK11_GetTokenInfo
FUNC 26a1f 54 4 PK11_NeedUserInit
FUNC 26a73 30 4 pk11_SetInternalKeySlot
FUNC 26aa3 29 4 pk11_SetInternalKeySlotIfFirst
FUNC 26acc 28 4 pk11_SwapInternalKeySlot
FUNC 26af4 3b 0 PK11_GetInternalKeySlot
FUNC 26b2f 32 0 PK11_GetInternalSlot
FUNC 26b61 6d 8 PK11_DoesMechanism
FUNC 26bce 52 8 PK11_GetBestKeyLength
FUNC 26c20 46 c PK11_SeedRandom
FUNC 26c66 54 c PK11_GenerateRandomOnSlot
FUNC 26cba f 8 PK11Slot_SetNSSToken
FUNC 26cc9 b 4 PK11Slot_GetNSSToken
FUNC 26cd4 62 8 PK11_FreeSlotListElement
FUNC 26d36 34 0 pk11_FreeSlotListStatic
FUNC 26d6a 13 4 PK11_FreeSlotList
FUNC 26d7d 60 8 PK11_AddSlotToList
FUNC 26ddd 58 8 PK11_DeleteSlotFromList
FUNC 26e35 4e c PK11_GetNextSafe
FUNC 26e83 29 8 PK11_FindSlotElement
FUNC 26eac cb 0 PK11_DestroySlotLists
FUNC 26f77 95 c PK11_LoadSlotList
FUNC 2700c 56 c PK11_UpdateSlotAttribute
FUNC 27062 60 4 PK11_ClearSlotList
FUNC 270c2 35f 8 PK11_InitToken
FUNC 27421 138 c PK11_InitSlot
FUNC 27559 f8 4 pk11_IsPresentCertLoad
FUNC 27651 f 4 PK11_IsPresent
FUNC 27660 28 4 PK11_IsInternalKeySlot
FUNC 27688 c1 4 PK11_TokenExists
FUNC 27749 154 10 PK11_GetAllTokens
FUNC 2789d 16b c PK11_GetBestSlotMultiple
FUNC 27a08 14 8 PK11_GetBestSlot
FUNC 27a1c e3 4 PK11_GetMaxKeyLength
FUNC 27aff 6d 8 PK11_RandomUpdate
FUNC 27b6c 39 8 PK11_GenerateRandom
FUNC 27ba5 dc 8 PK11_ResetToken
FUNC 27c81 bc 14 PK11_WaitForTokenEvent
FUNC 27d3d 84 0 SECMOD_HasRootCerts
FUNC 27dc1 1a9 10 PK11_FindSlotsByNames
FUNC 27f6a ca 4 PK11_FindSlotByName
FUNC 28034 19 0 SECMOD_Init
FUNC 2804d 6 0 SECMOD_GetInternalModule
FUNC 28053 6 0 SECMOD_GetDefaultModuleList
FUNC 28059 6 0 SECMOD_GetDeadModuleList
FUNC 2805f 6 0 SECMOD_GetDBModuleList
FUNC 28065 6 0 SECMOD_GetDefaultModuleListLock
FUNC 2806b 73 8 SECMOD_FindSlotByID
FUNC 280de 98 8 SECMOD_FindSlot
FUNC 28176 34 8 PK11_GetModInfo
FUNC 281aa 16 0 PK11_IsFIPS
FUNC 281c0 14 4 SECMOD_UpdateModule
FUNC 281d4 16 4 SECMOD_PubMechFlagstoInternal
FUNC 281ea 4d 4 SECMOD_IsModulePresent
FUNC 28237 14 0 SECMOD_NewModuleListElement
FUNC 2824b 20 4 SECMOD_ReferenceModule
FUNC 2826b 6f 8 SECMOD_SlotDestroyModule
FUNC 282da c 0 SECMOD_CanDeleteInternalModule
FUNC 282e6 1ed 4 SECMOD_UpdateSlotList
FUNC 284d3 16a c secmod_HandleWaitForSlotEvent
FUNC 2863d 113 c SECMOD_WaitForAnyTokenEvent
FUNC 28750 7d 4 SECMOD_CancelWait
FUNC 287cd 57 4 SECMOD_HasRemovableSlots
FUNC 28824 74 4 secmod_UserDBOp
FUNC 28898 45 4 SECMOD_CloseUserDB
FUNC 288dd 14b 4 SECMOD_RestartModules
FUNC 28a28 60 8 secmod_AddModuleToList
FUNC 28a88 2f 4 SECMOD_AddModuleToList
FUNC 28ab7 11 4 SECMOD_AddModuleToUnloadList
FUNC 28ac8 96 4 SECMOD_FindModule
FUNC 28b5e 65 4 SECMOD_FindModuleByID
FUNC 28bc3 56 4 secmod_FindModuleByFuncPtr
FUNC 28c19 82 4 SECMOD_DestroyModule
FUNC 28c9b 26 4 SECMOD_DestroyModuleListElement
FUNC 28cc1 12 4 SECMOD_DestroyModuleList
FUNC 28cd3 ac 0 SECMOD_Shutdown
FUNC 28d7f 51 4 SECMOD_AddModuleToDBOnlyList
FUNC 28dd0 2e 8 SECMOD_LookupSlot
FUNC 28dfe 12f 10 SECMOD_DeleteModuleEx
FUNC 28f2d 15 8 SECMOD_DeleteModule
FUNC 28f42 57 4 SECMOD_AddModule
FUNC 28f99 115 18 SECMOD_AddNewModuleEx
FUNC 290ae 1d 10 SECMOD_AddNewModule
FUNC 290cb 6c 0 secmod_FindFreeSlot
FUNC 29137 c1 8 SECMOD_OpenNewSlot
FUNC 291f8 2e 4 SECMOD_OpenUserDB
FUNC 29226 1a1 4 SECMOD_DeleteInternalModule
FUNC 293c7 2c 4 cert_AVAOidTagToMaxLen
FUNC 293f3 4f 0 IsPrintable
FUNC 29442 1f 4 skipSpace
FUNC 29461 14d 10 scanVal
FUNC 295ae 74 4 hexToBin
FUNC 29622 25b 4 ParseRFC1485AVA
FUNC 2987d ca 4 ParseRFC1485Name
FUNC 29947 16 4 CERT_AsciiToName
FUNC 2995d 97 4 AppendStr
FUNC 299f4 109 4 cert_RFC1485_GetRequiredLen
FUNC 29afd d7 c escapeAndQuote
FUNC 29bd4 25 10 CERT_RFC1485_EscapeAndQuote
FUNC 29bf9 305 4 CERT_GetOidString
FUNC 29efe 82 0 get_hex_string
FUNC 29f80 360 8 AppendAVA
FUNC 2a2e0 b9 8 CERT_NameToAsciiInvertible
FUNC 2a399 e 4 CERT_NameToAscii
FUNC 2a3a7 51 4 CERT_DerNameToAscii
FUNC 2a3f8 7d 4 avaToString
FUNC 2a475 53 8 CERT_GetNameElement
FUNC 2a4c8 6e 8 appendStringToBuf
FUNC 2a536 ab 8 appendItemToBuf
FUNC 2a5e1 176 4 cert_GetCertificateEmailAddresses
FUNC 2a757 1a 4 CERT_GetFirstEmailAddress
FUNC 2a771 2d 8 CERT_GetNextEmailAddress
FUNC 2a79e 40 4 CERT_GetCertEmailAddress
FUNC 2a7de 54 4 CERT_GetCommonName
FUNC 2a832 10 4 CERT_GetCountryName
FUNC 2a842 10 4 CERT_GetLocalityName
FUNC 2a852 10 4 CERT_GetStateName
FUNC 2a862 10 4 CERT_GetOrgName
FUNC 2a872 10 4 CERT_GetDomainComponentName
FUNC 2a882 10 4 CERT_GetOrgUnitName
FUNC 2a892 10 4 CERT_GetCertUid
FUNC 2a8a2 6 8 NSS_Get_CERT_TimeChoiceTemplate
FUNC 2a8a8 6 8 NSS_Get_CERT_CertificateTemplate
FUNC 2a8ae 6 8 NSS_Get_SEC_SignedCertificateTemplate
FUNC 2a8b4 6 8 NSS_Get_CERT_SequenceOfCertExtensionTemplate
FUNC 2a8ba 65 10 CERT_KeyFromIssuerAndSN
FUNC 2a91f a9 8 CERT_IssuerNameFromDERCert
FUNC 2a9c8 a9 8 CERT_SerialNumberFromDERCert
FUNC 2aa71 7a 0 GetKeyUsage
FUNC 2aaeb 31 4 findOIDinOIDSeqByTagNum
FUNC 2ab1c ab 4 cert_GetKeyID
FUNC 2abc7 da 0 cert_IsRootCert
FUNC 2aca1 6 0 CERT_GetSlopTime
FUNC 2aca7 14 4 CERT_SetSlopTime
FUNC 2acbb 54 c CERT_GetCertTimes
FUNC 2ad0f 9f 10 CERT_CheckCertValidTimes
FUNC 2adae 46 c SEC_GetCrlTimes
FUNC 2adf4 4f 8 SEC_CrlIsNewer
FUNC 2ae43 f0 10 CERT_KeyUsageAndTypeForCertUsage
FUNC 2af33 96 8 CERT_CheckKeyUsage
FUNC 2afc9 1b 4 CERT_DupCertificate
FUNC 2afe4 a 4 CERT_SetDefaultCertDB
FUNC 2afee 6 0 CERT_GetDefaultCertDB
FUNC 2aff4 76 8 CERT_AddOKDomainName
FUNC 2b06a 107 8 cert_TestHostName
FUNC 2b171 251 8 cert_VerifySubjectAltName
FUNC 2b3c2 51 8 cert_GetSubjectAltNameList
FUNC 2b413 2f 4 cert_CountDNSPatterns
FUNC 2b442 132 c cert_GetDNSPatternsFromGeneralNames
FUNC 2b574 d4 4 CERT_GetValidDNSPatternsFromCert
FUNC 2b648 f3 8 CERT_VerifyCertName
FUNC 2b73b 1d 8 CERT_CompareCerts
FUNC 2b758 7a 8 CERT_GetCertIssuerAndSN
FUNC 2b7d2 103 4 CERT_MakeCANickname
FUNC 2b8d5 5 4 CERT_DestroyCrl
FUNC 2b8da c6 8 CERT_IsCACert
FUNC 2b9a0 ec 8 CERT_CompareValidityTimes
FUNC 2ba8c ae 8 CERT_IsNewer
FUNC 2bb3a 31 8 CERT_DestroyCertArray
FUNC 2bb6b 3b 4 CERT_FixupEmailAddr
FUNC 2bba6 f3 8 CERT_DecodeTrustString
FUNC 2bc99 35 4 CERT_DestroyCertList
FUNC 2bcce 1f 4 CERT_RemoveCertListNode
FUNC 2bced 3c c CERT_AddCertToListTailWithData
FUNC 2bd29 13 8 CERT_AddCertToListTail
FUNC 2bd3c 50 c CERT_AddCertToListHeadWithData
FUNC 2bd8c c4 c CERT_SortCBValidity
FUNC 2be50 7d 10 CERT_AddCertToListSorted
FUNC 2becd 94 c CERT_FilterCertListByUsage
FUNC 2bf61 26 4 CERT_IsUserCert
FUNC 2bf87 3b 4 CERT_FilterCertListForUserCerts
FUNC 2bfc2 e 4 CERT_LockCertTrust
FUNC 2bfd2 47 0 cert_InitLocks
FUNC 2c019 40 0 cert_DestroyLocks
FUNC 2c059 e 4 CERT_UnlockCertTrust
FUNC 2c067 8 4 PK11_IsReadOnly
FUNC 2c06f c 8 CERT_SetStatusConfig
FUNC 2c07b b 8 cert_AllocTable
FUNC 2c086 b 8 cert_FreeTable
FUNC 2c091 9 8 cert_AllocEntry
FUNC 2c09a 2d c cert_FreeEntry
FUNC 2c0c7 66 0 cert_CreateSubjectKeyIDSlotCheckHash
FUNC 2c12d bc 8 cert_AddSubjectKeyIDMapping
FUNC 2c1e9 d4 8 cert_UpdateSubjectKeyIDSlotCheck
FUNC 2c2bd 79 4 cert_SubjectKeyIDSlotCheckSeries
FUNC 2c336 4c 0 cert_DestroySubjectKeyIDSlotCheckHash
FUNC 2c382 51 0 cert_DestroySubjectKeyIDHashTable
FUNC 2c3d3 44 4 cert_FindDERCertBySubjectKeyID
FUNC 2c417 30 8 CERT_FindCertBySubjectKeyID
FUNC 2c447 1ce 4 cert_ComputeCertType
FUNC 2c615 88 10 CERT_CreateValidity
FUNC 2c69d 41 c CERT_CopyValidity
FUNC 2c6de 136 20 CERT_ImportCerts
FUNC 2c814 76 0 cert_CreateSubjectKeyIDHashTable
FUNC 2c88a 1d 4 cert_GetCertType
FUNC 2c8a7 1ba c CERT_DecodeDERCertificate
FUNC 2ca61 5 c __CERT_DecodeDERCertificate
FUNC 2ca66 34 8 CERT_IsCADERCert
FUNC 2ca9a 27 4 CERT_IsRootDERCert
FUNC 2cac1 1b c CERT_FindCertExtensionByOID
FUNC 2cadc 1b c CERT_FindCertExtension
FUNC 2caf7 1f 8 SetExts
FUNC 2cb16 15 4 CERT_StartCertExtensions
FUNC 2cb2b 19 8 CERT_FindNSCertTypeExtension
FUNC 2cb44 19 8 CERT_FindKeyUsageExtension
FUNC 2cb5d 9f 8 CERT_FindSubjectKeyIDExtension
FUNC 2cbfc 48 8 CERT_FindBasicConstraintExten
FUNC 2cc44 4c 8 CERT_FindAuthKeyIDExten
FUNC 2cc90 67 8 CERT_CheckCertUsage
FUNC 2ccf7 37 4 GetExtension
FUNC 2cd2e 42 c cert_FindExtensionByOID
FUNC 2cd70 51 c CERT_GetExtenCriticality
FUNC 2cdc1 24 c cert_FindExtension
FUNC 2cde5 50 c cert_StartExtensions
FUNC 2ce35 8f 14 CERT_AddExtensionByOID
FUNC 2cec4 2c 14 CERT_AddExtension
FUNC 2cef0 38 14 CERT_EncodeAndAddExtension
FUNC 2cf28 44 8 PrepareBitStringForEncoding
FUNC 2cf6c 33 10 CERT_EncodeAndAddBitStrExtension
FUNC 2cf9f 56 4 CERT_FinishExtensions
FUNC 2cff5 d2 8 CERT_MergeExtensions
FUNC 2d0c7 c3 c CERT_FindBitStringExtension
FUNC 2d18a 2a 4 cert_HasCriticalExtension
FUNC 2d1b4 38 4 cert_HasUnknownCriticalExten
FUNC 2d1ec 1a 4 cert_get_crl_version
FUNC 2d206 83 4 cert_check_crl_entries
FUNC 2d289 5c 4 cert_check_crl_version
FUNC 2d2e5 98 c CERT_KeyFromDERCrl
FUNC 2d37d 6b 4 CERT_CompleteCRLDecodeEntries
FUNC 2d3e8 187 10 CERT_DecodeDERCrlWithFlags
FUNC 2d56f 17 c CERT_DecodeDERCrl
FUNC 2d586 e9 10 SEC_FindCrlByKeyOnSlot
FUNC 2d66f 32 10 SEC_NewCrl
FUNC 2d6a1 16 4 SEC_DupCrl
FUNC 2d6b7 62 4 SEC_DestroyCrl
FUNC 2d719 62 c SEC_LookupCrls
FUNC 2d77b 6 8 NSS_Get_CERT_IssuerAndSNTemplate
FUNC 2d781 6 8 NSS_Get_CERT_CrlTemplate
FUNC 2d787 6 8 NSS_Get_CERT_SignedCrlTemplate
FUNC 2d78d 6 8 NSS_Get_CERT_SetOfSignedCrlTemplate
FUNC 2d793 36 8 PreAllocTable
FUNC 2d7c9 e 8 PreAllocEntry
FUNC 2d7d7 1a 4 PreAllocator_Destroy
FUNC 2d7f1 55 4 PreAllocator_Create
FUNC 2d846 12c 0 InitCRLCache
FUNC 2d972 3e 0 NamedCRLCacheEntry_Destroy
FUNC 2d9b0 28 c FreeNamedEntries
FUNC 2d9d8 b4 0 TokenCRLStillExists
FUNC 2da8c 78 c CachedCrl_Verify
FUNC 2db04 79 c DPCache_Lookup
FUNC 2db7d 83 8 SortCRLsByThisUpdate
FUNC 2dc00 80 8 SortImperfectCRLs
FUNC 2dc80 84 c DPCache_Create
FUNC 2dd04 3f 4 IssuerCache_Create
FUNC 2dd43 47 c IssuerCache_AddDP
FUNC 2dd8a 74 4 GetBestCRL
FUNC 2ddfe 2b 8 ReleaseDPCache
FUNC 2de29 22 4 cert_AcquireNamedCRLCache
FUNC 2de4b 3d c cert_FindCRLByGeneralName
FUNC 2de88 21 4 cert_ReleaseNamedCRLCache
FUNC 2dea9 40 8 CachedCrl_Create
FUNC 2dee9 3a 0 CachedCrl_Depopulate
FUNC 2df23 2e 0 CachedCrl_Destroy
FUNC 2df51 a6 0 CachedCrl_Populate
FUNC 2dff7 c7 0 CachedCrl_Compare
FUNC 2e0be 92 0 DPCache_Destroy
FUNC 2e150 46 4 IssuerCache_Destroy
FUNC 2e196 28 c FreeIssuer
FUNC 2e1be d5 0 ShutdownCRLCache
FUNC 2e293 54 0 DPCache_RemoveCRL
FUNC 2e2e7 ad 0 DPCache_SelectCRL
FUNC 2e394 f7 8 DPCache_AddCRL
FUNC 2e48b 127 c DPCache_FetchFromTokens
FUNC 2e5b2 3d3 14 DPCache_GetUpToDate
FUNC 2e985 196 20 AcquireDPCache
FUNC 2eb1b 154 20 cert_CheckCertRevocationStatus
FUNC 2ec6f 23 18 CERT_CheckCRL
FUNC 2ec92 5f c SEC_FindCrlByName
FUNC 2ecf1 75 8 CERT_CRLCacheRefreshIssuer
FUNC 2ed66 126 8 CERT_CacheCRL
FUNC 2ee8c 17c 8 CERT_UncacheCRL
FUNC 2f008 cb 8 addCRLToCache
FUNC 2f0d3 140 c cert_CacheCRLByGeneralName
FUNC 2f213 15d 14 crl_storeCRL
FUNC 2f370 53 c SEC_FindCrlByDERCert
FUNC 2f3c3 2e 8 CERT_NewGeneralName
FUNC 2f3f1 ac c cert_CopyOneGeneralName
FUNC 2f49d 4a 4 CERT_DestroyGeneralNameList
FUNC 2f4e7 b 4 CERT_GetNextGeneralName
FUNC 2f4f2 b 4 CERT_GetPrevGeneralName
FUNC 2f4fd b 4 CERT_GetNextNameConstraint
FUNC 2f508 b 4 CERT_GetPrevNameConstraint
FUNC 2f513 ec c CERT_EncodeGeneralName
FUNC 2f5ff 84 8 cert_EncodeGeneralNames
FUNC 2f683 114 c CERT_DecodeGeneralName
FUNC 2f797 68 8 cert_DecodeGeneralNames
FUNC 2f7ff 74 8 cert_DecodeNameConstraint
FUNC 2f873 63 c cert_DecodeNameConstraintSubTree
FUNC 2f8d6 91 8 cert_DecodeNameConstraints
FUNC 2f967 85 c CERT_CopyGeneralName
FUNC 2f9ec 8b c CERT_CopyNameConstraint
FUNC 2fa77 30 8 cert_CombineNamesLists
FUNC 2faa7 30 8 cert_CombineConstraintsLists
FUNC 2fad7 19 8 CERT_AddNameConstraint
FUNC 2faf0 72 10 CERT_GetNameConstraintByType
FUNC 2fb62 4a c CERT_GetGeneralNameByType
FUNC 2fbac 18 4 CERT_GetNamesLength
FUNC 2fbc4 de 8 cert_ExtractDNEmailAddrs
FUNC 2fca2 125 c CERT_GetConstrainedCertificateNames
FUNC 2fdc7 76 0 compareURIN2C
FUNC 2fe3d 5c 0 compareDNSN2C
FUNC 2fe99 84 0 compareRFC822N2C
FUNC 2ff1d 59 0 compareIPaddrN2C
FUNC 2ff76 9f 0 parseUriHostname
FUNC 30015 1c4 c cert_CompareNameWithConstraints
FUNC 301d9 82 c CERT_FindNameConstraintsExten
FUNC 3025b 77 c CERT_CheckNameSpace
FUNC 302d2 74 14 CERT_CompareNameSpace
FUNC 30346 78 4 CERT_CreateGeneralNameList
FUNC 303be 13 8 CERT_GetCertificateNames
FUNC 303d1 33 8 CERT_GetCertTrust
FUNC 30404 1f8 0 CERT_MapStanError
FUNC 305fc 39 c CERT_ChangeCertTrust
FUNC 30635 19f c __CERT_AddTempCertToPerm
FUNC 307d4 5 c CERT_AddTempCertToPerm
FUNC 307d9 20d 14 CERT_NewTempCertificate
FUNC 309e6 9 14 __CERT_NewTempCertificate
FUNC 309ef 30 8 CERT_FindCertByIssuerAndSN
FUNC 30a1f 40 0 get_best_temp_or_perm
FUNC 30a5f 46 8 CERT_FindCertByDERCert
FUNC 30aa5 2b 4 CERT_DestroyCertificate
FUNC 30ad0 20a 10 certdb_SaveSingleProfile
FUNC 30cda b0 c CERT_SaveSMimeProfile
FUNC 30d8a ae 4 CERT_FindSMimeProfile
FUNC 30e38 e 8 SECKEY_HashPassword
FUNC 30e46 f 10 __nss_InitLock
FUNC 30e55 7f 4 SEC_DeletePermCertificate
FUNC 30ed4 94 8 CERT_FindCertByName
FUNC 30f68 80 8 CERT_FindCertByNickname
FUNC 30fe8 157 10 common_FindCertByNicknameOrEmailAddrForUsage
FUNC 3113f 11 8 CERT_FindCertByNicknameOrEmailAddr
FUNC 31150 13 c CERT_FindCertByNicknameOrEmailAddrForUsage
FUNC 31163 40 10 add_to_subject_list
FUNC 311a3 f5 18 CERT_CreateSubjectCertList
FUNC 31298 3b c SEC_CertNicknameConflict
FUNC 312d3 ab 4 CERT_DecodeCertificatePoliciesExtension
FUNC 3137e 6a 4 CERT_DecodePolicyMappingsExtension
FUNC 313e8 16 4 CERT_DestroyPolicyMappingsExtension
FUNC 313fe be 8 CERT_DecodePolicyConstraintsExtension
FUNC 314bc 62 8 CERT_DecodeInhibitAnyExtension
FUNC 3151e 8a 4 CERT_DecodeUserNotice
FUNC 315a8 60 4 CERT_DecodeOidSequence
FUNC 31608 14 4 CERT_DestroyOidSequence
FUNC 3161c 77 4 CERT_GovtApprovedBitSet
FUNC 31693 37 c CERT_EncodePolicyConstraintsExtension
FUNC 316ca 37 c CERT_EncodePolicyMappingExtension
FUNC 31701 37 c CERT_EncodeCertPoliciesExtension
FUNC 31738 37 c CERT_EncodeUserNotice
FUNC 3176f 37 c CERT_EncodeNoticeReference
FUNC 317a6 37 c CERT_EncodeInhibitAnyExtension
FUNC 317dd 14 0 CountArray
FUNC 317f1 55 8 AddToArray
FUNC 31846 1d 4 CERT_GetAVATag
FUNC 31863 6f c SetupAVAType
FUNC 318d2 c6 10 SetupAVAValue
FUNC 31998 48 c CERT_CreateAVAFromRaw
FUNC 319e0 52 10 CERT_CreateAVAFromSECItem
FUNC 31a32 30 10 CERT_CreateAVA
FUNC 31a62 4c 8 CERT_CopyAVA
FUNC 31aae 75 8 CERT_CreateRDN
FUNC 31b23 24 c CERT_AddAVA
FUNC 31b47 57 c CERT_CopyRDN
FUNC 31b9e 6 8 NSS_Get_CERT_NameTemplate
FUNC 31ba4 9b 4 CERT_CreateName
FUNC 31c3f 1f 4 CERT_DestroyName
FUNC 31c5e 24 8 CERT_AddRDN
FUNC 31c82 a0 c CERT_CopyName
FUNC 31d22 ad 4 canonicalize
FUNC 31dcf 1b9 4 CERT_DecodeAVAValue
FUNC 31f88 6d 8 CERT_CompareDERPrintableStrings
FUNC 31ff5 c9 8 CERT_CompareAVA
FUNC 320be 81 8 CERT_CompareRDN
FUNC 3213f 4e 8 CERT_CompareName
FUNC 3218d 5f c CERT_EncodeAuthKeyID
FUNC 321ec 92 8 CERT_DecodeAuthKeyID
FUNC 3227e c0 c CERT_EncodeBasicConstraintValue
FUNC 3233e cd 8 CERT_DecodeBasicConstraintValue
FUNC 3240b 3d c CERT_EncodeSubjectKeyID
FUNC 32448 53 8 CERT_DecodePrivKeyUsagePeriodExtension
FUNC 3249b 38 c CERT_EncodeAltNameExtension
FUNC 324d3 7d 8 CERT_DecodeAltNameExtension
FUNC 32550 5 8 CERT_DecodeNameConstraintsExtension
FUNC 32555 8b 8 CERT_DecodeAuthInfoAccessExtension
FUNC 325e0 67 c CERT_EncodeInfoAccessExtension
FUNC 32647 af 4 nssCertificate_Create
FUNC 326f6 f3 4 nssCertificate_Destroy
FUNC 327e9 5 4 NSSCertificate_Destroy
FUNC 327ee 15 4 nssCertificate_GetEncoding
FUNC 32803 5 8 nssCertificate_GetNickname
FUNC 32808 13 8 NSSCertificate_DeleteStoredObject
FUNC 3281b 42 4 nssCertificate_GetDecoding
FUNC 3285d 96 4 filter_subject_certs_for_id
FUNC 328f3 40 0 filter_certs_for_valid_issuers
FUNC 32933 49 c NSSCertificate_IsPrivateKeyAvailable
FUNC 3297c 40 8 nssCertificate_SubjectListSort
FUNC 329bc bc c nssSMIMEProfile_Create
FUNC 32a78 47 c nssCertificateList_DoCallback
FUNC 32abf d 8 add_ref_callback
FUNC 32acc 14 4 nssCertificateList_AddReferences
FUNC 32ae0 39 14 nssTrust_IsSafeToIgnoreCertHash
FUNC 32b19 184 8 nssTrust_Create
FUNC 32c9d 14 4 nssTrust_Destroy
FUNC 32cb1 57 4 nssCRL_Create
FUNC 32d08 14 4 nssCRL_AddRef
FUNC 32d1c 19 4 nssCRL_GetEncoding
FUNC 32d35 d5 10 find_cert_issuer
FUNC 32e0a 125 28 nssCertificate_BuildChain
FUNC 32f2f 9 28 NSSCertificate_BuildChain
FUNC 32f38 47 8 nssCryptoContext_Create
FUNC 32f7f 30 4 NSSCryptoContext_Destroy
FUNC 32faf 39 8 NSSCryptoContext_FindOrImportCertificate
FUNC 32fe8 1c 8 nssCryptoContext_ImportTrust
FUNC 33004 1c 8 nssCryptoContext_ImportSMIMEProfile
FUNC 33020 4a 14 NSSCryptoContext_FindBestCertificateByNickname
FUNC 3306a 1e c NSSCryptoContext_FindCertificateByIssuerAndSerialNumber
FUNC 33088 4a 14 NSSCryptoContext_FindBestCertificateBySubject
FUNC 330d2 26 14 nssCryptoContext_FindCertificatesBySubject
FUNC 330f8 9 14 NSSCryptoContext_FindCertificatesBySubject
FUNC 33101 19 8 NSSCryptoContext_FindCertificateByEncodedCertificate
FUNC 3311a 4a 14 NSSCryptoContext_FindBestCertificateByEmail
FUNC 33164 19 8 nssCryptoContext_FindTrustForCertificate
FUNC 3317d 19 8 nssCryptoContext_FindSMIMEProfileForCertificate
FUNC 33196 5a 10 NSSTrustDomain_Create
FUNC 331f0 5 4 token_destructor
FUNC 331f5 77 4 NSSTrustDomain_Destroy
FUNC 3326c e9 0 nssTrustDomain_GetActiveSlots
FUNC 33355 67 8 NSSTrustDomain_FindTokenByName
FUNC 333bc 3d 4 get_certs_from_list
FUNC 333f9 16d 14 nssTrustDomain_FindCertificatesBySubject
FUNC 33566 9 14 NSSTrustDomain_FindCertificatesBySubject
FUNC 3356f 3e 14 nssTrustDomain_FindBestCertificateBySubject
FUNC 335ad 9 14 NSSTrustDomain_FindBestCertificateBySubject
FUNC 335b6 102 c nssTrustDomain_FindCertificateByIssuerAndSerialNumber
FUNC 336b8 5 c NSSTrustDomain_FindCertificateByIssuerAndSerialNumber
FUNC 336bd 65 8 nssTrustDomain_FindCertificateByEncodedCertificate
FUNC 33722 5 8 NSSTrustDomain_FindCertificateByEncodedCertificate
FUNC 33727 10 8 collector
FUNC 33737 d4 c NSSTrustDomain_TraverseCertificates
FUNC 3380b e7 8 nssTrustDomain_FindTrustForCertificate
FUNC 338f2 d3 8 nssTrustDomain_FindCRLsBySubject
FUNC 339c5 5 8 NSSTrustDomain_CreateCryptoContext
FUNC 339ca 3c 8 new_cache_entry
FUNC 33a06 ac 8 nssTrustDomain_InitializeCache
FUNC 33ab2 7f 4 nssTrustDomain_DestroyCache
FUNC 33b31 4b c remove_subject_entry
FUNC 33b7c 1c 4 remove_nickname_entry
FUNC 33b98 66 4 remove_email_entry
FUNC 33bfe 9b 8 nssTrustDomain_RemoveCertFromCacheLOCKED
FUNC 33c99 11 4 nssTrustDomain_LockCertCache
FUNC 33caa 11 4 nssTrustDomain_UnlockCertCache
FUNC 33cbb 99 c remove_token_certs
FUNC 33d54 be 8 nssTrustDomain_RemoveTokenCertsFromCache
FUNC 33e12 cc 14 add_subject_entry
FUNC 33ede 53 8 add_nickname_entry
FUNC 33f31 b9 8 add_email_entry
FUNC 33fea 8a 8 merge_object_instances
FUNC 34074 200 8 add_cert_to_cache
FUNC 34274 3a c nssTrustDomain_AddCertsToCache
FUNC 342ae 81 4 collect_subject_certs
FUNC 3432f 5b c nssTrustDomain_GetCertsForSubjectFromCache
FUNC 3438a 5b c nssTrustDomain_GetCertsForNicknameFromCache
FUNC 343e5 114 c nssTrustDomain_GetCertsForEmailAddressFromCache
FUNC 344f9 79 c nssTrustDomain_GetCertForIssuerAndSNFromCache
FUNC 34572 17 c cert_iter
FUNC 34589 86 8 nssTrustDomain_GetCertsFromCache
FUNC 3460f 33 c nssTrustDomain_DumpCacheInfo
FUNC 34642 ad 8 nssTrustDomain_UpdateCachedTokenCerts
FUNC 346ef 1a c nssDecodedCert_Create
FUNC 34709 19 4 nssDecodedCert_Destroy
FUNC 34722 58 4 nssCertificateStore_Destroy
FUNC 3477a 66 0 add_subject_entry
FUNC 347e0 48 4 remove_certificate_entry
FUNC 34828 67 4 remove_subject_entry
FUNC 3488f 32 8 nssCertificateStore_RemoveCertLOCKED
FUNC 348c1 f 8 nssCertificateStore_Lock
FUNC 348d0 f c nssCertificateStore_Unlock
FUNC 348df 59 10 get_array_from_list
FUNC 34938 53 14 nssCertificateStore_FindCertificatesBySubject
FUNC 3498b 4c c match_nickname
FUNC 349d7 65 14 nssCertificateStore_FindCertificatesByNickname
FUNC 34a3c 7d c match_email
FUNC 34ab9 84 14 nssCertificateStore_FindCertificatesByEmail
FUNC 34b3d 43 4 nssCertStore_FindCertByIssuerAndSerialNumberLocked
FUNC 34b80 30 c nssCertificateStore_FindCertificateByIssuerAndSerialNumber
FUNC 34bb0 8a 8 nssCertificateStore_FindCertificateByEncodedCertificate
FUNC 34c3a 59 8 nssCertificateStore_AddTrust
FUNC 34c93 43 8 nssCertificateStore_FindTrustForCertificate
FUNC 34cd6 59 8 nssCertificateStore_AddSMIMEProfile
FUNC 34d2f 43 8 nssCertificateStore_FindSMIMEProfileForCertificate
FUNC 34d72 41 4 nss_certificate_hash
FUNC 34db3 46 8 nss_compare_certs
FUNC 34df9 20 8 nssHash_CreateCertificate
FUNC 34e19 2c c nssCertificateStore_DumpStoreInfo
FUNC 34e45 a5 4 nssCertificateStore_Create
FUNC 34eea 61 0 nssCertificateStore_AddLocked
FUNC 34f4b 4e 8 nssCertificateStore_FindOrAdd
FUNC 34f99 23 4 nssPKIObject_Lock
FUNC 34fbc 23 4 nssPKIObject_Unlock
FUNC 34fdf 34 8 nssPKIObject_NewLock
FUNC 35013 29 4 nssPKIObject_DestroyLock
FUNC 3503c 44 4 nssPKIObject_Destroy
FUNC 35080 f 4 nssPKIObject_AddRef
FUNC 3508f b0 8 nssPKIObject_AddInstance
FUNC 3513f 44 8 nssPKIObject_HasInstance
FUNC 35183 9b 8 nssPKIObject_RemoveInstanceForToken
FUNC 3521e 7d c nssPKIObject_DeleteStoredObject
FUNC 3529b 64 8 nssPKIObject_GetTokens
FUNC 352ff 54 8 nssPKIObject_GetNicknameForToken
FUNC 35353 59 4 nssPKIObject_GetInstances
FUNC 353ac 44 4 nssCertificateArray_Destroy
FUNC 353f0 84 8 nssCertificateArray_Join
FUNC 35474 2a 4 nssCRLArray_Destroy
FUNC 3549e 48 c nssPKIObjectCollection_Create
FUNC 354e6 38 4 nssPKIObjectCollection_Destroy
FUNC 3551e 58 8 nssPKIObjectCollection_AddObject
FUNC 35576 58 4 find_object_in_collection
FUNC 355ce 97 8 nssPKIObjectCollection_GetObjects
FUNC 35665 7c 8 nssPKIObjectCollection_Traverse
FUNC 356e1 27 4 cert_destroyObject
FUNC 35708 2c 8 cert_getUIDFromObject
FUNC 35734 24 c cert_getUIDFromInstance
FUNC 35758 27 4 cert_createObject
FUNC 3577f 55 8 nssCertificateCollection_Create
FUNC 357d4 5 4 crl_destroyObject
FUNC 357d9 35 8 crl_getUIDFromObject
FUNC 3580e 1c c crl_getUIDFromInstance
FUNC 3582a 5 4 crl_createObject
FUNC 3582f 56 8 nssCRLCollection_Create
FUNC 35885 6d 10 nssPKIObjectCollection_GetCRLs
FUNC 358f2 24 c NSSTime_SetPRTime
FUNC 35916 a 4 NSSTime_GetPRTime
FUNC 35920 9d 14 nssPKIObject_Create
FUNC 359bd 132 8 add_object_instance
FUNC 35aef 58 c nssPKIObjectCollection_AddInstances
FUNC 35b47 68 8 nssPKIObjectCollection_AddInstanceAsObject
FUNC 35baf 15 4 NSSTime_Now
FUNC 35bc4 112 10 nssCertificateArray_FindBestCertificate
FUNC 35cd6 6 0 STAN_GetDefaultTrustDomain
FUNC 35cdc 6 0 STAN_GetDefaultCryptoContext
FUNC 35ce2 52 8 STAN_InitTokenForSlotInfo
FUNC 35d34 3d 4 STAN_ResetTokenInterator
FUNC 35d71 f2 0 STAN_LoadDefaultNSS3TrustDomain
FUNC 35e63 35 4 STAN_AddModuleToDefaultTrustDomain
FUNC 35e98 90 4 STAN_RemoveModuleFromDefaultTrustDomain
FUNC 35f28 45 0 STAN_Shutdown
FUNC 35f6d 9c 10 nssPKIX509_GetIssuerAndSerialFromDER
FUNC 36009 1a 4 nss3certificate_getIdentifier
FUNC 36023 e 4 nss3certificate_getIssuerIdentifier
FUNC 36031 99 8 nss3certificate_matchIdentifier
FUNC 360ca 17 4 nss3certificate_isValidIssuer
FUNC 360e1 26 8 nss3certificate_isValidAtTime
FUNC 36107 20 8 nss3certificate_isNewerThan
FUNC 36127 82 8 nss3certificate_matchUsage
FUNC 361a9 1d 4 nss3certificate_getEmailAddress
FUNC 361c6 51 c nss3certificate_getDERSerialNumber
FUNC 36217 9d 8 nssDecodedPKIXCertificate_Create
FUNC 362b4 5e 8 create_decoded_pkix_cert_from_nss3cert
FUNC 36312 53 4 nssDecodedPKIXCertificate_Destroy
FUNC 36365 22 0 get_nss3trust_from_nss4trust
FUNC 36387 66 4 cert_trust_from_stan_trust
FUNC 363ed 78 8 nssTrust_GetCERTCertTrustForCert
FUNC 36465 60 4 get_cert_instance
FUNC 364c5 de c STAN_GetCERTCertificateNameForInstance
FUNC 365a3 30 8 STAN_GetCERTCertificateName
FUNC 365d3 1f6 8 fill_CERTCertificateFields
FUNC 367c9 9e 4 stan_GetCERTCertificate
FUNC 36867 19 4 STAN_ForceCERTCertificateUpdate
FUNC 36880 f 4 STAN_GetCERTCertificate
FUNC 3688f 20 4 STAN_GetCERTCertificateOrRelease
FUNC 368af 34 8 get_stan_trust
FUNC 368e3 191 4 STAN_GetNSSCertificate
FUNC 36a74 c5 0 stan_GetTrustToken
FUNC 36b39 350 8 STAN_ChangeCertTrust
FUNC 36e89 a7 4 DeleteCertTrustMatchingSlot
FUNC 36f30 9e 4 STAN_DeleteCertTrustMatchingSlot
FUNC 36fce 21 c cert_dump_iter
FUNC 36fef 4d 0 nss_DumpCertificateCacheInfo
FUNC 3703c 2d 4 nssSlot_Destroy
FUNC 37069 14 4 nssSlot_EnterMonitor
FUNC 3707d 14 4 nssSlot_ExitMonitor
FUNC 37091 9 4 nssSlot_ResetDelay
FUNC 3709a 3a 0 within_token_delay_period
FUNC 370d4 15 4 nssSession_EnterMonitor
FUNC 370e9 16 4 nssSession_ExitMonitor
FUNC 370ff 8 4 nssSession_IsReadWrite
FUNC 37107 177 4 nssSlot_IsTokenPresent
FUNC 3727e 1f 4 nssSlot_GetToken
FUNC 3729d 3e 4 nssToken_Destroy
FUNC 372db e 4 nssToken_Remove
FUNC 372e9 f 4 nssSlot_AddRef
FUNC 372f8 e 4 nssToken_GetSlot
FUNC 37306 e 4 nssToken_GetCryptokiEPV
FUNC 37314 26 4 nssToken_GetName
FUNC 3733a b1 4 nssToken_DeleteStoredObject
FUNC 373eb e5 8 import_object
FUNC 374d0 7a 10 create_objects_from_handles
FUNC 3754a 21f 14 find_objects
FUNC 37769 ae 10 find_objects_by_template
FUNC 37817 a0 18 nssToken_FindObjects
FUNC 378b7 96 18 nssToken_FindCertificatesBySubject
FUNC 3794d bc 18 nssToken_FindCertificatesByNickname
FUNC 37a09 bf 18 nssToken_FindCertificatesByEmail
FUNC 37ac8 5a 4 nssToken_decodeSerialItem
FUNC 37b22 169 18 nssToken_FindCertificateByIssuerAndSerialNumber
FUNC 37c8b a6 14 nssToken_FindCertificateByEncodedCertificate
FUNC 37d31 33 0 get_ck_trust
FUNC 37d64 d7 18 nssToken_FindTrustForCertificate
FUNC 37e3b f9 1c nssToken_ImportCRL
FUNC 37f34 c9 18 nssToken_FindCRLsBySubject
FUNC 37ffd 2c 18 nssToken_GetCachedObjectAttributes
FUNC 38029 f1 18 nssToken_Digest
FUNC 3811a e 4 nssToken_IsPresent
FUNC 38128 1ae 14 nssToken_TraverseCertificates
FUNC 382d6 43 c nssToken_IsPrivateKeyAvailable
FUNC 38319 2e3 2c nssToken_ImportCertificate
FUNC 385fc 22b 2c nssToken_ImportTrust
FUNC 38827 93 c nssCryptokiObject_Create
FUNC 388ba 24 4 nssCryptokiObject_Destroy
FUNC 388de 46 4 nssCryptokiObject_Clone
FUNC 38924 1d 8 nssCryptokiObject_Equal
FUNC 38941 2a 4 nssSlotArray_Destroy
FUNC 3896b 2a 4 nssTokenArray_Destroy
FUNC 38995 2a 4 nssCryptokiObjectArray_Destroy
FUNC 389bf 51 0 clear_cache
FUNC 38a10 26 4 nssTokenObjectCache_Clear
FUNC 38a36 28 4 nssTokenObjectCache_Destroy
FUNC 38a5e 4b 8 nssTokenObjectCache_HaveObjectClass
FUNC 38aa9 50 4 create_object_array
FUNC 38af9 106 c create_object
FUNC 38bff 21 0 token_is_present
FUNC 38c20 47 0 search_for_objects
FUNC 38c67 49 8 create_object_of_type
FUNC 38cb0 100 4 get_token_objects_for_cache
FUNC 38db0 181 10 find_objects_in_array
FUNC 38f31 9a 18 nssTokenObjectCache_FindObjectsByTemplate
FUNC 38fcb 22 0 cache_available_for_object_type
FUNC 38fed 1aa 18 nssTokenObjectCache_GetObjectAttributes
FUNC 39197 11d 14 nssTokenObjectCache_ImportObject
FUNC 392b4 e0 8 nssTokenObjectCache_RemoveObject
FUNC 39394 20 4 NSSAlgorithmAndParameters_CreateSHA1Digest
FUNC 393b4 20 4 NSSAlgorithmAndParameters_CreateMD5Digest
FUNC 393d4 49 10 nssTokenObjectCache_Create
FUNC 3941d 1ca 18 nssCKObject_GetAttributes
FUNC 395e7 3c 14 nssCKObject_SetAttributes
FUNC 39623 32 8 nssCKObject_IsTokenObjectTemplate
FUNC 39655 1fa 24 nssCryptokiCertificate_GetAttributes
FUNC 3984f 3a 0 get_nss_trust
FUNC 39889 163 20 nssCryptokiTrust_GetAttributes
FUNC 399ec 190 20 nssCryptokiCRL_GetAttributes
FUNC 39b7c 101 14 nssCryptokiPrivateKey_SetCertificate
FUNC 39c7d 96 4 nss_arena_unmark_release
FUNC 39d13 13 8 nssArena_Release
FUNC 39d26 13 8 nssArena_Unmark
FUNC 39d39 58 0 nss_zalloc_arena_locked
FUNC 39d91 81 8 nss_ZAlloc
FUNC 39e12 6a 4 nss_ZFreeIf
FUNC 39e7c 19d 8 nss_ZRealloc
FUNC 3a019 5c 0 nssArena_Create
FUNC 3a075 4e 4 nssArena_Destroy
FUNC 3a0c3 70 4 nssArena_Mark
FUNC 3a133 a 0 NSSArena_Create
FUNC 3a13d a 4 NSSArena_Destroy
FUNC 3a147 14 0 error_once_function
FUNC 3a15b a2 0 error_get_my_stack
FUNC 3a1fd 22 0 NSS_GetError
FUNC 3a21f 17 0 NSS_GetErrorStack
FUNC 3a236 13 0 nss_ClearErrorStack
FUNC 3a249 16 0 nss_DestroyErrorStack
FUNC 3a25f 59 4 nss_SetError
FUNC 3a2b8 e 8 nss_arena_hash_alloc_table
FUNC 3a2c6 b 8 nss_arena_hash_free_table
FUNC 3a2d1 c 8 nss_arena_hash_alloc_entry
FUNC 3a2dd 12 c nss_arena_hash_free_entry
FUNC 3a2ef 5 c nsslibc_memcpy
FUNC 3a2f4 17 c nsslibc_memset
FUNC 3a30b 25 10 nsslibc_memequal
FUNC 3a330 60 10 nssItem_Create
FUNC 3a390 1a c nssItem_Duplicate
FUNC 3a3aa 43 c nssItem_Equal
FUNC 3a3ed 34 8 nssUTF8_Duplicate
FUNC 3a421 17 8 nssUTF8_Size
FUNC 3a438 8c 10 nssUTF8_Create
FUNC 3a4c4 45 c nssUTF8_Equal
FUNC 3a509 e 8 pointer_compare
FUNC 3a517 32 4 nsslist_get_matching_element
FUNC 3a549 76 8 nssList_Create
FUNC 3a5bf c 8 nssList_SetSortFunction
FUNC 3a5cb 68 8 nssList_Clear
FUNC 3a633 9c 4 nsslist_add_element
FUNC 3a6cf 31 8 nssList_Add
FUNC 3a700 5a 8 nssList_AddUnique
FUNC 3a75a 5e 8 nssList_Remove
FUNC 3a7b8 50 c nssList_GetArray
FUNC 3a808 5e 4 nssList_Clone
FUNC 3a866 2b 4 nssListIterator_Start
FUNC 3a891 2e 4 nssListIterator_Next
FUNC 3a8bf 1f 4 nssListIterator_Finish
FUNC 3a8de 3f 4 nssList_Destroy
FUNC 3a91d 61 4 nssList_CreateIterator
FUNC 3a97e 25 4 nssListIterator_Destroy
FUNC 3a9a3 24 4 nss_item_hash
FUNC 3a9c7 18 8 nss_compare_items
FUNC 3a9df 7e 14 nssHash_Create
FUNC 3aa5d 1d 8 nssHash_CreateString
FUNC 3aa7a 20 8 nssHash_CreateItem
FUNC 3aa9a 30 4 nssHash_Destroy
FUNC 3aaca 5b c nssHash_Add
FUNC 3ab25 30 8 nssHash_Remove
FUNC 3ab55 22 4 nssHash_Count
FUNC 3ab77 2e 8 nssHash_Lookup
FUNC 3aba5 19 c nss_hash_enumerator
FUNC 3abbe 3e c nssHash_Iterate
FUNC 3abfc e2 8 pkix_CertSelector_Destroy
FUNC 3acde 1b4 10 pkix_CertSelector_Match_BasicConstraint
FUNC 3ae92 314 10 pkix_CertSelector_Match_Policies
FUNC 3b1a6 ff 10 pkix_CertSelector_Match_CertificateValid
FUNC 3b2a5 ff 10 pkix_CertSelector_Match_NameConstraints
FUNC 3b3a4 18b 10 pkix_CertSelector_Match_PathToNames
FUNC 3b52f 295 10 pkix_CertSelector_Match_SubjAltNames
FUNC 3b7c4 24e 10 pkix_CertSelector_Match_ExtendedKeyUsage
FUNC 3ba12 c9 10 pkix_CertSelector_Match_KeyUsage
FUNC 3badb 186 10 pkix_CertSelector_Match_SubjKeyId
FUNC 3bc61 187 10 pkix_CertSelector_Match_AuthKeyId
FUNC 3bde8 185 10 pkix_CertSelector_Match_SubjPKAlgId
FUNC 3bf6d 187 10 pkix_CertSelector_Match_SubjPubKey
FUNC 3c0f4 71f c pkix_CertSelector_DefaultMatch
FUNC 3c813 db 10 PKIX_CertSelector_Create
FUNC 3c8ee 5f c PKIX_CertSelector_GetMatchCallback
FUNC 3c94d 91 c PKIX_CertSelector_GetCommonCertSelectorParams
FUNC 3c9de e0 c PKIX_CertSelector_SetCommonCertSelectorParams
FUNC 3cabe 272 10 pkix_CertSelector_Select
FUNC 3cd30 121 c pkix_CertSelector_Duplicate
FUNC 3ce51 72 4 pkix_CertSelector_RegisterSelf
FUNC 3cec3 314 8 pkix_ComCertSelParams_Destroy
FUNC 3d1d7 113 8 PKIX_ComCertSelParams_Create
FUNC 3d2ea 91 c PKIX_ComCertSelParams_GetSubject
FUNC 3d37b e0 c PKIX_ComCertSelParams_SetSubject
FUNC 3d45b 60 c PKIX_ComCertSelParams_GetBasicConstraints
FUNC 3d4bb 74 c PKIX_ComCertSelParams_SetBasicConstraints
FUNC 3d52f 91 c PKIX_ComCertSelParams_GetPolicy
FUNC 3d5c0 91 c PKIX_ComCertSelParams_GetCertificate
FUNC 3d651 e0 c PKIX_ComCertSelParams_SetCertificate
FUNC 3d731 91 c PKIX_ComCertSelParams_GetCertificateValid
FUNC 3d7c2 e0 c PKIX_ComCertSelParams_SetCertificateValid
FUNC 3d8a2 91 c PKIX_ComCertSelParams_GetNameConstraints
FUNC 3d933 91 c PKIX_ComCertSelParams_GetPathToNames
FUNC 3d9c4 e0 c PKIX_ComCertSelParams_SetPathToNames
FUNC 3daa4 91 c PKIX_ComCertSelParams_GetSubjAltNames
FUNC 3db35 60 c PKIX_ComCertSelParams_GetMatchAllSubjAltNames
FUNC 3db95 91 c PKIX_ComCertSelParams_GetExtendedKeyUsage
FUNC 3dc26 c0 c PKIX_ComCertSelParams_SetExtendedKeyUsage
FUNC 3dce6 60 c PKIX_ComCertSelParams_GetKeyUsage
FUNC 3dd46 55 c PKIX_ComCertSelParams_SetKeyUsage
FUNC 3dd9b 91 c PKIX_ComCertSelParams_GetIssuer
FUNC 3de2c 91 c PKIX_ComCertSelParams_GetSerialNumber
FUNC 3debd 5f c PKIX_ComCertSelParams_GetVersion
FUNC 3df1c 91 c PKIX_ComCertSelParams_GetSubjKeyIdentifier
FUNC 3dfad e0 c PKIX_ComCertSelParams_SetSubjKeyIdentifier
FUNC 3e08d 91 c PKIX_ComCertSelParams_GetAuthorityKeyIdentifier
FUNC 3e11e 91 c PKIX_ComCertSelParams_GetSubjPubKey
FUNC 3e1af 91 c PKIX_ComCertSelParams_GetSubjPKAlgId
FUNC 3e240 60 c PKIX_ComCertSelParams_GetLeafCertFlag
FUNC 3e2a0 74 c PKIX_ComCertSelParams_SetLeafCertFlag
FUNC 3e314 328 c pkix_ComCertSelParams_Duplicate
FUNC 3e63c 60 4 pkix_ComCertSelParams_RegisterSelf
FUNC 3e69c ab 8 pkix_BasicConstraintsCheckerState_Destroy
FUNC 3e747 6d 4 pkix_BasicConstraintsCheckerState_RegisterSelf
FUNC 3e7b4 e2 8 pkix_CertChainChecker_Destroy
FUNC 3e896 123 1c PKIX_CertChainChecker_Create
FUNC 3e9b9 5f c PKIX_CertChainChecker_GetCheckCallback
FUNC 3ea18 60 c PKIX_CertChainChecker_IsForwardCheckingSupported
FUNC 3ea78 91 c PKIX_CertChainChecker_GetCertChainCheckerState
FUNC 3eb09 e0 c PKIX_CertChainChecker_SetCertChainCheckerState
FUNC 3ebe9 91 c PKIX_CertChainChecker_GetSupportedExtensions
FUNC 3ec7a 16c c pkix_CertChainChecker_Duplicate
FUNC 3ede6 72 4 pkix_CertChainChecker_RegisterSelf
FUNC 3ee58 a6 8 pkix_CrlChecker_Destroy
FUNC 3eefe 56 4 pkix_CrlChecker_RegisterSelf
FUNC 3ef54 11c 24 pkix_CrlChecker_Create
FUNC 3f070 1e1 28 pkix_CrlChecker_CheckLocal
FUNC 3f251 520 28 pkix_CrlChecker_CheckExternal
FUNC 3f771 e0 8 pkix_EkuChecker_Destroy
FUNC 3f851 56 4 pkix_EkuChecker_RegisterSelf
FUNC 3f8a7 e1 14 pkix_ExpirationChecker_Check
FUNC 3f988 dd c pkix_ExpirationChecker_Initialize
FUNC 3fa65 e0 8 pkix_NameConstraintsCheckerState_Destroy
FUNC 3fb45 6e 4 pkix_NameConstraintsCheckerState_RegisterSelf
FUNC 3fbb3 56 4 pkix_OcspChecker_RegisterSelf
FUNC 3fc09 e6 20 pkix_OcspChecker_Create
FUNC 3fcef 10a 28 pkix_OcspChecker_CheckLocal
FUNC 3fdf9 30c 28 pkix_OcspChecker_CheckExternal
FUNC 40105 58 1c pkix_RevocationMethod_Init
FUNC 4015d e0 8 pkix_RevocationChecker_Destroy
FUNC 4023d 4d 10 pkix_RevocationChecker_SortComparator
FUNC 4028a d5 10 PKIX_RevocationChecker_Create
FUNC 4035f 237 20 PKIX_RevocationChecker_CreateAndAddMethod
FUNC 40596 2da 28 PKIX_RevocationChecker_Check
FUNC 40870 174 c pkix_RevocationChecker_Duplicate
FUNC 409e4 72 4 pkix_RevocationChecker_RegisterSelf
FUNC 40a56 279 8 pkix_PolicyCheckerState_Destroy
FUNC 40ccf 7e8 c pkix_PolicyCheckerState_ToString
FUNC 414b7 71 4 pkix_PolicyCheckerState_RegisterSelf
FUNC 41528 2b9 10 pkix_PolicyChecker_MapContains
FUNC 417e1 34a 10 pkix_PolicyChecker_MapGetSubjectDomainPolicies
FUNC 41b2b 295 c pkix_PolicyChecker_MapGetMappedPolicies
FUNC 41dc0 1a7 c pkix_PolicyChecker_MakeMutableCopy
FUNC 41f67 11b 10 pkix_PolicyChecker_MakeSingleton
FUNC 42082 21d 14 pkix_PolicyChecker_Spawn
FUNC 4229f 2c9 1c pkix_PolicyChecker_CheckPolicyRecursive
FUNC 42568 227 18 pkix_PolicyChecker_CheckPolicy
FUNC 4278f 4ee 14 pkix_PolicyChecker_CheckAny
FUNC 42c7d 659 14 pkix_PolicyChecker_CalculateIntersection
FUNC 432d6 434 10 pkix_PolicyChecker_PolicyMapProcessing
FUNC 4370a 27f 8 pkix_PolicyChecker_WrapUpProcessing
FUNC 43989 b61 14 pkix_PolicyChecker_Check
FUNC 444ea 339 1c pkix_PolicyCheckerState_Create
FUNC 44823 133 20 pkix_PolicyChecker_Initialize
FUNC 44956 112 8 pkix_SignatureCheckerState_Destroy
FUNC 44a68 6e 4 pkix_SignatureCheckerState_RegisterSelf
FUNC 44ad6 167 10 pkix_SignatureCheckerState_Create
FUNC 44c3d 38d 14 pkix_SignatureChecker_Check
FUNC 44fca e0 10 pkix_SignatureChecker_Initialize
FUNC 450aa 18f 8 pkix_TargetCertCheckerState_Destroy
FUNC 45239 6e 4 pkix_TargetCertCheckerState_RegisterSelf
FUNC 452a7 35b 10 pkix_TargetCertCheckerState_Create
FUNC 45602 54a 14 pkix_TargetCertChecker_Check
FUNC 45b4c d6 10 pkix_TargetCertChecker_Initialize
FUNC 45c22 139 8 pkix_TrustAnchor_Destroy
FUNC 45d5b 1a6 10 pkix_TrustAnchor_Equals
FUNC 45f01 127 c pkix_TrustAnchor_Hashcode
FUNC 46028 2ae c pkix_TrustAnchor_ToString
FUNC 462d6 7e 4 pkix_TrustAnchor_RegisterSelf
FUNC 46354 121 c PKIX_TrustAnchor_CreateWithCert
FUNC 46475 8f c PKIX_TrustAnchor_GetTrustedCert
FUNC 46504 210 8 pkix_ProcessingParams_Destroy
FUNC 46714 2fc 10 pkix_ProcessingParams_Equals
FUNC 46a10 1dc c pkix_ProcessingParams_Hashcode
FUNC 46bec 2b4 c pkix_ProcessingParams_Duplicate
FUNC 46ea0 18c 8 PKIX_ProcessingParams_Create
FUNC 4702c 55 c PKIX_ProcessingParams_SetUseAIAForCertFetching
FUNC 47081 55 c PKIX_ProcessingParams_SetQualifyTargetCert
FUNC 470d6 cd c PKIX_ProcessingParams_SetTrustAnchors
FUNC 471a3 8f c PKIX_ProcessingParams_GetTrustAnchors
FUNC 47232 91 c PKIX_ProcessingParams_GetDate
FUNC 472c3 11f c PKIX_ProcessingParams_SetDate
FUNC 473e2 91 c PKIX_ProcessingParams_GetTargetCertConstraints
FUNC 47473 11f c PKIX_ProcessingParams_SetTargetCertConstraints
FUNC 47592 fe c PKIX_ProcessingParams_GetInitialPolicies
FUNC 47690 11f c PKIX_ProcessingParams_SetInitialPolicies
FUNC 477af 60 c PKIX_ProcessingParams_GetPolicyQualifiersRejected
FUNC 4780f 91 c PKIX_ProcessingParams_GetCertChainCheckers
FUNC 478a0 91 c PKIX_ProcessingParams_GetRevocationChecker
FUNC 47931 e0 c PKIX_ProcessingParams_SetRevocationChecker
FUNC 47a11 b5 c PKIX_ProcessingParams_GetCertStores
FUNC 47ac6 11f c PKIX_ProcessingParams_SetCertStores
FUNC 47be5 91 c PKIX_ProcessingParams_GetResourceLimits
FUNC 47c76 60 c PKIX_ProcessingParams_IsAnyPolicyInhibited
FUNC 47cd6 74 c PKIX_ProcessingParams_SetAnyPolicyInhibited
FUNC 47d4a 60 c PKIX_ProcessingParams_IsExplicitPolicyRequired
FUNC 47daa 74 c PKIX_ProcessingParams_SetExplicitPolicyRequired
FUNC 47e1e 60 c PKIX_ProcessingParams_IsPolicyMappingInhibited
FUNC 47e7e 74 c PKIX_ProcessingParams_SetPolicyMappingInhibited
FUNC 47ef2 91 c PKIX_ProcessingParams_GetHintCerts
FUNC 47f83 46e c pkix_ProcessingParams_ToString
FUNC 483f1 7e 4 pkix_ProcessingParams_RegisterSelf
FUNC 4846f e0 8 pkix_ValidateParams_Destroy
FUNC 4854f 126 10 pkix_ValidateParams_Equals
FUNC 48675 d1 c pkix_ValidateParams_Hashcode
FUNC 48746 1b4 c pkix_ValidateParams_ToString
FUNC 488fa 7a 4 pkix_ValidateParams_RegisterSelf
FUNC 48974 87 8 pkix_ResourceLimits_Destroy
FUNC 489fb f4 10 pkix_ResourceLimits_Equals
FUNC 48aef 9d c pkix_ResourceLimits_Hashcode
FUNC 48b8c 11b c pkix_ResourceLimits_ToString
FUNC 48ca7 7a 4 pkix_ResourceLimits_RegisterSelf
FUNC 48d21 5f c PKIX_ResourceLimits_GetMaxTime
FUNC 48d80 60 c PKIX_ResourceLimits_GetMaxFanout
FUNC 48de0 60 c PKIX_ResourceLimits_GetMaxDepth
FUNC 48e40 e0 8 pkix_BuildResult_Destroy
FUNC 48f20 126 10 pkix_BuildResult_Equals
FUNC 49046 d4 c pkix_BuildResult_Hashcode
FUNC 4911a 1bb c pkix_BuildResult_ToString
FUNC 492d5 7e 4 pkix_BuildResult_RegisterSelf
FUNC 49353 135 10 pkix_BuildResult_Create
FUNC 49488 8f c PKIX_BuildResult_GetValidateResult
FUNC 49517 91 c PKIX_BuildResult_GetCertChain
FUNC 495a8 91 c pkix_PolicyNode_GetChildrenMutable
FUNC 49639 183 18 pkix_PolicyNode_Create
FUNC 497bc fc c pkix_PolicyNode_AddToParent
FUNC 498b8 1fd 10 pkix_PolicyNode_Prune
FUNC 49ab5 283 c pkix_SinglePolicyNode_ToString
FUNC 49d38 49b 10 pkix_PolicyNode_ToString_Helper
FUNC 4a1d3 b3 c pkix_PolicyNode_ToString
FUNC 4a286 142 8 pkix_PolicyNode_Destroy
FUNC 4a3c8 12c 8 pkix_SinglePolicyNode_Hashcode
FUNC 4a4f4 f5 c pkix_PolicyNode_Hashcode
FUNC 4a5e9 14a c pkix_SinglePolicyNode_Equals
FUNC 4a733 154 10 pkix_PolicyNode_Equals
FUNC 4a887 1fb 10 pkix_PolicyNode_DuplicateHelper
FUNC 4aa82 b3 c pkix_PolicyNode_Duplicate
FUNC 4ab35 7e 4 pkix_PolicyNode_RegisterSelf
FUNC 4abb3 91 c PKIX_PolicyNode_GetParent
FUNC 4ac44 8f c PKIX_PolicyNode_GetValidPolicy
FUNC 4acd3 e9 c PKIX_PolicyNode_GetPolicyQualifiers
FUNC 4adbc 91 c PKIX_PolicyNode_GetExpectedPolicies
FUNC 4ae4d 60 c PKIX_PolicyNode_IsCritical
FUNC 4aead 60 c PKIX_PolicyNode_GetDepth
FUNC 4af0d 10b 8 pkix_ValidateResult_Destroy
FUNC 4b018 15c 10 pkix_ValidateResult_Equals
FUNC 4b174 ff c pkix_ValidateResult_Hashcode
FUNC 4b273 131 14 pkix_ValidateResult_Create
FUNC 4b3a4 91 c PKIX_ValidateResult_GetTrustAnchor
FUNC 4b435 91 c PKIX_ValidateResult_GetPolicyTree
FUNC 4b4c6 279 c pkix_ValidateResult_ToString
FUNC 4b73f 7e 4 pkix_ValidateResult_RegisterSelf
FUNC 4b7bd 11c 14 pkix_VerifyNode_Create
FUNC 4b8d9 1d6 c pkix_VerifyNode_AddToChain
FUNC 4baaf 152 c pkix_VerifyNode_SetDepth
FUNC 4bc01 fd c pkix_VerifyNode_AddToTree
FUNC 4bcfe 2f8 c pkix_SingleVerifyNode_ToString
FUNC 4bff6 49b 10 pkix_VerifyNode_ToString_Helper
FUNC 4c491 b3 c pkix_VerifyNode_ToString
FUNC 4c544 111 8 pkix_VerifyNode_Destroy
FUNC 4c655 c5 8 pkix_SingleVerifyNode_Hashcode
FUNC 4c71a ee c pkix_VerifyNode_Hashcode
FUNC 4c808 100 c pkix_SingleVerifyNode_Equals
FUNC 4c908 15c 10 pkix_VerifyNode_Equals
FUNC 4ca64 1c2 10 pkix_VerifyNode_DuplicateHelper
FUNC 4cc26 b3 c pkix_VerifyNode_Duplicate
FUNC 4ccd9 7e 4 pkix_VerifyNode_RegisterSelf
FUNC 4cd57 b6 c pkix_VerifyNode_SetError
FUNC 4ce0d 1ac c pkix_VerifyNode_FindError
FUNC 4cfb9 b7 10 pkix_AddToVerifyLog
FUNC 4d070 2a7 18 pkix_CheckCert
FUNC 4d317 257 10 pkix_RetrieveOutputs
FUNC 4d56e 3df 40 pkix_CheckChain
FUNC 4d94d 1d3 18 PKIX_Initialize
FUNC 4db20 2a1 4 PKIX_Shutdown
FUNC 4ddc1 533 8 pkix_ForwardBuilderState_Destroy
FUNC 4e2f4 346 30 pkix_ForwardBuilderState_Create
FUNC 4e63a 12e 4 pkix_Build_GetResourceLimits
FUNC 4e768 66c c pkix_ForwardBuilderState_ToString
FUNC 4edd4 72 4 pkix_ForwardBuilderState_RegisterSelf
FUNC 4ee46 7e 4 pkix_ForwardBuilderState_IsIOPending
FUNC 4eec4 17c 10 pkix_Build_SortCertComparator
FUNC 4f040 4cc 1c pkix_Build_VerifyCertificate
FUNC 4f50c 8fe 14 pkix_Build_ValidationCheckers
FUNC 4fe0a 293 14 pkix_Build_ValidateEntireChain
FUNC 5009d 8d 8 pkix_Build_SortCandidateCerts
FUNC 5012a 48a 4 pkix_Build_BuildSelectorAndParams
FUNC 505b4 2db 10 pkix_Build_SelectCertsFromTrustAnchors
FUNC 5088f 1e5 c pkix_Build_RemoveDupUntrustedCerts
FUNC 50a74 479 10 pkix_Build_GatherCerts
FUNC 50eed 16b 4 pkix_Build_UpdateDate
FUNC 51058 1a67 10 pkix_BuildForwardDepthFirstSearch
FUNC 52abf 3ee c pkix_Build_CheckInCache
FUNC 52ead dd2 18 pkix_Build_InitiateBuildChain
FUNC 53c7f 16d 10 pkix_Build_ResumeBuildChain
FUNC 53dec 1cd 18 PKIX_BuildChain
FUNC 53fb9 142 c pkix_IsCertSelfIssued
FUNC 540fb e4 1c pkix_Throw
FUNC 541df e9 10 pkix_CheckTypes
FUNC 542c8 19 c pkix_CheckType
FUNC 542e1 7c 10 pkix_hash
FUNC 5435d 87 c pkix_duplicateImmutable
FUNC 543e4 3b 4 pkix_hex2i
FUNC 5441f 1e 4 pkix_i2hex
FUNC 5443d 25 8 pkix_isPlaintext
FUNC 54462 2d3 18 pkix_CacheCertChain_Lookup
FUNC 54735 14a c pkix_CacheCertChain_Remove
FUNC 5487f 231 14 pkix_CacheCertChain_Add
FUNC 54ab0 5ce 18 pkix_CacheCert_Lookup
FUNC 5507e 2e8 10 pkix_CacheCert_Add
FUNC 55366 1c3 10 pkix_Error_Equals
FUNC 55529 e2 8 pkix_Error_Destroy
FUNC 5560b 5d c pkix_Error_Hashcode
FUNC 55668 157 18 PKIX_Error_Create
FUNC 557bf b1 c PKIX_Error_GetDescription
FUNC 55870 2bb c pkix_Error_ToString
FUNC 55b2b 7e 4 pkix_Error_RegisterSelf
FUNC 55ba9 219 18 pkix_Logger_Check
FUNC 55dc2 88 18 pkix_Logger_CheckWithCode
FUNC 55e4a b9 8 pkix_Logger_Destroy
FUNC 55f03 1b9 c pkix_Logger_ToString
FUNC 560bc 149 10 pkix_Logger_Equals
FUNC 56205 c9 c pkix_Logger_Hashcode
FUNC 562ce 14a c pkix_Logger_Duplicate
FUNC 56418 7e 4 pkix_Logger_RegisterSelf
FUNC 56496 a6 c pkix_List_Create_Internal
FUNC 5653c f1 8 pkix_List_Destroy
FUNC 5662d 18c c pkix_List_Duplicate
FUNC 567b9 9e 4 pkix_List_GetElement
FUNC 56857 83 8 PKIX_List_Create
FUNC 568da 8a 8 PKIX_List_SetImmutable
FUNC 56964 94 c PKIX_List_GetLength
FUNC 569f8 99 c PKIX_List_IsEmpty
FUNC 56a91 169 c PKIX_List_AppendItem
FUNC 56bfa 1c2 10 PKIX_List_InsertItem
FUNC 56dbc f5 10 PKIX_List_GetItem
FUNC 56eb1 13d 10 PKIX_List_SetItem
FUNC 56fee 178 c PKIX_List_DeleteItem
FUNC 57166 262 c PKIX_List_ReverseList
FUNC 573c8 273 c pkix_List_ToString_Helper
FUNC 5763b 184 c pkix_List_ToString
FUNC 577bf 28d 10 pkix_List_Equals
FUNC 57a4c 1b3 c pkix_List_Hashcode
FUNC 57bff 7e 4 pkix_List_RegisterSelf
FUNC 57c7d 162 10 pkix_List_Contains
FUNC 57ddf 16e c pkix_List_Remove
FUNC 57f4d 142 c pkix_List_RemoveItems
FUNC 5808f 237 10 pkix_List_MergeLists
FUNC 582c6 14a c pkix_List_AppendList
FUNC 58410 170 c pkix_List_AppendUnique
FUNC 58580 324 10 pkix_List_BubbleSort
FUNC 588a4 9e c PKIX_DoAddError
FUNC 58942 f0 14 PKIX_DoThrow
FUNC 58a32 62 10 PKIX_DoReturn
FUNC 58a94 e4 8 pkix_CRLSelector_Destroy
FUNC 58b78 1f5 c pkix_CRLSelector_ToString_Helper
FUNC 58d6d b1 c pkix_CRLSelector_ToString
FUNC 58e1e f3 c pkix_CRLSelector_Hashcode
FUNC 58f11 187 10 pkix_CRLSelector_Equals
FUNC 59098 16c c pkix_CRLSelector_Duplicate
FUNC 59204 480 10 pkix_CRLSelector_DefaultMatch
FUNC 59684 7e 4 pkix_CRLSelector_RegisterSelf
FUNC 59702 109 10 pkix_CRLSelector_Create
FUNC 5980b d4 c PKIX_CRLSelector_SetCommonCRLSelectorParams
FUNC 598df 27a 14 PKIX_CRLSelector_Create
FUNC 59b59 18f 8 pkix_ComCRLSelParams_Destroy
FUNC 59ce8 327 c pkix_ComCRLSelParams_ToString_Helper
FUNC 5a00f b1 c pkix_ComCRLSelParams_ToString
FUNC 5a0c0 170 c pkix_ComCRLSelParams_Hashcode
FUNC 5a230 274 10 pkix_ComCRLSelParams_Equals
FUNC 5a4a4 22b c pkix_ComCRLSelParams_Duplicate
FUNC 5a6cf 7e 4 pkix_ComCRLSelParams_RegisterSelf
FUNC 5a74d b1 8 PKIX_ComCRLSelParams_Create
FUNC 5a7fe 8f c PKIX_ComCRLSelParams_GetIssuerNames
FUNC 5a88d c5 c PKIX_ComCRLSelParams_AddIssuerName
FUNC 5a952 91 c PKIX_ComCRLSelParams_GetDateAndTime
FUNC 5a9e3 e0 c PKIX_ComCRLSelParams_SetDateAndTime
FUNC 5aac3 60 c PKIX_ComCRLSelParams_GetNISTPolicyEnabled
FUNC 5ab23 91 c PKIX_ComCRLSelParams_GetMaxCRLNumber
FUNC 5abb4 91 c PKIX_ComCRLSelParams_GetMinCRLNumber
FUNC 5ac45 b0 c PKIX_ComCRLSelParams_SetCrlDp
FUNC 5acf5 c2 8 pkix_CertStore_Destroy
FUNC 5adb7 c8 c pkix_CertStore_Hashcode
FUNC 5ae7f fe 10 pkix_CertStore_Equals
FUNC 5af7d 7a 4 pkix_CertStore_RegisterSelf
FUNC 5aff7 159 30 PKIX_CertStore_Create
FUNC 5b150 5f c PKIX_CertStore_GetCertCallback
FUNC 5b1af 60 c PKIX_CertStore_GetCRLCallback
FUNC 5b20f 8f 18 PKIX_CertStore_CertContinue
FUNC 5b29e 60 c PKIX_CertStore_GetTrustCallback
FUNC 5b2fe 60 c PKIX_CertStore_GetImportCrlCallback
FUNC 5b35e 60 c PKIX_CertStore_GetCrlCheckerFn
FUNC 5b3be 60 c PKIX_CertStore_GetCertStoreCacheFlag
FUNC 5b41e 60 c PKIX_CertStore_GetLocalFlag
FUNC 5b47e 94 10 pkix_pl_CertBasicConstraints_Create
FUNC 5b512 7c 8 pkix_pl_CertBasicConstraints_Destroy
FUNC 5b58e 152 c pkix_pl_CertBasicConstraints_ToString
FUNC 5b6e0 c6 c pkix_pl_CertBasicConstraints_Hashcode
FUNC 5b7a6 ea 10 pkix_pl_CertBasicConstraints_Equals
FUNC 5b890 7e 4 pkix_pl_CertBasicConstraints_RegisterSelf
FUNC 5b90e 5f c PKIX_PL_BasicConstraints_GetCAFlag
FUNC 5b96d 60 c PKIX_PL_BasicConstraints_GetPathLenConstraint
FUNC 5b9cd 8d 8 pkix_pl_Cert_IsExtensionCritical
FUNC 5ba5a 4f9 c pkix_pl_Cert_DecodePolicyInfo
FUNC 5bf53 325 c pkix_pl_Cert_DecodePolicyMapping
FUNC 5c278 ed 10 pkix_pl_Cert_DecodePolicyConstraints
FUNC 5c365 cd c pkix_pl_Cert_DecodeInhibitAnyPolicy
FUNC 5c432 1d3 c pkix_pl_Cert_GetNssSubjectAltNames
FUNC 5c605 3c7 8 pkix_pl_Cert_Destroy
FUNC 5c9cc b5 c pkix_pl_Cert_Hashcode
FUNC 5ca81 e4 10 pkix_pl_Cert_Equals
FUNC 5cb65 183 c pkix_pl_Cert_CreateWithNSSCert
FUNC 5cce8 fa c pkix_pl_Cert_CreateToList
FUNC 5cde2 1bd c PKIX_PL_Cert_Create
FUNC 5cf9f db c PKIX_PL_Cert_CreateFromCERTCertificate
FUNC 5d07a 9d c PKIX_PL_Cert_GetVersion
FUNC 5d117 18d c PKIX_PL_Cert_GetSerialNumber
FUNC 5d2a4 171 c PKIX_PL_Cert_GetSubject
FUNC 5d415 142 c PKIX_PL_Cert_GetIssuer
FUNC 5d557 29f c PKIX_PL_Cert_GetSubjectAltNames
FUNC 5d7f6 23f c PKIX_PL_Cert_GetAllSubjectNames
FUNC 5da35 1ae c PKIX_PL_Cert_GetSubjectPublicKeyAlgId
FUNC 5dbe3 273 c PKIX_PL_Cert_GetSubjectPublicKey
FUNC 5de56 166 c PKIX_PL_Cert_GetCriticalExtensionOIDs
FUNC 5dfbc 22a c PKIX_PL_Cert_GetAuthorityKeyIdentifier
FUNC 5e1e6 205 c PKIX_PL_Cert_GetSubjectKeyIdentifier
FUNC 5e3eb 328 c PKIX_PL_Cert_GetExtendedKeyUsage
FUNC 5e713 1bd c PKIX_PL_Cert_GetBasicConstraints
FUNC 5e8d0 1ae c PKIX_PL_Cert_GetPolicyInformation
FUNC 5ea7e 1ae c PKIX_PL_Cert_GetPolicyMappings
FUNC 5ec2c 151 c PKIX_PL_Cert_GetRequireExplicitPolicy
FUNC 5ed7d 151 c PKIX_PL_Cert_GetPolicyMappingInhibited
FUNC 5eece 140 c PKIX_PL_Cert_GetInhibitAnyPolicy
FUNC 5f00e 8b c PKIX_PL_Cert_AreCertPoliciesCritical
FUNC 5f099 206 c PKIX_PL_Cert_VerifySignature
FUNC 5f29f e8 c PKIX_PL_Cert_CheckValidity
FUNC 5f387 c7 c PKIX_PL_Cert_GetValidityNotAfter
FUNC 5f44e 11f c PKIX_PL_Cert_VerifyCertAndKeyType
FUNC 5f56d 106 c PKIX_PL_Cert_VerifyKeyUsage
FUNC 5f673 17b c PKIX_PL_Cert_GetNameConstraints
FUNC 5f7ee ed c PKIX_PL_Cert_CheckNameConstraints
FUNC 5f8db cf 8 pkix_pl_Cert_GetTrusted
FUNC 5f9aa 188 10 PKIX_PL_Cert_IsCertTrusted
FUNC 5fb32 a0 c PKIX_PL_Cert_IsLeafCertTrusted
FUNC 5fbd2 55 8 PKIX_PL_Cert_SetAsTrustAnchor
FUNC 5fc27 60 c PKIX_PL_Cert_GetCacheFlag
FUNC 5fc87 55 c PKIX_PL_Cert_SetCacheFlag
FUNC 5fcdc 88 c PKIX_PL_Cert_SetTrustCertStore
FUNC 5fd64 21f c PKIX_PL_Cert_GetAuthorityInfoAccess
FUNC 5ff83 233 c PKIX_PL_Cert_GetSubjectInfoAccess
FUNC 601b6 225 c PKIX_PL_Cert_GetCrlDp
FUNC 603db 70 c PKIX_PL_Cert_GetCERTCertificate
FUNC 6044b daf 10 pkix_pl_Cert_ToString_Helper
FUNC 611fa b3 c pkix_pl_Cert_ToString
FUNC 612ad 7e 4 pkix_pl_Cert_RegisterSelf
FUNC 6132b 10d 10 pkix_pl_CertPolicyInfo_Create
FUNC 61438 d4 8 pkix_pl_CertPolicyInfo_Destroy
FUNC 6150c 1eb c pkix_pl_CertPolicyInfo_ToString
FUNC 616f7 f6 c pkix_pl_CertPolicyInfo_Hashcode
FUNC 617ed 17a 10 pkix_pl_CertPolicyInfo_Equals
FUNC 61967 7e 4 pkix_pl_CertPolicyInfo_RegisterSelf
FUNC 619e5 8f c PKIX_PL_CertPolicyInfo_GetPolicyId
FUNC 61a74 91 c PKIX_PL_CertPolicyInfo_GetPolQualifiers
FUNC 61b05 114 10 pkix_pl_CertPolicyMap_Create
FUNC 61c19 e0 8 pkix_pl_CertPolicyMap_Destroy
FUNC 61cf9 20d c pkix_pl_CertPolicyMap_ToString
FUNC 61f06 f3 c pkix_pl_CertPolicyMap_Hashcode
FUNC 61ff9 175 10 pkix_pl_CertPolicyMap_Equals
FUNC 6216e b4 c pkix_pl_CertPolicyMap_Duplicate
FUNC 62222 7e 4 pkix_pl_CertPolicyMap_RegisterSelf
FUNC 622a0 8f c PKIX_PL_CertPolicyMap_GetIssuerDomainPolicy
FUNC 6232f 91 c PKIX_PL_CertPolicyMap_GetSubjectDomainPolicy
FUNC 623c0 114 10 pkix_pl_CertPolicyQualifier_Create
FUNC 624d4 e0 8 pkix_pl_CertPolicyQualifier_Destroy
FUNC 625b4 1fa c pkix_pl_CertPolicyQualifier_ToString
FUNC 627ae fe c pkix_pl_CertPolicyQualifier_Hashcode
FUNC 628ac 15c 10 pkix_pl_CertPolicyQualifier_Equals
FUNC 62a08 7e 4 pkix_pl_CertPolicyQualifier_RegisterSelf
FUNC 62a86 98 4 pkix_pl_CRL_GetVersion
FUNC 62b1e 1cd c PKIX_PL_CRL_GetCRLNumber
FUNC 62ceb 1af 8 pkix_pl_CRL_GetSignatureAlgId
FUNC 62e9a 15f 8 pkix_pl_CRL_GetCRLEntries
FUNC 62ff9 19d 8 pkix_pl_CRL_Destroy
FUNC 63196 100 c pkix_pl_CRL_Hashcode
FUNC 63296 11c 10 pkix_pl_CRL_Equals
FUNC 633b2 133 10 PKIX_PL_CRL_VerifyUpdateTime
FUNC 634e5 143 14 pkix_pl_CRL_CreateWithSignedCRL
FUNC 63628 13f c PKIX_PL_CRL_GetIssuer
FUNC 63767 138 c PKIX_PL_CRL_GetCriticalExtensionOIDs
FUNC 6389f 47 c PKIX_PL_CRL_ReleaseDerCrl
FUNC 638e6 56f c pkix_pl_CRL_ToString_Helper
FUNC 63e55 b1 c pkix_pl_CRL_ToString
FUNC 63f06 7e 4 pkix_pl_CRL_RegisterSelf
FUNC 63f84 8b 8 pkix_pl_CrlDp_Destroy
FUNC 6400f 60 4 pkix_pl_CrlDp_RegisterSelf
FUNC 6406f 201 10 pkix_pl_CrlDp_Create
FUNC 64270 ea 8 pkix_pl_CRLEntry_Destroy
FUNC 6435a 14b 8 pkix_pl_CRLEntry_Extensions_Hashcode
FUNC 644a5 1f3 c pkix_pl_CRLEntry_Extensions_Equals
FUNC 64698 159 10 pkix_pl_CRLEntry_Equals
FUNC 647f1 ae c pkix_pl_CRLEntry_CreateEntry
FUNC 6489f 1e7 c pkix_pl_CRLEntry_Create
FUNC 64a86 10e c PKIX_PL_CRLEntry_GetCRLEntryReasonCode
FUNC 64b94 138 c PKIX_PL_CRLEntry_GetCriticalExtensionOIDs
FUNC 64ccc 2ae c pkix_pl_CRLEntry_ToString_Helper
FUNC 64f7a b1 c pkix_pl_CRLEntry_ToString
FUNC 6502b 16e c pkix_pl_CRLEntry_Hashcode
FUNC 65199 7e 4 pkix_pl_CRLEntry_RegisterSelf
FUNC 65217 65 c pkix_pl_Date_GetPRTime
FUNC 6527c 94 10 pkix_pl_Date_CreateFromPRTime
FUNC 65310 115 c pkix_pl_Date_ToString_Helper
FUNC 65425 74 8 pkix_pl_Date_Destroy
FUNC 65499 107 c pkix_pl_Date_ToString
FUNC 655a0 af c pkix_pl_Date_Hashcode
FUNC 6564f b7 10 pkix_pl_Date_Comparator
FUNC 65706 d7 10 pkix_pl_Date_Equals
FUNC 657dd 8a 4 pkix_pl_Date_RegisterSelf
FUNC 65867 145 c PKIX_PL_Date_Create_UTCTime
FUNC 659ac b3 c PKIX_PL_Date_Create_CurrentOffBySeconds
FUNC 65a5f 60 10 PKIX_PL_Date_CreateFromPRTime
FUNC 65abf 66 c pkix_pl_GeneralName_GetNssGeneralName
FUNC 65b25 165 8 pkix_pl_OtherName_Create
FUNC 65c8a a0 8 pkix_pl_DirectoryName_Create
FUNC 65d2a 22e c pkix_pl_GeneralName_Create
FUNC 65f58 1ec 4 pkix_pl_GeneralName_ToString_Helper
FUNC 66144 160 8 pkix_pl_GeneralName_Destroy
FUNC 662a4 b9 c pkix_pl_GeneralName_ToString
FUNC 6635d 1a0 c pkix_pl_GeneralName_Hashcode
FUNC 664fd 1a7 10 pkix_pl_GeneralName_Equals
FUNC 666a4 7e 4 pkix_pl_GeneralName_RegisterSelf
FUNC 66722 f7 c pkix_pl_InfoAccess_Create
FUNC 66819 a6 8 pkix_pl_InfoAccess_Destroy
FUNC 668bf 208 c pkix_pl_InfoAccess_ToString
FUNC 66ac7 bf c pkix_pl_InfoAccess_Hashcode
FUNC 66b86 106 10 pkix_pl_InfoAccess_Equals
FUNC 66c8c 7e 4 pkix_pl_InfoAccess_RegisterSelf
FUNC 66d0a 287 c pkix_pl_InfoAccess_CreateList
FUNC 66f91 5f c PKIX_PL_InfoAccess_GetMethod
FUNC 66ff0 91 c PKIX_PL_InfoAccess_GetLocation
FUNC 67081 148 c PKIX_PL_InfoAccess_GetLocationType
FUNC 671c9 1b5 18 pkix_pl_InfoAccess_ParseTokens
FUNC 6737e 2c 0 pkix_pl_HexDigitToInt
FUNC 673aa 62 0 pkix_pl_UnescapeURL
FUNC 6740c 35a 14 pkix_pl_InfoAccess_ParseLocation
FUNC 67766 238 8 pkix_pl_CertNameConstraints_GetPermitted
FUNC 6799e 239 8 pkix_pl_CertNameConstraints_GetExcluded
FUNC 67bd7 118 10 pkix_pl_CertNameConstraints_CheckNameSpaceNssNames
FUNC 67cef 117 8 pkix_pl_CertNameConstraints_Destroy
FUNC 67e06 285 8 pkix_pl_CertNameConstraints_ToString_Helper
FUNC 6808b b0 c pkix_pl_CertNameConstraints_ToString
FUNC 6813b 19b c pkix_pl_CertNameConstraints_Hashcode
FUNC 682d6 2a4 10 pkix_pl_CertNameConstraints_Equals
FUNC 6857a 7d 4 pkix_pl_CertNameConstraints_RegisterSelf
FUNC 685f7 132 c pkix_pl_CertNameConstraints_Create_Helper
FUNC 68729 15d c pkix_pl_CertNameConstraints_Create
FUNC 68886 1e5 10 PKIX_PL_CertNameConstraints_CheckNamesInNameSpace
FUNC 68a6b 13b 8 pkix_pl_OcspRequest_Destroy
FUNC 68ba6 165 c pkix_pl_OcspRequest_Hashcode
FUNC 68d0b 1d2 10 pkix_pl_OcspRequest_Equals
FUNC 68edd 7a 4 pkix_pl_OcspRequest_RegisterSelf
FUNC 68f57 2a4 20 pkix_pl_OcspRequest_Create
FUNC 691fb 60 c pkix_pl_OcspRequest_GetEncoded
FUNC 6925b 60 c pkix_pl_OcspRequest_GetLocation
FUNC 692bb 16c 8 pkix_pl_OcspResponse_Destroy
FUNC 69427 b2 c pkix_pl_OcspResponse_Hashcode
FUNC 694d9 109 10 pkix_pl_OcspResponse_Equals
FUNC 695e2 74 4 pkix_pl_OcspResponse_RegisterSelf
FUNC 69656 401 18 pkix_pl_OcspResponse_Create
FUNC 69a57 85 10 pkix_pl_OcspResponse_Decode
FUNC 69adc 8c 10 pkix_pl_OcspResponse_GetStatus
FUNC 69b68 100 18 pkix_pl_OcspResponse_VerifyResponse
FUNC 69c68 2e1 18 pkix_pl_OcspResponse_VerifySignature
FUNC 69f49 138 18 pkix_pl_OcspResponse_GetStatusForCert
FUNC 6a081 15f 8 pkix_pl_PublicKey_ToString_Helper
FUNC 6a1e0 75 4 pkix_pl_DestroySPKI
FUNC 6a255 c7 8 pkix_pl_PublicKey_Destroy
FUNC 6a31c b0 c pkix_pl_PublicKey_ToString
FUNC 6a3cc 116 c pkix_pl_PublicKey_Hashcode
FUNC 6a4e2 108 10 pkix_pl_PublicKey_Equals
FUNC 6a5ea 7e 4 pkix_pl_PublicKey_RegisterSelf
FUNC 6a668 ac c PKIX_PL_PublicKey_NeedsDSAParameters
FUNC 6a714 234 10 PKIX_PL_PublicKey_MakeInheritedDSAPublicKey
FUNC 6a948 88 8 pkix_pl_X500Name_Destroy
FUNC 6a9d0 ec c pkix_pl_X500Name_ToString
FUNC 6aabc b1 c pkix_pl_X500Name_Hashcode
FUNC 6ab6d 19c 10 PKIX_PL_X500Name_CreateFromCERTName
FUNC 6ad09 a9 10 PKIX_PL_X500Name_Match
FUNC 6adb2 b0 10 pkix_pl_X500Name_GetDERName
FUNC 6ae62 ec 10 pkix_pl_X500Name_Equals
FUNC 6af4e 7e 4 pkix_pl_X500Name_RegisterSelf
FUNC 6afcc 82 8 pkix_pl_OcspCertID_Destroy
FUNC 6b04e 72 4 pkix_pl_OcspCertID_RegisterSelf
FUNC 6b0c0 14c 10 PKIX_PL_OcspCertID_Create
FUNC 6b20c d4 18 PKIX_PL_OcspCertID_GetFreshCacheStatus
FUNC 6b2e0 75 8 PKIX_PL_OcspCertID_RememberOCSPProcessingFailure
FUNC 6b355 ba 10 pkix_pl_BigInt_Comparator
FUNC 6b40f b5 8 pkix_pl_BigInt_Destroy
FUNC 6b4c4 167 c pkix_pl_BigInt_ToString
FUNC 6b62b a1 c pkix_pl_BigInt_Hashcode
FUNC 6b6cc f7 10 pkix_pl_BigInt_Equals
FUNC 6b7c3 81 4 pkix_pl_BigInt_RegisterSelf
FUNC 6b844 146 10 pkix_pl_BigInt_CreateWithBytes
FUNC 6b98a 1f6 c pkix_pl_ByteArray_ToHexString
FUNC 6bb80 ed c pkix_pl_ByteArray_Comparator
FUNC 6bc6d 21d c pkix_pl_ByteArray_ToString
FUNC 6be8a f9 10 pkix_pl_ByteArray_Equals
FUNC 6bf83 b7 8 pkix_pl_ByteArray_Destroy
FUNC 6c03a a2 c pkix_pl_ByteArray_Hashcode
FUNC 6c0dc 7e 4 pkix_pl_ByteArray_RegisterSelf
FUNC 6c15a 11d 10 PKIX_PL_ByteArray_Create
FUNC 6c277 f1 c PKIX_PL_ByteArray_GetPointer
FUNC 6c368 60 c PKIX_PL_ByteArray_GetLength
FUNC 6c3c8 67 8 pkix_LockObject
FUNC 6c42f 9e 8 pkix_UnlockObject
FUNC 6c4cd b2 c pkix_pl_getOIDToken
FUNC 6c57f 22f 10 pkix_pl_helperBytes2Ascii
FUNC 6c7ae 152 c pkix_pl_ipAddrBytes2Ascii
FUNC 6c900 1f7 c pkix_pl_oidBytes2Ascii
FUNC 6caf7 2b4 18 pkix_UTF16_to_EscASCII
FUNC 6cdab 414 18 pkix_EscASCII_to_UTF16
FUNC 6d1bf 175 18 pkix_UTF16_to_UTF8
FUNC 6d334 153 14 pkix_UTF8_to_UTF16
FUNC 6d487 158 8 pkix_pl_HashTable_Destroy
FUNC 6d5df 6e 4 pkix_pl_HashTable_RegisterSelf
FUNC 6d64d 151 10 PKIX_PL_HashTable_Create
FUNC 6d79e 26b 10 PKIX_PL_HashTable_Add
FUNC 6da09 1e3 c PKIX_PL_HashTable_Remove
FUNC 6dbec 1b4 10 PKIX_PL_HashTable_Lookup
FUNC 6dda0 6 0 PKIX_ALLOC_ERROR
FUNC 6dda6 85 4 pkix_pl_lifecycle_ObjectLeakCheck
FUNC 6de2b 2ba c PKIX_PL_Initialize
FUNC 6e0e5 80 4 PKIX_PL_Shutdown
FUNC 6e165 c1 c PKIX_PL_Malloc
FUNC 6e226 ca 10 PKIX_PL_Calloc
FUNC 6e2f0 d7 10 PKIX_PL_Realloc
FUNC 6e3c7 4d 8 PKIX_PL_Free
FUNC 6e414 81 8 pkix_pl_MonitorLock_Destroy
FUNC 6e495 6e 4 pkix_pl_MonitorLock_RegisterSelf
FUNC 6e503 eb 8 PKIX_PL_MonitorLock_Create
FUNC 6e5ee 66 8 PKIX_PL_MonitorLock_Enter
FUNC 6e654 66 8 PKIX_PL_MonitorLock_Exit
FUNC 6e6ba 81 8 pkix_pl_Mutex_Destroy
FUNC 6e73b 6e 4 pkix_pl_Mutex_RegisterSelf
FUNC 6e7a9 eb 8 PKIX_PL_Mutex_Create
FUNC 6e894 66 8 PKIX_PL_Mutex_Lock
FUNC 6e8fa 92 8 PKIX_PL_Mutex_Unlock
FUNC 6e98c ac 4 pkix_pl_Object_GetHeader
FUNC 6ea38 11f 4 pkix_pl_Object_Destroy
FUNC 6eb57 6b 10 pkix_pl_Object_Equals_Default
FUNC 6ebc2 5d c pkix_pl_Object_Hashcode_Default
FUNC 6ec1f bf c pkix_pl_Object_RetrieveEqualsCallback
FUNC 6ecde 6a 4 pkix_pl_Object_RegisterSelf
FUNC 6ed48 165 10 PKIX_PL_Object_Alloc
FUNC 6eead b7 8 PKIX_PL_Object_IncRef
FUNC 6ef64 143 8 PKIX_PL_Object_DecRef
FUNC 6f0a7 128 10 PKIX_PL_Object_Equals
FUNC 6f1cf 113 c PKIX_PL_Object_Duplicate
FUNC 6f2e2 160 c PKIX_PL_Object_Hashcode
FUNC 6f442 f0 8 PKIX_PL_Object_InvalidateCache
FUNC 6f532 136 10 PKIX_PL_Object_Compare
FUNC 6f668 71 8 PKIX_PL_Object_Lock
FUNC 6f6d9 71 8 PKIX_PL_Object_Unlock
FUNC 6f74a 89 c PKIX_PL_Object_GetType
FUNC 6f7d3 170 c pkix_pl_Object_ToString_Default
FUNC 6f943 1cc c PKIX_PL_Object_ToString
FUNC 6fb0f 98 10 pkix_pl_OID_Comparator
FUNC 6fba7 82 8 pkix_pl_OID_Destroy
FUNC 6fc29 a3 c pkix_pl_OID_Hashcode
FUNC 6fccc f5 10 pkix_pl_OID_Equals
FUNC 6fdc1 c2 c pkix_pl_OID_ToString
FUNC 6fe83 88 4 pkix_pl_OID_RegisterSelf
FUNC 6ff0b d1 c PKIX_PL_OID_CreateBySECItem
FUNC 6ffdc a0 c PKIX_PL_OID_Create
FUNC 7007c 181 c pkix_pl_OID_GetCriticalExtensionOIDs
FUNC 701fd 67 8 pkix_pl_KeyComparator_Default
FUNC 70264 136 c pkix_pl_PrimHashTable_Create
FUNC 7039a 14c 18 pkix_pl_PrimHashTable_Add
FUNC 704e6 154 1c pkix_pl_PrimHashTable_Remove
FUNC 7063a 10c 18 pkix_pl_PrimHashTable_Lookup
FUNC 70746 10a 8 pkix_pl_PrimHashTable_Destroy
FUNC 70850 78 10 pkix_pl_PrimHashTable_GetBucketSize
FUNC 708c8 c0 14 pkix_pl_PrimHashTable_RemoveFIFO
FUNC 70988 81 8 pkix_pl_RWLock_Destroy
FUNC 70a09 6e 4 pkix_pl_RWLock_RegisterSelf
FUNC 70a77 bb 8 pkix_pl_String_Comparator
FUNC 70b32 e6 8 pkix_pl_String_Destroy
FUNC 70c18 f8 10 pkix_pl_String_Equals
FUNC 70d10 a2 c pkix_pl_String_Hashcode
FUNC 70db2 302 14 PKIX_PL_String_Create
FUNC 710b4 154 14 PKIX_PL_String_GetEncoded
FUNC 71208 100 c pkix_pl_String_ToString
FUNC 71308 7e 4 pkix_pl_String_RegisterSelf
FUNC 71386 304 c PKIX_PL_Sprintf
FUNC 7168a 80 14 PKIX_PL_LdapClient_InitiateRequest
FUNC 7170a 7e 10 PKIX_PL_LdapClient_ResumeRequest
FUNC 71788 13d 8 pkix_pl_AIAMgr_Destroy
FUNC 718c5 55 4 pkix_pl_AIAMgr_RegisterSelf
FUNC 7191a 15b 10 pkix_pl_AiaMgr_FindLDAPClient
FUNC 71a75 3e4 14 pkix_pl_AIAMgr_GetHTTPCerts
FUNC 71e59 323 14 pkix_pl_AIAMgr_GetLDAPCerts
FUNC 7217c b7 8 PKIX_PL_AIAMgr_Create
FUNC 72233 48a 14 PKIX_PL_AIAMgr_GetAIACerts
FUNC 726bd 10b 8 pkix_pl_CollectionCertStoreContext_Destroy
FUNC 727c8 b4 c pkix_pl_CollectionCertStoreContext_Hashcode
FUNC 7287c ca 10 pkix_pl_CollectionCertStoreContext_Equals
FUNC 72946 76 4 pkix_pl_CollectionCertStoreContext_RegisterSelf
FUNC 729bc ab 8 pkix_pl_HttpCertStoreContext_Destroy
FUNC 72a67 56 4 pkix_pl_HttpCertStoreContext_RegisterSelf
FUNC 72abd 6f c certCallback
FUNC 72b2c 37 0 pkix_getDecodeFunction
FUNC 72b63 31 4 pkix_pl_HttpCertStore_Shutdown
FUNC 72b94 bf 14 pkix_pl_HttpCertStore_DecodeCertPackage
FUNC 72c53 167 18 pkix_pl_HttpCertStore_ProcessCertResponse
FUNC 72dba 1cb 18 pkix_HttpCertStore_FindSocketConnection
FUNC 72f85 347 c pkix_pl_HttpDefaultClient_HdrCheckComplete
FUNC 732cc 1c8 10 pkix_pl_HttpDefaultClient_Create
FUNC 73494 138 8 pkix_pl_HttpDefaultClient_Destroy
FUNC 735cc 7a 4 pkix_pl_HttpDefaultClient_RegisterSelf
FUNC 73646 ca 8 pkix_pl_HttpDefaultClient_ConnectContinue
FUNC 73710 e8 c pkix_pl_HttpDefaultClient_Send
FUNC 737f8 a4 c pkix_pl_HttpDefaultClient_SendContinue
FUNC 7389c 10b 8 pkix_pl_HttpDefaultClient_RecvHdr
FUNC 739a7 bb 8 pkix_pl_HttpDefaultClient_RecvHdrContinue
FUNC 73a62 1df 8 pkix_pl_HttpDefaultClient_RecvBody
FUNC 73c41 1cc 4 pkix_pl_HttpDefaultClient_Dispatch
FUNC 73e0d 8e 10 pkix_pl_HttpDefaultClient_CreateSession
FUNC 73e9b 7d c pkix_pl_HttpDefaultClient_KeepAliveSession
FUNC 73f18 233 1c pkix_pl_HttpDefaultClient_RequestCreate
FUNC 7414b 97 14 pkix_pl_HttpDefaultClient_SetPostData
FUNC 741e2 318 24 pkix_pl_HttpDefaultClient_TrySendAndReceive
FUNC 744fa 74 8 pkix_pl_HttpDefaultClient_Cancel
FUNC 7456e 33 c pkix_pl_HttpDefaultClient_CreateSessionFcn
FUNC 745a1 2f 8 pkix_pl_HttpDefaultClient_KeepAliveSessionFcn
FUNC 745d0 2a 4 pkix_pl_HttpDefaultClient_FreeSessionFcn
FUNC 745fa 3e 18 pkix_pl_HttpDefaultClient_RequestCreateFcn
FUNC 74638 37 10 pkix_pl_HttpDefaultClient_SetPostDataFcn
FUNC 7466f 4 c pkix_pl_HttpDefaultClient_AddHeaderFcn
FUNC 74673 4a 1c pkix_pl_HttpDefaultClient_TrySendAndReceiveFcn
FUNC 746bd 2a 4 pkix_pl_HttpDefaultClient_CancelFcn
FUNC 746e7 11e c pkix_pl_LdapCertStore_DecodeCrossCertPair
FUNC 74805 2bd c pkix_pl_LdapCertStore_BuildCertList
FUNC 74ac2 142 8 pkix_pl_LdapResponse_Destroy
FUNC 74c04 f7 c pkix_pl_LdapResponse_Hashcode
FUNC 74cfb 160 10 pkix_pl_LdapResponse_Equals
FUNC 74e5b 7a 4 pkix_pl_LdapResponse_RegisterSelf
FUNC 74ed5 15f 1c pkix_pl_LdapResponse_Create
FUNC 75034 9b 14 pkix_pl_LdapResponse_Append
FUNC 750cf 68 c pkix_pl_LdapResponse_IsComplete
FUNC 75137 b7 10 pkix_pl_LdapResponse_Decode
FUNC 751ee 5d c pkix_pl_LdapResponse_GetMessage
FUNC 7524b 63 c pkix_pl_LdapResponse_GetCapacity
FUNC 752ae 60 c pkix_pl_LdapResponse_GetMessageType
FUNC 7530e 97 c pkix_pl_LdapResponse_GetResultCode
FUNC 753a5 108 c pkix_pl_LdapRequest_AttrTypeToBit
FUNC 754ad 10b c pkix_pl_LdapRequest_AttrStringToBit
FUNC 755b8 141 4 pkix_pl_LdapRequest_EncodeAttrs
FUNC 756f9 74 8 pkix_pl_LdapRequest_Destroy
FUNC 7576d f7 c pkix_pl_LdapRequest_Hashcode
FUNC 75864 158 10 pkix_pl_LdapRequest_Equals
FUNC 759bc 7a 4 pkix_pl_LdapRequest_RegisterSelf
FUNC 75a36 261 30 pkix_pl_LdapRequest_Create
FUNC 75c97 60 c pkix_pl_LdapRequest_GetEncoded
FUNC 75cf7 123 14 pkix_pl_LdapDefaultClient_MakeBind
FUNC 75e1a e5 10 pkix_pl_LdapDefaultClient_MakeUnbind
FUNC 75eff a7 14 pkix_pl_LdapDefaultClient_DecodeBindResponse
FUNC 75fa6 f5 8 pkix_pl_LdapDefaultClient_VerifyBindResponse
FUNC 7609b 2fd c pkix_pl_LdapDefaultClient_RecvCheckComplete
FUNC 76398 237 8 pkix_pl_LdapDefaultClient_Destroy
FUNC 765cf c1 c pkix_pl_LdapDefaultClient_Hashcode
FUNC 76690 fb 10 pkix_pl_LdapDefaultClient_Equals
FUNC 7678b 76 4 pkix_pl_LdapDefaultClient_RegisterSelf
FUNC 76801 f1 8 pkix_pl_LdapDefaultClient_ConnectContinue
FUNC 768f2 111 8 pkix_pl_LdapDefaultClient_Bind
FUNC 76a03 bc c pkix_pl_LdapDefaultClient_BindContinue
FUNC 76abf ff 8 pkix_pl_LdapDefaultClient_BindResponse
FUNC 76bbe e4 8 pkix_pl_LdapDefaultClient_BindResponseContinue
FUNC 76ca2 fd c pkix_pl_LdapDefaultClient_Send
FUNC 76d9f ce c pkix_pl_LdapDefaultClient_SendContinue
FUNC 76e6d 13e 8 pkix_pl_LdapDefaultClient_Recv
FUNC 76fab c2 8 pkix_pl_LdapDefaultClient_RecvContinue
FUNC 7706d be 8 pkix_pl_LdapDefaultClient_AbandonContinue
FUNC 7712b 1f7 8 pkix_pl_LdapDefaultClient_RecvInitial
FUNC 77322 b3 8 pkix_pl_LdapDefaultClient_RecvNonInitial
FUNC 773d5 2d8 4 pkix_pl_LdapDefaultClient_Dispatch
FUNC 776ad 112 10 pkix_pl_LdapDefaultClient_MakeAndFilter
FUNC 777bf 21e 14 pkix_pl_LdapDefaultClient_InitiateRequest
FUNC 779dd 10a 10 pkix_pl_LdapDefaultClient_ResumeRequest
FUNC 77ae7 290 10 pkix_pl_LdapDefaultClient_CreateHelper
FUNC 77d77 152 14 PKIX_PL_LdapDefaultClient_CreateByName
FUNC 77ec9 e9 10 PKIX_PL_NssContext_Create
FUNC 77fb2 77 4 PKIX_PL_NssContext_Destroy
FUNC 78029 59 c pkix_pl_NssContext_SetCertUsage
FUNC 78082 5e 8 pkix_pl_NssContext_GetWincx
FUNC 780e0 161 10 pkix_pl_Pk11CertStore_CheckTrust
FUNC 78241 402 c pkix_pl_Pk11CertStore_CertQuery
FUNC 78643 188 10 pkix_pl_Pk11CertStore_ImportCrl
FUNC 787cb 2ad 10 NameCacheHasFetchedCrlInfo
FUNC 78a78 176 20 pkix_pl_Pk11CertStore_CheckRevByCrl
FUNC 78bee 525 18 pkix_pl_Pk11CertStore_GetCert
FUNC 79113 29e 8 RemovePartitionedDpsFromList
FUNC 793b1 2c3 c DownloadCrl
FUNC 79674 2b1 14 pkix_pl_Pk11CertStore_GetCRL
FUNC 79925 a0 8 PKIX_PL_Pk11CertStore_Create
FUNC 799c5 38 0 pkix_pl_socket_hexDigit
FUNC 799fd 22 4 pkix_pl_socket_linePrefix
FUNC 79a1f 75 4 pkix_pl_socket_traceLine
FUNC 79a94 a2 4 pkix_pl_socket_tracePartialLine
FUNC 79b36 75 8 pkix_pl_socket_tracebuff
FUNC 79bab a9 4 pkix_pl_Socket_SetNonBlocking
FUNC 79c54 b7 4 pkix_pl_Socket_CreateClient
FUNC 79d0b 15d 4 pkix_pl_Socket_CreateServer
FUNC 79e68 c3 8 pkix_pl_Socket_Connect
FUNC 79f2b 104 c pkix_pl_Socket_ConnectContinue
FUNC 7a02f 8e 8 pkix_pl_Socket_Destroy
FUNC 7a0bd 98 c pkix_pl_Socket_Hashcode
FUNC 7a155 be 10 pkix_pl_Socket_Equals
FUNC 7a213 9d 4 pkix_pl_Socket_RegisterSelf
FUNC 7a2b0 9e c pkix_pl_Socket_Listen
FUNC 7a34e a6 8 pkix_pl_Socket_Shutdown
FUNC 7a3f4 f9 14 pkix_pl_Socket_Send
FUNC 7a4ed 108 14 pkix_pl_Socket_Recv
FUNC 7a5f5 197 10 pkix_pl_Socket_Poll
FUNC 7a78c 197 c pkix_pl_Socket_Accept
FUNC 7a923 313 18 pkix_pl_Socket_CreateByName
FUNC 7ac36 30c 1c pkix_pl_Socket_CreateByHostAndPort
FUNC 7af42 60 c pkix_pl_Socket_GetCallbackList
FUNC 7afa2 60 c pkix_pl_Socket_GetPRFileDesc
FUNC 7b422 f 0 __security_check_cookie
FUNC 7b440 1f 0 _allshl
FUNC 7b470 34 0 _allmul
FUNC 7b4b0 68 0 _aulldiv
FUNC 7b520 21 0 _allshr
FUNC 7b541 4d 0 pre_c_init
FUNC 7b58e 1c3 c _CRT_INIT
FUNC 7b751 116 4 __DllMainCRTStartup
FUNC 7b867 21 c _DllMainCRTStartup
FUNC 7b888 104 0 __report_gsfailure
FUNC 7b98c c 0 __clean_type_info_names
FUNC 7b998 a5 4 _onexit
FUNC 7ba3d 12 4 atexit
FUNC 7ba4f 24 0 _RTC_Initialize
FUNC 7ba73 24 0 _RTC_Terminate
FUNC 7baa0 29 4 _ValidateImageBase
FUNC 7bad0 42 8 _FindPESection
FUNC 7bb20 bb 4 _IsNonwritableInCurrentImage
FUNC 7bbf4 20 c DllMain
FUNC 7bc14 45 0 _SEH_prolog4
FUNC 7bc59 14 0 _SEH_epilog4
FUNC 7bc6d 23 10 _except_handler4
FUNC 7bc90 94 0 __security_init_cookie
STACK WIN 4 1000 6 0 0 4 0 0 0 1 $T2 $esp .cbLocals + .cbSavedRegs + = $T0 .raSearchStart = $eip $T0 ^ = $esp $T0 4 + =
STACK WIN 4 1006 e8 6 0 18 0 0 0 1 $T0 $ebp = $eip $T0 4 + ^ = $ebp $T0 ^ = $esp $T0 8 + = $L $T0 .cbSavedRegs - = $P $T0 8 + .cbParams + =
STACK WIN 4 100a e2 2 0 18 4 0 0 1 $T0 $ebp = $eip $T0 4 + ^ = $ebp $T0 ^ = $esp $T0 8 + = $L $T0 .cbSavedRegs - = $P $T0 8 + .cbParams + = $ebx $T0 4 - ^ =
STACK WIN 4 100b e0 1 0 18 8 0 0 1 $T0 $ebp = $eip $T0 4 + ^ = $ebp $T0 ^ = $esp $T0 8 + = $L $T0 .cbSavedRegs - = $P $T0 8 + .cbParams + = $ebx $T0 4 - ^ =
STACK WIN 4 100c dc 0 0 18 c 0 0 1 $T0 $ebp = $eip $T0 4 + ^ = $ebp $T0 ^ = $esp $T0 8 + = $L $T0 .cbSavedRegs - = $P $T0 8 + .cbParams + = $ebx $T0 4 - ^ =
STACK WIN 4 10ee 15b 6 0 24 0 4 0 1 $T0 $ebp = $eip $T0 4 + ^ = $ebp $T0 ^ = $esp $T0 8 + = $L $T0 .cbSavedRegs - = $P $T0 8 + .cbParams + =
STACK WIN 4 10f3 154 1 0 24 4 4 0 1 $T0 $ebp = $eip $T0 4 + ^ = $ebp $T0 ^ = $esp $T0 8 + = $L $T0 .cbSavedRegs - = $P $T0 8 + .cbParams + = $ebx $T0 8 - ^ =
STACK WIN 4 10f4 152 0 0 24 8 4 0 1 $T0 $ebp = $eip $T0 4 + ^ = $ebp $T0 ^ = $esp $T0 8 + = $L $T0 .cbSavedRegs - = $P $T0 8 + .cbParams + = $ebx $T0 8 - ^ =
STACK WIN 4 1111 134 0 0 24 c 4 0 1 $T0 $ebp = $eip $T0 4 + ^ = $ebp $T0 ^ = $esp $T0 8 + = $L $T0 .cbSavedRegs - = $P $T0 8 + .cbParams + = $ebx $T0 8 - ^ =
STACK WIN 4 1249 73 4 0 28 0 0 0 1 $T0 $ebp = $eip $T0 4 + ^ = $ebp $T0 ^ = $esp $T0 8 + = $L $T0 .cbSavedRegs - = $P $T0 8 + .cbParams + =
STACK WIN 4 124d 6d 0 0 28 4 0 0 1 $T0 $ebp = $eip $T0 4 + ^ = $ebp $T0 ^ = $esp $T0 8 + = $L $T0 .cbSavedRegs - = $P $T0 8 + .cbParams + =
STACK WIN 4 12bc 30 0 0 0 0 0 0 1 $T2 $esp .cbLocals + .cbSavedRegs + = $T0 .raSearchStart = $eip $T0 ^ = $esp $T0 4 + =
STACK WIN 4 12ec ed 8 0 10 0 8 0 1 $T0 $ebp = $eip $T0 4 + ^ = $ebp $T0 ^ = $esp $T0 8 + = $L $T0 .cbSavedRegs - = $P $T0 8 + .cbParams + =
STACK WIN 4 12f2 e5 2 0 10 4 8 0 1 $T0 $ebp = $eip $T0 4 + ^ = $ebp $T0 ^ = $esp $T0 8 + = $L $T0 .cbSavedRegs - = $P $T0 8 + .cbParams + = $ebx $T0 12 - ^ =
STACK WIN 4 12f3 e3 1 0 10 8 8 0 1 $T0 $ebp = $eip $T0 4 + ^ = $ebp $T0 ^ = $esp $T0 8 + = $L $T0 .cbSavedRegs - = $P $T0 8 + .cbParams + = $ebx $T0 12 - ^ =
STACK WIN 4 12f4 e1 0 0 10 c 8 0 1 $T0 $ebp = $eip $T0 4 + ^ = $ebp $T0 ^ = $esp $T0 8 + = $L $T0 .cbSavedRegs - = $P $T0 8 + .cbParams + = $ebx $T0 12 - ^ =
STACK WIN 4 13d9 7a 8 0 8 0 8 0 1 $T0 $ebp = $eip $T0 4 + ^ = $ebp $T0 ^ = $esp $T0 8 + = $L $T0 .cbSavedRegs - = $P $T0 8 + .cbParams + =
STACK WIN 4 13df 67 2 0 8 4 8 0 1 $T0 $ebp = $eip $T0 4 + ^ = $ebp $T0 ^ = $esp $T0 8 + = $L $T0 .cbSavedRegs - = $P $T0 8 + .cbParams + = $ebx $T0 12 - ^ =
STACK WIN 4 13e0 65 1 0 8 8 8 0 1 $T0 $ebp = $eip $T0 4 + ^ = $ebp $T0 ^ = $esp $T0 8 + = $L $T0 .cbSavedRegs - = $P $T0 8 + .cbParams + = $ebx $T0 12 - ^ =
STACK WIN 4 13e1 63 0 0 8 c 8 0 1 $T0 $ebp = $eip $T0 4 + ^ = $ebp $T0 ^ = $esp $T0 8 + = $L $T0 .cbSavedRegs - = $P $T0 8 + .cbParams + = $ebx $T0 12 - ^ =
STACK WIN 4 1453 24a b 0 48 0 2c 0 1 $T0 $ebp = $eip $T0 4 + ^ = $ebp $T0 ^ = $esp $T0 8 + = $L $T0 .cbSavedRegs - = $P $T0 8 + .cbParams + =
STACK WIN 4 145e 23d 0 0 48 4 2c 0 1 $T0 $ebp = $eip $T0 4 + ^ = $ebp $T0 ^ = $esp $T0 8 + = $L $T0 .cbSavedRegs - = $P $T0 8 + .cbParams + = $ebx $T0 48 - ^ =
STACK WIN 4 14b6 1e4 0 0 48 8 2c 0 1 $T0 $ebp = $eip $T0 4 + ^ = $ebp $T0 ^ = $esp $T0 8 + = $L $T0 .cbSavedRegs - = $P $T0 8 + .cbParams + = $ebx $T0 48 - ^ =
STACK WIN 4 14b7 1e2 0 0 48 c 2c 0 1 $T0 $ebp = $eip $T0 4 + ^ = $ebp $T0 ^ = $esp $T0 8 + = $L $T0 .cbSavedRegs - = $P $T0 8 + .cbParams + = $ebx $T0 48 - ^ =
STACK WIN 4 169d 2b 0 0 0 0 0 0 1 $T2 $esp .cbLocals + .cbSavedRegs + = $T0 .raSearchStart = $eip $T0 ^ = $esp $T0 4 + =
STACK WIN 4 16c8 30 b 0 8 0 0 0 1 $T2 $esp .cbLocals + .cbSavedRegs + = $T0 .raSearchStart = $eip $T0 ^ = $esp $T0 4 + =
STACK WIN 4 16d3 24 0 0 8 4 0 0 1 $T2 $esp .cbLocals + .cbSavedRegs + = $T0 .raSearchStart = $eip $T0 ^ = $esp $T0 4 + =
STACK WIN 4 16f8 57 0 0 0 0 0 0 1 $T2 $esp .cbLocals + .cbSavedRegs + = $T0 .raSearchStart = $eip $T0 ^ = $esp $T0 4 + =
STACK WIN 4 174f 72 3 0 0 0 0 0 1 $T2 $esp .cbLocals + .cbSavedRegs + = $T0 .raSearchStart = $eip $T0 ^ = $esp $T0 4 + =
STACK WIN 4 1750 70 2 0 0 4 0 0 1 $T2 $esp .cbLocals + .cbSavedRegs + = $T0 .raSearchStart = $eip $T0 ^ = $esp $T0 4 + = $ebx $T0 4 - ^ =
STACK WIN 4 1751 6c 1 0 0 8 0 0 1 $T2 $esp .cbLocals + .cbSavedRegs + = $T0 .raSearchStart = $eip $T0 ^ = $esp $T0 4 + = $ebx $T0 4 - ^ =
STACK WIN 4 1752 6a 0 0 0 c 0 0 1 $T2 $esp .cbLocals + .cbSavedRegs + = $T0 .raSearchStart = $eip $T0 ^ = $esp $T0 4 + = $ebx $T0 4 - ^ =
STACK WIN 4 17c1 ae 2 0 0 0 0 0 1 $T2 $esp .cbLocals + .cbSavedRegs + = $T0 .raSearchStart = $eip $T0 ^ = $esp $T0 4 + =
STACK WIN 4 17c2 ac 1 0 0 4 0 0 1 $T2 $esp .cbLocals + .cbSavedRegs + = $T0 .raSearchStart = $eip $T0 ^ = $esp $T0 4 + =
STACK WIN 4 17c3 aa 0 0 0 8 0 0 1 $T2 $esp .cbLocals + .cbSavedRegs + = $T0 .raSearchStart = $eip $T0 ^ = $esp $T0 4 + =
STACK WIN 4 186f 64 1 0 0 0 0 0 1 $T2 $esp .cbLocals + .cbSavedRegs + = $T0 .raSearchStart = $eip $T0 ^ = $esp $T0 4 + =
STACK WIN 4 1870 62 0 0 0 4 0 0 1 $T2 $esp .cbLocals + .cbSavedRegs + = $T0 .raSearchStart = $eip $T0 ^ = $esp $T0 4 + =
STACK WIN 4 18d3 2e 0 0 4 0 0 0 1 $T2 $esp .cbLocals + .cbSavedRegs + = $T0 .raSearchStart = $eip $T0 ^ = $esp $T0 4 + =
STACK WIN 4 1901 91 1 0 4 0 0 0 1 $T2 $esp .cbLocals + .cbSavedRegs + = $T0 .raSearchStart = $eip $T0 ^ = $esp $T0 4 + =
STACK WIN 4 1902 8f 0 0 4 4 0 0 1 $T2 $esp .cbLocals + .cbSavedRegs + = $T0 .raSearchStart = $eip $T0 ^ = $esp $T0 4 + =
STACK WIN 4 1992 16 0 0 0 0 0 0 1 $T2 $esp .cbLocals + .cbSavedRegs + = $T0 .raSearchStart = $eip $T0 ^ = $esp $T0 4 + =
STACK WIN 4 19a8 e8 1e 0 4 0 8 0 1 $T2 $esp .cbLocals + .cbSavedRegs + = $T0 .raSearchStart = $eip $T0 ^ = $esp $T0 4 + =
STACK WIN 4 19b9 d4 d 0 4 4 8 0 1 $T2 $esp .cbLocals + .cbSavedRegs + = $T0 .raSearchStart = $eip $T0 ^ = $esp $T0 4 + = $ebx $T0 12 - ^ =
STACK WIN 4 19ba d2 c 0 4 8 8 0 1 $T2 $esp .cbLocals + .cbSavedRegs + = $T0 .raSearchStart = $eip $T0 ^ = $esp $T0 4 + = $ebp $T0 16 - ^ = $ebx $T0 12 - ^ =
STACK WIN 4 19bd ce 9 0 4 c 8 0 1 $T2 $esp .cbLocals + .cbSavedRegs + = $T0 .raSearchStart = $eip $T0 ^ = $esp $T0 4 + = $ebp $T0 16 - ^ = $ebx $T0 12 - ^ =
STACK WIN 4 19c6 c4 0 0 4 10 8 0 1 $T2 $esp .cbLocals + .cbSavedRegs + = $T0 .raSearchStart = $eip $T0 ^ = $esp $T0 4 + = $ebp $T0 16 - ^ = $ebx $T0 12 - ^ =
STACK WIN 4 1a90 6 0 0 0 0 0 0 1 $T2 $esp .cbLocals + .cbSavedRegs + = $T0 .raSearchStart = $eip $T0 ^ = $esp $T0 4 + =
STACK WIN 4 1a96 35d b 0 50 0 c 0 1 $T0 $ebp = $eip $T0 4 + ^ = $ebp $T0 ^ = $esp $T0 8 + = $L $T0 .cbSavedRegs - = $P $T0 8 + .cbParams + =
STACK WIN 4 1a9d 354 4 0 50 4 c 0 1 $T0 $ebp = $eip $T0 4 + ^ = $ebp $T0 ^ = $esp $T0 8 + = $L $T0 .cbSavedRegs - = $P $T0 8 + .cbParams + = $ebx $T0 16 - ^ =
STACK WIN 4 1a9e 352 3 0 50 8 c 0 1 $T0 $ebp = $eip $T0 4 + ^ = $ebp $T0 ^ = $esp $T0 8 + = $L $T0 .cbSavedRegs - = $P $T0 8 + .cbParams + = $ebx $T0 16 - ^ =
STACK WIN 4 1aa2 34d 0 0 50 c c 0 1 $T0 $ebp = $eip $T0 4 + ^ = $ebp $T0 ^ = $esp $T0 8 + = $L $T0 .cbSavedRegs - = $P $T0 8 + .cbParams + = $ebx $T0 16 - ^ =
STACK WIN 4 1df3 23c 2 0 4 0 4 0 1 $T2 $esp .cbLocals + .cbSavedRegs + = $T0 .raSearchStart = $eip $T0 ^ = $esp $T0 4 + =
STACK WIN 4 1df5 238 0 0 4 4 4 0 1 $T2 $esp .cbLocals + .cbSavedRegs + = $T0 .raSearchStart = $eip $T0 ^ = $esp $T0 4 + =
STACK WIN 4 1e29 203 0 0 4 8 4 0 1 $T2 $esp .cbLocals + .cbSavedRegs + = $T0 .raSearchStart = $eip $T0 ^ = $esp $T0 4 + = $ebx $T0 12 - ^ =
STACK WIN 4 1e30 1fb 0 0 4 c 4 0 1 $T2 $esp .cbLocals + .cbSavedRegs + = $T0 .raSearchStart = $eip $T0 ^ = $esp $T0 4 + = $ebx $T0 12 - ^ =
STACK WIN 4 1e64 1c6 0 0 4 10 4 0 1 $T2 $esp .cbLocals + .cbSavedRegs + = $T0 .raSearchStart = $eip $T0 ^ = $esp $T0 4 + = $ebp $T0 20 - ^ = $ebx $T0 12 - ^ =
STACK WIN 4 202f 23b 2 0 4 0 4 0 1 $T2 $esp .cbLocals + .cbSavedRegs + = $T0 .raSearchStart = $eip $T0 ^ = $esp $T0 4 + =
STACK WIN 4 2031 237 0 0 4 4 4 0 1 $T2 $esp .cbLocals + .cbSavedRegs + = $T0 .raSearchStart = $eip $T0 ^ = $esp $T0 4 + =
STACK WIN 4 2065 202 0 0 4 8 4 0 1 $T2 $esp .cbLocals + .cbSavedRegs + = $T0 .raSearchStart = $eip $T0 ^ = $esp $T0 4 + = $ebx $T0 12 - ^ =
STACK WIN 4 206c 1fa 0 0 4 c 4 0 1 $T2 $esp .cbLocals + .cbSavedRegs + = $T0 .raSearchStart = $eip $T0 ^ = $esp $T0 4 + = $ebx $T0 12 - ^ =
STACK WIN 4 20a0 1c5 0 0 4 10 4 0 1 $T2 $esp .cbLocals + .cbSavedRegs + = $T0 .raSearchStart = $eip $T0 ^ = $esp $T0 4 + = $ebp $T0 20 - ^ = $ebx $T0 12 - ^ =
STACK WIN 4 226a 2e4 24 0 14 0 14 0 1 $T0 $ebp = $eip $T0 4 + ^ = $ebp $T0 ^ = $esp $T0 8 + = $L $T0 .cbSavedRegs - = $P $T0 8 + .cbParams + =
STACK WIN 4 2271 2db 1d 0 14 4 14 0 1 $T0 $ebp = $eip $T0 4 + ^ = $ebp $T0 ^ = $esp $T0 8 + = $L $T0 .cbSavedRegs - = $P $T0 8 + .cbParams + = $ebx $T0 24 - ^ =
STACK WIN 4 2275 2d6 19 0 14 8 14 0 1 $T0 $ebp = $eip $T0 4 + ^ = $ebp $T0 ^ = $esp $T0 8 + = $L $T0 .cbSavedRegs - = $P $T0 8 + .cbParams + = $ebx $T0 24 - ^ =
STACK WIN 4 228e 2bc 0 0 14 c 14 0 1 $T0 $ebp = $eip $T0 4 + ^ = $ebp $T0 ^ = $esp $T0 8 + = $L $T0 .cbSavedRegs - = $P $T0 8 + .cbParams + = $ebx $T0 24 - ^ =
STACK WIN 4 254e a7 3 0 18 0 0 0 1 $T0 $ebp = $eip $T0 4 + ^ = $ebp $T0 ^ = $esp $T0 8 + = $L $T0 .cbSavedRegs - = $P $T0 8 + .cbParams + =
STACK WIN 4 25f5 2e9 24 0 28 0 14 0 1 $T0 $ebp = $eip $T0 4 + ^ = $ebp $T0 ^ = $esp $T0 8 + = $L $T0 .cbSavedRegs - = $P $T0 8 + .cbParams + =
STACK WIN 4 25fc 2e0 1d 0 28 4 14 0 1 $T0 $ebp = $eip $T0 4 + ^ = $ebp $T0 ^ = $esp $T0 8 + = $L $T0 .cbSavedRegs - = $P $T0 8 + .cbParams + = $ebx $T0 24 - ^ =
STACK WIN 4 2600 2db 19 0 28 8 14 0 1 $T0 $ebp = $eip $T0 4 + ^ = $ebp $T0 ^ = $esp $T0 8 + = $L $T0 .cbSavedRegs - = $P $T0 8 + .cbParams + = $ebx $T0 24 - ^ =
STACK WIN 4 2619 2c1 0 0 28 c 14 0 1 $T0 $ebp = $eip $T0 4 + ^ = $ebp $T0 ^ = $esp $T0 8 + = $L $T0 .cbSavedRegs - = $P $T0 8 + .cbParams + = $ebx $T0 24 - ^ =
STACK WIN 4 28de 1af 2 0 4 0 4 0 1 $T2 $esp .cbLocals + .cbSavedRegs + = $T0 .raSearchStart = $eip $T0 ^ = $esp $T0 4 + =
STACK WIN 4 28e0 1ab 0 0 4 4 4 0 1 $T2 $esp .cbLocals + .cbSavedRegs + = $T0 .raSearchStart = $eip $T0 ^ = $esp $T0 4 + = $ebx $T0 8 - ^ =
STACK WIN 4 2914 176 0 0 4 8 4 0 1 $T2 $esp .cbLocals + .cbSavedRegs + = $T0 .raSearchStart = $eip $T0 ^ = $esp $T0 4 + = $ebp $T0 12 - ^ = $ebx $T0 8 - ^ =
STACK WIN 4 291b 16e 0 0 4 c 4 0 1 $T2 $esp .cbLocals + .cbSavedRegs + = $T0 .raSearchStart = $eip $T0 ^ = $esp $T0 4 + = $ebp $T0 12 - ^ = $ebx $T0 8 - ^ =
STACK WIN 4 294f 139 0 0 4 10 4 0 1 $T2 $esp .cbLocals + .cbSavedRegs + = $T0 .raSearchStart = $eip $T0 ^ = $esp $T0 4 + = $ebp $T0 12 - ^ = $ebx $T0 8 - ^ =
STACK WIN 4 2a8d 109 1 0 8 0 0 0 1 $T2 $esp .cbLocals + .cbSavedRegs + = $T0 .raSearchStart = $eip $T0 ^ = $esp $T0 4 + =
STACK WIN 4 2a8e 8e 0 0 8 4 0 0 1 $T2 $esp .cbLocals + .cbSavedRegs + = $T0 .raSearchStart = $eip $T0 ^ = $esp $T0 4 + =
STACK WIN 4 2ac4 57 0 0 8 8 0 0 1 $T2 $esp .cbLocals + .cbSavedRegs + = $T0 .raSearchStart = $eip $T0 ^ = $esp $T0 4 + = $ebx $T0 8 - ^ =
STACK WIN 4 2acb 4f 0 0 8 c 0 0 1 $T2 $esp .cbLocals + .cbSavedRegs + = $T0 .raSearchStart = $eip $T0 ^ = $esp $T0 4 + = $ebx $T0 8 - ^ =
STACK WIN 4 2b96 90 1 0 8 0 0 0 1 $T2 $esp .cbLocals + .cbSavedRegs + = $T0 .raSearchStart = $eip $T0 ^ = $esp $T0 4 + =
STACK WIN 4 2b97 8e 0 0 8 4 0 0 1 $T2 $esp .cbLocals + .cbSavedRegs + = $T0 .raSearchStart = $eip $T0 ^ = $esp $T0 4 + =
STACK WIN 4 2bcd 47 0 0 8 8 0 0 1 $T2 $esp .cbLocals + .cbSavedRegs + = $T0 .raSearchStart = $eip $T0 ^ = $esp $T0 4 + =
STACK WIN 4 2c26 5 0 0 4 0 0 0 1 $T2 $esp .cbLocals + .cbSavedRegs + = $T0 .raSearchStart = $eip $T0 ^ = $esp $T0 4 + =
STACK WIN 4 2c2b 5 0 0 8 0 0 0 1 $T2 $esp .cbLocals + .cbSavedRegs + = $T0 .raSearchStart = $eip $T0 ^ = $esp $T0 4 + =
STACK WIN 4 2c30 5 0 0 4 0 0 0 1 $T2 $esp .cbLocals + .cbSavedRegs + = $T0 .raSearchStart = $eip $T0 ^ = $esp $T0 4 + =
STACK WIN 4 2c35 5 0 0 4 0 0 0 1 $T2 $esp .cbLocals + .cbSavedRegs + = $T0 .raSearchStart = $eip $T0 ^ = $esp $T0 4 + =
STACK WIN 4 2c3a 5 0 0 8 0 0 0 1 $T2 $esp .cbLocals + .cbSavedRegs + = $T0 .raSearchStart = $eip $T0 ^ = $esp $T0 4 + =
STACK WIN 4 2c3f 5 0 0 4 0 0 0 1 $T2 $esp .cbLocals + .cbSavedRegs + = $T0 .raSearchStart = $eip $T0 ^ = $esp $T0 4 + =
STACK WIN 4 2c44 5 0 0 4 0 0 0 1 $T2 $esp .cbLocals + .cbSavedRegs + = $T0 .raSearchStart = $eip $T0 ^ = $esp $T0 4 + =
STACK WIN 4 2c49 5 0 0 0 0 0 0 1 $T2 $esp .cbLocals + .cbSavedRegs + = $T0 .raSearchStart = $eip $T0 ^ = $esp $T0 4 + =
STACK WIN 4 2c4e 5 0 0 4 0 0 0 1 $T2 $esp .cbLocals + .cbSavedRegs + = $T0 .raSearchStart = $eip $T0 ^ = $esp $T0 4 + =
STACK WIN 4 2c53 5 0 0 8 0 0 0 1 $T2 $esp .cbLocals + .cbSavedRegs + = $T0 .raSearchStart = $eip $T0 ^ = $esp $T0 4 + =
STACK WIN 4 2c58 5 0 0 8 0 0 0 1 $T2 $esp .cbLocals + .cbSavedRegs + = $T0 .raSearchStart = $eip $T0 ^ = $esp $T0 4 + =
STACK WIN 4 2c5d 5 0 0 8 0 0 0 1 $T2 $esp .cbLocals + .cbSavedRegs + = $T0 .raSearchStart = $eip $T0 ^ = $esp $T0 4 + =
STACK WIN 4 2c62 5 0 0 10 0 0 0 1 $T2 $esp .cbLocals + .cbSavedRegs + = $T0 .raSearchStart = $eip $T0 ^ = $esp $T0 4 + =
STACK WIN 4 2c67 5 0 0 4 0 0 0 1 $T2 $esp .cbLocals + .cbSavedRegs + = $T0 .raSearchStart = $eip $T0 ^ = $esp $T0 4 + =
STACK WIN 4 2c6c 5 0 0 8 0 0 0 1 $T2 $esp .cbLocals + .cbSavedRegs + = $T0 .raSearchStart = $eip $T0 ^ = $esp $T0 4 + =
STACK WIN 4 2c71 5 0 0 8 0 0 0 1 $T2 $esp .cbLocals + .cbSavedRegs + = $T0 .raSearchStart = $eip $T0 ^ = $esp $T0 4 + =
STACK WIN 4 2c76 5 0 0 8 0 0 0 1 $T2 $esp .cbLocals + .cbSavedRegs + = $T0 .raSearchStart = $eip $T0 ^ = $esp $T0 4 + =
STACK WIN 4 2c7b 5 0 0 4 0 0 0 1 $T2 $esp .cbLocals + .cbSavedRegs + = $T0 .raSearchStart = $eip $T0 ^ = $esp $T0 4 + =
STACK WIN 4 2c80 5 0 0 4 0 0 0 1 $T2 $esp .cbLocals + .cbSavedRegs + = $T0 .raSearchStart = $eip $T0 ^ = $esp $T0 4 + =
STACK WIN 4 2c85 5 0 0 4 0 0 0 1 $T2 $esp .cbLocals + .cbSavedRegs + = $T0 .raSearchStart = $eip $T0 ^ = $esp $T0 4 + =
STACK WIN 4 2c8a 9 3 0 18 0 0 0 1 $T0 $ebp = $eip $T0 4 + ^ = $ebp $T0 ^ = $esp $T0 8 + = $L $T0 .cbSavedRegs - = $P $T0 8 + .cbParams + =
STACK WIN 4 2c93 9 3 0 1c 0 0 0 1 $T0 $ebp = $eip $T0 4 + ^ = $ebp $T0 ^ = $esp $T0 8 + = $L $T0 .cbSavedRegs - = $P $T0 8 + .cbParams + =
STACK WIN 4 2c9c 5 0 0 8 0 0 0 1 $T2 $esp .cbLocals + .cbSavedRegs + = $T0 .raSearchStart = $eip $T0 ^ = $esp $T0 4 + =
STACK WIN 4 2ca1 5 0 0 4 0 0 0 1 $T2 $esp .cbLocals + .cbSavedRegs + = $T0 .raSearchStart = $eip $T0 ^ = $esp $T0 4 + =
STACK WIN 4 2ca6 5 0 0 4 0 0 0 1 $T2 $esp .cbLocals + .cbSavedRegs + = $T0 .raSearchStart = $eip $T0 ^ = $esp $T0 4 + =
STACK WIN 4 2cab 5 0 0 4 0 0 0 1 $T2 $esp .cbLocals + .cbSavedRegs + = $T0 .raSearchStart = $eip $T0 ^ = $esp $T0 4 + =
STACK WIN 4 2cb0 5 0 0 10 0 0 0 1 $T2 $esp .cbLocals + .cbSavedRegs + = $T0 .raSearchStart = $eip $T0 ^ = $esp $T0 4 + =
STACK WIN 4 2cb5 5 0 0 c 0 0 0 1 $T2 $esp .cbLocals + .cbSavedRegs + = $T0 .raSearchStart = $eip $T0 ^ = $esp $T0 4 + =
STACK WIN 4 2cba 5 0 0 4 0 0 0 1 $T2 $esp .cbLocals + .cbSavedRegs + = $T0 .raSearchStart = $eip $T0 ^ = $esp $T0 4 + =
STACK WIN 4 2cbf 5 0 0 8 0 0 0 1 $T2 $esp .cbLocals + .cbSavedRegs + = $T0 .raSearchStart = $eip $T0 ^ = $esp $T0 4 + =
STACK WIN 4 2cc4 5 0 0 8 0 0 0 1 $T2 $esp .cbLocals + .cbSavedRegs + = $T0 .raSearchStart = $eip $T0 ^ = $esp $T0 4 + =
STACK WIN 4 2cc9 5 0 0 4 0 0 0 1 $T2 $esp .cbLocals + .cbSavedRegs + = $T0 .raSearchStart = $eip $T0 ^ = $esp $T0 4 + =
STACK WIN 4 2cce 5 0 0 4 0 0 0 1 $T2 $esp .cbLocals + .cbSavedRegs + = $T0 .raSearchStart = $eip $T0 ^ = $esp $T0 4 + =
STACK WIN 4 2cd3 5 0 0 c 0 0 0 1 $T2 $esp .cbLocals + .cbSavedRegs + = $T0 .raSearchStart = $eip $T0 ^ = $esp $T0 4 + =
STACK WIN 4 2cd8 5 0 0 8 0 0 0 1 $T2 $esp .cbLocals + .cbSavedRegs + = $T0 .raSearchStart = $eip $T0 ^ = $esp $T0 4 + =
STACK WIN 4 2cdd 5 0 0 8 0 0 0 1 $T2 $esp .cbLocals + .cbSavedRegs + = $T0 .raSearchStart = $eip $T0 ^ = $esp $T0 4 + =
STACK WIN 4 2ce2 5 0 0 c 0 0 0 1 $T2 $esp .cbLocals + .cbSavedRegs + = $T0 .raSearchStart = $eip $T0 ^ = $esp $T0 4 + =
STACK WIN 4 2ce7 5 0 0 4 0 0 0 1 $T2 $esp .cbLocals + .cbSavedRegs + = $T0 .raSearchStart = $eip $T0 ^ = $esp $T0 4 + =
STACK WIN 4 2cec 5 0 0 8 0 0 0 1 $T2 $esp .cbLocals + .cbSavedRegs + = $T0 .raSearchStart = $eip $T0 ^ = $esp $T0 4 + =
STACK WIN 4 2cf1 5 0 0 8 0 0 0 1 $T2 $esp .cbLocals + .cbSavedRegs + = $T0 .raSearchStart = $eip $T0 ^ = $esp $T0 4 + =
STACK WIN 4 2cf6 5 0 0 8 0 0 0 1 $T2 $esp .cbLocals + .cbSavedRegs + = $T0 .raSearchStart = $eip $T0 ^ = $esp $T0 4 + =
STACK WIN 4 2cfb 5 0 0 c 0 0 0 1 $T2 $esp .cbLocals + .cbSavedRegs + = $T0 .raSearchStart = $eip $T0 ^ = $esp $T0 4 + =
STACK WIN 4 2d00 5 0 0 4 0 0 0 1 $T2 $esp .cbLocals + .cbSavedRegs + = $T0 .raSearchStart = $eip $T0 ^ = $esp $T0 4 + =
STACK WIN 4 2d05 5 0 0 c 0 0 0 1 $T2 $esp .cbLocals + .cbSavedRegs + = $T0 .raSearchStart = $eip $T0 ^ = $esp $T0 4 + =
STACK WIN 4 2d0a 5 0 0 8 0 0 0 1 $T2 $esp .cbLocals + .cbSavedRegs + = $T0 .raSearchStart = $eip $T0 ^ = $esp $T0 4 + =
STACK WIN 4 2d0f 5 0 0 10 0 0 0 1 $T2 $esp .cbLocals + .cbSavedRegs + = $T0 .raSearchStart = $eip $T0 ^ = $esp $T0 4 + =
STACK WIN 4 2d14 5 0 0 c 0 0 0 1 $T2 $esp .cbLocals + .cbSavedRegs + = $T0 .raSearchStart = $eip $T0 ^ = $esp $T0 4 + =
STACK WIN 4 2d19 5 0 0 4 0 0 0 1 $T2 $esp .cbLocals + .cbSavedRegs + = $T0 .raSearchStart = $eip $T0 ^ = $esp $T0 4 + =
STACK WIN 4 2d1e 15 0 0 c 0 0 0 1 $T2 $esp .cbLocals + .cbSavedRegs + = $T0 .raSearchStart = $eip $T0 ^ = $esp $T0 4 + =
STACK WIN 4 2d33 5 0 0 8 0 0 0 1 $T2 $esp .cbLocals + .cbSavedRegs + = $T0 .raSearchStart = $eip $T0 ^ = $esp $T0 4 + =
STACK WIN 4 2d38 5 0 0 8 0 0 0 1 $T2 $esp .cbLocals + .cbSavedRegs + = $T0 .raSearchStart = $eip $T0 ^ = $esp $T0 4 + =
STACK WIN 4 2d3d 5 0 0 4 0 0 0 1 $T2 $esp .cbLocals + .cbSavedRegs + = $T0 .raSearchStart = $eip $T0 ^ = $esp $T0 4 + =
STACK WIN 4 2d42 5 0 0 4 0 0 0 1 $T2 $esp .cbLocals + .cbSavedRegs + = $T0 .raSearchStart = $eip $T0 ^ = $esp $T0 4 + =
STACK WIN 4 2d47 5 0 0 4 0 0 0 1 $T2 $esp .cbLocals + .cbSavedRegs + = $T0 .raSearchStart = $eip $T0 ^ = $esp $T0 4 + =
STACK WIN 4 2d4c 5 0 0 4 0 0 0 1 $T2 $esp .cbLocals + .cbSavedRegs + = $T0 .raSearchStart = $eip $T0 ^ = $esp $T0 4 + =
STACK WIN 4 2d51 15 0 0 c 0 0 0 1 $T2 $esp .cbLocals + .cbSavedRegs + = $T0 .raSearchStart = $eip $T0 ^ = $esp $T0 4 + =
STACK WIN 4 2d66 19 0 0 10 0 0 0 1 $T2 $esp .cbLocals + .cbSavedRegs + = $T0 .raSearchStart = $eip $T0 ^ = $esp $T0 4 + =
STACK WIN 4 2d7f 5 0 0 8 0 0 0 1 $T2 $esp .cbLocals + .cbSavedRegs + = $T0 .raSearchStart = $eip $T0 ^ = $esp $T0 4 + =
STACK WIN 4 2d84 15 0 0 c 0 0 0 1 $T2 $esp .cbLocals + .cbSavedRegs + = $T0 .raSearchStart = $eip $T0 ^ = $esp $T0 4 + =
STACK WIN 4 2d99 5 0 0 8 0 0 0 1 $T2 $esp .cbLocals + .cbSavedRegs + = $T0 .raSearchStart = $eip $T0 ^ = $esp $T0 4 + =
STACK WIN 4 2d9e 19 0 0 10 0 0 0 1 $T2 $esp .cbLocals + .cbSavedRegs + = $T0 .raSearchStart = $eip $T0 ^ = $esp $T0 4 + =
STACK WIN 4 2db7 5 0 0 c 0 0 0 1 $T2 $esp .cbLocals + .cbSavedRegs + = $T0 .raSearchStart = $eip $T0 ^ = $esp $T0 4 + =
STACK WIN 4 2dbc 5 0 0 c 0 0 0 1 $T2 $esp .cbLocals + .cbSavedRegs + = $T0 .raSearchStart = $eip $T0 ^ = $esp $T0 4 + =
STACK WIN 4 2dc1 5 0 0 4 0 0 0 1 $T2 $esp .cbLocals + .cbSavedRegs + = $T0 .raSearchStart = $eip $T0 ^ = $esp $T0 4 + =
STACK WIN 4 2dc6 5 0 0 8 0 0 0 1 $T2 $esp .cbLocals + .cbSavedRegs + = $T0 .raSearchStart = $eip $T0 ^ = $esp $T0 4 + =
STACK WIN 4 2dcb 5 0 0 10 0 0 0 1 $T2 $esp .cbLocals + .cbSavedRegs + = $T0 .raSearchStart = $eip $T0 ^ = $esp $T0 4 + =
STACK WIN 4 2dd0 5 0 0 4 0 0 0 1 $T2 $esp .cbLocals + .cbSavedRegs + = $T0 .raSearchStart = $eip $T0 ^ = $esp $T0 4 + =
STACK WIN 4 2dd5 5 0 0 c 0 0 0 1 $T2 $esp .cbLocals + .cbSavedRegs + = $T0 .raSearchStart = $eip $T0 ^ = $esp $T0 4 + =
STACK WIN 4 2dda 5 0 0 4 0 0 0 1 $T2 $esp .cbLocals + .cbSavedRegs + = $T0 .raSearchStart = $eip $T0 ^ = $esp $T0 4 + =
STACK WIN 4 2ddf 9 3 0 14 0 0 0 1 $T0 $ebp = $eip $T0 4 + ^ = $ebp $T0 ^ = $esp $T0 8 + = $L $T0 .cbSavedRegs - = $P $T0 8 + .cbParams + =
STACK WIN 4 2de8 5 0 0 10 0 0 0 1 $T2 $esp .cbLocals + .cbSavedRegs + = $T0 .raSearchStart = $eip $T0 ^ = $esp $T0 4 + =
STACK WIN 4 2ded 5 0 0 10 0 0 0 1 $T2 $esp .cbLocals + .cbSavedRegs + = $T0 .raSearchStart = $eip $T0 ^ = $esp $T0 4 + =
STACK WIN 4 2df2 5 0 0 10 0 0 0 1 $T2 $esp .cbLocals + .cbSavedRegs + = $T0 .raSearchStart = $eip $T0 ^ = $esp $T0 4 + =
STACK WIN 4 2df7 5 0 0 c 0 0 0 1 $T2 $esp .cbLocals + .cbSavedRegs + = $T0 .raSearchStart = $eip $T0 ^ = $esp $T0 4 + =
STACK WIN 4 2dfc 5 0 0 4 0 0 0 1 $T2 $esp .cbLocals + .cbSavedRegs + = $T0 .raSearchStart = $eip $T0 ^ = $esp $T0 4 + =
STACK WIN 4 2e01 5 0 0 8 0 0 0 1 $T2 $esp .cbLocals + .cbSavedRegs + = $T0 .raSearchStart = $eip $T0 ^ = $esp $T0 4 + =
STACK WIN 4 2e06 5 0 0 c 0 0 0 1 $T2 $esp .cbLocals + .cbSavedRegs + = $T0 .raSearchStart = $eip $T0 ^ = $esp $T0 4 + =
STACK WIN 4 2e0b 5 0 0 4 0 0 0 1 $T2 $esp .cbLocals + .cbSavedRegs + = $T0 .raSearchStart = $eip $T0 ^ = $esp $T0 4 + =
STACK WIN 4 2e10 5 0 0 4 0 0 0 1 $T2 $esp .cbLocals + .cbSavedRegs + = $T0 .raSearchStart = $eip $T0 ^ = $esp $T0 4 + =
STACK WIN 4 2e15 5 0 0 4 0 0 0 1 $T2 $esp .cbLocals + .cbSavedRegs + = $T0 .raSearchStart = $eip $T0 ^ = $esp $T0 4 + =
STACK WIN 4 2e1a 5 0 0 4 0 0 0 1 $T2 $esp .cbLocals + .cbSavedRegs + = $T0 .raSearchStart = $eip $T0 ^ = $esp $T0 4 + =
STACK WIN 4 2e1f 5 0 0 4 0 0 0 1 $T2 $esp .cbLocals + .cbSavedRegs + = $T0 .raSearchStart = $eip $T0 ^ = $esp $T0 4 + =
STACK WIN 4 2e24 5 0 0 10 0 0 0 1 $T2 $esp .cbLocals + .cbSavedRegs + = $T0 .raSearchStart = $eip $T0 ^ = $esp $T0 4 + =
STACK WIN 4 2e29 5 0 0 10 0 0 0 1 $T2 $esp .cbLocals + .cbSavedRegs + = $T0 .raSearchStart = $eip $T0 ^ = $esp $T0 4 + =
STACK WIN 4 2e2e 5 0 0 c 0 0 0 1 $T2 $esp .cbLocals + .cbSavedRegs + = $T0 .raSearchStart = $eip $T0 ^ = $esp $T0 4 + =
STACK WIN 4 2e33 5 0 0 c 0 0 0 1 $T2 $esp .cbLocals + .cbSavedRegs + = $T0 .raSearchStart = $eip $T0 ^ = $esp $T0 4 + =
STACK WIN 4 2e38 5 0 0 8 0 0 0 1 $T2 $esp .cbLocals + .cbSavedRegs + = $T0 .raSearchStart = $eip $T0 ^ = $esp $T0 4 + =
STACK WIN 4 2e3d 5 0 0 4 0 0 0 1 $T2 $esp .cbLocals + .cbSavedRegs + = $T0 .raSearchStart = $eip $T0 ^ = $esp $T0 4 + =
STACK WIN 4 2e42 5 0 0 8 0 0 0 1 $T2 $esp .cbLocals + .cbSavedRegs + = $T0 .raSearchStart = $eip $T0 ^ = $esp $T0 4 + =
STACK WIN 4 2e47 5 0 0 8 0 0 0 1 $T2 $esp .cbLocals + .cbSavedRegs + = $T0 .raSearchStart = $eip $T0 ^ = $esp $T0 4 + =
STACK WIN 4 2e4c 5 0 0 8 0 0 0 1 $T2 $esp .cbLocals + .cbSavedRegs + = $T0 .raSearchStart = $eip $T0 ^ = $esp $T0 4 + =
STACK WIN 4 2e51 5 0 0 4 0 0 0 1 $T2 $esp .cbLocals + .cbSavedRegs + = $T0 .raSearchStart = $eip $T0 ^ = $esp $T0 4 + =
STACK WIN 4 2e56 5 0 0 8 0 0 0 1 $T2 $esp .cbLocals + .cbSavedRegs + = $T0 .raSearchStart = $eip $T0 ^ = $esp $T0 4 + =
STACK WIN 4 2e5b 5 0 0 8 0 0 0 1 $T2 $esp .cbLocals + .cbSavedRegs + = $T0 .raSearchStart = $eip $T0 ^ = $esp $T0 4 + =
STACK WIN 4 2e60 5 0 0 c 0 0 0 1 $T2 $esp .cbLocals + .cbSavedRegs + = $T0 .raSearchStart = $eip $T0 ^ = $esp $T0 4 + =
STACK WIN 4 2e65 5 0 0 c 0 0 0 1 $T2 $esp .cbLocals + .cbSavedRegs + = $T0 .raSearchStart = $eip $T0 ^ = $esp $T0 4 + =
STACK WIN 4 2e6a 5 0 0 8 0 0 0 1 $T2 $esp .cbLocals + .cbSavedRegs + = $T0 .raSearchStart = $eip $T0 ^ = $esp $T0 4 + =
STACK WIN 4 2e6f 5 0 0 8 0 0 0 1 $T2 $esp .cbLocals + .cbSavedRegs + = $T0 .raSearchStart = $eip $T0 ^ = $esp $T0 4 + =
STACK WIN 4 2e74 5 0 0 10 0 0 0 1 $T2 $esp .cbLocals + .cbSavedRegs + = $T0 .raSearchStart = $eip $T0 ^ = $esp $T0 4 + =
STACK WIN 4 2e79 5 0 0 10 0 0 0 1 $T2 $esp .cbLocals + .cbSavedRegs + = $T0 .raSearchStart = $eip $T0 ^ = $esp $T0 4 + =
STACK WIN 4 2e7e 5 0 0 8 0 0 0 1 $T2 $esp .cbLocals + .cbSavedRegs + = $T0 .raSearchStart = $eip $T0 ^ = $esp $T0 4 + =
STACK WIN 4 2e83 5 0 0 4 0 0 0 1 $T2 $esp .cbLocals + .cbSavedRegs + = $T0 .raSearchStart = $eip $T0 ^ = $esp $T0 4 + =
STACK WIN 4 2e88 5 0 0 4 0 0 0 1 $T2 $esp .cbLocals + .cbSavedRegs + = $T0 .raSearchStart = $eip $T0 ^ = $esp $T0 4 + =
STACK WIN 4 2e8d 5 0 0 4 0 0 0 1 $T2 $esp .cbLocals + .cbSavedRegs + = $T0 .raSearchStart = $eip $T0 ^ = $esp $T0 4 + =
STACK WIN 4 2e92 5 0 0 4 0 0 0 1 $T2 $esp .cbLocals + .cbSavedRegs + = $T0 .raSearchStart = $eip $T0 ^ = $esp $T0 4 + =
STACK WIN 4 2e97 6 0 0 8 0 0 0 1 $T2 $esp .cbLocals + .cbSavedRegs + = $T0 .raSearchStart = $eip $T0 ^ = $esp $T0 4 + =
STACK WIN 4 2e9d 6 0 0 8 0 0 0 1 $T2 $esp .cbLocals + .cbSavedRegs + = $T0 .raSearchStart = $eip $T0 ^ = $esp $T0 4 + =
STACK WIN 4 2ea3 6 0 0 8 0 0 0 1 $T2 $esp .cbLocals + .cbSavedRegs + = $T0 .raSearchStart = $eip $T0 ^ = $esp $T0 4 + =
STACK WIN 4 2ea9 6 0 0 8 0 0 0 1 $T2 $esp .cbLocals + .cbSavedRegs + = $T0 .raSearchStart = $eip $T0 ^ = $esp $T0 4 + =
STACK WIN 4 2eaf 6 0 0 8 0 0 0 1 $T2 $esp .cbLocals + .cbSavedRegs + = $T0 .raSearchStart = $eip $T0 ^ = $esp $T0 4 + =
STACK WIN 4 2eb5 6 0 0 8 0 0 0 1 $T2 $esp .cbLocals + .cbSavedRegs + = $T0 .raSearchStart = $eip $T0 ^ = $esp $T0 4 + =
STACK WIN 4 2ebb 6 0 0 8 0 0 0 1 $T2 $esp .cbLocals + .cbSavedRegs + = $T0 .raSearchStart = $eip $T0 ^ = $esp $T0 4 + =
STACK WIN 4 2ec1 6 0 0 8 0 0 0 1 $T2 $esp .cbLocals + .cbSavedRegs + = $T0 .raSearchStart = $eip $T0 ^ = $esp $T0 4 + =
STACK WIN 4 2ec7 6 0 0 8 0 0 0 1 $T2 $esp .cbLocals + .cbSavedRegs + = $T0 .raSearchStart = $eip $T0 ^ = $esp $T0 4 + =
STACK WIN 4 2ecd 6 0 0 8 0 0 0 1 $T2 $esp .cbLocals + .cbSavedRegs + = $T0 .raSearchStart = $eip $T0 ^ = $esp $T0 4 + =
STACK WIN 4 2ed3 6 0 0 8 0 0 0 1 $T2 $esp .cbLocals + .cbSavedRegs + = $T0 .raSearchStart = $eip $T0 ^ = $esp $T0 4 + =
STACK WIN 4 2ed9 6 0 0 8 0 0 0 1 $T2 $esp .cbLocals + .cbSavedRegs + = $T0 .raSearchStart = $eip $T0 ^ = $esp $T0 4 + =
STACK WIN 4 2edf 6 0 0 8 0 0 0 1 $T2 $esp .cbLocals + .cbSavedRegs + = $T0 .raSearchStart = $eip $T0 ^ = $esp $T0 4 + =
STACK WIN 4 2ee5 6 0 0 8 0 0 0 1 $T2 $esp .cbLocals + .cbSavedRegs + = $T0 .raSearchStart = $eip $T0 ^ = $esp $T0 4 + =
STACK WIN 4 2eeb 6 0 0 8 0 0 0 1 $T2 $esp .cbLocals + .cbSavedRegs + = $T0 .raSearchStart = $eip $T0 ^ = $esp $T0 4 + =
STACK WIN 4 2ef1 6 0 0 8 0 0 0 1 $T2 $esp .cbLocals + .cbSavedRegs + = $T0 .raSearchStart = $eip $T0 ^ = $esp $T0 4 + =
STACK WIN 4 2ef7 6 0 0 8 0 0 0 1 $T2 $esp .cbLocals + .cbSavedRegs + = $T0 .raSearchStart = $eip $T0 ^ = $esp $T0 4 + =
STACK WIN 4 2efd 79 4 0 8 0 0 0 1 $T0 $ebp = $eip $T0 4 + ^ = $ebp $T0 ^ = $esp $T0 8 + = $L $T0 .cbSavedRegs - = $P $T0 8 + .cbParams + =
STACK WIN 4 2f01 73 0 0 8 4 0 0 1 $T0 $ebp = $eip $T0 4 + ^ = $ebp $T0 ^ = $esp $T0 8 + = $L $T0 .cbSavedRegs - = $P $T0 8 + .cbParams + = $ebx $T0 4 - ^ =
STACK WIN 4 2f1c 57 0 0 8 8 0 0 1 $T0 $ebp = $eip $T0 4 + ^ = $ebp $T0 ^ = $esp $T0 8 + = $L $T0 .cbSavedRegs - = $P $T0 8 + .cbParams + = $ebx $T0 4 - ^ =
STACK WIN 4 2f2d 45 0 0 8 c 0 0 1 $T0 $ebp = $eip $T0 4 + ^ = $ebp $T0 ^ = $esp $T0 8 + = $L $T0 .cbSavedRegs - = $P $T0 8 + .cbParams + = $ebx $T0 4 - ^ =
STACK WIN 4 2f76 456 16 0 4 0 c8 0 1 $T0 $ebp 116 + = $eip $T0 4 + ^ = $ebp $T0 ^ = $esp $T0 8 + = $L $T0 .cbSavedRegs - = $P $T0 8 + .cbParams + =
STACK WIN 4 2f85 431 7 0 4 4 c8 0 1 $T0 $ebp 116 + = $eip $T0 4 + ^ = $ebp $T0 ^ = $esp $T0 8 + = $L $T0 .cbSavedRegs - = $P $T0 8 + .cbParams + = $ebx $T0 204 - ^ =
STACK WIN 4 2f8b 42a 1 0 4 8 c8 0 1 $T0 $ebp 116 + = $eip $T0 4 + ^ = $ebp $T0 ^ = $esp $T0 8 + = $L $T0 .cbSavedRegs - = $P $T0 8 + .cbParams + = $ebx $T0 204 - ^ =
STACK WIN 4 2f8c 428 0 0 4 c c8 0 1 $T0 $ebp 116 + = $eip $T0 4 + ^ = $ebp $T0 ^ = $esp $T0 8 + = $L $T0 .cbSavedRegs - = $P $T0 8 + .cbParams + = $ebx $T0 204 - ^ =
STACK WIN 4 33cc 6 0 0 8 0 0 0 1 $T2 $esp .cbLocals + .cbSavedRegs + = $T0 .raSearchStart = $eip $T0 ^ = $esp $T0 4 + =
STACK WIN 4 33d2 e5 1 0 10 0 0 0 1 $T2 $esp .cbLocals + .cbSavedRegs + = $T0 .raSearchStart = $eip $T0 ^ = $esp $T0 4 + =
STACK WIN 4 33d3 e3 0 0 10 4 0 0 1 $T2 $esp .cbLocals + .cbSavedRegs + = $T0 .raSearchStart = $eip $T0 ^ = $esp $T0 4 + =
STACK WIN 4 33e7 ce 0 0 10 8 0 0 1 $T2 $esp .cbLocals + .cbSavedRegs + = $T0 .raSearchStart = $eip $T0 ^ = $esp $T0 4 + =
STACK WIN 4 340b a9 0 0 10 c 0 0 1 $T2 $esp .cbLocals + .cbSavedRegs + = $T0 .raSearchStart = $eip $T0 ^ = $esp $T0 4 + = $ebx $T0 12 - ^ =
STACK WIN 4 34b7 19 0 0 4 0 0 0 1 $T2 $esp .cbLocals + .cbSavedRegs + = $T0 .raSearchStart = $eip $T0 ^ = $esp $T0 4 + =
STACK WIN 4 34d0 c 0 0 8 0 0 0 1 $T2 $esp .cbLocals + .cbSavedRegs + = $T0 .raSearchStart = $eip $T0 ^ = $esp $T0 4 + =
STACK WIN 4 34dc 15 0 0 4 0 0 0 1 $T2 $esp .cbLocals + .cbSavedRegs + = $T0 .raSearchStart = $eip $T0 ^ = $esp $T0 4 + =
STACK WIN 4 34f1 dd d 0 4 0 4 0 1 $T2 $esp .cbLocals + .cbSavedRegs + = $T0 .raSearchStart = $eip $T0 ^ = $esp $T0 4 + =
STACK WIN 4 34f3 d9 b 0 4 4 4 0 1 $T2 $esp .cbLocals + .cbSavedRegs + = $T0 .raSearchStart = $eip $T0 ^ = $esp $T0 4 + = $ebx $T0 8 - ^ =
STACK WIN 4 34f4 d7 a 0 4 8 4 0 1 $T2 $esp .cbLocals + .cbSavedRegs + = $T0 .raSearchStart = $eip $T0 ^ = $esp $T0 4 + = $ebp $T0 12 - ^ = $ebx $T0 8 - ^ =
STACK WIN 4 34f5 d5 9 0 4 c 4 0 1 $T2 $esp .cbLocals + .cbSavedRegs + = $T0 .raSearchStart = $eip $T0 ^ = $esp $T0 4 + = $ebp $T0 12 - ^ = $ebx $T0 8 - ^ =
STACK WIN 4 34fe cb 0 0 4 10 4 0 1 $T2 $esp .cbLocals + .cbSavedRegs + = $T0 .raSearchStart = $eip $T0 ^ = $esp $T0 4 + = $ebp $T0 12 - ^ = $ebx $T0 8 - ^ =
STACK WIN 4 35ce 55 1 0 8 0 0 0 1 $T2 $esp .cbLocals + .cbSavedRegs + = $T0 .raSearchStart = $eip $T0 ^ = $esp $T0 4 + =
STACK WIN 4 35cf 53 0 0 8 4 0 0 1 $T2 $esp .cbLocals + .cbSavedRegs + = $T0 .raSearchStart = $eip $T0 ^ = $esp $T0 4 + =
STACK WIN 4 3623 169 7 0 c 0 c 0 1 $T0 $ebp = $eip $T0 4 + ^ = $ebp $T0 ^ = $esp $T0 8 + = $L $T0 .cbSavedRegs - = $P $T0 8 + .cbParams + =
STACK WIN 4 362a 160 0 0 c 4 c 0 1 $T0 $ebp = $eip $T0 4 + ^ = $ebp $T0 ^ = $esp $T0 8 + = $L $T0 .cbSavedRegs - = $P $T0 8 + .cbParams + =
STACK WIN 4 3643 146 0 0 c 8 c 0 1 $T0 $ebp = $eip $T0 4 + ^ = $ebp $T0 ^ = $esp $T0 8 + = $L $T0 .cbSavedRegs - = $P $T0 8 + .cbParams + =
STACK WIN 4 3667 121 0 0 c c c 0 1 $T0 $ebp = $eip $T0 4 + ^ = $ebp $T0 ^ = $esp $T0 8 + = $L $T0 .cbSavedRegs - = $P $T0 8 + .cbParams + = $ebx $T0 24 - ^ =
STACK WIN 4 378c 1c 0 0 8 0 0 0 1 $T2 $esp .cbLocals + .cbSavedRegs + = $T0 .raSearchStart = $eip $T0 ^ = $esp $T0 4 + =
STACK WIN 4 37a8 15 0 0 4 0 0 0 1 $T2 $esp .cbLocals + .cbSavedRegs + = $T0 .raSearchStart = $eip $T0 ^ = $esp $T0 4 + =
STACK WIN 4 37bd c 0 0 8 0 0 0 1 $T2 $esp .cbLocals + .cbSavedRegs + = $T0 .raSearchStart = $eip $T0 ^ = $esp $T0 4 + =
STACK WIN 4 37c9 18 0 0 8 0 0 0 1 $T2 $esp .cbLocals + .cbSavedRegs + = $T0 .raSearchStart = $eip $T0 ^ = $esp $T0 4 + =
STACK WIN 4 37e1 88 7 0 c 0 c 0 1 $T0 $ebp = $eip $T0 4 + ^ = $ebp $T0 ^ = $esp $T0 8 + = $L $T0 .cbSavedRegs - = $P $T0 8 + .cbParams + =
STACK WIN 4 37e8 7f 0 0 c 4 c 0 1 $T0 $ebp = $eip $T0 4 + ^ = $ebp $T0 ^ = $esp $T0 8 + = $L $T0 .cbSavedRegs - = $P $T0 8 + .cbParams + =
STACK WIN 4 3809 5d 0 0 c 8 c 0 1 $T0 $ebp = $eip $T0 4 + ^ = $ebp $T0 ^ = $esp $T0 8 + = $L $T0 .cbSavedRegs - = $P $T0 8 + .cbParams + = $ebx $T0 32 - ^ =
STACK WIN 4 380a 59 0 0 c c c 0 1 $T0 $ebp = $eip $T0 4 + ^ = $ebp $T0 ^ = $esp $T0 8 + = $L $T0 .cbSavedRegs - = $P $T0 8 + .cbParams + = $ebx $T0 32 - ^ =
STACK WIN 4 3869 9f 8 0 8 0 18 0 1 $T0 $ebp = $eip $T0 4 + ^ = $ebp $T0 ^ = $esp $T0 8 + = $L $T0 .cbSavedRegs - = $P $T0 8 + .cbParams + =
STACK WIN 4 3870 96 1 0 8 4 18 0 1 $T0 $ebp = $eip $T0 4 + ^ = $ebp $T0 ^ = $esp $T0 8 + = $L $T0 .cbSavedRegs - = $P $T0 8 + .cbParams + =
STACK WIN 4 3871 94 0 0 8 8 18 0 1 $T0 $ebp = $eip $T0 4 + ^ = $ebp $T0 ^ = $esp $T0 8 + = $L $T0 .cbSavedRegs - = $P $T0 8 + .cbParams + =
STACK WIN 4 38a0 64 0 0 8 c 18 0 1 $T0 $ebp = $eip $T0 4 + ^ = $ebp $T0 ^ = $esp $T0 8 + = $L $T0 .cbSavedRegs - = $P $T0 8 + .cbParams + = $ebx $T0 36 - ^ =
STACK WIN 4 3908 39 0 0 4 0 0 0 1 $T2 $esp .cbLocals + .cbSavedRegs + = $T0 .raSearchStart = $eip $T0 ^ = $esp $T0 4 + =
STACK WIN 4 3941 4b 0 0 8 0 0 0 1 $T2 $esp .cbLocals + .cbSavedRegs + = $T0 .raSearchStart = $eip $T0 ^ = $esp $T0 4 + =
STACK WIN 4 395a 31 0 0 8 4 0 0 1 $T2 $esp .cbLocals + .cbSavedRegs + = $T0 .raSearchStart = $eip $T0 ^ = $esp $T0 4 + =
STACK WIN 4 398c 44 10 0 4 0 0 0 1 $T2 $esp .cbLocals + .cbSavedRegs + = $T0 .raSearchStart = $eip $T0 ^ = $esp $T0 4 + =
STACK WIN 4 3994 3b 8 0 4 4 0 0 1 $T2 $esp .cbLocals + .cbSavedRegs + = $T0 .raSearchStart = $eip $T0 ^ = $esp $T0 4 + =
STACK WIN 4 399c 32 0 0 4 8 0 0 1 $T2 $esp .cbLocals + .cbSavedRegs + = $T0 .raSearchStart = $eip $T0 ^ = $esp $T0 4 + =
STACK WIN 4 39d0 4b 6 0 8 0 0 0 1 $T2 $esp .cbLocals + .cbSavedRegs + = $T0 .raSearchStart = $eip $T0 ^ = $esp $T0 4 + =
STACK WIN 4 39d1 49 5 0 8 4 0 0 1 $T2 $esp .cbLocals + .cbSavedRegs + = $T0 .raSearchStart = $eip $T0 ^ = $esp $T0 4 + =
STACK WIN 4 39d6 43 0 0 8 8 0 0 1 $T2 $esp .cbLocals + .cbSavedRegs + = $T0 .raSearchStart = $eip $T0 ^ = $esp $T0 4 + =
STACK WIN 4 3a1b 71 4 0 0 0 4 0 1 $T0 $ebp = $eip $T0 4 + ^ = $ebp $T0 ^ = $esp $T0 8 + = $L $T0 .cbSavedRegs - = $P $T0 8 + .cbParams + =
STACK WIN 4 3a8c 3f 13 0 0 0 0 0 1 $T2 $esp .cbLocals + .cbSavedRegs + = $T0 .raSearchStart = $eip $T0 ^ = $esp $T0 4 + =
STACK WIN 4 3a8d 31 12 0 0 4 0 0 1 $T2 $esp .cbLocals + .cbSavedRegs + = $T0 .raSearchStart = $eip $T0 ^ = $esp $T0 4 + = $ebx $T0 4 - ^ =
STACK WIN 4 3a8e 2d 11 0 0 8 0 0 1 $T2 $esp .cbLocals + .cbSavedRegs + = $T0 .raSearchStart = $eip $T0 ^ = $esp $T0 4 + = $ebx $T0 4 - ^ =
STACK WIN 4 3a9d 1d 2 0 0 c 0 0 1 $T2 $esp .cbLocals + .cbSavedRegs + = $T0 .raSearchStart = $eip $T0 ^ = $esp $T0 4 + = $ebx $T0 4 - ^ =
STACK WIN 4 3acb 39 0 0 0 0 0 0 1 $T2 $esp .cbLocals + .cbSavedRegs + = $T0 .raSearchStart = $eip $T0 ^ = $esp $T0 4 + =
STACK WIN 4 3b04 66 0 0 0 0 0 0 1 $T2 $esp .cbLocals + .cbSavedRegs + = $T0 .raSearchStart = $eip $T0 ^ = $esp $T0 4 + =
STACK WIN 4 3b6a 45 9 0 0 0 0 0 1 $T2 $esp .cbLocals + .cbSavedRegs + = $T0 .raSearchStart = $eip $T0 ^ = $esp $T0 4 + =
STACK WIN 4 3b6b 43 8 0 0 4 0 0 1 $T2 $esp .cbLocals + .cbSavedRegs + = $T0 .raSearchStart = $eip $T0 ^ = $esp $T0 4 + =
STACK WIN 4 3b8f 1e 0 0 0 8 0 0 1 $T2 $esp .cbLocals + .cbSavedRegs + = $T0 .raSearchStart = $eip $T0 ^ = $esp $T0 4 + =
STACK WIN 4 3baf 68 12 0 4 0 0 0 1 $T2 $esp .cbLocals + .cbSavedRegs + = $T0 .raSearchStart = $eip $T0 ^ = $esp $T0 4 + =
STACK WIN 4 3bb0 66 11 0 4 4 0 0 1 $T2 $esp .cbLocals + .cbSavedRegs + = $T0 .raSearchStart = $eip $T0 ^ = $esp $T0 4 + = $ebx $T0 4 - ^ =
STACK WIN 4 3bb1 64 10 0 4 8 0 0 1 $T2 $esp .cbLocals + .cbSavedRegs + = $T0 .raSearchStart = $eip $T0 ^ = $esp $T0 4 + = $ebp $T0 8 - ^ = $ebx $T0 4 - ^ =
STACK WIN 4 3bb2 62 f 0 4 c 0 0 1 $T2 $esp .cbLocals + .cbSavedRegs + = $T0 .raSearchStart = $eip $T0 ^ = $esp $T0 4 + = $ebp $T0 8 - ^ = $ebx $T0 4 - ^ =
STACK WIN 4 3bb9 5a 8 0 4 10 0 0 1 $T2 $esp .cbLocals + .cbSavedRegs + = $T0 .raSearchStart = $eip $T0 ^ = $esp $T0 4 + = $ebp $T0 8 - ^ = $ebx $T0 4 - ^ =
STACK WIN 4 3c17 5f c 0 0 0 0 0 1 $T2 $esp .cbLocals + .cbSavedRegs + = $T0 .raSearchStart = $eip $T0 ^ = $esp $T0 4 + =
STACK WIN 4 3c18 44 b 0 0 4 0 0 1 $T2 $esp .cbLocals + .cbSavedRegs + = $T0 .raSearchStart = $eip $T0 ^ = $esp $T0 4 + =
STACK WIN 4 3c19 42 a 0 0 8 0 0 1 $T2 $esp .cbLocals + .cbSavedRegs + = $T0 .raSearchStart = $eip $T0 ^ = $esp $T0 4 + =
STACK WIN 4 3c76 3e 0 0 0 0 0 0 1 $T2 $esp .cbLocals + .cbSavedRegs + = $T0 .raSearchStart = $eip $T0 ^ = $esp $T0 4 + =
STACK WIN 4 3cb4 37 0 0 0 0 0 0 1 $T2 $esp .cbLocals + .cbSavedRegs + = $T0 .raSearchStart = $eip $T0 ^ = $esp $T0 4 + =
STACK WIN 4 3ceb a0 12 0 4 0 8 0 1 $T0 $ebp = $eip $T0 4 + ^ = $ebp $T0 ^ = $esp $T0 8 + = $L $T0 .cbSavedRegs - = $P $T0 8 + .cbParams + =
STACK WIN 4 3cf4 95 9 0 4 4 8 0 1 $T0 $ebp = $eip $T0 4 + ^ = $ebp $T0 ^ = $esp $T0 8 + = $L $T0 .cbSavedRegs - = $P $T0 8 + .cbParams + =
STACK WIN 4 3cf5 93 8 0 4 8 8 0 1 $T0 $ebp = $eip $T0 4 + ^ = $ebp $T0 ^ = $esp $T0 8 + = $L $T0 .cbSavedRegs - = $P $T0 8 + .cbParams + =
STACK WIN 4 3d8b a7 8 0 0 0 4 0 1 $T0 $ebp = $eip $T0 4 + ^ = $ebp $T0 ^ = $esp $T0 8 + = $L $T0 .cbSavedRegs - = $P $T0 8 + .cbParams + =
STACK WIN 4 3d90 a0 3 0 0 4 4 0 1 $T0 $ebp = $eip $T0 4 + ^ = $ebp $T0 ^ = $esp $T0 8 + = $L $T0 .cbSavedRegs - = $P $T0 8 + .cbParams + = $ebx $T0 8 - ^ =
STACK WIN 4 3d91 9e 2 0 0 8 4 0 1 $T0 $ebp = $eip $T0 4 + ^ = $ebp $T0 ^ = $esp $T0 8 + = $L $T0 .cbSavedRegs - = $P $T0 8 + .cbParams + = $ebx $T0 8 - ^ =
STACK WIN 4 3e32 9f 5 0 0 0 8 0 1 $T2 $esp .cbLocals + .cbSavedRegs + = $T0 .raSearchStart = $eip $T0 ^ = $esp $T0 4 + =
STACK WIN 4 3e35 99 2 0 0 4 8 0 1 $T2 $esp .cbLocals + .cbSavedRegs + = $T0 .raSearchStart = $eip $T0 ^ = $esp $T0 4 + = $ebx $T0 12 - ^ =
STACK WIN 4 3e36 97 1 0 0 8 8 0 1 $T2 $esp .cbLocals + .cbSavedRegs + = $T0 .raSearchStart = $eip $T0 ^ = $esp $T0 4 + = $ebp $T0 16 - ^ = $ebx $T0 12 - ^ =
STACK WIN 4 3e37 95 0 0 0 c 8 0 1 $T2 $esp .cbLocals + .cbSavedRegs + = $T0 .raSearchStart = $eip $T0 ^ = $esp $T0 4 + = $ebp $T0 16 - ^ = $ebx $T0 12 - ^ =
STACK WIN 4 3ed1 3e 9 0 0 0 0 0 1 $T2 $esp .cbLocals + .cbSavedRegs + = $T0 .raSearchStart = $eip $T0 ^ = $esp $T0 4 + =
STACK WIN 4 3ed2 3c 8 0 0 4 0 0 1 $T2 $esp .cbLocals + .cbSavedRegs + = $T0 .raSearchStart = $eip $T0 ^ = $esp $T0 4 + =
STACK WIN 4 3f0f bc 7 0 c 0 4 0 1 $T0 $ebp = $eip $T0 4 + ^ = $ebp $T0 ^ = $esp $T0 8 + = $L $T0 .cbSavedRegs - = $P $T0 8 + .cbParams + =
STACK WIN 4 3f14 64 2 0 c 4 4 0 1 $T0 $ebp = $eip $T0 4 + ^ = $ebp $T0 ^ = $esp $T0 8 + = $L $T0 .cbSavedRegs - = $P $T0 8 + .cbParams + =
STACK WIN 4 3f2e 49 0 0 c 8 4 0 1 $T0 $ebp = $eip $T0 4 + ^ = $ebp $T0 ^ = $esp $T0 8 + = $L $T0 .cbSavedRegs - = $P $T0 8 + .cbParams + =
STACK WIN 4 3f54 11 0 0 c c 4 0 1 $T0 $ebp = $eip $T0 4 + ^ = $ebp $T0 ^ = $esp $T0 8 + = $L $T0 .cbSavedRegs - = $P $T0 8 + .cbParams + = $ebx $T0 16 - ^ =
STACK WIN 4 3fcb 41 1 0 4 0 0 0 1 $T2 $esp .cbLocals + .cbSavedRegs + = $T0 .raSearchStart = $eip $T0 ^ = $esp $T0 4 + =
STACK WIN 4 3fcc 3f 0 0 4 4 0 0 1 $T2 $esp .cbLocals + .cbSavedRegs + = $T0 .raSearchStart = $eip $T0 ^ = $esp $T0 4 + =
STACK WIN 4 400c 85 7 0 c 0 0 0 1 $T2 $esp .cbLocals + .cbSavedRegs + = $T0 .raSearchStart = $eip $T0 ^ = $esp $T0 4 + =
STACK WIN 4 400d 83 6 0 c 4 0 0 1 $T2 $esp .cbLocals + .cbSavedRegs + = $T0 .raSearchStart = $eip $T0 ^ = $esp $T0 4 + = $ebx $T0 4 - ^ =
STACK WIN 4 4012 7d 1 0 c 8 0 0 1 $T2 $esp .cbLocals + .cbSavedRegs + = $T0 .raSearchStart = $eip $T0 ^ = $esp $T0 4 + = $ebx $T0 4 - ^ =
STACK WIN 4 4013 7b 0 0 c c 0 0 1 $T2 $esp .cbLocals + .cbSavedRegs + = $T0 .raSearchStart = $eip $T0 ^ = $esp $T0 4 + = $ebx $T0 4 - ^ =
STACK WIN 4 4091 c 0 0 4 0 0 0 1 $T2 $esp .cbLocals + .cbSavedRegs + = $T0 .raSearchStart = $eip $T0 ^ = $esp $T0 4 + =
STACK WIN 4 409d 8f 7 0 0 0 0 0 1 $T2 $esp .cbLocals + .cbSavedRegs + = $T0 .raSearchStart = $eip $T0 ^ = $esp $T0 4 + =
STACK WIN 4 40a3 88 1 0 0 4 0 0 1 $T2 $esp .cbLocals + .cbSavedRegs + = $T0 .raSearchStart = $eip $T0 ^ = $esp $T0 4 + =
STACK WIN 4 40a4 86 0 0 0 8 0 0 1 $T2 $esp .cbLocals + .cbSavedRegs + = $T0 .raSearchStart = $eip $T0 ^ = $esp $T0 4 + =
STACK WIN 4 412c 8d 6 0 0 0 0 0 1 $T2 $esp .cbLocals + .cbSavedRegs + = $T0 .raSearchStart = $eip $T0 ^ = $esp $T0 4 + =
STACK WIN 4 4132 86 0 0 0 4 0 0 1 $T2 $esp .cbLocals + .cbSavedRegs + = $T0 .raSearchStart = $eip $T0 ^ = $esp $T0 4 + =
STACK WIN 4 41b9 37 0 0 0 0 0 0 1 $T2 $esp .cbLocals + .cbSavedRegs + = $T0 .raSearchStart = $eip $T0 ^ = $esp $T0 4 + =
STACK WIN 4 41d1 1e 0 0 0 4 0 0 1 $T2 $esp .cbLocals + .cbSavedRegs + = $T0 .raSearchStart = $eip $T0 ^ = $esp $T0 4 + =
STACK WIN 4 41f0 3c 1 0 c 0 0 0 1 $T2 $esp .cbLocals + .cbSavedRegs + = $T0 .raSearchStart = $eip $T0 ^ = $esp $T0 4 + =
STACK WIN 4 41f1 3a 0 0 c 4 0 0 1 $T2 $esp .cbLocals + .cbSavedRegs + = $T0 .raSearchStart = $eip $T0 ^ = $esp $T0 4 + =
STACK WIN 4 422c 2e 0 0 4 0 0 0 1 $T2 $esp .cbLocals + .cbSavedRegs + = $T0 .raSearchStart = $eip $T0 ^ = $esp $T0 4 + =
STACK WIN 4 425a b3 5 0 8 0 4 0 1 $T0 $ebp = $eip $T0 4 + ^ = $ebp $T0 ^ = $esp $T0 8 + = $L $T0 .cbSavedRegs - = $P $T0 8 + .cbParams + =
STACK WIN 4 425f ac 0 0 8 4 4 0 1 $T0 $ebp = $eip $T0 4 + ^ = $ebp $T0 ^ = $esp $T0 8 + = $L $T0 .cbSavedRegs - = $P $T0 8 + .cbParams + =
STACK WIN 4 430d 3d c 0 10 0 c 0 1 $T0 $ebp = $eip $T0 4 + ^ = $ebp $T0 ^ = $esp $T0 8 + = $L $T0 .cbSavedRegs - = $P $T0 8 + .cbParams + =
STACK WIN 4 4314 34 5 0 10 4 c 0 1 $T0 $ebp = $eip $T0 4 + ^ = $ebp $T0 ^ = $esp $T0 8 + = $L $T0 .cbSavedRegs - = $P $T0 8 + .cbParams + = $ebx $T0 16 - ^ =
STACK WIN 4 4315 32 4 0 10 8 c 0 1 $T0 $ebp = $eip $T0 4 + ^ = $ebp $T0 ^ = $esp $T0 8 + = $L $T0 .cbSavedRegs - = $P $T0 8 + .cbParams + = $ebx $T0 16 - ^ =
STACK WIN 4 4319 2d 0 0 10 c c 0 1 $T0 $ebp = $eip $T0 4 + ^ = $ebp $T0 ^ = $esp $T0 8 + = $L $T0 .cbSavedRegs - = $P $T0 8 + .cbParams + = $ebx $T0 16 - ^ =
STACK WIN 4 434a 28 8 0 8 0 c 0 1 $T0 $ebp = $eip $T0 4 + ^ = $ebp $T0 ^ = $esp $T0 8 + = $L $T0 .cbSavedRegs - = $P $T0 8 + .cbParams + =
STACK WIN 4 4351 1f 1 0 8 4 c 0 1 $T0 $ebp = $eip $T0 4 + ^ = $ebp $T0 ^ = $esp $T0 8 + = $L $T0 .cbSavedRegs - = $P $T0 8 + .cbParams + =
STACK WIN 4 4352 1d 0 0 8 8 c 0 1 $T0 $ebp = $eip $T0 4 + ^ = $ebp $T0 ^ = $esp $T0 8 + = $L $T0 .cbSavedRegs - = $P $T0 8 + .cbParams + =
STACK WIN 4 4372 13a 8 0 c 0 4 0 1 $T0 $ebp = $eip $T0 4 + ^ = $ebp $T0 ^ = $esp $T0 8 + = $L $T0 .cbSavedRegs - = $P $T0 8 + .cbParams + =
STACK WIN 4 4377 133 3 0 c 4 4 0 1 $T0 $ebp = $eip $T0 4 + ^ = $ebp $T0 ^ = $esp $T0 8 + = $L $T0 .cbSavedRegs - = $P $T0 8 + .cbParams + = $ebx $T0 8 - ^ =
STACK WIN 4 4378 131 2 0 c 8 4 0 1 $T0 $ebp = $eip $T0 4 + ^ = $ebp $T0 ^ = $esp $T0 8 + = $L $T0 .cbSavedRegs - = $P $T0 8 + .cbParams + = $ebx $T0 8 - ^ =
STACK WIN 4 437b 12d 0 0 c c 4 0 1 $T0 $ebp = $eip $T0 4 + ^ = $ebp $T0 ^ = $esp $T0 8 + = $L $T0 .cbSavedRegs - = $P $T0 8 + .cbParams + = $ebx $T0 8 - ^ =
STACK WIN 4 44ac 41 1 0 c 0 0 0 1 $T2 $esp .cbLocals + .cbSavedRegs + = $T0 .raSearchStart = $eip $T0 ^ = $esp $T0 4 + =
STACK WIN 4 44ad 3f 0 0 c 4 0 0 1 $T2 $esp .cbLocals + .cbSavedRegs + = $T0 .raSearchStart = $eip $T0 ^ = $esp $T0 4 + =
STACK WIN 4 44ed c 0 0 8 0 0 0 1 $T2 $esp .cbLocals + .cbSavedRegs + = $T0 .raSearchStart = $eip $T0 ^ = $esp $T0 4 + =
STACK WIN 4 44f9 ad 7 0 4 0 0 0 1 $T2 $esp .cbLocals + .cbSavedRegs + = $T0 .raSearchStart = $eip $T0 ^ = $esp $T0 4 + =
STACK WIN 4 44fa ab 6 0 4 4 0 0 1 $T2 $esp .cbLocals + .cbSavedRegs + = $T0 .raSearchStart = $eip $T0 ^ = $esp $T0 4 + = $ebx $T0 4 - ^ =
STACK WIN 4 44fb a9 5 0 4 8 0 0 1 $T2 $esp .cbLocals + .cbSavedRegs + = $T0 .raSearchStart = $eip $T0 ^ = $esp $T0 4 + = $ebx $T0 4 - ^ =
STACK WIN 4 44fc a7 4 0 4 c 0 0 1 $T2 $esp .cbLocals + .cbSavedRegs + = $T0 .raSearchStart = $eip $T0 ^ = $esp $T0 4 + = $ebx $T0 4 - ^ =
STACK WIN 4 45a6 c4 7 0 10 0 8 0 1 $T0 $ebp = $eip $T0 4 + ^ = $ebp $T0 ^ = $esp $T0 8 + = $L $T0 .cbSavedRegs - = $P $T0 8 + .cbParams + =
STACK WIN 4 45ac af 1 0 10 4 8 0 1 $T0 $ebp = $eip $T0 4 + ^ = $ebp $T0 ^ = $esp $T0 8 + = $L $T0 .cbSavedRegs - = $P $T0 8 + .cbParams + = $ebx $T0 12 - ^ =
STACK WIN 4 45ad ad 0 0 10 8 8 0 1 $T0 $ebp = $eip $T0 4 + ^ = $ebp $T0 ^ = $esp $T0 8 + = $L $T0 .cbSavedRegs - = $P $T0 8 + .cbParams + = $ebx $T0 12 - ^ =
STACK WIN 4 466a 6a 2 0 c 0 0 0 1 $T2 $esp .cbLocals + .cbSavedRegs + = $T0 .raSearchStart = $eip $T0 ^ = $esp $T0 4 + =
STACK WIN 4 466b 68 1 0 c 4 0 0 1 $T2 $esp .cbLocals + .cbSavedRegs + = $T0 .raSearchStart = $eip $T0 ^ = $esp $T0 4 + = $ebx $T0 4 - ^ =
STACK WIN 4 466c 66 0 0 c 8 0 0 1 $T2 $esp .cbLocals + .cbSavedRegs + = $T0 .raSearchStart = $eip $T0 ^ = $esp $T0 4 + = $ebx $T0 4 - ^ =
STACK WIN 4 46d4 49 2 0 0 0 0 0 1 $T2 $esp .cbLocals + .cbSavedRegs + = $T0 .raSearchStart = $eip $T0 ^ = $esp $T0 4 + =
STACK WIN 4 46d5 47 1 0 0 4 0 0 1 $T2 $esp .cbLocals + .cbSavedRegs + = $T0 .raSearchStart = $eip $T0 ^ = $esp $T0 4 + =
STACK WIN 4 46d6 45 0 0 0 8 0 0 1 $T2 $esp .cbLocals + .cbSavedRegs + = $T0 .raSearchStart = $eip $T0 ^ = $esp $T0 4 + =
STACK WIN 4 471d 5b 0 0 18 0 0 0 1 $T2 $esp .cbLocals + .cbSavedRegs + = $T0 .raSearchStart = $eip $T0 ^ = $esp $T0 4 + =
STACK WIN 4 4733 44 0 0 18 4 0 0 1 $T2 $esp .cbLocals + .cbSavedRegs + = $T0 .raSearchStart = $eip $T0 ^ = $esp $T0 4 + =
STACK WIN 4 473f 24 0 0 18 8 0 0 1 $T2 $esp .cbLocals + .cbSavedRegs + = $T0 .raSearchStart = $eip $T0 ^ = $esp $T0 4 + =
STACK WIN 4 4778 6c 3 0 14 0 0 0 1 $T0 $ebp = $eip $T0 4 + ^ = $ebp $T0 ^ = $esp $T0 8 + = $L $T0 .cbSavedRegs - = $P $T0 8 + .cbParams + =
STACK WIN 4 479e 44 0 0 14 4 0 0 1 $T0 $ebp = $eip $T0 4 + ^ = $ebp $T0 ^ = $esp $T0 8 + = $L $T0 .cbSavedRegs - = $P $T0 8 + .cbParams + =
STACK WIN 4 47aa 24 0 0 14 8 0 0 1 $T0 $ebp = $eip $T0 4 + ^ = $ebp $T0 ^ = $esp $T0 8 + = $L $T0 .cbSavedRegs - = $P $T0 8 + .cbParams + =
STACK WIN 4 47e4 f 0 0 8 0 0 0 1 $T2 $esp .cbLocals + .cbSavedRegs + = $T0 .raSearchStart = $eip $T0 ^ = $esp $T0 4 + =
STACK WIN 4 47f3 105 1c 0 8 0 c 0 1 $T0 $ebp = $eip $T0 4 + ^ = $ebp $T0 ^ = $esp $T0 8 + = $L $T0 .cbSavedRegs - = $P $T0 8 + .cbParams + =
STACK WIN 4 4802 f4 d 0 8 4 c 0 1 $T0 $ebp = $eip $T0 4 + ^ = $ebp $T0 ^ = $esp $T0 8 + = $L $T0 .cbSavedRegs - = $P $T0 8 + .cbParams + = $ebx $T0 16 - ^ =
STACK WIN 4 480e e7 1 0 8 8 c 0 1 $T0 $ebp = $eip $T0 4 + ^ = $ebp $T0 ^ = $esp $T0 8 + = $L $T0 .cbSavedRegs - = $P $T0 8 + .cbParams + = $ebx $T0 16 - ^ =
STACK WIN 4 480f e5 0 0 8 c c 0 1 $T0 $ebp = $eip $T0 4 + ^ = $ebp $T0 ^ = $esp $T0 8 + = $L $T0 .cbSavedRegs - = $P $T0 8 + .cbParams + = $ebx $T0 16 - ^ =
STACK WIN 4 48f8 56 1 0 4 0 0 0 1 $T2 $esp .cbLocals + .cbSavedRegs + = $T0 .raSearchStart = $eip $T0 ^ = $esp $T0 4 + =
STACK WIN 4 48f9 54 0 0 4 4 0 0 1 $T2 $esp .cbLocals + .cbSavedRegs + = $T0 .raSearchStart = $eip $T0 ^ = $esp $T0 4 + =
STACK WIN 4 494e 10f 6 0 8 0 c 0 1 $T0 $ebp = $eip $T0 4 + ^ = $ebp $T0 ^ = $esp $T0 8 + = $L $T0 .cbSavedRegs - = $P $T0 8 + .cbParams + =
STACK WIN 4 4970 19 0 0 8 4 c 0 1 $T0 $ebp = $eip $T0 4 + ^ = $ebp $T0 ^ = $esp $T0 8 + = $L $T0 .cbSavedRegs - = $P $T0 8 + .cbParams + =
STACK WIN 4 497e 2b 0 0 8 8 c 0 1 $T0 $ebp = $eip $T0 4 + ^ = $ebp $T0 ^ = $esp $T0 8 + = $L $T0 .cbSavedRegs - = $P $T0 8 + .cbParams + = $ebx $T0 20 - ^ =
STACK WIN 4 497f 8 0 0 8 c c 0 1 $T0 $ebp = $eip $T0 4 + ^ = $ebp $T0 ^ = $esp $T0 8 + = $L $T0 .cbSavedRegs - = $P $T0 8 + .cbParams + = $ebx $T0 20 - ^ =
STACK WIN 4 4a5d 123 8 0 4 0 1c 0 1 $T0 $ebp = $eip $T0 4 + ^ = $ebp $T0 ^ = $esp $T0 8 + = $L $T0 .cbSavedRegs - = $P $T0 8 + .cbParams + =
STACK WIN 4 4a64 11a 1 0 4 4 1c 0 1 $T0 $ebp = $eip $T0 4 + ^ = $ebp $T0 ^ = $esp $T0 8 + = $L $T0 .cbSavedRegs - = $P $T0 8 + .cbParams + =
STACK WIN 4 4a65 118 0 0 4 8 1c 0 1 $T0 $ebp = $eip $T0 4 + ^ = $ebp $T0 ^ = $esp $T0 8 + = $L $T0 .cbSavedRegs - = $P $T0 8 + .cbParams + =
STACK WIN 4 4b80 3f 0 0 0 0 0 0 1 $T2 $esp .cbLocals + .cbSavedRegs + = $T0 .raSearchStart = $eip $T0 ^ = $esp $T0 4 + =
STACK WIN 4 4bbf a2 8 0 4 0 c 0 1 $T0 $ebp = $eip $T0 4 + ^ = $ebp $T0 ^ = $esp $T0 8 + = $L $T0 .cbSavedRegs - = $P $T0 8 + .cbParams + =
STACK WIN 4 4bc6 99 1 0 4 4 c 0 1 $T0 $ebp = $eip $T0 4 + ^ = $ebp $T0 ^ = $esp $T0 8 + = $L $T0 .cbSavedRegs - = $P $T0 8 + .cbParams + = $ebx $T0 16 - ^ =
STACK WIN 4 4bc7 97 0 0 4 8 c 0 1 $T0 $ebp = $eip $T0 4 + ^ = $ebp $T0 ^ = $esp $T0 8 + = $L $T0 .cbSavedRegs - = $P $T0 8 + .cbParams + = $ebx $T0 16 - ^ =
STACK WIN 4 4c40 b 0 0 4 c c 0 1 $T0 $ebp = $eip $T0 4 + ^ = $ebp $T0 ^ = $esp $T0 8 + = $L $T0 .cbSavedRegs - = $P $T0 8 + .cbParams + = $ebx $T0 16 - ^ =
STACK WIN 4 4c61 18 0 0 8 0 0 0 1 $T2 $esp .cbLocals + .cbSavedRegs + = $T0 .raSearchStart = $eip $T0 ^ = $esp $T0 4 + =
STACK WIN 4 4c79 13 0 0 4 0 0 0 1 $T2 $esp .cbLocals + .cbSavedRegs + = $T0 .raSearchStart = $eip $T0 ^ = $esp $T0 4 + =
STACK WIN 4 4c8c 36 1 0 4 0 0 0 1 $T2 $esp .cbLocals + .cbSavedRegs + = $T0 .raSearchStart = $eip $T0 ^ = $esp $T0 4 + =
STACK WIN 4 4c8d 34 0 0 4 4 0 0 1 $T2 $esp .cbLocals + .cbSavedRegs + = $T0 .raSearchStart = $eip $T0 ^ = $esp $T0 4 + =
STACK WIN 4 4cc2 15f a 0 c 0 c 0 1 $T0 $ebp = $eip $T0 4 + ^ = $ebp $T0 ^ = $esp $T0 8 + = $L $T0 .cbSavedRegs - = $P $T0 8 + .cbParams + =
STACK WIN 4 4cc9 12c 3 0 c 4 c 0 1 $T0 $ebp = $eip $T0 4 + ^ = $ebp $T0 ^ = $esp $T0 8 + = $L $T0 .cbSavedRegs - = $P $T0 8 + .cbParams + = $ebx $T0 16 - ^ =
STACK WIN 4 4cca 12a 2 0 c 8 c 0 1 $T0 $ebp = $eip $T0 4 + ^ = $ebp $T0 ^ = $esp $T0 8 + = $L $T0 .cbSavedRegs - = $P $T0 8 + .cbParams + = $ebx $T0 16 - ^ =
STACK WIN 4 4ccf 124 0 0 c c c 0 1 $T0 $ebp = $eip $T0 4 + ^ = $ebp $T0 ^ = $esp $T0 8 + = $L $T0 .cbSavedRegs - = $P $T0 8 + .cbParams + = $ebx $T0 16 - ^ =
STACK WIN 4 4e21 fd 12 0 4 0 3c 0 1 $T0 $ebp = $eip $T0 4 + ^ = $ebp $T0 ^ = $esp $T0 8 + = $L $T0 .cbSavedRegs - = $P $T0 8 + .cbParams + =
STACK WIN 4 4e32 a0 1 0 4 4 3c 0 1 $T0 $ebp = $eip $T0 4 + ^ = $ebp $T0 ^ = $esp $T0 8 + = $L $T0 .cbSavedRegs - = $P $T0 8 + .cbParams + = $ebx $T0 64 - ^ =
STACK WIN 4 4e33 9c 0 0 4 8 3c 0 1 $T0 $ebp = $eip $T0 4 + ^ = $ebp $T0 ^ = $esp $T0 8 + = $L $T0 .cbSavedRegs - = $P $T0 8 + .cbParams + = $ebx $T0 64 - ^ =
STACK WIN 4 4f1e 10b 10 0 4 0 24 0 1 $T0 $ebp = $eip $T0 4 + ^ = $ebp $T0 ^ = $esp $T0 8 + = $L $T0 .cbSavedRegs - = $P $T0 8 + .cbParams + =
STACK WIN 4 4f59 a3 0 0 4 4 24 0 1 $T0 $ebp = $eip $T0 4 + ^ = $ebp $T0 ^ = $esp $T0 8 + = $L $T0 .cbSavedRegs - = $P $T0 8 + .cbParams + = $ebx $T0 52 - ^ =
STACK WIN 4 4f5a a1 0 0 4 8 24 0 1 $T0 $ebp = $eip $T0 4 + ^ = $ebp $T0 ^ = $esp $T0 8 + = $L $T0 .cbSavedRegs - = $P $T0 8 + .cbParams + = $ebx $T0 52 - ^ =
STACK WIN 4 5029 43 4 0 10 0 0 0 1 $T0 $ebp = $eip $T0 4 + ^ = $ebp $T0 ^ = $esp $T0 8 + = $L $T0 .cbSavedRegs - = $P $T0 8 + .cbParams + =
STACK WIN 4 502d 3d 0 0 10 4 0 0 1 $T0 $ebp = $eip $T0 4 + ^ = $ebp $T0 ^ = $esp $T0 8 + = $L $T0 .cbSavedRegs - = $P $T0 8 + .cbParams + =
STACK WIN 4 506c 336 7 0 8 0 24 0 1 $T2 $esp .cbLocals + .cbSavedRegs + = $T0 .raSearchStart = $eip $T0 ^ = $esp $T0 4 + =
STACK WIN 4 5070 f7 3 0 8 4 24 0 1 $T2 $esp .cbLocals + .cbSavedRegs + = $T0 .raSearchStart = $eip $T0 ^ = $esp $T0 4 + = $ebx $T0 40 - ^ =
STACK WIN 4 5071 f5 2 0 8 8 24 0 1 $T2 $esp .cbLocals + .cbSavedRegs + = $T0 .raSearchStart = $eip $T0 ^ = $esp $T0 4 + = $ebp $T0 44 - ^ = $ebx $T0 40 - ^ =
STACK WIN 4 5072 f3 1 0 8 c 24 0 1 $T2 $esp .cbLocals + .cbSavedRegs + = $T0 .raSearchStart = $eip $T0 ^ = $esp $T0 4 + = $ebp $T0 44 - ^ = $ebx $T0 40 - ^ =
STACK WIN 4 5073 f1 0 0 8 10 24 0 1 $T2 $esp .cbLocals + .cbSavedRegs + = $T0 .raSearchStart = $eip $T0 ^ = $esp $T0 4 + = $ebp $T0 44 - ^ = $ebx $T0 40 - ^ =
STACK WIN 4 53a2 19 0 0 10 0 0 0 1 $T2 $esp .cbLocals + .cbSavedRegs + = $T0 .raSearchStart = $eip $T0 ^ = $esp $T0 4 + =
STACK WIN 4 53bb 142 7 0 8 0 24 0 1 $T0 $ebp = $eip $T0 4 + ^ = $ebp $T0 ^ = $esp $T0 8 + = $L $T0 .cbSavedRegs - = $P $T0 8 + .cbParams + =
STACK WIN 4 53c2 12b 0 0 8 4 24 0 1 $T0 $ebp = $eip $T0 4 + ^ = $ebp $T0 ^ = $esp $T0 8 + = $L $T0 .cbSavedRegs - = $P $T0 8 + .cbParams + =
STACK WIN 4 54fd b5 6 0 14 0 0 0 1 $T0 $ebp = $eip $T0 4 + ^ = $ebp $T0 ^ = $esp $T0 8 + = $L $T0 .cbSavedRegs - = $P $T0 8 + .cbParams + =
STACK WIN 4 5501 af 2 0 14 4 0 0 1 $T0 $ebp = $eip $T0 4 + ^ = $ebp $T0 ^ = $esp $T0 8 + = $L $T0 .cbSavedRegs - = $P $T0 8 + .cbParams + = $ebx $T0 4 - ^ =
STACK WIN 4 5502 ad 1 0 14 8 0 0 1 $T0 $ebp = $eip $T0 4 + ^ = $ebp $T0 ^ = $esp $T0 8 + = $L $T0 .cbSavedRegs - = $P $T0 8 + .cbParams + = $ebx $T0 4 - ^ =
STACK WIN 4 5503 ab 0 0 14 c 0 0 1 $T0 $ebp = $eip $T0 4 + ^ = $ebp $T0 ^ = $esp $T0 8 + = $L $T0 .cbSavedRegs - = $P $T0 8 + .cbParams + = $ebx $T0 4 - ^ =
STACK WIN 4 55b2 80 8 0 4 0 c 0 1 $T0 $ebp = $eip $T0 4 + ^ = $ebp $T0 ^ = $esp $T0 8 + = $L $T0 .cbSavedRegs - = $P $T0 8 + .cbParams + =
STACK WIN 4 55b9 72 1 0 4 4 c 0 1 $T0 $ebp = $eip $T0 4 + ^ = $ebp $T0 ^ = $esp $T0 8 + = $L $T0 .cbSavedRegs - = $P $T0 8 + .cbParams + =
STACK WIN 4 55ba 6e 0 0 4 8 c 0 1 $T0 $ebp = $eip $T0 4 + ^ = $ebp $T0 ^ = $esp $T0 8 + = $L $T0 .cbSavedRegs - = $P $T0 8 + .cbParams + =
STACK WIN 4 5632 a3 10 0 0 0 50 0 1 $T0 $ebp = $eip $T0 4 + ^ = $ebp $T0 ^ = $esp $T0 8 + = $L $T0 .cbSavedRegs - = $P $T0 8 + .cbParams + =
STACK WIN 4 56d5 7c 7 0 10 0 c 0 1 $T0 $ebp = $eip $T0 4 + ^ = $ebp $T0 ^ = $esp $T0 8 + = $L $T0 .cbSavedRegs - = $P $T0 8 + .cbParams + =
STACK WIN 4 56dc 73 0 0 10 4 c 0 1 $T0 $ebp = $eip $T0 4 + ^ = $ebp $T0 ^ = $esp $T0 8 + = $L $T0 .cbSavedRegs - = $P $T0 8 + .cbParams + = $ebx $T0 16 - ^ =
STACK WIN 4 56f4 5a 0 0 10 8 c 0 1 $T0 $ebp = $eip $T0 4 + ^ = $ebp $T0 ^ = $esp $T0 8 + = $L $T0 .cbSavedRegs - = $P $T0 8 + .cbParams + = $ebx $T0 16 - ^ =
STACK WIN 4 56f5 56 0 0 10 c c 0 1 $T0 $ebp = $eip $T0 4 + ^ = $ebp $T0 ^ = $esp $T0 8 + = $L $T0 .cbSavedRegs - = $P $T0 8 + .cbParams + = $ebx $T0 16 - ^ =
STACK WIN 4 5751 c4 12 0 0 0 4 0 1 $T0 $ebp = $eip $T0 4 + ^ = $ebp $T0 ^ = $esp $T0 8 + = $L $T0 .cbSavedRegs - = $P $T0 8 + .cbParams + =
STACK WIN 4 575a b9 9 0 0 4 4 0 1 $T0 $ebp = $eip $T0 4 + ^ = $ebp $T0 ^ = $esp $T0 8 + = $L $T0 .cbSavedRegs - = $P $T0 8 + .cbParams + = $ebx $T0 8 - ^ =
STACK WIN 4 575b b7 8 0 0 8 4 0 1 $T0 $ebp = $eip $T0 4 + ^ = $ebp $T0 ^ = $esp $T0 8 + = $L $T0 .cbSavedRegs - = $P $T0 8 + .cbParams + = $ebx $T0 8 - ^ =
STACK WIN 4 575c b5 7 0 0 c 4 0 1 $T0 $ebp = $eip $T0 4 + ^ = $ebp $T0 ^ = $esp $T0 8 + = $L $T0 .cbSavedRegs - = $P $T0 8 + .cbParams + = $ebx $T0 8 - ^ =
STACK WIN 4 5815 41 1 0 4 0 0 0 1 $T2 $esp .cbLocals + .cbSavedRegs + = $T0 .raSearchStart = $eip $T0 ^ = $esp $T0 4 + =
STACK WIN 4 5816 3b 0 0 4 4 0 0 1 $T2 $esp .cbLocals + .cbSavedRegs + = $T0 .raSearchStart = $eip $T0 ^ = $esp $T0 4 + = $ebx $T0 4 - ^ =
STACK WIN 4 5823 2d 0 0 4 8 0 0 1 $T2 $esp .cbLocals + .cbSavedRegs + = $T0 .raSearchStart = $eip $T0 ^ = $esp $T0 4 + = $ebx $T0 4 - ^ =
STACK WIN 4 5856 27 1 0 4 0 0 0 1 $T2 $esp .cbLocals + .cbSavedRegs + = $T0 .raSearchStart = $eip $T0 ^ = $esp $T0 4 + =
STACK WIN 4 5857 25 0 0 4 4 0 0 1 $T2 $esp .cbLocals + .cbSavedRegs + = $T0 .raSearchStart = $eip $T0 ^ = $esp $T0 4 + =
STACK WIN 4 587d 1a 0 0 4 0 0 0 1 $T2 $esp .cbLocals + .cbSavedRegs + = $T0 .raSearchStart = $eip $T0 ^ = $esp $T0 4 + =
STACK WIN 4 5897 2c 0 0 8 0 0 0 1 $T2 $esp .cbLocals + .cbSavedRegs + = $T0 .raSearchStart = $eip $T0 ^ = $esp $T0 4 + =
STACK WIN 4 58c3 174 7 0 14 0 c 0 1 $T0 $ebp = $eip $T0 4 + ^ = $ebp $T0 ^ = $esp $T0 8 + = $L $T0 .cbSavedRegs - = $P $T0 8 + .cbParams + =
STACK WIN 4 58ca 16b 0 0 14 4 c 0 1 $T0 $ebp = $eip $T0 4 + ^ = $ebp $T0 ^ = $esp $T0 8 + = $L $T0 .cbSavedRegs - = $P $T0 8 + .cbParams + =
STACK WIN 4 58f1 143 0 0 14 8 c 0 1 $T0 $ebp = $eip $T0 4 + ^ = $ebp $T0 ^ = $esp $T0 8 + = $L $T0 .cbSavedRegs - = $P $T0 8 + .cbParams + = $ebx $T0 20 - ^ =
STACK WIN 4 58f2 141 0 0 14 c c 0 1 $T0 $ebp = $eip $T0 4 + ^ = $ebp $T0 ^ = $esp $T0 8 + = $L $T0 .cbSavedRegs - = $P $T0 8 + .cbParams + = $ebx $T0 20 - ^ =
STACK WIN 4 5a37 10c a 0 4 0 14 0 1 $T0 $ebp = $eip $T0 4 + ^ = $ebp $T0 ^ = $esp $T0 8 + = $L $T0 .cbSavedRegs - = $P $T0 8 + .cbParams + =
STACK WIN 4 5a3e 103 3 0 4 4 14 0 1 $T0 $ebp = $eip $T0 4 + ^ = $ebp $T0 ^ = $esp $T0 8 + = $L $T0 .cbSavedRegs - = $P $T0 8 + .cbParams + = $ebx $T0 24 - ^ =
STACK WIN 4 5a41 ff 0 0 4 8 14 0 1 $T0 $ebp = $eip $T0 4 + ^ = $ebp $T0 ^ = $esp $T0 8 + = $L $T0 .cbSavedRegs - = $P $T0 8 + .cbParams + = $ebx $T0 24 - ^ =
STACK WIN 4 5a99 97 0 0 4 c 14 0 1 $T0 $ebp = $eip $T0 4 + ^ = $ebp $T0 ^ = $esp $T0 8 + = $L $T0 .cbSavedRegs - = $P $T0 8 + .cbParams + = $ebx $T0 24 - ^ =
STACK WIN 4 5b43 83 4 0 10 0 0 0 1 $T0 $ebp = $eip $T0 4 + ^ = $ebp $T0 ^ = $esp $T0 8 + = $L $T0 .cbSavedRegs - = $P $T0 8 + .cbParams + =
STACK WIN 4 5b47 7d 0 0 10 4 0 0 1 $T0 $ebp = $eip $T0 4 + ^ = $ebp $T0 ^ = $esp $T0 8 + = $L $T0 .cbSavedRegs - = $P $T0 8 + .cbParams + =
STACK WIN 4 5b74 4f 0 0 10 8 0 0 1 $T0 $ebp = $eip $T0 4 + ^ = $ebp $T0 ^ = $esp $T0 8 + = $L $T0 .cbSavedRegs - = $P $T0 8 + .cbParams + = $ebx $T0 8 - ^ =
STACK WIN 4 5b78 4a 0 0 10 c 0 0 1 $T0 $ebp = $eip $T0 4 + ^ = $ebp $T0 ^ = $esp $T0 8 + = $L $T0 .cbSavedRegs - = $P $T0 8 + .cbParams + = $ebx $T0 8 - ^ =
STACK WIN 4 5bc6 3d 5 0 c 0 8 0 1 $T0 $ebp = $eip $T0 4 + ^ = $ebp $T0 ^ = $esp $T0 8 + = $L $T0 .cbSavedRegs - = $P $T0 8 + .cbParams + =
STACK WIN 4 5c03 3a 0 0 8 0 0 0 1 $T2 $esp .cbLocals + .cbSavedRegs + = $T0 .raSearchStart = $eip $T0 ^ = $esp $T0 4 + =
STACK WIN 4 5c3d c2 e 0 18 0 4 0 1 $T0 $ebp = $eip $T0 4 + ^ = $ebp $T0 ^ = $esp $T0 8 + = $L $T0 .cbSavedRegs - = $P $T0 8 + .cbParams + =
STACK WIN 4 5c4a b3 1 0 18 4 4 0 1 $T0 $ebp = $eip $T0 4 + ^ = $ebp $T0 ^ = $esp $T0 8 + = $L $T0 .cbSavedRegs - = $P $T0 8 + .cbParams + = $ebx $T0 8 - ^ =
STACK WIN 4 5c4b b1 0 0 18 8 4 0 1 $T0 $ebp = $eip $T0 4 + ^ = $ebp $T0 ^ = $esp $T0 8 + = $L $T0 .cbSavedRegs - = $P $T0 8 + .cbParams + = $ebx $T0 8 - ^ =
STACK WIN 4 5c6e 7d 0 0 18 c 4 0 1 $T0 $ebp = $eip $T0 4 + ^ = $ebp $T0 ^ = $esp $T0 8 + = $L $T0 .cbSavedRegs - = $P $T0 8 + .cbParams + = $ebx $T0 8 - ^ =
STACK WIN 4 5cff 2c 1 0 0 0 0 0 1 $T2 $esp .cbLocals + .cbSavedRegs + = $T0 .raSearchStart = $eip $T0 ^ = $esp $T0 4 + =
STACK WIN 4 5d00 2a 0 0 0 4 0 0 1 $T2 $esp .cbLocals + .cbSavedRegs + = $T0 .raSearchStart = $eip $T0 ^ = $esp $T0 4 + =
STACK WIN 4 5d2b 41 1 0 8 0 0 0 1 $T2 $esp .cbLocals + .cbSavedRegs + = $T0 .raSearchStart = $eip $T0 ^ = $esp $T0 4 + =
STACK WIN 4 5d2c 3f 0 0 8 4 0 0 1 $T2 $esp .cbLocals + .cbSavedRegs + = $T0 .raSearchStart = $eip $T0 ^ = $esp $T0 4 + =
STACK WIN 4 5d6c 48 2 0 4 0 0 0 1 $T2 $esp .cbLocals + .cbSavedRegs + = $T0 .raSearchStart = $eip $T0 ^ = $esp $T0 4 + =
STACK WIN 4 5d6d 46 1 0 4 4 0 0 1 $T2 $esp .cbLocals + .cbSavedRegs + = $T0 .raSearchStart = $eip $T0 ^ = $esp $T0 4 + =
STACK WIN 4 5d6e 44 0 0 4 8 0 0 1 $T2 $esp .cbLocals + .cbSavedRegs + = $T0 .raSearchStart = $eip $T0 ^ = $esp $T0 4 + =
STACK WIN 4 5db4 52 0 0 4 0 0 0 1 $T2 $esp .cbLocals + .cbSavedRegs + = $T0 .raSearchStart = $eip $T0 ^ = $esp $T0 4 + =
STACK WIN 4 5dc7 3e 0 0 4 4 0 0 1 $T2 $esp .cbLocals + .cbSavedRegs + = $T0 .raSearchStart = $eip $T0 ^ = $esp $T0 4 + =
STACK WIN 4 5e06 114 7 0 c 0 4 0 1 $T0 $ebp = $eip $T0 4 + ^ = $ebp $T0 ^ = $esp $T0 8 + = $L $T0 .cbSavedRegs - = $P $T0 8 + .cbParams + =
STACK WIN 4 5e0b 10d 2 0 c 4 4 0 1 $T0 $ebp = $eip $T0 4 + ^ = $ebp $T0 ^ = $esp $T0 8 + = $L $T0 .cbSavedRegs - = $P $T0 8 + .cbParams + = $ebx $T0 8 - ^ =
STACK WIN 4 5e0c 10b 1 0 c 8 4 0 1 $T0 $ebp = $eip $T0 4 + ^ = $ebp $T0 ^ = $esp $T0 8 + = $L $T0 .cbSavedRegs - = $P $T0 8 + .cbParams + = $ebx $T0 8 - ^ =
STACK WIN 4 5e0d 109 0 0 c c 4 0 1 $T0 $ebp = $eip $T0 4 + ^ = $ebp $T0 ^ = $esp $T0 8 + = $L $T0 .cbSavedRegs - = $P $T0 8 + .cbParams + = $ebx $T0 8 - ^ =
STACK WIN 4 5f1a b9 6 0 4 0 8 0 1 $T0 $ebp = $eip $T0 4 + ^ = $ebp $T0 ^ = $esp $T0 8 + = $L $T0 .cbSavedRegs - = $P $T0 8 + .cbParams + =
STACK WIN 4 5f20 b1 0 0 4 4 8 0 1 $T0 $ebp = $eip $T0 4 + ^ = $ebp $T0 ^ = $esp $T0 8 + = $L $T0 .cbSavedRegs - = $P $T0 8 + .cbParams + = $ebx $T0 12 - ^ =
STACK WIN 4 5f3b 95 0 0 4 8 8 0 1 $T0 $ebp = $eip $T0 4 + ^ = $ebp $T0 ^ = $esp $T0 8 + = $L $T0 .cbSavedRegs - = $P $T0 8 + .cbParams + = $ebx $T0 12 - ^ =
STACK WIN 4 5f67 68 0 0 4 c 8 0 1 $T0 $ebp = $eip $T0 4 + ^ = $ebp $T0 ^ = $esp $T0 8 + = $L $T0 .cbSavedRegs - = $P $T0 8 + .cbParams + = $ebx $T0 12 - ^ =
STACK WIN 4 5fd3 4f 1 0 4 0 0 0 1 $T2 $esp .cbLocals + .cbSavedRegs + = $T0 .raSearchStart = $eip $T0 ^ = $esp $T0 4 + =
STACK WIN 4 5fd4 4d 0 0 4 4 0 0 1 $T2 $esp .cbLocals + .cbSavedRegs + = $T0 .raSearchStart = $eip $T0 ^ = $esp $T0 4 + =
STACK WIN 4 6022 4e 0 0 4 0 0 0 1 $T2 $esp .cbLocals + .cbSavedRegs + = $T0 .raSearchStart = $eip $T0 ^ = $esp $T0 4 + =
STACK WIN 4 6070 15d f 0 10 0 18 0 1 $T0 $ebp = $eip $T0 4 + ^ = $ebp $T0 ^ = $esp $T0 8 + = $L $T0 .cbSavedRegs - = $P $T0 8 + .cbParams + =
STACK WIN 4 607d 14e 2 0 10 4 18 0 1 $T0 $ebp = $eip $T0 4 + ^ = $ebp $T0 ^ = $esp $T0 8 + = $L $T0 .cbSavedRegs - = $P $T0 8 + .cbParams + = $ebx $T0 28 - ^ =
STACK WIN 4 607e 14c 1 0 10 8 18 0 1 $T0 $ebp = $eip $T0 4 + ^ = $ebp $T0 ^ = $esp $T0 8 + = $L $T0 .cbSavedRegs - = $P $T0 8 + .cbParams + = $ebx $T0 28 - ^ =
STACK WIN 4 607f 14a 0 0 10 c 18 0 1 $T0 $ebp = $eip $T0 4 + ^ = $ebp $T0 ^ = $esp $T0 8 + = $L $T0 .cbSavedRegs - = $P $T0 8 + .cbParams + = $ebx $T0 28 - ^ =
STACK WIN 4 61cd 144 8 0 14 0 c 0 1 $T0 $ebp = $eip $T0 4 + ^ = $ebp $T0 ^ = $esp $T0 8 + = $L $T0 .cbSavedRegs - = $P $T0 8 + .cbParams + =
STACK WIN 4 61d4 13b 1 0 14 4 c 0 1 $T0 $ebp = $eip $T0 4 + ^ = $ebp $T0 ^ = $esp $T0 8 + = $L $T0 .cbSavedRegs - = $P $T0 8 + .cbParams + = $ebx $T0 16 - ^ =
STACK WIN 4 61d5 139 0 0 14 8 c 0 1 $T0 $ebp = $eip $T0 4 + ^ = $ebp $T0 ^ = $esp $T0 8 + = $L $T0 .cbSavedRegs - = $P $T0 8 + .cbParams + = $ebx $T0 16 - ^ =
STACK WIN 4 620c 101 0 0 14 c c 0 1 $T0 $ebp = $eip $T0 4 + ^ = $ebp $T0 ^ = $esp $T0 8 + = $L $T0 .cbSavedRegs - = $P $T0 8 + .cbParams + = $ebx $T0 16 - ^ =
STACK WIN 4 6311 3d 0 0 8 0 0 0 1 $T2 $esp .cbLocals + .cbSavedRegs + = $T0 .raSearchStart = $eip $T0 ^ = $esp $T0 4 + =
STACK WIN 4 634e 120 10 0 14 0 20 0 1 $T0 $ebp = $eip $T0 4 + ^ = $ebp $T0 ^ = $esp $T0 8 + = $L $T0 .cbSavedRegs - = $P $T0 8 + .cbParams + =
STACK WIN 4 635e 10e 0 0 14 4 20 0 1 $T0 $ebp = $eip $T0 4 + ^ = $ebp $T0 ^ = $esp $T0 8 + = $L $T0 .cbSavedRegs - = $P $T0 8 + .cbParams + =
STACK WIN 4 63a4 c7 0 0 14 8 20 0 1 $T0 $ebp = $eip $T0 4 + ^ = $ebp $T0 ^ = $esp $T0 8 + = $L $T0 .cbSavedRegs - = $P $T0 8 + .cbParams + = $ebx $T0 40 - ^ =
STACK WIN 4 63ab bf 0 0 14 c 20 0 1 $T0 $ebp = $eip $T0 4 + ^ = $ebp $T0 ^ = $esp $T0 8 + = $L $T0 .cbSavedRegs - = $P $T0 8 + .cbParams + = $ebx $T0 40 - ^ =
STACK WIN 4 646e 5e c 0 10 0 8 0 1 $T0 $ebp = $eip $T0 4 + ^ = $ebp $T0 ^ = $esp $T0 8 + = $L $T0 .cbSavedRegs - = $P $T0 8 + .cbParams + =
STACK WIN 4 647a 50 0 0 10 4 8 0 1 $T0 $ebp = $eip $T0 4 + ^ = $ebp $T0 ^ = $esp $T0 8 + = $L $T0 .cbSavedRegs - = $P $T0 8 + .cbParams + =
STACK WIN 4 64cc 8c 7 0 20 0 4 0 1 $T0 $ebp = $eip $T0 4 + ^ = $ebp $T0 ^ = $esp $T0 8 + = $L $T0 .cbSavedRegs - = $P $T0 8 + .cbParams + =
STACK WIN 4 64d1 85 2 0 20 4 4 0 1 $T0 $ebp = $eip $T0 4 + ^ = $ebp $T0 ^ = $esp $T0 8 + = $L $T0 .cbSavedRegs - = $P $T0 8 + .cbParams + = $ebx $T0 8 - ^ =
STACK WIN 4 64d2 81 1 0 20 8 4 0 1 $T0 $ebp = $eip $T0 4 + ^ = $ebp $T0 ^ = $esp $T0 8 + = $L $T0 .cbSavedRegs - = $P $T0 8 + .cbParams + = $ebx $T0 8 - ^ =
STACK WIN 4 64d3 7f 0 0 20 c 4 0 1 $T0 $ebp = $eip $T0 4 + ^ = $ebp $T0 ^ = $esp $T0 8 + = $L $T0 .cbSavedRegs - = $P $T0 8 + .cbParams + = $ebx $T0 8 - ^ =
STACK WIN 4 6558 109 d 0 24 0 c 0 1 $T0 $ebp = $eip $T0 4 + ^ = $ebp $T0 ^ = $esp $T0 8 + = $L $T0 .cbSavedRegs - = $P $T0 8 + .cbParams + =
STACK WIN 4 6562 fd 3 0 24 4 c 0 1 $T0 $ebp = $eip $T0 4 + ^ = $ebp $T0 ^ = $esp $T0 8 + = $L $T0 .cbSavedRegs - = $P $T0 8 + .cbParams + = $ebx $T0 16 - ^ =
STACK WIN 4 6565 f7 0 0 24 8 c 0 1 $T0 $ebp = $eip $T0 4 + ^ = $ebp $T0 ^ = $esp $T0 8 + = $L $T0 .cbSavedRegs - = $P $T0 8 + .cbParams + = $ebx $T0 16 - ^ =
STACK WIN 4 6661 23 3 0 18 0 0 0 1 $T0 $ebp = $eip $T0 4 + ^ = $ebp $T0 ^ = $esp $T0 8 + = $L $T0 .cbSavedRegs - = $P $T0 8 + .cbParams + =
STACK WIN 4 6684 95 8 0 18 0 c 0 1 $T0 $ebp = $eip $T0 4 + ^ = $ebp $T0 ^ = $esp $T0 8 + = $L $T0 .cbSavedRegs - = $P $T0 8 + .cbParams + =
STACK WIN 4 668b 8c 1 0 18 4 c 0 1 $T0 $ebp = $eip $T0 4 + ^ = $ebp $T0 ^ = $esp $T0 8 + = $L $T0 .cbSavedRegs - = $P $T0 8 + .cbParams + = $ebx $T0 16 - ^ =
STACK WIN 4 668c 8a 0 0 18 8 c 0 1 $T0 $ebp = $eip $T0 4 + ^ = $ebp $T0 ^ = $esp $T0 8 + = $L $T0 .cbSavedRegs - = $P $T0 8 + .cbParams + = $ebx $T0 16 - ^ =
STACK WIN 4 66da 3b 0 0 18 c c 0 1 $T0 $ebp = $eip $T0 4 + ^ = $ebp $T0 ^ = $esp $T0 8 + = $L $T0 .cbSavedRegs - = $P $T0 8 + .cbParams + = $ebx $T0 16 - ^ =
STACK WIN 4 6719 fe 12 0 18 0 10 0 1 $T0 $ebp = $eip $T0 4 + ^ = $ebp $T0 ^ = $esp $T0 8 + = $L $T0 .cbSavedRegs - = $P $T0 8 + .cbParams + =
STACK WIN 4 6724 f1 7 0 18 4 10 0 1 $T0 $ebp = $eip $T0 4 + ^ = $ebp $T0 ^ = $esp $T0 8 + = $L $T0 .cbSavedRegs - = $P $T0 8 + .cbParams + = $ebx $T0 20 - ^ =
STACK WIN 4 6729 eb 2 0 18 8 10 0 1 $T0 $ebp = $eip $T0 4 + ^ = $ebp $T0 ^ = $esp $T0 8 + = $L $T0 .cbSavedRegs - = $P $T0 8 + .cbParams + = $ebx $T0 20 - ^ =
STACK WIN 4 6817 96 b 0 14 0 c 0 1 $T0 $ebp = $eip $T0 4 + ^ = $ebp $T0 ^ = $esp $T0 8 + = $L $T0 .cbSavedRegs - = $P $T0 8 + .cbParams + =
STACK WIN 4 6822 89 0 0 14 4 c 0 1 $T0 $ebp = $eip $T0 4 + ^ = $ebp $T0 ^ = $esp $T0 8 + = $L $T0 .cbSavedRegs - = $P $T0 8 + .cbParams + =
STACK WIN 4 6868 42 0 0 14 8 c 0 1 $T0 $ebp = $eip $T0 4 + ^ = $ebp $T0 ^ = $esp $T0 8 + = $L $T0 .cbSavedRegs - = $P $T0 8 + .cbParams + =
STACK WIN 4 68ad 53 1 0 4 0 0 0 1 $T2 $esp .cbLocals + .cbSavedRegs + = $T0 .raSearchStart = $eip $T0 ^ = $esp $T0 4 + =
STACK WIN 4 68ae 51 0 0 4 4 0 0 1 $T2 $esp .cbLocals + .cbSavedRegs + = $T0 .raSearchStart = $eip $T0 ^ = $esp $T0 4 + =
STACK WIN 4 68c7 37 0 0 4 8 0 0 1 $T2 $esp .cbLocals + .cbSavedRegs + = $T0 .raSearchStart = $eip $T0 ^ = $esp $T0 4 + =
STACK WIN 4 6900 40 1 0 4 0 0 0 1 $T2 $esp .cbLocals + .cbSavedRegs + = $T0 .raSearchStart = $eip $T0 ^ = $esp $T0 4 + =
STACK WIN 4 6901 3e 0 0 4 4 0 0 1 $T2 $esp .cbLocals + .cbSavedRegs + = $T0 .raSearchStart = $eip $T0 ^ = $esp $T0 4 + =
STACK WIN 4 6940 5f 3 0 8 0 0 0 1 $T0 $ebp = $eip $T0 4 + ^ = $ebp $T0 ^ = $esp $T0 8 + = $L $T0 .cbSavedRegs - = $P $T0 8 + .cbParams + =
STACK WIN 4 6958 45 0 0 8 4 0 0 1 $T0 $ebp = $eip $T0 4 + ^ = $ebp $T0 ^ = $esp $T0 8 + = $L $T0 .cbSavedRegs - = $P $T0 8 + .cbParams + =
STACK WIN 4 695f 3d 0 0 8 8 0 0 1 $T0 $ebp = $eip $T0 4 + ^ = $ebp $T0 ^ = $esp $T0 8 + = $L $T0 .cbSavedRegs - = $P $T0 8 + .cbParams + =
STACK WIN 4 699f 101 9 0 14 0 c 0 1 $T0 $ebp = $eip $T0 4 + ^ = $ebp $T0 ^ = $esp $T0 8 + = $L $T0 .cbSavedRegs - = $P $T0 8 + .cbParams + =
STACK WIN 4 69a6 f8 2 0 14 4 c 0 1 $T0 $ebp = $eip $T0 4 + ^ = $ebp $T0 ^ = $esp $T0 8 + = $L $T0 .cbSavedRegs - = $P $T0 8 + .cbParams + = $ebx $T0 16 - ^ =
STACK WIN 4 69a7 f6 1 0 14 8 c 0 1 $T0 $ebp = $eip $T0 4 + ^ = $ebp $T0 ^ = $esp $T0 8 + = $L $T0 .cbSavedRegs - = $P $T0 8 + .cbParams + = $ebx $T0 16 - ^ =
STACK WIN 4 69a8 f2 0 0 14 c c 0 1 $T0 $ebp = $eip $T0 4 + ^ = $ebp $T0 ^ = $esp $T0 8 + = $L $T0 .cbSavedRegs - = $P $T0 8 + .cbParams + = $ebx $T0 16 - ^ =
STACK WIN 4 6aa0 e4 7 0 8 0 4 0 1 $T0 $ebp = $eip $T0 4 + ^ = $ebp $T0 ^ = $esp $T0 8 + = $L $T0 .cbSavedRegs - = $P $T0 8 + .cbParams + =
STACK WIN 4 6aa5 dd 2 0 8 4 4 0 1 $T0 $ebp = $eip $T0 4 + ^ = $ebp $T0 ^ = $esp $T0 8 + = $L $T0 .cbSavedRegs - = $P $T0 8 + .cbParams + = $ebx $T0 8 - ^ =
STACK WIN 4 6aa6 db 1 0 8 8 4 0 1 $T0 $ebp = $eip $T0 4 + ^ = $ebp $T0 ^ = $esp $T0 8 + = $L $T0 .cbSavedRegs - = $P $T0 8 + .cbParams + = $ebx $T0 8 - ^ =
STACK WIN 4 6aa7 d9 0 0 8 c 4 0 1 $T0 $ebp = $eip $T0 4 + ^ = $ebp $T0 ^ = $esp $T0 8 + = $L $T0 .cbSavedRegs - = $P $T0 8 + .cbParams + = $ebx $T0 8 - ^ =
STACK WIN 4 6b84 be 2 0 c 0 0 0 1 $T2 $esp .cbLocals + .cbSavedRegs + = $T0 .raSearchStart = $eip $T0 ^ = $esp $T0 4 + =
STACK WIN 4 6b85 bc 1 0 c 4 0 0 1 $T2 $esp .cbLocals + .cbSavedRegs + = $T0 .raSearchStart = $eip $T0 ^ = $esp $T0 4 + = $ebx $T0 4 - ^ =
STACK WIN 4 6b86 ba 0 0 c 8 0 0 1 $T2 $esp .cbLocals + .cbSavedRegs + = $T0 .raSearchStart = $eip $T0 ^ = $esp $T0 4 + = $ebx $T0 4 - ^ =
STACK WIN 4 6bac 93 0 0 c c 0 0 1 $T2 $esp .cbLocals + .cbSavedRegs + = $T0 .raSearchStart = $eip $T0 ^ = $esp $T0 4 + = $ebx $T0 4 - ^ =
STACK WIN 4 6c42 10 0 0 4 0 0 0 1 $T2 $esp .cbLocals + .cbSavedRegs + = $T0 .raSearchStart = $eip $T0 ^ = $esp $T0 4 + =
STACK WIN 4 6c52 6d f 0 c 0 0 0 1 $T2 $esp .cbLocals + .cbSavedRegs + = $T0 .raSearchStart = $eip $T0 ^ = $esp $T0 4 + =
STACK WIN 4 6c53 6b e 0 c 4 0 0 1 $T2 $esp .cbLocals + .cbSavedRegs + = $T0 .raSearchStart = $eip $T0 ^ = $esp $T0 4 + = $ebx $T0 4 - ^ =
STACK WIN 4 6c60 5d 1 0 c 8 0 0 1 $T2 $esp .cbLocals + .cbSavedRegs + = $T0 .raSearchStart = $eip $T0 ^ = $esp $T0 4 + = $ebx $T0 4 - ^ =
STACK WIN 4 6c61 5b 0 0 c c 0 0 1 $T2 $esp .cbLocals + .cbSavedRegs + = $T0 .raSearchStart = $eip $T0 ^ = $esp $T0 4 + = $ebx $T0 4 - ^ =
STACK WIN 4 6cbf ad 3 0 4 0 4 0 1 $T2 $esp .cbLocals + .cbSavedRegs + = $T0 .raSearchStart = $eip $T0 ^ = $esp $T0 4 + =
STACK WIN 4 6cc1 9a 1 0 4 4 4 0 1 $T2 $esp .cbLocals + .cbSavedRegs + = $T0 .raSearchStart = $eip $T0 ^ = $esp $T0 4 + = $ebx $T0 8 - ^ =
STACK WIN 4 6cc2 98 0 0 4 8 4 0 1 $T2 $esp .cbLocals + .cbSavedRegs + = $T0 .raSearchStart = $eip $T0 ^ = $esp $T0 4 + = $ebp $T0 12 - ^ = $ebx $T0 8 - ^ =
STACK WIN 4 6ce5 74 0 0 4 c 4 0 1 $T2 $esp .cbLocals + .cbSavedRegs + = $T0 .raSearchStart = $eip $T0 ^ = $esp $T0 4 + = $ebp $T0 12 - ^ = $ebx $T0 8 - ^ =
STACK WIN 4 6ce6 72 0 0 4 10 4 0 1 $T2 $esp .cbLocals + .cbSavedRegs + = $T0 .raSearchStart = $eip $T0 ^ = $esp $T0 4 + = $ebp $T0 12 - ^ = $ebx $T0 8 - ^ =
STACK WIN 4 6d6c a2 2 0 4 0 0 0 1 $T2 $esp .cbLocals + .cbSavedRegs + = $T0 .raSearchStart = $eip $T0 ^ = $esp $T0 4 + =
STACK WIN 4 6d6d a0 1 0 4 4 0 0 1 $T2 $esp .cbLocals + .cbSavedRegs + = $T0 .raSearchStart = $eip $T0 ^ = $esp $T0 4 + =
STACK WIN 4 6d6e 9e 0 0 4 8 0 0 1 $T2 $esp .cbLocals + .cbSavedRegs + = $T0 .raSearchStart = $eip $T0 ^ = $esp $T0 4 + =
STACK WIN 4 6d91 7a 0 0 4 c 0 0 1 $T2 $esp .cbLocals + .cbSavedRegs + = $T0 .raSearchStart = $eip $T0 ^ = $esp $T0 4 + = $ebx $T0 12 - ^ =
STACK WIN 4 6e0e a7 6 0 4 0 0 0 1 $T2 $esp .cbLocals + .cbSavedRegs + = $T0 .raSearchStart = $eip $T0 ^ = $esp $T0 4 + =
STACK WIN 4 6e0f 97 5 0 4 4 0 0 1 $T2 $esp .cbLocals + .cbSavedRegs + = $T0 .raSearchStart = $eip $T0 ^ = $esp $T0 4 + = $ebp $T0 4 - ^ =
STACK WIN 4 6e14 91 0 0 4 8 0 0 1 $T2 $esp .cbLocals + .cbSavedRegs + = $T0 .raSearchStart = $eip $T0 ^ = $esp $T0 4 + = $ebp $T0 4 - ^ =
STACK WIN 4 6e36 6e 0 0 4 c 0 0 1 $T2 $esp .cbLocals + .cbSavedRegs + = $T0 .raSearchStart = $eip $T0 ^ = $esp $T0 4 + = $ebp $T0 4 - ^ = $ebx $T0 12 - ^ =
STACK WIN 4 6e37 6c 0 0 4 10 0 0 1 $T2 $esp .cbLocals + .cbSavedRegs + = $T0 .raSearchStart = $eip $T0 ^ = $esp $T0 4 + = $ebp $T0 4 - ^ = $ebx $T0 12 - ^ =
STACK WIN 4 6eb5 4b f 0 4 0 c 0 1 $T0 $ebp = $eip $T0 4 + ^ = $ebp $T0 ^ = $esp $T0 8 + = $L $T0 .cbSavedRegs - = $P $T0 8 + .cbParams + =
STACK WIN 4 6ec4 3a 0 0 4 4 c 0 1 $T0 $ebp = $eip $T0 4 + ^ = $ebp $T0 ^ = $esp $T0 8 + = $L $T0 .cbSavedRegs - = $P $T0 8 + .cbParams + =
STACK WIN 4 6f00 34 2 0 14 0 0 0 1 $T2 $esp .cbLocals + .cbSavedRegs + = $T0 .raSearchStart = $eip $T0 ^ = $esp $T0 4 + =
STACK WIN 4 6f01 32 1 0 14 4 0 0 1 $T2 $esp .cbLocals + .cbSavedRegs + = $T0 .raSearchStart = $eip $T0 ^ = $esp $T0 4 + =
STACK WIN 4 6f02 30 0 0 14 8 0 0 1 $T2 $esp .cbLocals + .cbSavedRegs + = $T0 .raSearchStart = $eip $T0 ^ = $esp $T0 4 + =
STACK WIN 4 6f34 165 b 0 10 0 18 0 1 $T0 $ebp = $eip $T0 4 + ^ = $ebp $T0 ^ = $esp $T0 8 + = $L $T0 .cbSavedRegs - = $P $T0 8 + .cbParams + =
STACK WIN 4 6f3b 153 4 0 10 4 18 0 1 $T0 $ebp = $eip $T0 4 + ^ = $ebp $T0 ^ = $esp $T0 8 + = $L $T0 .cbSavedRegs - = $P $T0 8 + .cbParams + = $ebx $T0 28 - ^ =
STACK WIN 4 6f3c 151 3 0 10 8 18 0 1 $T0 $ebp = $eip $T0 4 + ^ = $ebp $T0 ^ = $esp $T0 8 + = $L $T0 .cbSavedRegs - = $P $T0 8 + .cbParams + = $ebx $T0 28 - ^ =
STACK WIN 4 6f3f 14d 0 0 10 c 18 0 1 $T0 $ebp = $eip $T0 4 + ^ = $ebp $T0 ^ = $esp $T0 8 + = $L $T0 .cbSavedRegs - = $P $T0 8 + .cbParams + = $ebx $T0 28 - ^ =
STACK WIN 4 7099 17 0 0 c 0 0 0 1 $T2 $esp .cbLocals + .cbSavedRegs + = $T0 .raSearchStart = $eip $T0 ^ = $esp $T0 4 + =
STACK WIN 4 70b0 17 0 0 c 0 0 0 1 $T2 $esp .cbLocals + .cbSavedRegs + = $T0 .raSearchStart = $eip $T0 ^ = $esp $T0 4 + =
STACK WIN 4 70c7 19e 9 0 c 0 30 0 1 $T0 $ebp = $eip $T0 4 + ^ = $ebp $T0 ^ = $esp $T0 8 + = $L $T0 .cbSavedRegs - = $P $T0 8 + .cbParams + =
STACK WIN 4 70ce 14f 2 0 c 4 30 0 1 $T0 $ebp = $eip $T0 4 + ^ = $ebp $T0 ^ = $esp $T0 8 + = $L $T0 .cbSavedRegs - = $P $T0 8 + .cbParams + = $ebx $T0 52 - ^ =
STACK WIN 4 70cf 14d 1 0 c 8 30 0 1 $T0 $ebp = $eip $T0 4 + ^ = $ebp $T0 ^ = $esp $T0 8 + = $L $T0 .cbSavedRegs - = $P $T0 8 + .cbParams + = $ebx $T0 52 - ^ =
STACK WIN 4 70d0 14b 0 0 c c 30 0 1 $T0 $ebp = $eip $T0 4 + ^ = $ebp $T0 ^ = $esp $T0 8 + = $L $T0 .cbSavedRegs - = $P $T0 8 + .cbParams + = $ebx $T0 52 - ^ =
STACK WIN 4 7265 77 2 0 4 0 0 0 1 $T2 $esp .cbLocals + .cbSavedRegs + = $T0 .raSearchStart = $eip $T0 ^ = $esp $T0 4 + =
STACK WIN 4 7266 75 1 0 4 4 0 0 1 $T2 $esp .cbLocals + .cbSavedRegs + = $T0 .raSearchStart = $eip $T0 ^ = $esp $T0 4 + =
STACK WIN 4 7267 73 0 0 4 8 0 0 1 $T2 $esp .cbLocals + .cbSavedRegs + = $T0 .raSearchStart = $eip $T0 ^ = $esp $T0 4 + =
STACK WIN 4 72dc 9e a 0 4 0 4 0 1 $T0 $ebp = $eip $T0 4 + ^ = $ebp $T0 ^ = $esp $T0 8 + = $L $T0 .cbSavedRegs - = $P $T0 8 + .cbParams + =
STACK WIN 4 72e4 94 2 0 4 4 4 0 1 $T0 $ebp = $eip $T0 4 + ^ = $ebp $T0 ^ = $esp $T0 8 + = $L $T0 .cbSavedRegs - = $P $T0 8 + .cbParams + = $ebx $T0 8 - ^ =
STACK WIN 4 72e5 92 1 0 4 8 4 0 1 $T0 $ebp = $eip $T0 4 + ^ = $ebp $T0 ^ = $esp $T0 8 + = $L $T0 .cbSavedRegs - = $P $T0 8 + .cbParams + = $ebx $T0 8 - ^ =
STACK WIN 4 72e6 90 0 0 4 c 4 0 1 $T0 $ebp = $eip $T0 4 + ^ = $ebp $T0 ^ = $esp $T0 8 + = $L $T0 .cbSavedRegs - = $P $T0 8 + .cbParams + = $ebx $T0 8 - ^ =
STACK WIN 4 737a 11 0 0 4 0 0 0 1 $T2 $esp .cbLocals + .cbSavedRegs + = $T0 .raSearchStart = $eip $T0 ^ = $esp $T0 4 + =
STACK WIN 4 738b 16e b 0 14 0 14 0 1 $T0 $ebp = $eip $T0 4 + ^ = $ebp $T0 ^ = $esp $T0 8 + = $L $T0 .cbSavedRegs - = $P $T0 8 + .cbParams + =
STACK WIN 4 7396 161 0 0 14 4 14 0 1 $T0 $ebp = $eip $T0 4 + ^ = $ebp $T0 ^ = $esp $T0 8 + = $L $T0 .cbSavedRegs - = $P $T0 8 + .cbParams + =
STACK WIN 4 73cb 121 0 0 14 8 14 0 1 $T0 $ebp = $eip $T0 4 + ^ = $ebp $T0 ^ = $esp $T0 8 + = $L $T0 .cbSavedRegs - = $P $T0 8 + .cbParams + = $ebx $T0 40 - ^ =
STACK WIN 4 73d0 11b 0 0 14 c 14 0 1 $T0 $ebp = $eip $T0 4 + ^ = $ebp $T0 ^ = $esp $T0 8 + = $L $T0 .cbSavedRegs - = $P $T0 8 + .cbParams + = $ebx $T0 40 - ^ =
STACK WIN 4 74f9 1b 0 0 4 0 0 0 1 $T2 $esp .cbLocals + .cbSavedRegs + = $T0 .raSearchStart = $eip $T0 ^ = $esp $T0 4 + =
STACK WIN 4 7514 86 6 0 c 0 10 0 1 $T0 $ebp = $eip $T0 4 + ^ = $ebp $T0 ^ = $esp $T0 8 + = $L $T0 .cbSavedRegs - = $P $T0 8 + .cbParams + =
STACK WIN 4 752c 3a 0 0 c 4 10 0 1 $T0 $ebp = $eip $T0 4 + ^ = $ebp $T0 ^ = $esp $T0 8 + = $L $T0 .cbSavedRegs - = $P $T0 8 + .cbParams + =
STACK WIN 4 752d 38 0 0 c 8 10 0 1 $T0 $ebp = $eip $T0 4 + ^ = $ebp $T0 ^ = $esp $T0 8 + = $L $T0 .cbSavedRegs - = $P $T0 8 + .cbParams + =
STACK WIN 4 759a 33 2 0 c 0 0 0 1 $T2 $esp .cbLocals + .cbSavedRegs + = $T0 .raSearchStart = $eip $T0 ^ = $esp $T0 4 + =
STACK WIN 4 759b 31 1 0 c 4 0 0 1 $T2 $esp .cbLocals + .cbSavedRegs + = $T0 .raSearchStart = $eip $T0 ^ = $esp $T0 4 + =
STACK WIN 4 759c 2f 0 0 c 8 0 0 1 $T2 $esp .cbLocals + .cbSavedRegs + = $T0 .raSearchStart = $eip $T0 ^ = $esp $T0 4 + =
STACK WIN 4 75cd 4b 4 0 14 0 0 0 1 $T0 $ebp = $eip $T0 4 + ^ = $ebp $T0 ^ = $esp $T0 8 + = $L $T0 .cbSavedRegs - = $P $T0 8 + .cbParams + =
STACK WIN 4 75d1 45 0 0 14 4 0 0 1 $T0 $ebp = $eip $T0 4 + ^ = $ebp $T0 ^ = $esp $T0 8 + = $L $T0 .cbSavedRegs - = $P $T0 8 + .cbParams + =
STACK WIN 4 75ec 27 0 0 14 8 0 0 1 $T0 $ebp = $eip $T0 4 + ^ = $ebp $T0 ^ = $esp $T0 8 + = $L $T0 .cbSavedRegs - = $P $T0 8 + .cbParams + =
STACK WIN 4 7618 1e 3 0 18 0 0 0 1 $T0 $ebp = $eip $T0 4 + ^ = $ebp $T0 ^ = $esp $T0 8 + = $L $T0 .cbSavedRegs - = $P $T0 8 + .cbParams + =
STACK WIN 4 7636 c2 8 0 10 0 20 0 1 $T0 $ebp = $eip $T0 4 + ^ = $ebp $T0 ^ = $esp $T0 8 + = $L $T0 .cbSavedRegs - = $P $T0 8 + .cbParams + =
STACK WIN 4 763d b9 1 0 10 4 20 0 1 $T0 $ebp = $eip $T0 4 + ^ = $ebp $T0 ^ = $esp $T0 8 + = $L $T0 .cbSavedRegs - = $P $T0 8 + .cbParams + = $ebx $T0 36 - ^ =
STACK WIN 4 763e b7 0 0 10 8 20 0 1 $T0 $ebp = $eip $T0 4 + ^ = $ebp $T0 ^ = $esp $T0 8 + = $L $T0 .cbSavedRegs - = $P $T0 8 + .cbParams + = $ebx $T0 36 - ^ =
STACK WIN 4 765a 60 0 0 10 c 20 0 1 $T0 $ebp = $eip $T0 4 + ^ = $ebp $T0 ^ = $esp $T0 8 + = $L $T0 .cbSavedRegs - = $P $T0 8 + .cbParams + = $ebx $T0 36 - ^ =
STACK WIN 4 76f8 84 0 0 c 0 0 0 1 $T2 $esp .cbLocals + .cbSavedRegs + = $T0 .raSearchStart = $eip $T0 ^ = $esp $T0 4 + =
STACK WIN 4 777c a9 6 0 14 0 0 0 1 $T0 $ebp = $eip $T0 4 + ^ = $ebp $T0 ^ = $esp $T0 8 + = $L $T0 .cbSavedRegs - = $P $T0 8 + .cbParams + =
STACK WIN 4 7780 a3 2 0 14 4 0 0 1 $T0 $ebp = $eip $T0 4 + ^ = $ebp $T0 ^ = $esp $T0 8 + = $L $T0 .cbSavedRegs - = $P $T0 8 + .cbParams + = $ebx $T0 4 - ^ =
STACK WIN 4 7781 a1 1 0 14 8 0 0 1 $T0 $ebp = $eip $T0 4 + ^ = $ebp $T0 ^ = $esp $T0 8 + = $L $T0 .cbSavedRegs - = $P $T0 8 + .cbParams + = $ebx $T0 4 - ^ =
STACK WIN 4 7782 9f 0 0 14 c 0 0 1 $T0 $ebp = $eip $T0 4 + ^ = $ebp $T0 ^ = $esp $T0 8 + = $L $T0 .cbSavedRegs - = $P $T0 8 + .cbParams + = $ebx $T0 4 - ^ =
STACK WIN 4 7825 6f6 d 0 28 0 4c 0 1 $T0 $ebp = $eip $T0 4 + ^ = $ebp $T0 ^ = $esp $T0 8 + = $L $T0 .cbSavedRegs - = $P $T0 8 + .cbParams + =
STACK WIN 4 782f 67e 3 0 28 4 4c 0 1 $T0 $ebp = $eip $T0 4 + ^ = $ebp $T0 ^ = $esp $T0 8 + = $L $T0 .cbSavedRegs - = $P $T0 8 + .cbParams + = $ebx $T0 80 - ^ =
STACK WIN 4 7833 679 0 0 28 8 4c 0 1 $T0 $ebp = $eip $T0 4 + ^ = $ebp $T0 ^ = $esp $T0 8 + = $L $T0 .cbSavedRegs - = $P $T0 8 + .cbParams + = $ebx $T0 80 - ^ =
STACK WIN 4 7834 675 0 0 28 c 4c 0 1 $T0 $ebp = $eip $T0 4 + ^ = $ebp $T0 ^ = $esp $T0 8 + = $L $T0 .cbSavedRegs - = $P $T0 8 + .cbParams + = $ebx $T0 80 - ^ =
STACK WIN 4 7f1b 56 3 0 28 0 0 0 1 $T0 $ebp = $eip $T0 4 + ^ = $ebp $T0 ^ = $esp $T0 8 + = $L $T0 .cbSavedRegs - = $P $T0 8 + .cbParams + =
STACK WIN 4 7f71 29 3 0 20 0 0 0 1 $T0 $ebp = $eip $T0 4 + ^ = $ebp $T0 ^ = $esp $T0 8 + = $L $T0 .cbSavedRegs - = $P $T0 8 + .cbParams + =
STACK WIN 4 7f9a 28d 9 0 20 0 1c 0 1 $T0 $ebp = $eip $T0 4 + ^ = $ebp $T0 ^ = $esp $T0 8 + = $L $T0 .cbSavedRegs - = $P $T0 8 + .cbParams + =
STACK WIN 4 7fa1 284 2 0 20 4 1c 0 1 $T0 $ebp = $eip $T0 4 + ^ = $ebp $T0 ^ = $esp $T0 8 + = $L $T0 .cbSavedRegs - = $P $T0 8 + .cbParams + = $ebx $T0 32 - ^ =
STACK WIN 4 7fa2 282 1 0 20 8 1c 0 1 $T0 $ebp = $eip $T0 4 + ^ = $ebp $T0 ^ = $esp $T0 8 + = $L $T0 .cbSavedRegs - = $P $T0 8 + .cbParams + = $ebx $T0 32 - ^ =
STACK WIN 4 7fa3 280 0 0 20 c 1c 0 1 $T0 $ebp = $eip $T0 4 + ^ = $ebp $T0 ^ = $esp $T0 8 + = $L $T0 .cbSavedRegs - = $P $T0 8 + .cbParams + = $ebx $T0 32 - ^ =
STACK WIN 4 8227 e8 e 0 10 0 0 0 1 $T2 $esp .cbLocals + .cbSavedRegs + = $T0 .raSearchStart = $eip $T0 ^ = $esp $T0 4 + =
STACK WIN 4 822c 41 9 0 10 4 0 0 1 $T2 $esp .cbLocals + .cbSavedRegs + = $T0 .raSearchStart = $eip $T0 ^ = $esp $T0 4 + = $ebx $T0 4 - ^ =
STACK WIN 4 822d 3f 8 0 10 8 0 0 1 $T2 $esp .cbLocals + .cbSavedRegs + = $T0 .raSearchStart = $eip $T0 ^ = $esp $T0 4 + = $ebx $T0 4 - ^ =
STACK WIN 4 8235 36 0 0 10 c 0 0 1 $T2 $esp .cbLocals + .cbSavedRegs + = $T0 .raSearchStart = $eip $T0 ^ = $esp $T0 4 + = $ebx $T0 4 - ^ =
STACK WIN 4 830f 2c0 c 0 28 0 2c 0 1 $T0 $ebp = $eip $T0 4 + ^ = $ebp $T0 ^ = $esp $T0 8 + = $L $T0 .cbSavedRegs - = $P $T0 8 + .cbParams + =
STACK WIN 4 8319 128 2 0 28 4 2c 0 1 $T0 $ebp = $eip $T0 4 + ^ = $ebp $T0 ^ = $esp $T0 8 + = $L $T0 .cbSavedRegs - = $P $T0 8 + .cbParams + = $ebx $T0 48 - ^ =
STACK WIN 4 831a 126 1 0 28 8 2c 0 1 $T0 $ebp = $eip $T0 4 + ^ = $ebp $T0 ^ = $esp $T0 8 + = $L $T0 .cbSavedRegs - = $P $T0 8 + .cbParams + = $ebx $T0 48 - ^ =
STACK WIN 4 831b 124 0 0 28 c 2c 0 1 $T0 $ebp = $eip $T0 4 + ^ = $ebp $T0 ^ = $esp $T0 8 + = $L $T0 .cbSavedRegs - = $P $T0 8 + .cbParams + = $ebx $T0 48 - ^ =
STACK WIN 4 85cf 1ea 9 0 20 0 10 0 1 $T0 $ebp = $eip $T0 4 + ^ = $ebp $T0 ^ = $esp $T0 8 + = $L $T0 .cbSavedRegs - = $P $T0 8 + .cbParams + =
STACK WIN 4 85e6 1cc 0 0 20 4 10 0 1 $T0 $ebp = $eip $T0 4 + ^ = $ebp $T0 ^ = $esp $T0 8 + = $L $T0 .cbSavedRegs - = $P $T0 8 + .cbParams + = $ebx $T0 20 - ^ =
STACK WIN 4 85e7 1ca 0 0 20 8 10 0 1 $T0 $ebp = $eip $T0 4 + ^ = $ebp $T0 ^ = $esp $T0 8 + = $L $T0 .cbSavedRegs - = $P $T0 8 + .cbParams + = $ebx $T0 20 - ^ =
STACK WIN 4 85eb 1c5 0 0 20 c 10 0 1 $T0 $ebp = $eip $T0 4 + ^ = $ebp $T0 ^ = $esp $T0 8 + = $L $T0 .cbSavedRegs - = $P $T0 8 + .cbParams + = $ebx $T0 20 - ^ =
STACK WIN 4 87b9 2c 3 0 1c 0 0 0 1 $T0 $ebp = $eip $T0 4 + ^ = $ebp $T0 ^ = $esp $T0 8 + = $L $T0 .cbSavedRegs - = $P $T0 8 + .cbParams + =
STACK WIN 4 87e5 26 3 0 14 0 0 0 1 $T0 $ebp = $eip $T0 4 + ^ = $ebp $T0 ^ = $esp $T0 8 + = $L $T0 .cbSavedRegs - = $P $T0 8 + .cbParams + =
STACK WIN 4 880b cc 6 0 10 0 10 0 1 $T0 $ebp = $eip $T0 4 + ^ = $ebp $T0 ^ = $esp $T0 8 + = $L $T0 .cbSavedRegs - = $P $T0 8 + .cbParams + =
STACK WIN 4 881c b7 0 0 10 4 10 0 1 $T0 $ebp = $eip $T0 4 + ^ = $ebp $T0 ^ = $esp $T0 8 + = $L $T0 .cbSavedRegs - = $P $T0 8 + .cbParams + =
STACK WIN 4 8836 9c 0 0 10 8 10 0 1 $T0 $ebp = $eip $T0 4 + ^ = $ebp $T0 ^ = $esp $T0 8 + = $L $T0 .cbSavedRegs - = $P $T0 8 + .cbParams + = $ebx $T0 24 - ^ =
STACK WIN 4 8837 9a 0 0 10 c 10 0 1 $T0 $ebp = $eip $T0 4 + ^ = $ebp $T0 ^ = $esp $T0 8 + = $L $T0 .cbSavedRegs - = $P $T0 8 + .cbParams + = $ebx $T0 24 - ^ =
STACK WIN 4 88d7 ab 5 0 10 0 0 0 1 $T0 $ebp = $eip $T0 4 + ^ = $ebp $T0 ^ = $esp $T0 8 + = $L $T0 .cbSavedRegs - = $P $T0 8 + .cbParams + =
STACK WIN 4 88db 41 1 0 10 4 0 0 1 $T0 $ebp = $eip $T0 4 + ^ = $ebp $T0 ^ = $esp $T0 8 + = $L $T0 .cbSavedRegs - = $P $T0 8 + .cbParams + =
STACK WIN 4 88dc 3f 0 0 10 8 0 0 1 $T0 $ebp = $eip $T0 4 + ^ = $ebp $T0 ^ = $esp $T0 8 + = $L $T0 .cbSavedRegs - = $P $T0 8 + .cbParams + =
STACK WIN 4 8982 cd 6 0 c 0 4 0 1 $T0 $ebp = $eip $T0 4 + ^ = $ebp $T0 ^ = $esp $T0 8 + = $L $T0 .cbSavedRegs - = $P $T0 8 + .cbParams + =
STACK WIN 4 8987 b5 1 0 c 4 4 0 1 $T0 $ebp = $eip $T0 4 + ^ = $ebp $T0 ^ = $esp $T0 8 + = $L $T0 .cbSavedRegs - = $P $T0 8 + .cbParams + = $ebx $T0 8 - ^ =
STACK WIN 4 8988 b3 0 0 c 8 4 0 1 $T0 $ebp = $eip $T0 4 + ^ = $ebp $T0 ^ = $esp $T0 8 + = $L $T0 .cbSavedRegs - = $P $T0 8 + .cbParams + = $ebx $T0 8 - ^ =
STACK WIN 4 89a6 94 0 0 c c 4 0 1 $T0 $ebp = $eip $T0 4 + ^ = $ebp $T0 ^ = $esp $T0 8 + = $L $T0 .cbSavedRegs - = $P $T0 8 + .cbParams + = $ebx $T0 8 - ^ =
STACK WIN 4 8a4f 97 4 0 10 0 0 0 1 $T0 $ebp = $eip $T0 4 + ^ = $ebp $T0 ^ = $esp $T0 8 + = $L $T0 .cbSavedRegs - = $P $T0 8 + .cbParams + =
STACK WIN 4 8a53 89 0 0 10 4 0 0 1 $T0 $ebp = $eip $T0 4 + ^ = $ebp $T0 ^ = $esp $T0 8 + = $L $T0 .cbSavedRegs - = $P $T0 8 + .cbParams + = $ebx $T0 4 - ^ =
STACK WIN 4 8a5f 7c 0 0 10 8 0 0 1 $T0 $ebp = $eip $T0 4 + ^ = $ebp $T0 ^ = $esp $T0 8 + = $L $T0 .cbSavedRegs - = $P $T0 8 + .cbParams + = $ebx $T0 4 - ^ =
STACK WIN 4 8a7e 5c 0 0 10 c 0 0 1 $T0 $ebp = $eip $T0 4 + ^ = $ebp $T0 ^ = $esp $T0 8 + = $L $T0 .cbSavedRegs - = $P $T0 8 + .cbParams + = $ebx $T0 4 - ^ =
STACK WIN 4 8ae6 11 0 0 4 0 0 0 1 $T2 $esp .cbLocals + .cbSavedRegs + = $T0 .raSearchStart = $eip $T0 ^ = $esp $T0 4 + =
STACK WIN 4 8af7 6 0 0 0 0 0 0 1 $T2 $esp .cbLocals + .cbSavedRegs + = $T0 .raSearchStart = $eip $T0 ^ = $esp $T0 4 + =
STACK WIN 4 8afd 151 8 0 c 0 34 0 1 $T0 $ebp = $eip $T0 4 + ^ = $ebp $T0 ^ = $esp $T0 8 + = $L $T0 .cbSavedRegs - = $P $T0 8 + .cbParams + =
STACK WIN 4 8b04 148 1 0 c 4 34 0 1 $T0 $ebp = $eip $T0 4 + ^ = $ebp $T0 ^ = $esp $T0 8 + = $L $T0 .cbSavedRegs - = $P $T0 8 + .cbParams + =
STACK WIN 4 8b05 146 0 0 c 8 34 0 1 $T0 $ebp = $eip $T0 4 + ^ = $ebp $T0 ^ = $esp $T0 8 + = $L $T0 .cbSavedRegs - = $P $T0 8 + .cbParams + =
STACK WIN 4 8c4e 5d9 e 0 20 0 50 0 1 $T0 $ebp = $eip $T0 4 + ^ = $ebp $T0 ^ = $esp $T0 8 + = $L $T0 .cbSavedRegs - = $P $T0 8 + .cbParams + =
STACK WIN 4 8c55 5d0 7 0 20 4 50 0 1 $T0 $ebp = $eip $T0 4 + ^ = $ebp $T0 ^ = $esp $T0 8 + = $L $T0 .cbSavedRegs - = $P $T0 8 + .cbParams + = $ebx $T0 84 - ^ =
STACK WIN 4 8c56 5ce 6 0 20 8 50 0 1 $T0 $ebp = $eip $T0 4 + ^ = $ebp $T0 ^ = $esp $T0 8 + = $L $T0 .cbSavedRegs - = $P $T0 8 + .cbParams + = $ebx $T0 84 - ^ =
STACK WIN 4 8c5c 5c7 0 0 20 c 50 0 1 $T0 $ebp = $eip $T0 4 + ^ = $ebp $T0 ^ = $esp $T0 8 + = $L $T0 .cbSavedRegs - = $P $T0 8 + .cbParams + = $ebx $T0 84 - ^ =
STACK WIN 4 9227 282 9 0 c 0 40 0 1 $T0 $ebp = $eip $T0 4 + ^ = $ebp $T0 ^ = $esp $T0 8 + = $L $T0 .cbSavedRegs - = $P $T0 8 + .cbParams + =
STACK WIN 4 922e ff 2 0 c 4 40 0 1 $T0 $ebp = $eip $T0 4 + ^ = $ebp $T0 ^ = $esp $T0 8 + = $L $T0 .cbSavedRegs - = $P $T0 8 + .cbParams + = $ebx $T0 68 - ^ =
STACK WIN 4 922f fd 1 0 c 8 40 0 1 $T0 $ebp = $eip $T0 4 + ^ = $ebp $T0 ^ = $esp $T0 8 + = $L $T0 .cbSavedRegs - = $P $T0 8 + .cbParams + = $ebx $T0 68 - ^ =
STACK WIN 4 9230 fb 0 0 c c 40 0 1 $T0 $ebp = $eip $T0 4 + ^ = $ebp $T0 ^ = $esp $T0 8 + = $L $T0 .cbSavedRegs - = $P $T0 8 + .cbParams + = $ebx $T0 68 - ^ =
STACK WIN 4 94a9 10a 9 0 10 0 3c 0 1 $T0 $ebp = $eip $T0 4 + ^ = $ebp $T0 ^ = $esp $T0 8 + = $L $T0 .cbSavedRegs - = $P $T0 8 + .cbParams + =
STACK WIN 4 94b0 101 2 0 10 4 3c 0 1 $T0 $ebp = $eip $T0 4 + ^ = $ebp $T0 ^ = $esp $T0 8 + = $L $T0 .cbSavedRegs - = $P $T0 8 + .cbParams + = $ebx $T0 64 - ^ =
STACK WIN 4 94b1 ff 1 0 10 8 3c 0 1 $T0 $ebp = $eip $T0 4 + ^ = $ebp $T0 ^ = $esp $T0 8 + = $L $T0 .cbSavedRegs - = $P $T0 8 + .cbParams + = $ebx $T0 64 - ^ =
STACK WIN 4 94b2 fd 0 0 10 c 3c 0 1 $T0 $ebp = $eip $T0 4 + ^ = $ebp $T0 ^ = $esp $T0 8 + = $L $T0 .cbSavedRegs - = $P $T0 8 + .cbParams + = $ebx $T0 64 - ^ =
STACK WIN 4 95b3 82 8 0 4 0 2c 0 1 $T0 $ebp = $eip $T0 4 + ^ = $ebp $T0 ^ = $esp $T0 8 + = $L $T0 .cbSavedRegs - = $P $T0 8 + .cbParams + =
STACK WIN 4 95ba 79 1 0 4 4 2c 0 1 $T0 $ebp = $eip $T0 4 + ^ = $ebp $T0 ^ = $esp $T0 8 + = $L $T0 .cbSavedRegs - = $P $T0 8 + .cbParams + =
STACK WIN 4 95bb 77 0 0 4 8 2c 0 1 $T0 $ebp = $eip $T0 4 + ^ = $ebp $T0 ^ = $esp $T0 8 + = $L $T0 .cbSavedRegs - = $P $T0 8 + .cbParams + =
STACK WIN 4 9635 180 9 0 c 0 34 0 1 $T0 $ebp = $eip $T0 4 + ^ = $ebp $T0 ^ = $esp $T0 8 + = $L $T0 .cbSavedRegs - = $P $T0 8 + .cbParams + =
STACK WIN 4 963c 177 2 0 c 4 34 0 1 $T0 $ebp = $eip $T0 4 + ^ = $ebp $T0 ^ = $esp $T0 8 + = $L $T0 .cbSavedRegs - = $P $T0 8 + .cbParams + = $ebx $T0 56 - ^ =
STACK WIN 4 963d 175 1 0 c 8 34 0 1 $T0 $ebp = $eip $T0 4 + ^ = $ebp $T0 ^ = $esp $T0 8 + = $L $T0 .cbSavedRegs - = $P $T0 8 + .cbParams + = $ebx $T0 56 - ^ =
STACK WIN 4 963e 173 0 0 c c 34 0 1 $T0 $ebp = $eip $T0 4 + ^ = $ebp $T0 ^ = $esp $T0 8 + = $L $T0 .cbSavedRegs - = $P $T0 8 + .cbParams + = $ebx $T0 56 - ^ =
STACK WIN 4 97b5 35e 20 0 18 0 48 0 1 $T0 $ebp = $eip $T0 4 + ^ = $ebp $T0 ^ = $esp $T0 8 + = $L $T0 .cbSavedRegs - = $P $T0 8 + .cbParams + =
STACK WIN 4 97bc 355 19 0 18 4 48 0 1 $T0 $ebp = $eip $T0 4 + ^ = $ebp $T0 ^ = $esp $T0 8 + = $L $T0 .cbSavedRegs - = $P $T0 8 + .cbParams + = $ebx $T0 76 - ^ =
STACK WIN 4 97bd 353 18 0 18 8 48 0 1 $T0 $ebp = $eip $T0 4 + ^ = $ebp $T0 ^ = $esp $T0 8 + = $L $T0 .cbSavedRegs - = $P $T0 8 + .cbParams + = $ebx $T0 76 - ^ =
STACK WIN 4 97be 351 17 0 18 c 48 0 1 $T0 $ebp = $eip $T0 4 + ^ = $ebp $T0 ^ = $esp $T0 8 + = $L $T0 .cbSavedRegs - = $P $T0 8 + .cbParams + = $ebx $T0 76 - ^ =
STACK WIN 4 9b13 cb d 0 24 0 14 0 1 $T0 $ebp = $eip $T0 4 + ^ = $ebp $T0 ^ = $esp $T0 8 + = $L $T0 .cbSavedRegs - = $P $T0 8 + .cbParams + =
STACK WIN 4 9b1e be 2 0 24 4 14 0 1 $T0 $ebp = $eip $T0 4 + ^ = $ebp $T0 ^ = $esp $T0 8 + = $L $T0 .cbSavedRegs - = $P $T0 8 + .cbParams + = $ebx $T0 24 - ^ =
STACK WIN 4 9b1f bc 1 0 24 8 14 0 1 $T0 $ebp = $eip $T0 4 + ^ = $ebp $T0 ^ = $esp $T0 8 + = $L $T0 .cbSavedRegs - = $P $T0 8 + .cbParams + = $ebx $T0 24 - ^ =
STACK WIN 4 9b20 ba 0 0 24 c 14 0 1 $T0 $ebp = $eip $T0 4 + ^ = $ebp $T0 ^ = $esp $T0 8 + = $L $T0 .cbSavedRegs - = $P $T0 8 + .cbParams + = $ebx $T0 24 - ^ =
STACK WIN 4 9bde f1 9 0 8 0 14 0 1 $T0 $ebp = $eip $T0 4 + ^ = $ebp $T0 ^ = $esp $T0 8 + = $L $T0 .cbSavedRegs - = $P $T0 8 + .cbParams + =
STACK WIN 4 9be5 e8 2 0 8 4 14 0 1 $T0 $ebp = $eip $T0 4 + ^ = $ebp $T0 ^ = $esp $T0 8 + = $L $T0 .cbSavedRegs - = $P $T0 8 + .cbParams + = $ebx $T0 24 - ^ =
STACK WIN 4 9be6 e6 1 0 8 8 14 0 1 $T0 $ebp = $eip $T0 4 + ^ = $ebp $T0 ^ = $esp $T0 8 + = $L $T0 .cbSavedRegs - = $P $T0 8 + .cbParams + = $ebx $T0 24 - ^ =
STACK WIN 4 9be7 e4 0 0 8 c 14 0 1 $T0 $ebp = $eip $T0 4 + ^ = $ebp $T0 ^ = $esp $T0 8 + = $L $T0 .cbSavedRegs - = $P $T0 8 + .cbParams + = $ebx $T0 24 - ^ =
STACK WIN 4 9ccf ab 8 0 0 0 10 0 1 $T0 $ebp = $eip $T0 4 + ^ = $ebp $T0 ^ = $esp $T0 8 + = $L $T0 .cbSavedRegs - = $P $T0 8 + .cbParams + =
STACK WIN 4 9cd6 a2 1 0 0 4 10 0 1 $T0 $ebp = $eip $T0 4 + ^ = $ebp $T0 ^ = $esp $T0 8 + = $L $T0 .cbSavedRegs - = $P $T0 8 + .cbParams + = $ebx $T0 20 - ^ =
STACK WIN 4 9cd7 a0 0 0 0 8 10 0 1 $T0 $ebp = $eip $T0 4 + ^ = $ebp $T0 ^ = $esp $T0 8 + = $L $T0 .cbSavedRegs - = $P $T0 8 + .cbParams + = $ebx $T0 20 - ^ =
STACK WIN 4 9d7a ce c 0 c 0 c 0 1 $T0 $ebp = $eip $T0 4 + ^ = $ebp $T0 ^ = $esp $T0 8 + = $L $T0 .cbSavedRegs - = $P $T0 8 + .cbParams + =
STACK WIN 4 9d81 b8 5 0 c 4 c 0 1 $T0 $ebp = $eip $T0 4 + ^ = $ebp $T0 ^ = $esp $T0 8 + = $L $T0 .cbSavedRegs - = $P $T0 8 + .cbParams + = $ebx $T0 16 - ^ =
STACK WIN 4 9d85 b3 1 0 c 8 c 0 1 $T0 $ebp = $eip $T0 4 + ^ = $ebp $T0 ^ = $esp $T0 8 + = $L $T0 .cbSavedRegs - = $P $T0 8 + .cbParams + = $ebx $T0 16 - ^ =
STACK WIN 4 9d86 b1 0 0 c c c 0 1 $T0 $ebp = $eip $T0 4 + ^ = $ebp $T0 ^ = $esp $T0 8 + = $L $T0 .cbSavedRegs - = $P $T0 8 + .cbParams + = $ebx $T0 16 - ^ =
STACK WIN 4 9e48 1c 0 0 8 0 0 0 1 $T2 $esp .cbLocals + .cbSavedRegs + = $T0 .raSearchStart = $eip $T0 ^ = $esp $T0 4 + =
STACK WIN 4 9e64 61 3 0 18 0 0 0 1 $T0 $ebp = $eip $T0 4 + ^ = $ebp $T0 ^ = $esp $T0 8 + = $L $T0 .cbSavedRegs - = $P $T0 8 + .cbParams + =
STACK WIN 4 9e72 2b 0 0 18 4 0 0 1 $T0 $ebp = $eip $T0 4 + ^ = $ebp $T0 ^ = $esp $T0 8 + = $L $T0 .cbSavedRegs - = $P $T0 8 + .cbParams + =
STACK WIN 4 9e7d 15 0 0 18 8 0 0 1 $T0 $ebp = $eip $T0 4 + ^ = $ebp $T0 ^ = $esp $T0 8 + = $L $T0 .cbSavedRegs - = $P $T0 8 + .cbParams + =
STACK WIN 4 9ec5 308 11 0 c 0 1c 0 1 $T0 $ebp = $eip $T0 4 + ^ = $ebp $T0 ^ = $esp $T0 8 + = $L $T0 .cbSavedRegs - = $P $T0 8 + .cbParams + =
STACK WIN 4 9ecc 2ff a 0 c 4 1c 0 1 $T0 $ebp = $eip $T0 4 + ^ = $ebp $T0 ^ = $esp $T0 8 + = $L $T0 .cbSavedRegs - = $P $T0 8 + .cbParams + = $ebx $T0 32 - ^ =
STACK WIN 4 9ed0 2fa 6 0 c 8 1c 0 1 $T0 $ebp = $eip $T0 4 + ^ = $ebp $T0 ^ = $esp $T0 8 + = $L $T0 .cbSavedRegs - = $P $T0 8 + .cbParams + = $ebx $T0 32 - ^ =
STACK WIN 4 9ed6 2f3 0 0 c c 1c 0 1 $T0 $ebp = $eip $T0 4 + ^ = $ebp $T0 ^ = $esp $T0 8 + = $L $T0 .cbSavedRegs - = $P $T0 8 + .cbParams + = $ebx $T0 32 - ^ =
STACK WIN 4 a1cd 44 0 0 4 0 0 0 1 $T2 $esp .cbLocals + .cbSavedRegs + = $T0 .raSearchStart = $eip $T0 ^ = $esp $T0 4 + =
STACK WIN 4 a1db 35 0 0 4 4 0 0 1 $T2 $esp .cbLocals + .cbSavedRegs + = $T0 .raSearchStart = $eip $T0 ^ = $esp $T0 4 + =
STACK WIN 4 a211 6 0 0 0 0 0 0 1 $T2 $esp .cbLocals + .cbSavedRegs + = $T0 .raSearchStart = $eip $T0 ^ = $esp $T0 4 + =
STACK WIN 4 a217 6 0 0 0 0 0 0 1 $T2 $esp .cbLocals + .cbSavedRegs + = $T0 .raSearchStart = $eip $T0 ^ = $esp $T0 4 + =
STACK WIN 4 a21d 6 0 0 0 0 0 0 1 $T2 $esp .cbLocals + .cbSavedRegs + = $T0 .raSearchStart = $eip $T0 ^ = $esp $T0 4 + =
STACK WIN 4 a223 6 0 0 0 0 0 0 1 $T2 $esp .cbLocals + .cbSavedRegs + = $T0 .raSearchStart = $eip $T0 ^ = $esp $T0 4 + =
STACK WIN 4 a229 4a 1 0 4 0 0 0 1 $T2 $esp .cbLocals + .cbSavedRegs + = $T0 .raSearchStart = $eip $T0 ^ = $esp $T0 4 + =
STACK WIN 4 a22a 48 0 0 4 4 0 0 1 $T2 $esp .cbLocals + .cbSavedRegs + = $T0 .raSearchStart = $eip $T0 ^ = $esp $T0 4 + =
STACK WIN 4 a273 332 b 0 18 0 38 0 1 $T0 $ebp = $eip $T0 4 + ^ = $ebp $T0 ^ = $esp $T0 8 + = $L $T0 .cbSavedRegs - = $P $T0 8 + .cbParams + =
STACK WIN 4 a27e 315 0 0 18 4 38 0 1 $T0 $ebp = $eip $T0 4 + ^ = $ebp $T0 ^ = $esp $T0 8 + = $L $T0 .cbSavedRegs - = $P $T0 8 + .cbParams + = $ebx $T0 60 - ^ =
STACK WIN 4 a301 17a 0 0 18 8 38 0 1 $T0 $ebp = $eip $T0 4 + ^ = $ebp $T0 ^ = $esp $T0 8 + = $L $T0 .cbSavedRegs - = $P $T0 8 + .cbParams + = $ebx $T0 60 - ^ =
STACK WIN 4 a334 146 0 0 18 c 38 0 1 $T0 $ebp = $eip $T0 4 + ^ = $ebp $T0 ^ = $esp $T0 8 + = $L $T0 .cbSavedRegs - = $P $T0 8 + .cbParams + = $ebx $T0 60 - ^ =
STACK WIN 4 a5a5 82 1 0 10 0 0 0 1 $T2 $esp .cbLocals + .cbSavedRegs + = $T0 .raSearchStart = $eip $T0 ^ = $esp $T0 4 + =
STACK WIN 4 a5a6 80 0 0 10 4 0 0 1 $T2 $esp .cbLocals + .cbSavedRegs + = $T0 .raSearchStart = $eip $T0 ^ = $esp $T0 4 + =
STACK WIN 4 a627 ed 6 0 c 0 8 0 1 $T0 $ebp = $eip $T0 4 + ^ = $ebp $T0 ^ = $esp $T0 8 + = $L $T0 .cbSavedRegs - = $P $T0 8 + .cbParams + =
STACK WIN 4 a62d d8 0 0 c 4 8 0 1 $T0 $ebp = $eip $T0 4 + ^ = $ebp $T0 ^ = $esp $T0 8 + = $L $T0 .cbSavedRegs - = $P $T0 8 + .cbParams + = $ebx $T0 12 - ^ =
STACK WIN 4 a651 a5 0 0 c 8 8 0 1 $T0 $ebp = $eip $T0 4 + ^ = $ebp $T0 ^ = $esp $T0 8 + = $L $T0 .cbSavedRegs - = $P $T0 8 + .cbParams + = $ebx $T0 12 - ^ =
STACK WIN 4 a652 a3 0 0 c c 8 0 1 $T0 $ebp = $eip $T0 4 + ^ = $ebp $T0 ^ = $esp $T0 8 + = $L $T0 .cbSavedRegs - = $P $T0 8 + .cbParams + = $ebx $T0 12 - ^ =
STACK WIN 4 a714 127 8 0 8 0 20 0 1 $T0 $ebp = $eip $T0 4 + ^ = $ebp $T0 ^ = $esp $T0 8 + = $L $T0 .cbSavedRegs - = $P $T0 8 + .cbParams + =
STACK WIN 4 a71b 9d 1 0 8 4 20 0 1 $T0 $ebp = $eip $T0 4 + ^ = $ebp $T0 ^ = $esp $T0 8 + = $L $T0 .cbSavedRegs - = $P $T0 8 + .cbParams + =
STACK WIN 4 a71c 9b 0 0 8 8 20 0 1 $T0 $ebp = $eip $T0 4 + ^ = $ebp $T0 ^ = $esp $T0 8 + = $L $T0 .cbSavedRegs - = $P $T0 8 + .cbParams + =
STACK WIN 4 a76c 40 0 0 8 c 20 0 1 $T0 $ebp = $eip $T0 4 + ^ = $ebp $T0 ^ = $esp $T0 8 + = $L $T0 .cbSavedRegs - = $P $T0 8 + .cbParams + = $ebx $T0 72 - ^ =
STACK WIN 4 a83b 3 0 0 8 0 0 0 1 $T2 $esp .cbLocals + .cbSavedRegs + = $T0 .raSearchStart = $eip $T0 ^ = $esp $T0 4 + =
STACK WIN 4 a83e 1 0 0 4 0 0 0 1 $T2 $esp .cbLocals + .cbSavedRegs + = $T0 .raSearchStart = $eip $T0 ^ = $esp $T0 4 + =
STACK WIN 4 a83f 8 0 0 10 0 0 0 1 $T2 $esp .cbLocals + .cbSavedRegs + = $T0 .raSearchStart = $eip $T0 ^ = $esp $T0 4 + =
STACK WIN 4 a847 9 0 0 0 0 0 0 1 $T2 $esp .cbLocals + .cbSavedRegs + = $T0 .raSearchStart = $eip $T0 ^ = $esp $T0 4 + =
STACK WIN 4 a850 9 0 0 0 0 0 0 1 $T2 $esp .cbLocals + .cbSavedRegs + = $T0 .raSearchStart = $eip $T0 ^ = $esp $T0 4 + =
STACK WIN 4 a859 9 0 0 0 0 0 0 1 $T2 $esp .cbLocals + .cbSavedRegs + = $T0 .raSearchStart = $eip $T0 ^ = $esp $T0 4 + =
STACK WIN 4 a862 c 0 0 0 0 0 0 1 $T2 $esp .cbLocals + .cbSavedRegs + = $T0 .raSearchStart = $eip $T0 ^ = $esp $T0 4 + =
STACK WIN 4 a86e c 0 0 0 0 0 0 1 $T2 $esp .cbLocals + .cbSavedRegs + = $T0 .raSearchStart = $eip $T0 ^ = $esp $T0 4 + =
STACK WIN 4 a87a c 0 0 0 0 0 0 1 $T2 $esp .cbLocals + .cbSavedRegs + = $T0 .raSearchStart = $eip $T0 ^ = $esp $T0 4 + =
STACK WIN 4 a886 c 0 0 0 0 0 0 1 $T2 $esp .cbLocals + .cbSavedRegs + = $T0 .raSearchStart = $eip $T0 ^ = $esp $T0 4 + =
STACK WIN 4 a892 d 0 0 4 0 0 0 1 $T2 $esp .cbLocals + .cbSavedRegs + = $T0 .raSearchStart = $eip $T0 ^ = $esp $T0 4 + =
STACK WIN 4 a89f 4f 6 0 4 0 0 0 1 $T2 $esp .cbLocals + .cbSavedRegs + = $T0 .raSearchStart = $eip $T0 ^ = $esp $T0 4 + =
STACK WIN 4 a8a5 48 0 0 4 4 0 0 1 $T2 $esp .cbLocals + .cbSavedRegs + = $T0 .raSearchStart = $eip $T0 ^ = $esp $T0 4 + =
STACK WIN 4 a8ee 4a a 0 4 0 0 0 1 $T2 $esp .cbLocals + .cbSavedRegs + = $T0 .raSearchStart = $eip $T0 ^ = $esp $T0 4 + =
STACK WIN 4 a8f8 3f 0 0 4 4 0 0 1 $T2 $esp .cbLocals + .cbSavedRegs + = $T0 .raSearchStart = $eip $T0 ^ = $esp $T0 4 + =
STACK WIN 4 a938 1c 0 0 4 0 0 0 1 $T2 $esp .cbLocals + .cbSavedRegs + = $T0 .raSearchStart = $eip $T0 ^ = $esp $T0 4 + =
STACK WIN 4 a954 15 0 0 4 0 0 0 1 $T2 $esp .cbLocals + .cbSavedRegs + = $T0 .raSearchStart = $eip $T0 ^ = $esp $T0 4 + =
STACK WIN 4 a969 21 0 0 4 0 0 0 1 $T2 $esp .cbLocals + .cbSavedRegs + = $T0 .raSearchStart = $eip $T0 ^ = $esp $T0 4 + =
STACK WIN 4 a98a 9 0 0 4 0 0 0 1 $T2 $esp .cbLocals + .cbSavedRegs + = $T0 .raSearchStart = $eip $T0 ^ = $esp $T0 4 + =
STACK WIN 4 a993 43 9 0 4 0 0 0 1 $T2 $esp .cbLocals + .cbSavedRegs + = $T0 .raSearchStart = $eip $T0 ^ = $esp $T0 4 + =
STACK WIN 4 a994 34 8 0 4 4 0 0 1 $T2 $esp .cbLocals + .cbSavedRegs + = $T0 .raSearchStart = $eip $T0 ^ = $esp $T0 4 + =
STACK WIN 4 a99c 2b 0 0 4 8 0 0 1 $T2 $esp .cbLocals + .cbSavedRegs + = $T0 .raSearchStart = $eip $T0 ^ = $esp $T0 4 + =
STACK WIN 4 a9d6 39 8 0 4 0 0 0 1 $T2 $esp .cbLocals + .cbSavedRegs + = $T0 .raSearchStart = $eip $T0 ^ = $esp $T0 4 + =
STACK WIN 4 a9d7 37 7 0 4 4 0 0 1 $T2 $esp .cbLocals + .cbSavedRegs + = $T0 .raSearchStart = $eip $T0 ^ = $esp $T0 4 + =
STACK WIN 4 a9de 2f 0 0 4 8 0 0 1 $T2 $esp .cbLocals + .cbSavedRegs + = $T0 .raSearchStart = $eip $T0 ^ = $esp $T0 4 + =
STACK WIN 4 aa0f 1a 1 0 4 0 0 0 1 $T2 $esp .cbLocals + .cbSavedRegs + = $T0 .raSearchStart = $eip $T0 ^ = $esp $T0 4 + =
STACK WIN 4 aa10 18 0 0 4 4 0 0 1 $T2 $esp .cbLocals + .cbSavedRegs + = $T0 .raSearchStart = $eip $T0 ^ = $esp $T0 4 + =
STACK WIN 4 aa29 e 0 0 4 0 0 0 1 $T2 $esp .cbLocals + .cbSavedRegs + = $T0 .raSearchStart = $eip $T0 ^ = $esp $T0 4 + =
STACK WIN 4 aa37 18 0 0 c 0 0 0 1 $T2 $esp .cbLocals + .cbSavedRegs + = $T0 .raSearchStart = $eip $T0 ^ = $esp $T0 4 + =
STACK WIN 4 aa4f 1c 0 0 10 0 0 0 1 $T2 $esp .cbLocals + .cbSavedRegs + = $T0 .raSearchStart = $eip $T0 ^ = $esp $T0 4 + =
STACK WIN 4 aa6b a 0 0 4 0 0 0 1 $T2 $esp .cbLocals + .cbSavedRegs + = $T0 .raSearchStart = $eip $T0 ^ = $esp $T0 4 + =
STACK WIN 4 aa75 4f 8 0 10 0 0 0 1 $T0 $ebp = $eip $T0 4 + ^ = $ebp $T0 ^ = $esp $T0 8 + = $L $T0 .cbSavedRegs - = $P $T0 8 + .cbParams + =
STACK WIN 4 aa7d 45 0 0 10 4 0 0 1 $T0 $ebp = $eip $T0 4 + ^ = $ebp $T0 ^ = $esp $T0 8 + = $L $T0 .cbSavedRegs - = $P $T0 8 + .cbParams + =
STACK WIN 4 aac4 6 0 0 8 0 0 0 1 $T2 $esp .cbLocals + .cbSavedRegs + = $T0 .raSearchStart = $eip $T0 ^ = $esp $T0 4 + =
STACK WIN 4 aaca 6 0 0 8 0 0 0 1 $T2 $esp .cbLocals + .cbSavedRegs + = $T0 .raSearchStart = $eip $T0 ^ = $esp $T0 4 + =
STACK WIN 4 aad0 6 0 0 8 0 0 0 1 $T2 $esp .cbLocals + .cbSavedRegs + = $T0 .raSearchStart = $eip $T0 ^ = $esp $T0 4 + =
STACK WIN 4 aad6 6 0 0 8 0 0 0 1 $T2 $esp .cbLocals + .cbSavedRegs + = $T0 .raSearchStart = $eip $T0 ^ = $esp $T0 4 + =
STACK WIN 4 aadc 50 7 0 c 0 8 0 1 $T0 $ebp = $eip $T0 4 + ^ = $ebp $T0 ^ = $esp $T0 8 + = $L $T0 .cbSavedRegs - = $P $T0 8 + .cbParams + =
STACK WIN 4 aae2 48 1 0 c 4 8 0 1 $T0 $ebp = $eip $T0 4 + ^ = $ebp $T0 ^ = $esp $T0 8 + = $L $T0 .cbSavedRegs - = $P $T0 8 + .cbParams + =
STACK WIN 4 aae3 46 0 0 c 8 8 0 1 $T0 $ebp = $eip $T0 4 + ^ = $ebp $T0 ^ = $esp $T0 8 + = $L $T0 .cbSavedRegs - = $P $T0 8 + .cbParams + =
STACK WIN 4 ab2c 98 d 0 c 0 0 0 1 $T0 $ebp = $eip $T0 4 + ^ = $ebp $T0 ^ = $esp $T0 8 + = $L $T0 .cbSavedRegs - = $P $T0 8 + .cbParams + =
STACK WIN 4 ab30 92 9 0 c 4 0 0 1 $T0 $ebp = $eip $T0 4 + ^ = $ebp $T0 ^ = $esp $T0 8 + = $L $T0 .cbSavedRegs - = $P $T0 8 + .cbParams + = $ebx $T0 4 - ^ =
STACK WIN 4 ab31 90 8 0 c 8 0 0 1 $T0 $ebp = $eip $T0 4 + ^ = $ebp $T0 ^ = $esp $T0 8 + = $L $T0 .cbSavedRegs - = $P $T0 8 + .cbParams + = $ebx $T0 4 - ^ =
STACK WIN 4 ab39 87 0 0 c c 0 0 1 $T0 $ebp = $eip $T0 4 + ^ = $ebp $T0 ^ = $esp $T0 8 + = $L $T0 .cbSavedRegs - = $P $T0 8 + .cbParams + = $ebx $T0 4 - ^ =
STACK WIN 4 abc4 77 6 0 c 0 8 0 1 $T0 $ebp = $eip $T0 4 + ^ = $ebp $T0 ^ = $esp $T0 8 + = $L $T0 .cbSavedRegs - = $P $T0 8 + .cbParams + =
STACK WIN 4 abca 6f 0 0 c 4 8 0 1 $T0 $ebp = $eip $T0 4 + ^ = $ebp $T0 ^ = $esp $T0 8 + = $L $T0 .cbSavedRegs - = $P $T0 8 + .cbParams + =
STACK WIN 4 abe2 56 0 0 c 8 8 0 1 $T0 $ebp = $eip $T0 4 + ^ = $ebp $T0 ^ = $esp $T0 8 + = $L $T0 .cbSavedRegs - = $P $T0 8 + .cbParams + = $ebx $T0 16 - ^ =
STACK WIN 4 abe3 54 0 0 c c 8 0 1 $T0 $ebp = $eip $T0 4 + ^ = $ebp $T0 ^ = $esp $T0 8 + = $L $T0 .cbSavedRegs - = $P $T0 8 + .cbParams + = $ebx $T0 16 - ^ =
STACK WIN 4 ac3b 3c 1 0 4 0 0 0 1 $T2 $esp .cbLocals + .cbSavedRegs + = $T0 .raSearchStart = $eip $T0 ^ = $esp $T0 4 + =
STACK WIN 4 ac3c 3a 0 0 4 4 0 0 1 $T2 $esp .cbLocals + .cbSavedRegs + = $T0 .raSearchStart = $eip $T0 ^ = $esp $T0 4 + =
STACK WIN 4 ac77 47 1 0 4 0 0 0 1 $T2 $esp .cbLocals + .cbSavedRegs + = $T0 .raSearchStart = $eip $T0 ^ = $esp $T0 4 + =
STACK WIN 4 ac78 45 0 0 4 4 0 0 1 $T2 $esp .cbLocals + .cbSavedRegs + = $T0 .raSearchStart = $eip $T0 ^ = $esp $T0 4 + =
STACK WIN 4 acbe 60 7 0 c 0 c 0 1 $T0 $ebp = $eip $T0 4 + ^ = $ebp $T0 ^ = $esp $T0 8 + = $L $T0 .cbSavedRegs - = $P $T0 8 + .cbParams + =
STACK WIN 4 acc5 57 0 0 c 4 c 0 1 $T0 $ebp = $eip $T0 4 + ^ = $ebp $T0 ^ = $esp $T0 8 + = $L $T0 .cbSavedRegs - = $P $T0 8 + .cbParams + = $ebx $T0 16 - ^ =
STACK WIN 4 ace3 38 0 0 c 8 c 0 1 $T0 $ebp = $eip $T0 4 + ^ = $ebp $T0 ^ = $esp $T0 8 + = $L $T0 .cbSavedRegs - = $P $T0 8 + .cbParams + = $ebx $T0 16 - ^ =
STACK WIN 4 ace4 36 0 0 c c c 0 1 $T0 $ebp = $eip $T0 4 + ^ = $ebp $T0 ^ = $esp $T0 8 + = $L $T0 .cbSavedRegs - = $P $T0 8 + .cbParams + = $ebx $T0 16 - ^ =
STACK WIN 4 ad1e fd c 0 8 0 0 0 1 $T2 $esp .cbLocals + .cbSavedRegs + = $T0 .raSearchStart = $eip $T0 ^ = $esp $T0 4 + =
STACK WIN 4 ad28 f2 2 0 8 4 0 0 1 $T2 $esp .cbLocals + .cbSavedRegs + = $T0 .raSearchStart = $eip $T0 ^ = $esp $T0 4 + = $ebx $T0 4 - ^ =
STACK WIN 4 ad29 f0 1 0 8 8 0 0 1 $T2 $esp .cbLocals + .cbSavedRegs + = $T0 .raSearchStart = $eip $T0 ^ = $esp $T0 4 + = $ebp $T0 8 - ^ = $ebx $T0 4 - ^ =
STACK WIN 4 ad2a ee 0 0 8 c 0 0 1 $T2 $esp .cbLocals + .cbSavedRegs + = $T0 .raSearchStart = $eip $T0 ^ = $esp $T0 4 + = $ebp $T0 8 - ^ = $ebx $T0 4 - ^ =
STACK WIN 4 ad35 e2 0 0 8 10 0 0 1 $T2 $esp .cbLocals + .cbSavedRegs + = $T0 .raSearchStart = $eip $T0 ^ = $esp $T0 4 + = $ebp $T0 8 - ^ = $ebx $T0 4 - ^ =
STACK WIN 4 ae1b 24 0 0 4 0 0 0 1 $T2 $esp .cbLocals + .cbSavedRegs + = $T0 .raSearchStart = $eip $T0 ^ = $esp $T0 4 + =
STACK WIN 4 ae3f 73 9 0 c 0 c 0 1 $T0 $ebp = $eip $T0 4 + ^ = $ebp $T0 ^ = $esp $T0 8 + = $L $T0 .cbSavedRegs - = $P $T0 8 + .cbParams + =
STACK WIN 4 aeb2 89 0 0 4 0 0 0 1 $T2 $esp .cbLocals + .cbSavedRegs + = $T0 .raSearchStart = $eip $T0 ^ = $esp $T0 4 + =
STACK WIN 4 af3b 16 0 0 4 0 0 0 1 $T2 $esp .cbLocals + .cbSavedRegs + = $T0 .raSearchStart = $eip $T0 ^ = $esp $T0 4 + =
STACK WIN 4 af51 1c7 8 0 4 0 28 0 1 $T0 $ebp = $eip $T0 4 + ^ = $ebp $T0 ^ = $esp $T0 8 + = $L $T0 .cbSavedRegs - = $P $T0 8 + .cbParams + =
STACK WIN 4 af58 c9 1 0 4 4 28 0 1 $T0 $ebp = $eip $T0 4 + ^ = $ebp $T0 ^ = $esp $T0 8 + = $L $T0 .cbSavedRegs - = $P $T0 8 + .cbParams + =
STACK WIN 4 af59 c7 0 0 4 8 28 0 1 $T0 $ebp = $eip $T0 4 + ^ = $ebp $T0 ^ = $esp $T0 8 + = $L $T0 .cbSavedRegs - = $P $T0 8 + .cbParams + =
STACK WIN 4 af77 a8 0 0 4 c 28 0 1 $T0 $ebp = $eip $T0 4 + ^ = $ebp $T0 ^ = $esp $T0 8 + = $L $T0 .cbSavedRegs - = $P $T0 8 + .cbParams + = $ebx $T0 52 - ^ =
STACK WIN 4 b118 5 0 0 4 0 0 0 1 $T2 $esp .cbLocals + .cbSavedRegs + = $T0 .raSearchStart = $eip $T0 ^ = $esp $T0 4 + =
STACK WIN 4 b11d 35 1 0 4 0 0 0 1 $T2 $esp .cbLocals + .cbSavedRegs + = $T0 .raSearchStart = $eip $T0 ^ = $esp $T0 4 + =
STACK WIN 4 b11e 33 0 0 4 4 0 0 1 $T2 $esp .cbLocals + .cbSavedRegs + = $T0 .raSearchStart = $eip $T0 ^ = $esp $T0 4 + =
STACK WIN 4 b152 1aa 6 0 4 0 c 0 1 $T0 $ebp = $eip $T0 4 + ^ = $ebp $T0 ^ = $esp $T0 8 + = $L $T0 .cbSavedRegs - = $P $T0 8 + .cbParams + =
STACK WIN 4 b2fc 230 6 0 4 0 c 0 1 $T0 $ebp = $eip $T0 4 + ^ = $ebp $T0 ^ = $esp $T0 8 + = $L $T0 .cbSavedRegs - = $P $T0 8 + .cbParams + =
STACK WIN 4 b52c 62 0 0 4 0 0 0 1 $T2 $esp .cbLocals + .cbSavedRegs + = $T0 .raSearchStart = $eip $T0 ^ = $esp $T0 4 + =
STACK WIN 4 b58e 3e 0 0 4 0 0 0 1 $T2 $esp .cbLocals + .cbSavedRegs + = $T0 .raSearchStart = $eip $T0 ^ = $esp $T0 4 + =
STACK WIN 4 b5cc 44 0 0 4 0 0 0 1 $T2 $esp .cbLocals + .cbSavedRegs + = $T0 .raSearchStart = $eip $T0 ^ = $esp $T0 4 + =
STACK WIN 4 b610 ad 9 0 4 0 0 0 1 $T2 $esp .cbLocals + .cbSavedRegs + = $T0 .raSearchStart = $eip $T0 ^ = $esp $T0 4 + =
STACK WIN 4 b611 ab 8 0 4 4 0 0 1 $T2 $esp .cbLocals + .cbSavedRegs + = $T0 .raSearchStart = $eip $T0 ^ = $esp $T0 4 + = $ebx $T0 4 - ^ =
STACK WIN 4 b612 a9 7 0 4 8 0 0 1 $T2 $esp .cbLocals + .cbSavedRegs + = $T0 .raSearchStart = $eip $T0 ^ = $esp $T0 4 + = $ebx $T0 4 - ^ =
STACK WIN 4 b619 a1 0 0 4 c 0 0 1 $T2 $esp .cbLocals + .cbSavedRegs + = $T0 .raSearchStart = $eip $T0 ^ = $esp $T0 4 + = $ebx $T0 4 - ^ =
STACK WIN 4 b6bd 14a 1 0 4 0 0 0 1 $T2 $esp .cbLocals + .cbSavedRegs + = $T0 .raSearchStart = $eip $T0 ^ = $esp $T0 4 + =
STACK WIN 4 b6be 148 0 0 4 4 0 0 1 $T2 $esp .cbLocals + .cbSavedRegs + = $T0 .raSearchStart = $eip $T0 ^ = $esp $T0 4 + = $ebx $T0 4 - ^ =
STACK WIN 4 b6df 126 0 0 4 8 0 0 1 $T2 $esp .cbLocals + .cbSavedRegs + = $T0 .raSearchStart = $eip $T0 ^ = $esp $T0 4 + = $ebx $T0 4 - ^ =
STACK WIN 4 b70e f6 0 0 4 c 0 0 1 $T2 $esp .cbLocals + .cbSavedRegs + = $T0 .raSearchStart = $eip $T0 ^ = $esp $T0 4 + = $ebx $T0 4 - ^ =
STACK WIN 4 b807 bd 2 0 4 0 0 0 1 $T2 $esp .cbLocals + .cbSavedRegs + = $T0 .raSearchStart = $eip $T0 ^ = $esp $T0 4 + =
STACK WIN 4 b808 bb 1 0 4 4 0 0 1 $T2 $esp .cbLocals + .cbSavedRegs + = $T0 .raSearchStart = $eip $T0 ^ = $esp $T0 4 + =
STACK WIN 4 b809 b9 0 0 4 8 0 0 1 $T2 $esp .cbLocals + .cbSavedRegs + = $T0 .raSearchStart = $eip $T0 ^ = $esp $T0 4 + =
STACK WIN 4 b832 8f 0 0 4 c 0 0 1 $T2 $esp .cbLocals + .cbSavedRegs + = $T0 .raSearchStart = $eip $T0 ^ = $esp $T0 4 + = $ebx $T0 12 - ^ =
STACK WIN 4 b8c4 197 a 0 4 0 c 0 1 $T0 $ebp = $eip $T0 4 + ^ = $ebp $T0 ^ = $esp $T0 8 + = $L $T0 .cbSavedRegs - = $P $T0 8 + .cbParams + =
STACK WIN 4 b8cb 142 3 0 4 4 c 0 1 $T0 $ebp = $eip $T0 4 + ^ = $ebp $T0 ^ = $esp $T0 8 + = $L $T0 .cbSavedRegs - = $P $T0 8 + .cbParams + =
STACK WIN 4 b8ce 13e 0 0 4 8 c 0 1 $T0 $ebp = $eip $T0 4 + ^ = $ebp $T0 ^ = $esp $T0 8 + = $L $T0 .cbSavedRegs - = $P $T0 8 + .cbParams + =
STACK WIN 4 b8f1 136 0 0 4 c c 0 1 $T0 $ebp = $eip $T0 4 + ^ = $ebp $T0 ^ = $esp $T0 8 + = $L $T0 .cbSavedRegs - = $P $T0 8 + .cbParams + = $ebx $T0 24 - ^ =
STACK WIN 4 ba5b 31 2 0 4 0 0 0 1 $T2 $esp .cbLocals + .cbSavedRegs + = $T0 .raSearchStart = $eip $T0 ^ = $esp $T0 4 + =
STACK WIN 4 ba5c 2f 1 0 4 4 0 0 1 $T2 $esp .cbLocals + .cbSavedRegs + = $T0 .raSearchStart = $eip $T0 ^ = $esp $T0 4 + =
STACK WIN 4 ba5d 2d 0 0 4 8 0 0 1 $T2 $esp .cbLocals + .cbSavedRegs + = $T0 .raSearchStart = $eip $T0 ^ = $esp $T0 4 + =
STACK WIN 4 ba8c 84 7 0 4 0 c 0 1 $T0 $ebp = $eip $T0 4 + ^ = $ebp $T0 ^ = $esp $T0 8 + = $L $T0 .cbSavedRegs - = $P $T0 8 + .cbParams + =
STACK WIN 4 ba93 7b 0 0 4 4 c 0 1 $T0 $ebp = $eip $T0 4 + ^ = $ebp $T0 ^ = $esp $T0 8 + = $L $T0 .cbSavedRegs - = $P $T0 8 + .cbParams + =
STACK WIN 4 bab4 59 0 0 4 8 c 0 1 $T0 $ebp = $eip $T0 4 + ^ = $ebp $T0 ^ = $esp $T0 8 + = $L $T0 .cbSavedRegs - = $P $T0 8 + .cbParams + =
STACK WIN 4 bb10 7d 2 0 8 0 0 0 1 $T2 $esp .cbLocals + .cbSavedRegs + = $T0 .raSearchStart = $eip $T0 ^ = $esp $T0 4 + =
STACK WIN 4 bb11 7b 1 0 8 4 0 0 1 $T2 $esp .cbLocals + .cbSavedRegs + = $T0 .raSearchStart = $eip $T0 ^ = $esp $T0 4 + = $ebx $T0 4 - ^ =
STACK WIN 4 bb12 79 0 0 8 8 0 0 1 $T2 $esp .cbLocals + .cbSavedRegs + = $T0 .raSearchStart = $eip $T0 ^ = $esp $T0 4 + = $ebx $T0 4 - ^ =
STACK WIN 4 bb1d 6d 0 0 8 c 0 0 1 $T2 $esp .cbLocals + .cbSavedRegs + = $T0 .raSearchStart = $eip $T0 ^ = $esp $T0 4 + = $ebx $T0 4 - ^ =
STACK WIN 4 bb8d 73 2 0 8 0 0 0 1 $T2 $esp .cbLocals + .cbSavedRegs + = $T0 .raSearchStart = $eip $T0 ^ = $esp $T0 4 + =
STACK WIN 4 bb8e 71 1 0 8 4 0 0 1 $T2 $esp .cbLocals + .cbSavedRegs + = $T0 .raSearchStart = $eip $T0 ^ = $esp $T0 4 + = $ebx $T0 4 - ^ =
STACK WIN 4 bb8f 6f 0 0 8 8 0 0 1 $T2 $esp .cbLocals + .cbSavedRegs + = $T0 .raSearchStart = $eip $T0 ^ = $esp $T0 4 + = $ebx $T0 4 - ^ =
STACK WIN 4 bb9a 63 0 0 8 c 0 0 1 $T2 $esp .cbLocals + .cbSavedRegs + = $T0 .raSearchStart = $eip $T0 ^ = $esp $T0 4 + = $ebx $T0 4 - ^ =
STACK WIN 4 bc00 5d 5 0 c 0 0 0 1 $T0 $ebp = $eip $T0 4 + ^ = $ebp $T0 ^ = $esp $T0 8 + = $L $T0 .cbSavedRegs - = $P $T0 8 + .cbParams + =
STACK WIN 4 bc04 57 1 0 c 4 0 0 1 $T0 $ebp = $eip $T0 4 + ^ = $ebp $T0 ^ = $esp $T0 8 + = $L $T0 .cbSavedRegs - = $P $T0 8 + .cbParams + =
STACK WIN 4 bc05 55 0 0 c 8 0 0 1 $T0 $ebp = $eip $T0 4 + ^ = $ebp $T0 ^ = $esp $T0 8 + = $L $T0 .cbSavedRegs - = $P $T0 8 + .cbParams + =
STACK WIN 4 bc5d 46 2 0 c 0 0 0 1 $T2 $esp .cbLocals + .cbSavedRegs + = $T0 .raSearchStart = $eip $T0 ^ = $esp $T0 4 + =
STACK WIN 4 bc5e 44 1 0 c 4 0 0 1 $T2 $esp .cbLocals + .cbSavedRegs + = $T0 .raSearchStart = $eip $T0 ^ = $esp $T0 4 + =
STACK WIN 4 bc5f 42 0 0 c 8 0 0 1 $T2 $esp .cbLocals + .cbSavedRegs + = $T0 .raSearchStart = $eip $T0 ^ = $esp $T0 4 + =
STACK WIN 4 bca3 f9 6 0 8 0 c 0 1 $T0 $ebp = $eip $T0 4 + ^ = $ebp $T0 ^ = $esp $T0 8 + = $L $T0 .cbSavedRegs - = $P $T0 8 + .cbParams + =
STACK WIN 4 bcb4 e6 0 0 8 4 c 0 1 $T0 $ebp = $eip $T0 4 + ^ = $ebp $T0 ^ = $esp $T0 8 + = $L $T0 .cbSavedRegs - = $P $T0 8 + .cbParams + =
STACK WIN 4 bcb5 e2 0 0 8 8 c 0 1 $T0 $ebp = $eip $T0 4 + ^ = $ebp $T0 ^ = $esp $T0 8 + = $L $T0 .cbSavedRegs - = $P $T0 8 + .cbParams + =
STACK WIN 4 bd9c 37 1 0 0 0 0 0 1 $T2 $esp .cbLocals + .cbSavedRegs + = $T0 .raSearchStart = $eip $T0 ^ = $esp $T0 4 + =
STACK WIN 4 bd9d 35 0 0 0 4 0 0 1 $T2 $esp .cbLocals + .cbSavedRegs + = $T0 .raSearchStart = $eip $T0 ^ = $esp $T0 4 + =
STACK WIN 4 bdd3 23 1 0 4 0 0 0 1 $T2 $esp .cbLocals + .cbSavedRegs + = $T0 .raSearchStart = $eip $T0 ^ = $esp $T0 4 + =
STACK WIN 4 bdd4 21 0 0 4 4 0 0 1 $T2 $esp .cbLocals + .cbSavedRegs + = $T0 .raSearchStart = $eip $T0 ^ = $esp $T0 4 + =
STACK WIN 4 bdf6 35 1 0 8 0 0 0 1 $T2 $esp .cbLocals + .cbSavedRegs + = $T0 .raSearchStart = $eip $T0 ^ = $esp $T0 4 + =
STACK WIN 4 bdf7 33 0 0 8 4 0 0 1 $T2 $esp .cbLocals + .cbSavedRegs + = $T0 .raSearchStart = $eip $T0 ^ = $esp $T0 4 + =
STACK WIN 4 be2b 23 1 0 4 0 0 0 1 $T2 $esp .cbLocals + .cbSavedRegs + = $T0 .raSearchStart = $eip $T0 ^ = $esp $T0 4 + =
STACK WIN 4 be2c 21 0 0 4 4 0 0 1 $T2 $esp .cbLocals + .cbSavedRegs + = $T0 .raSearchStart = $eip $T0 ^ = $esp $T0 4 + =
STACK WIN 4 be4e 3c 1 0 4 0 0 0 1 $T2 $esp .cbLocals + .cbSavedRegs + = $T0 .raSearchStart = $eip $T0 ^ = $esp $T0 4 + =
STACK WIN 4 be4f 3a 0 0 4 4 0 0 1 $T2 $esp .cbLocals + .cbSavedRegs + = $T0 .raSearchStart = $eip $T0 ^ = $esp $T0 4 + =
STACK WIN 4 be8a 22 1 0 4 0 0 0 1 $T2 $esp .cbLocals + .cbSavedRegs + = $T0 .raSearchStart = $eip $T0 ^ = $esp $T0 4 + =
STACK WIN 4 be8b 20 0 0 4 4 0 0 1 $T2 $esp .cbLocals + .cbSavedRegs + = $T0 .raSearchStart = $eip $T0 ^ = $esp $T0 4 + =
STACK WIN 4 beac 22 1 0 4 0 0 0 1 $T2 $esp .cbLocals + .cbSavedRegs + = $T0 .raSearchStart = $eip $T0 ^ = $esp $T0 4 + =
STACK WIN 4 bead 20 0 0 4 4 0 0 1 $T2 $esp .cbLocals + .cbSavedRegs + = $T0 .raSearchStart = $eip $T0 ^ = $esp $T0 4 + =
STACK WIN 4 bece 7e 5 0 8 0 8 0 1 $T0 $ebp = $eip $T0 4 + ^ = $ebp $T0 ^ = $esp $T0 8 + = $L $T0 .cbSavedRegs - = $P $T0 8 + .cbParams + =
STACK WIN 4 befe 4c 0 0 8 4 8 0 1 $T0 $ebp = $eip $T0 4 + ^ = $ebp $T0 ^ = $esp $T0 8 + = $L $T0 .cbSavedRegs - = $P $T0 8 + .cbParams + =
STACK WIN 4 bf4c 32 1 0 8 0 0 0 1 $T2 $esp .cbLocals + .cbSavedRegs + = $T0 .raSearchStart = $eip $T0 ^ = $esp $T0 4 + =
STACK WIN 4 bf4d 30 0 0 8 4 0 0 1 $T2 $esp .cbLocals + .cbSavedRegs + = $T0 .raSearchStart = $eip $T0 ^ = $esp $T0 4 + =
STACK WIN 4 bf7e 46 1 0 4 0 0 0 1 $T2 $esp .cbLocals + .cbSavedRegs + = $T0 .raSearchStart = $eip $T0 ^ = $esp $T0 4 + =
STACK WIN 4 bf7f 44 0 0 4 4 0 0 1 $T2 $esp .cbLocals + .cbSavedRegs + = $T0 .raSearchStart = $eip $T0 ^ = $esp $T0 4 + =
STACK WIN 4 bfc4 2f 0 0 c 0 0 0 1 $T2 $esp .cbLocals + .cbSavedRegs + = $T0 .raSearchStart = $eip $T0 ^ = $esp $T0 4 + =
STACK WIN 4 bff3 175 1b 0 8 0 6c 0 1 $T0 $ebp = $eip $T0 4 + ^ = $ebp $T0 ^ = $esp $T0 8 + = $L $T0 .cbSavedRegs - = $P $T0 8 + .cbParams + =
STACK WIN 4 c004 15d a 0 8 4 6c 0 1 $T0 $ebp = $eip $T0 4 + ^ = $ebp $T0 ^ = $esp $T0 8 + = $L $T0 .cbSavedRegs - = $P $T0 8 + .cbParams + = $ebx $T0 112 - ^ =
STACK WIN 4 c005 159 9 0 8 8 6c 0 1 $T0 $ebp = $eip $T0 4 + ^ = $ebp $T0 ^ = $esp $T0 8 + = $L $T0 .cbSavedRegs - = $P $T0 8 + .cbParams + = $ebx $T0 112 - ^ =
STACK WIN 4 c00e 14f 0 0 8 c 6c 0 1 $T0 $ebp = $eip $T0 4 + ^ = $ebp $T0 ^ = $esp $T0 8 + = $L $T0 .cbSavedRegs - = $P $T0 8 + .cbParams + = $ebx $T0 112 - ^ =
STACK WIN 4 c168 5c 4 0 14 0 0 0 1 $T0 $ebp = $eip $T0 4 + ^ = $ebp $T0 ^ = $esp $T0 8 + = $L $T0 .cbSavedRegs - = $P $T0 8 + .cbParams + =
STACK WIN 4 c16c 56 0 0 14 4 0 0 1 $T0 $ebp = $eip $T0 4 + ^ = $ebp $T0 ^ = $esp $T0 8 + = $L $T0 .cbSavedRegs - = $P $T0 8 + .cbParams + =
STACK WIN 4 c185 3c 0 0 14 8 0 0 1 $T0 $ebp = $eip $T0 4 + ^ = $ebp $T0 ^ = $esp $T0 8 + = $L $T0 .cbSavedRegs - = $P $T0 8 + .cbParams + =
STACK WIN 4 c1c4 6 0 0 8 0 0 0 1 $T2 $esp .cbLocals + .cbSavedRegs + = $T0 .raSearchStart = $eip $T0 ^ = $esp $T0 4 + =
STACK WIN 4 c1ca ce 6 0 18 0 3c 0 1 $T0 $ebp = $eip $T0 4 + ^ = $ebp $T0 ^ = $esp $T0 8 + = $L $T0 .cbSavedRegs - = $P $T0 8 + .cbParams + =
STACK WIN 4 c215 81 0 0 18 4 3c 0 1 $T0 $ebp = $eip $T0 4 + ^ = $ebp $T0 ^ = $esp $T0 8 + = $L $T0 .cbSavedRegs - = $P $T0 8 + .cbParams + = $ebx $T0 64 - ^ =
STACK WIN 4 c219 7c 0 0 18 8 3c 0 1 $T0 $ebp = $eip $T0 4 + ^ = $ebp $T0 ^ = $esp $T0 8 + = $L $T0 .cbSavedRegs - = $P $T0 8 + .cbParams + = $ebx $T0 64 - ^ =
STACK WIN 4 c21a 78 0 0 18 c 3c 0 1 $T0 $ebp = $eip $T0 4 + ^ = $ebp $T0 ^ = $esp $T0 8 + = $L $T0 .cbSavedRegs - = $P $T0 8 + .cbParams + = $ebx $T0 64 - ^ =
STACK WIN 4 c298 ef f 0 10 0 14 0 1 $T0 $ebp = $eip $T0 4 + ^ = $ebp $T0 ^ = $esp $T0 8 + = $L $T0 .cbSavedRegs - = $P $T0 8 + .cbParams + =
STACK WIN 4 c29f e6 8 0 10 4 14 0 1 $T0 $ebp = $eip $T0 4 + ^ = $ebp $T0 ^ = $esp $T0 8 + = $L $T0 .cbSavedRegs - = $P $T0 8 + .cbParams + = $ebx $T0 24 - ^ =
STACK WIN 4 c2a3 e1 4 0 10 8 14 0 1 $T0 $ebp = $eip $T0 4 + ^ = $ebp $T0 ^ = $esp $T0 8 + = $L $T0 .cbSavedRegs - = $P $T0 8 + .cbParams + = $ebx $T0 24 - ^ =
STACK WIN 4 c2a7 dc 0 0 10 c 14 0 1 $T0 $ebp = $eip $T0 4 + ^ = $ebp $T0 ^ = $esp $T0 8 + = $L $T0 .cbSavedRegs - = $P $T0 8 + .cbParams + = $ebx $T0 24 - ^ =
STACK WIN 4 c387 c5 3 0 8 0 0 0 1 $T0 $ebp = $eip $T0 4 + ^ = $ebp $T0 ^ = $esp $T0 8 + = $L $T0 .cbSavedRegs - = $P $T0 8 + .cbParams + =
STACK WIN 4 c44c ce 10 0 1c 0 c 0 1 $T0 $ebp = $eip $T0 4 + ^ = $ebp $T0 ^ = $esp $T0 8 + = $L $T0 .cbSavedRegs - = $P $T0 8 + .cbParams + =
STACK WIN 4 c453 c5 9 0 1c 4 c 0 1 $T0 $ebp = $eip $T0 4 + ^ = $ebp $T0 ^ = $esp $T0 8 + = $L $T0 .cbSavedRegs - = $P $T0 8 + .cbParams + = $ebx $T0 16 - ^ =
STACK WIN 4 c454 c3 8 0 1c 8 c 0 1 $T0 $ebp = $eip $T0 4 + ^ = $ebp $T0 ^ = $esp $T0 8 + = $L $T0 .cbSavedRegs - = $P $T0 8 + .cbParams + = $ebx $T0 16 - ^ =
STACK WIN 4 c45c ba 0 0 1c c c 0 1 $T0 $ebp = $eip $T0 4 + ^ = $ebp $T0 ^ = $esp $T0 8 + = $L $T0 .cbSavedRegs - = $P $T0 8 + .cbParams + = $ebx $T0 16 - ^ =
STACK WIN 4 c51a 96 1 0 8 0 0 0 1 $T2 $esp .cbLocals + .cbSavedRegs + = $T0 .raSearchStart = $eip $T0 ^ = $esp $T0 4 + =
STACK WIN 4 c51b 94 0 0 8 4 0 0 1 $T2 $esp .cbLocals + .cbSavedRegs + = $T0 .raSearchStart = $eip $T0 ^ = $esp $T0 4 + = $ebx $T0 4 - ^ =
STACK WIN 4 c562 3d 0 0 8 8 0 0 1 $T2 $esp .cbLocals + .cbSavedRegs + = $T0 .raSearchStart = $eip $T0 ^ = $esp $T0 4 + = $ebx $T0 4 - ^ =
STACK WIN 4 c5b0 2bf 16 0 14 0 c 0 1 $T0 $ebp = $eip $T0 4 + ^ = $ebp $T0 ^ = $esp $T0 8 + = $L $T0 .cbSavedRegs - = $P $T0 8 + .cbParams + =
STACK WIN 4 c5ba 5d c 0 14 4 c 0 1 $T0 $ebp = $eip $T0 4 + ^ = $ebp $T0 ^ = $esp $T0 8 + = $L $T0 .cbSavedRegs - = $P $T0 8 + .cbParams + = $ebx $T0 16 - ^ =
STACK WIN 4 c5c0 56 6 0 14 8 c 0 1 $T0 $ebp = $eip $T0 4 + ^ = $ebp $T0 ^ = $esp $T0 8 + = $L $T0 .cbSavedRegs - = $P $T0 8 + .cbParams + = $ebx $T0 16 - ^ =
STACK WIN 4 c5c6 4f 0 0 14 c c 0 1 $T0 $ebp = $eip $T0 4 + ^ = $ebp $T0 ^ = $esp $T0 8 + = $L $T0 .cbSavedRegs - = $P $T0 8 + .cbParams + = $ebx $T0 16 - ^ =
STACK WIN 4 c86f 4c 1 0 8 0 0 0 1 $T2 $esp .cbLocals + .cbSavedRegs + = $T0 .raSearchStart = $eip $T0 ^ = $esp $T0 4 + =
STACK WIN 4 c870 4a 0 0 8 4 0 0 1 $T2 $esp .cbLocals + .cbSavedRegs + = $T0 .raSearchStart = $eip $T0 ^ = $esp $T0 4 + =
STACK WIN 4 c879 23 0 0 8 8 0 0 1 $T2 $esp .cbLocals + .cbSavedRegs + = $T0 .raSearchStart = $eip $T0 ^ = $esp $T0 4 + =
STACK WIN 4 c8bb 57 1 0 4 0 0 0 1 $T2 $esp .cbLocals + .cbSavedRegs + = $T0 .raSearchStart = $eip $T0 ^ = $esp $T0 4 + =
STACK WIN 4 c8bc 55 0 0 4 4 0 0 1 $T2 $esp .cbLocals + .cbSavedRegs + = $T0 .raSearchStart = $eip $T0 ^ = $esp $T0 4 + =
STACK WIN 4 c912 35 0 0 c 0 0 0 1 $T2 $esp .cbLocals + .cbSavedRegs + = $T0 .raSearchStart = $eip $T0 ^ = $esp $T0 4 + =
STACK WIN 4 c947 12e 20 0 8 0 64 0 1 $T0 $ebp = $eip $T0 4 + ^ = $ebp $T0 ^ = $esp $T0 8 + = $L $T0 .cbSavedRegs - = $P $T0 8 + .cbParams + =
STACK WIN 4 c958 c0 f 0 8 4 64 0 1 $T0 $ebp = $eip $T0 4 + ^ = $ebp $T0 ^ = $esp $T0 8 + = $L $T0 .cbSavedRegs - = $P $T0 8 + .cbParams + = $ebx $T0 104 - ^ =
STACK WIN 4 c95c b9 b 0 8 8 64 0 1 $T0 $ebp = $eip $T0 4 + ^ = $ebp $T0 ^ = $esp $T0 8 + = $L $T0 .cbSavedRegs - = $P $T0 8 + .cbParams + = $ebx $T0 104 - ^ =
STACK WIN 4 c967 ad 0 0 8 c 64 0 1 $T0 $ebp = $eip $T0 4 + ^ = $ebp $T0 ^ = $esp $T0 8 + = $L $T0 .cbSavedRegs - = $P $T0 8 + .cbParams + = $ebx $T0 104 - ^ =
STACK WIN 4 ca75 e 0 0 4 0 0 0 1 $T2 $esp .cbLocals + .cbSavedRegs + = $T0 .raSearchStart = $eip $T0 ^ = $esp $T0 4 + =
STACK WIN 4 ca83 11c a 0 10 0 4 0 1 $T0 $ebp = $eip $T0 4 + ^ = $ebp $T0 ^ = $esp $T0 8 + = $L $T0 .cbSavedRegs - = $P $T0 8 + .cbParams + =
STACK WIN 4 ca88 115 5 0 10 4 4 0 1 $T0 $ebp = $eip $T0 4 + ^ = $ebp $T0 ^ = $esp $T0 8 + = $L $T0 .cbSavedRegs - = $P $T0 8 + .cbParams + =
STACK WIN 4 cabc e0 0 0 10 8 4 0 1 $T0 $ebp = $eip $T0 4 + ^ = $ebp $T0 ^ = $esp $T0 8 + = $L $T0 .cbSavedRegs - = $P $T0 8 + .cbParams + =
STACK WIN 4 cb9f 40 6 0 10 0 8 0 1 $T0 $ebp = $eip $T0 4 + ^ = $ebp $T0 ^ = $esp $T0 8 + = $L $T0 .cbSavedRegs - = $P $T0 8 + .cbParams + =
STACK WIN 4 cba5 38 0 0 10 4 8 0 1 $T0 $ebp = $eip $T0 4 + ^ = $ebp $T0 ^ = $esp $T0 8 + = $L $T0 .cbSavedRegs - = $P $T0 8 + .cbParams + = $ebx $T0 12 - ^ =
STACK WIN 4 cbdf 21 7 0 18 0 0 0 1 $T0 $ebp = $eip $T0 4 + ^ = $ebp $T0 ^ = $esp $T0 8 + = $L $T0 .cbSavedRegs - = $P $T0 8 + .cbParams + =
STACK WIN 4 cbe6 18 0 0 18 4 0 0 1 $T0 $ebp = $eip $T0 4 + ^ = $ebp $T0 ^ = $esp $T0 8 + = $L $T0 .cbSavedRegs - = $P $T0 8 + .cbParams + = $ebx $T0 4 - ^ =
STACK WIN 4 cc00 4a 5 0 14 0 4 0 1 $T0 $ebp = $eip $T0 4 + ^ = $ebp $T0 ^ = $esp $T0 8 + = $L $T0 .cbSavedRegs - = $P $T0 8 + .cbParams + =
STACK WIN 4 cc05 43 0 0 14 4 4 0 1 $T0 $ebp = $eip $T0 4 + ^ = $ebp $T0 ^ = $esp $T0 8 + = $L $T0 .cbSavedRegs - = $P $T0 8 + .cbParams + = $ebx $T0 8 - ^ =
STACK WIN 4 cc4a a3 11 0 c 0 10 0 1 $T0 $ebp = $eip $T0 4 + ^ = $ebp $T0 ^ = $esp $T0 8 + = $L $T0 .cbSavedRegs - = $P $T0 8 + .cbParams + =
STACK WIN 4 cc55 96 6 0 c 4 10 0 1 $T0 $ebp = $eip $T0 4 + ^ = $ebp $T0 ^ = $esp $T0 8 + = $L $T0 .cbSavedRegs - = $P $T0 8 + .cbParams + = $ebx $T0 20 - ^ =
STACK WIN 4 cc56 94 5 0 c 8 10 0 1 $T0 $ebp = $eip $T0 4 + ^ = $ebp $T0 ^ = $esp $T0 8 + = $L $T0 .cbSavedRegs - = $P $T0 8 + .cbParams + = $ebx $T0 20 - ^ =
STACK WIN 4 cced 21 a 0 18 0 0 0 1 $T0 $ebp = $eip $T0 4 + ^ = $ebp $T0 ^ = $esp $T0 8 + = $L $T0 .cbSavedRegs - = $P $T0 8 + .cbParams + =
STACK WIN 4 ccf7 15 0 0 18 4 0 0 1 $T0 $ebp = $eip $T0 4 + ^ = $ebp $T0 ^ = $esp $T0 8 + = $L $T0 .cbSavedRegs - = $P $T0 8 + .cbParams + =
STACK WIN 4 cd0e 44 5 0 14 0 8 0 1 $T0 $ebp = $eip $T0 4 + ^ = $ebp $T0 ^ = $esp $T0 8 + = $L $T0 .cbSavedRegs - = $P $T0 8 + .cbParams + =
STACK WIN 4 cd3b 15 0 0 14 4 8 0 1 $T0 $ebp = $eip $T0 4 + ^ = $ebp $T0 ^ = $esp $T0 8 + = $L $T0 .cbSavedRegs - = $P $T0 8 + .cbParams + =
STACK WIN 4 cd52 66 4 0 18 0 4 0 1 $T0 $ebp = $eip $T0 4 + ^ = $ebp $T0 ^ = $esp $T0 8 + = $L $T0 .cbSavedRegs - = $P $T0 8 + .cbParams + =
STACK WIN 4 cda1 15 0 0 18 4 4 0 1 $T0 $ebp = $eip $T0 4 + ^ = $ebp $T0 ^ = $esp $T0 8 + = $L $T0 .cbSavedRegs - = $P $T0 8 + .cbParams + =
STACK WIN 4 cdb8 5f 4 0 18 0 0 0 1 $T0 $ebp = $eip $T0 4 + ^ = $ebp $T0 ^ = $esp $T0 8 + = $L $T0 .cbSavedRegs - = $P $T0 8 + .cbParams + =
STACK WIN 4 cdbc 59 0 0 18 4 0 0 1 $T0 $ebp = $eip $T0 4 + ^ = $ebp $T0 ^ = $esp $T0 8 + = $L $T0 .cbSavedRegs - = $P $T0 8 + .cbParams + =
STACK WIN 4 cddc 38 0 0 18 8 0 0 1 $T0 $ebp = $eip $T0 4 + ^ = $ebp $T0 ^ = $esp $T0 8 + = $L $T0 .cbSavedRegs - = $P $T0 8 + .cbParams + =
STACK WIN 4 ce17 27 7 0 20 0 0 0 1 $T0 $ebp = $eip $T0 4 + ^ = $ebp $T0 ^ = $esp $T0 8 + = $L $T0 .cbSavedRegs - = $P $T0 8 + .cbParams + =
STACK WIN 4 ce1e 1e 0 0 20 4 0 0 1 $T0 $ebp = $eip $T0 4 + ^ = $ebp $T0 ^ = $esp $T0 8 + = $L $T0 .cbSavedRegs - = $P $T0 8 + .cbParams + = $ebx $T0 4 - ^ =
STACK WIN 4 ce3e 41 6 0 18 0 8 0 1 $T0 $ebp = $eip $T0 4 + ^ = $ebp $T0 ^ = $esp $T0 8 + = $L $T0 .cbSavedRegs - = $P $T0 8 + .cbParams + =
STACK WIN 4 ce44 39 0 0 18 4 8 0 1 $T0 $ebp = $eip $T0 4 + ^ = $ebp $T0 ^ = $esp $T0 8 + = $L $T0 .cbSavedRegs - = $P $T0 8 + .cbParams + = $ebx $T0 12 - ^ =
STACK WIN 4 ce7f 4d 6 0 1c 0 4 0 1 $T0 $ebp = $eip $T0 4 + ^ = $ebp $T0 ^ = $esp $T0 8 + = $L $T0 .cbSavedRegs - = $P $T0 8 + .cbParams + =
STACK WIN 4 ce84 46 1 0 1c 4 4 0 1 $T0 $ebp = $eip $T0 4 + ^ = $ebp $T0 ^ = $esp $T0 8 + = $L $T0 .cbSavedRegs - = $P $T0 8 + .cbParams + = $ebx $T0 8 - ^ =
STACK WIN 4 ce85 44 0 0 1c 8 4 0 1 $T0 $ebp = $eip $T0 4 + ^ = $ebp $T0 ^ = $esp $T0 8 + = $L $T0 .cbSavedRegs - = $P $T0 8 + .cbParams + = $ebx $T0 8 - ^ =
STACK WIN 4 cecc 50 d 0 8 0 0 0 1 $T2 $esp .cbLocals + .cbSavedRegs + = $T0 .raSearchStart = $eip $T0 ^ = $esp $T0 4 + =
STACK WIN 4 ced4 47 5 0 8 4 0 0 1 $T2 $esp .cbLocals + .cbSavedRegs + = $T0 .raSearchStart = $eip $T0 ^ = $esp $T0 4 + = $ebx $T0 4 - ^ =
STACK WIN 4 ced5 45 4 0 8 8 0 0 1 $T2 $esp .cbLocals + .cbSavedRegs + = $T0 .raSearchStart = $eip $T0 ^ = $esp $T0 4 + = $ebx $T0 4 - ^ =
STACK WIN 4 ced9 40 0 0 8 c 0 0 1 $T2 $esp .cbLocals + .cbSavedRegs + = $T0 .raSearchStart = $eip $T0 ^ = $esp $T0 4 + = $ebx $T0 4 - ^ =
STACK WIN 4 cf1c 76 1b 0 8 0 0 0 1 $T0 $ebp = $eip $T0 4 + ^ = $ebp $T0 ^ = $esp $T0 8 + = $L $T0 .cbSavedRegs - = $P $T0 8 + .cbParams + =
STACK WIN 4 cf2c 54 b 0 8 4 0 0 1 $T0 $ebp = $eip $T0 4 + ^ = $ebp $T0 ^ = $esp $T0 8 + = $L $T0 .cbSavedRegs - = $P $T0 8 + .cbParams + = $ebx $T0 4 - ^ =
STACK WIN 4 cf30 4f 7 0 8 8 0 0 1 $T0 $ebp = $eip $T0 4 + ^ = $ebp $T0 ^ = $esp $T0 8 + = $L $T0 .cbSavedRegs - = $P $T0 8 + .cbParams + = $ebx $T0 4 - ^ =
STACK WIN 4 cf37 47 0 0 8 c 0 0 1 $T0 $ebp = $eip $T0 4 + ^ = $ebp $T0 ^ = $esp $T0 8 + = $L $T0 .cbSavedRegs - = $P $T0 8 + .cbParams + = $ebx $T0 4 - ^ =
STACK WIN 4 cf92 be 11 0 8 0 24 0 1 $T0 $ebp = $eip $T0 4 + ^ = $ebp $T0 ^ = $esp $T0 8 + = $L $T0 .cbSavedRegs - = $P $T0 8 + .cbParams + =
STACK WIN 4 cf9c b2 7 0 8 4 24 0 1 $T0 $ebp = $eip $T0 4 + ^ = $ebp $T0 ^ = $esp $T0 8 + = $L $T0 .cbSavedRegs - = $P $T0 8 + .cbParams + = $ebx $T0 40 - ^ =
STACK WIN 4 cf9d b0 6 0 8 8 24 0 1 $T0 $ebp = $eip $T0 4 + ^ = $ebp $T0 ^ = $esp $T0 8 + = $L $T0 .cbSavedRegs - = $P $T0 8 + .cbParams + = $ebx $T0 40 - ^ =
STACK WIN 4 cfa3 a9 0 0 8 c 24 0 1 $T0 $ebp = $eip $T0 4 + ^ = $ebp $T0 ^ = $esp $T0 8 + = $L $T0 .cbSavedRegs - = $P $T0 8 + .cbParams + = $ebx $T0 40 - ^ =
STACK WIN 4 d050 bc 7 0 4 0 24 0 1 $T0 $ebp = $eip $T0 4 + ^ = $ebp $T0 ^ = $esp $T0 8 + = $L $T0 .cbSavedRegs - = $P $T0 8 + .cbParams + =
STACK WIN 4 d057 b3 0 0 4 4 24 0 1 $T0 $ebp = $eip $T0 4 + ^ = $ebp $T0 ^ = $esp $T0 8 + = $L $T0 .cbSavedRegs - = $P $T0 8 + .cbParams + =
STACK WIN 4 d10c 26 0 0 8 0 0 0 1 $T2 $esp .cbLocals + .cbSavedRegs + = $T0 .raSearchStart = $eip $T0 ^ = $esp $T0 4 + =
STACK WIN 4 d132 2d 0 0 c 0 0 0 1 $T2 $esp .cbLocals + .cbSavedRegs + = $T0 .raSearchStart = $eip $T0 ^ = $esp $T0 4 + =
STACK WIN 4 d15f 10 1 0 4 0 0 0 1 $T2 $esp .cbLocals + .cbSavedRegs + = $T0 .raSearchStart = $eip $T0 ^ = $esp $T0 4 + =
STACK WIN 4 d160 e 0 0 4 4 0 0 1 $T2 $esp .cbLocals + .cbSavedRegs + = $T0 .raSearchStart = $eip $T0 ^ = $esp $T0 4 + =
STACK WIN 4 d16f 13 1 0 8 0 0 0 1 $T2 $esp .cbLocals + .cbSavedRegs + = $T0 .raSearchStart = $eip $T0 ^ = $esp $T0 4 + =
STACK WIN 4 d170 11 0 0 8 4 0 0 1 $T2 $esp .cbLocals + .cbSavedRegs + = $T0 .raSearchStart = $eip $T0 ^ = $esp $T0 4 + =
STACK WIN 4 d182 32 1 0 10 0 0 0 1 $T2 $esp .cbLocals + .cbSavedRegs + = $T0 .raSearchStart = $eip $T0 ^ = $esp $T0 4 + =
STACK WIN 4 d183 30 0 0 10 4 0 0 1 $T2 $esp .cbLocals + .cbSavedRegs + = $T0 .raSearchStart = $eip $T0 ^ = $esp $T0 4 + =
STACK WIN 4 d1b4 56 0 0 c 0 0 0 1 $T2 $esp .cbLocals + .cbSavedRegs + = $T0 .raSearchStart = $eip $T0 ^ = $esp $T0 4 + =
STACK WIN 4 d1bf 4a 0 0 c 4 0 0 1 $T2 $esp .cbLocals + .cbSavedRegs + = $T0 .raSearchStart = $eip $T0 ^ = $esp $T0 4 + =
STACK WIN 4 d1d5 33 0 0 c 8 0 0 1 $T2 $esp .cbLocals + .cbSavedRegs + = $T0 .raSearchStart = $eip $T0 ^ = $esp $T0 4 + =
STACK WIN 4 d20a 2a 1 0 4 0 0 0 1 $T2 $esp .cbLocals + .cbSavedRegs + = $T0 .raSearchStart = $eip $T0 ^ = $esp $T0 4 + =
STACK WIN 4 d20b 28 0 0 4 4 0 0 1 $T2 $esp .cbLocals + .cbSavedRegs + = $T0 .raSearchStart = $eip $T0 ^ = $esp $T0 4 + =
STACK WIN 4 d234 79 4 0 4 0 0 0 1 $T2 $esp .cbLocals + .cbSavedRegs + = $T0 .raSearchStart = $eip $T0 ^ = $esp $T0 4 + =
STACK WIN 4 d235 77 3 0 4 4 0 0 1 $T2 $esp .cbLocals + .cbSavedRegs + = $T0 .raSearchStart = $eip $T0 ^ = $esp $T0 4 + = $ebx $T0 4 - ^ =
STACK WIN 4 d236 75 2 0 4 8 0 0 1 $T2 $esp .cbLocals + .cbSavedRegs + = $T0 .raSearchStart = $eip $T0 ^ = $esp $T0 4 + = $ebx $T0 4 - ^ =
STACK WIN 4 d244 66 0 0 4 c 0 0 1 $T2 $esp .cbLocals + .cbSavedRegs + = $T0 .raSearchStart = $eip $T0 ^ = $esp $T0 4 + = $ebx $T0 4 - ^ =
STACK WIN 4 d2ad 106 4 0 8 0 0 0 1 $T0 $ebp = $eip $T0 4 + ^ = $ebp $T0 ^ = $esp $T0 8 + = $L $T0 .cbSavedRegs - = $P $T0 8 + .cbParams + =
STACK WIN 4 d2b1 100 0 0 8 4 0 0 1 $T0 $ebp = $eip $T0 4 + ^ = $ebp $T0 ^ = $esp $T0 8 + = $L $T0 .cbSavedRegs - = $P $T0 8 + .cbParams + =
STACK WIN 4 d2cd e3 0 0 8 8 0 0 1 $T0 $ebp = $eip $T0 4 + ^ = $ebp $T0 ^ = $esp $T0 8 + = $L $T0 .cbSavedRegs - = $P $T0 8 + .cbParams + = $ebx $T0 8 - ^ =
STACK WIN 4 d2e0 cf 0 0 8 c 0 0 1 $T0 $ebp = $eip $T0 4 + ^ = $ebp $T0 ^ = $esp $T0 8 + = $L $T0 .cbSavedRegs - = $P $T0 8 + .cbParams + = $ebx $T0 8 - ^ =
STACK WIN 4 d3b3 20 1 0 4 0 0 0 1 $T2 $esp .cbLocals + .cbSavedRegs + = $T0 .raSearchStart = $eip $T0 ^ = $esp $T0 4 + =
STACK WIN 4 d3b4 1e 0 0 4 4 0 0 1 $T2 $esp .cbLocals + .cbSavedRegs + = $T0 .raSearchStart = $eip $T0 ^ = $esp $T0 4 + =
STACK WIN 4 d3d3 b 0 0 4 0 0 0 1 $T2 $esp .cbLocals + .cbSavedRegs + = $T0 .raSearchStart = $eip $T0 ^ = $esp $T0 4 + =
STACK WIN 4 d3de e 0 0 4 0 0 0 1 $T2 $esp .cbLocals + .cbSavedRegs + = $T0 .raSearchStart = $eip $T0 ^ = $esp $T0 4 + =
STACK WIN 4 d3ec 35 1 0 4 0 0 0 1 $T2 $esp .cbLocals + .cbSavedRegs + = $T0 .raSearchStart = $eip $T0 ^ = $esp $T0 4 + =
STACK WIN 4 d3ed 30 0 0 4 4 0 0 1 $T2 $esp .cbLocals + .cbSavedRegs + = $T0 .raSearchStart = $eip $T0 ^ = $esp $T0 4 + =
STACK WIN 4 d421 4c c 0 4 0 0 0 1 $T2 $esp .cbLocals + .cbSavedRegs + = $T0 .raSearchStart = $eip $T0 ^ = $esp $T0 4 + =
STACK WIN 4 d422 4a b 0 4 4 0 0 1 $T2 $esp .cbLocals + .cbSavedRegs + = $T0 .raSearchStart = $eip $T0 ^ = $esp $T0 4 + =
STACK WIN 4 d42d 3e 0 0 4 8 0 0 1 $T2 $esp .cbLocals + .cbSavedRegs + = $T0 .raSearchStart = $eip $T0 ^ = $esp $T0 4 + =
STACK WIN 4 d46d 11 0 0 4 0 0 0 1 $T2 $esp .cbLocals + .cbSavedRegs + = $T0 .raSearchStart = $eip $T0 ^ = $esp $T0 4 + =
STACK WIN 4 d47e 1c 0 0 4 0 0 0 1 $T2 $esp .cbLocals + .cbSavedRegs + = $T0 .raSearchStart = $eip $T0 ^ = $esp $T0 4 + =
STACK WIN 4 d49a 10 0 0 4 0 0 0 1 $T2 $esp .cbLocals + .cbSavedRegs + = $T0 .raSearchStart = $eip $T0 ^ = $esp $T0 4 + =
STACK WIN 4 d4aa 31 0 0 4 0 0 0 1 $T2 $esp .cbLocals + .cbSavedRegs + = $T0 .raSearchStart = $eip $T0 ^ = $esp $T0 4 + =
STACK WIN 4 d4db 152 6 0 8 0 c 0 1 $T0 $ebp = $eip $T0 4 + ^ = $ebp $T0 ^ = $esp $T0 8 + = $L $T0 .cbSavedRegs - = $P $T0 8 + .cbParams + =
STACK WIN 4 d62d b9 a 0 8 0 c 0 1 $T0 $ebp = $eip $T0 4 + ^ = $ebp $T0 ^ = $esp $T0 8 + = $L $T0 .cbSavedRegs - = $P $T0 8 + .cbParams + =
STACK WIN 4 d634 6f 3 0 8 4 c 0 1 $T0 $ebp = $eip $T0 4 + ^ = $ebp $T0 ^ = $esp $T0 8 + = $L $T0 .cbSavedRegs - = $P $T0 8 + .cbParams + =
STACK WIN 4 d635 6d 2 0 8 8 c 0 1 $T0 $ebp = $eip $T0 4 + ^ = $ebp $T0 ^ = $esp $T0 8 + = $L $T0 .cbSavedRegs - = $P $T0 8 + .cbParams + =
STACK WIN 4 d645 5c 0 0 8 c c 0 1 $T0 $ebp = $eip $T0 4 + ^ = $ebp $T0 ^ = $esp $T0 8 + = $L $T0 .cbSavedRegs - = $P $T0 8 + .cbParams + = $ebx $T0 24 - ^ =
STACK WIN 4 d6e6 39f 8 0 c 0 70 0 1 $T0 $ebp = $eip $T0 4 + ^ = $ebp $T0 ^ = $esp $T0 8 + = $L $T0 .cbSavedRegs - = $P $T0 8 + .cbParams + =
STACK WIN 4 d6ed 396 1 0 c 4 70 0 1 $T0 $ebp = $eip $T0 4 + ^ = $ebp $T0 ^ = $esp $T0 8 + = $L $T0 .cbSavedRegs - = $P $T0 8 + .cbParams + =
STACK WIN 4 d6ee 394 0 0 c 8 70 0 1 $T0 $ebp = $eip $T0 4 + ^ = $ebp $T0 ^ = $esp $T0 8 + = $L $T0 .cbSavedRegs - = $P $T0 8 + .cbParams + =
STACK WIN 4 d756 32b 0 0 c c 70 0 1 $T0 $ebp = $eip $T0 4 + ^ = $ebp $T0 ^ = $esp $T0 8 + = $L $T0 .cbSavedRegs - = $P $T0 8 + .cbParams + = $ebx $T0 124 - ^ =
STACK WIN 4 da85 f4 6 0 14 0 0 0 1 $T0 $ebp = $eip $T0 4 + ^ = $ebp $T0 ^ = $esp $T0 8 + = $L $T0 .cbSavedRegs - = $P $T0 8 + .cbParams + =
STACK WIN 4 da89 ee 2 0 14 4 0 0 1 $T0 $ebp = $eip $T0 4 + ^ = $ebp $T0 ^ = $esp $T0 8 + = $L $T0 .cbSavedRegs - = $P $T0 8 + .cbParams + = $ebx $T0 4 - ^ =
STACK WIN 4 da8a ec 1 0 14 8 0 0 1 $T0 $ebp = $eip $T0 4 + ^ = $ebp $T0 ^ = $esp $T0 8 + = $L $T0 .cbSavedRegs - = $P $T0 8 + .cbParams + = $ebx $T0 4 - ^ =
STACK WIN 4 da8b ea 0 0 14 c 0 0 1 $T0 $ebp = $eip $T0 4 + ^ = $ebp $T0 ^ = $esp $T0 8 + = $L $T0 .cbSavedRegs - = $P $T0 8 + .cbParams + = $ebx $T0 4 - ^ =
STACK WIN 4 db79 e 0 0 4 0 0 0 1 $T2 $esp .cbLocals + .cbSavedRegs + = $T0 .raSearchStart = $eip $T0 ^ = $esp $T0 4 + =
STACK WIN 4 db87 71 6 0 4 0 c 0 1 $T0 $ebp = $eip $T0 4 + ^ = $ebp $T0 ^ = $esp $T0 8 + = $L $T0 .cbSavedRegs - = $P $T0 8 + .cbParams + =
STACK WIN 4 dbe6 10 0 0 4 4 c 0 1 $T0 $ebp = $eip $T0 4 + ^ = $ebp $T0 ^ = $esp $T0 8 + = $L $T0 .cbSavedRegs - = $P $T0 8 + .cbParams + =
STACK WIN 4 dbf8 72 10 0 8 0 c 0 1 $T0 $ebp = $eip $T0 4 + ^ = $ebp $T0 ^ = $esp $T0 8 + = $L $T0 .cbSavedRegs - = $P $T0 8 + .cbParams + =
STACK WIN 4 dc08 60 0 0 8 4 c 0 1 $T0 $ebp = $eip $T0 4 + ^ = $ebp $T0 ^ = $esp $T0 8 + = $L $T0 .cbSavedRegs - = $P $T0 8 + .cbParams + =
STACK WIN 4 dc1d 4a 0 0 8 8 c 0 1 $T0 $ebp = $eip $T0 4 + ^ = $ebp $T0 ^ = $esp $T0 8 + = $L $T0 .cbSavedRegs - = $P $T0 8 + .cbParams + =
STACK WIN 4 dc6a 1cf 10 0 28 0 30 0 1 $T0 $ebp = $eip $T0 4 + ^ = $ebp $T0 ^ = $esp $T0 8 + = $L $T0 .cbSavedRegs - = $P $T0 8 + .cbParams + =
STACK WIN 4 dc76 1c1 4 0 28 4 30 0 1 $T0 $ebp = $eip $T0 4 + ^ = $ebp $T0 ^ = $esp $T0 8 + = $L $T0 .cbSavedRegs - = $P $T0 8 + .cbParams + = $ebx $T0 52 - ^ =
STACK WIN 4 dc7a 1bc 0 0 28 8 30 0 1 $T0 $ebp = $eip $T0 4 + ^ = $ebp $T0 ^ = $esp $T0 8 + = $L $T0 .cbSavedRegs - = $P $T0 8 + .cbParams + = $ebx $T0 52 - ^ =
STACK WIN 4 dcbd 168 0 0 28 c 30 0 1 $T0 $ebp = $eip $T0 4 + ^ = $ebp $T0 ^ = $esp $T0 8 + = $L $T0 .cbSavedRegs - = $P $T0 8 + .cbParams + = $ebx $T0 52 - ^ =
STACK WIN 4 de39 5 0 0 4 0 0 0 1 $T2 $esp .cbLocals + .cbSavedRegs + = $T0 .raSearchStart = $eip $T0 ^ = $esp $T0 4 + =
STACK WIN 4 de3e 12 0 0 4 0 0 0 1 $T2 $esp .cbLocals + .cbSavedRegs + = $T0 .raSearchStart = $eip $T0 ^ = $esp $T0 4 + =
STACK WIN 4 de50 17 0 0 8 0 0 0 1 $T2 $esp .cbLocals + .cbSavedRegs + = $T0 .raSearchStart = $eip $T0 ^ = $esp $T0 4 + =
STACK WIN 4 de67 b7 b 0 4 0 24 0 1 $T0 $ebp = $eip $T0 4 + ^ = $ebp $T0 ^ = $esp $T0 8 + = $L $T0 .cbSavedRegs - = $P $T0 8 + .cbParams + =
STACK WIN 4 de6e ae 4 0 4 4 24 0 1 $T0 $ebp = $eip $T0 4 + ^ = $ebp $T0 ^ = $esp $T0 8 + = $L $T0 .cbSavedRegs - = $P $T0 8 + .cbParams + = $ebx $T0 40 - ^ =
STACK WIN 4 de71 aa 1 0 4 8 24 0 1 $T0 $ebp = $eip $T0 4 + ^ = $ebp $T0 ^ = $esp $T0 8 + = $L $T0 .cbSavedRegs - = $P $T0 8 + .cbParams + = $ebx $T0 40 - ^ =
STACK WIN 4 de72 a8 0 0 4 c 24 0 1 $T0 $ebp = $eip $T0 4 + ^ = $ebp $T0 ^ = $esp $T0 8 + = $L $T0 .cbSavedRegs - = $P $T0 8 + .cbParams + = $ebx $T0 40 - ^ =
STACK WIN 4 df1e 93 9 0 8 0 14 0 1 $T0 $ebp = $eip $T0 4 + ^ = $ebp $T0 ^ = $esp $T0 8 + = $L $T0 .cbSavedRegs - = $P $T0 8 + .cbParams + =
STACK WIN 4 df25 8a 2 0 8 4 14 0 1 $T0 $ebp = $eip $T0 4 + ^ = $ebp $T0 ^ = $esp $T0 8 + = $L $T0 .cbSavedRegs - = $P $T0 8 + .cbParams + = $ebx $T0 24 - ^ =
STACK WIN 4 df26 88 1 0 8 8 14 0 1 $T0 $ebp = $eip $T0 4 + ^ = $ebp $T0 ^ = $esp $T0 8 + = $L $T0 .cbSavedRegs - = $P $T0 8 + .cbParams + = $ebx $T0 24 - ^ =
STACK WIN 4 df27 86 0 0 8 c 14 0 1 $T0 $ebp = $eip $T0 4 + ^ = $ebp $T0 ^ = $esp $T0 8 + = $L $T0 .cbSavedRegs - = $P $T0 8 + .cbParams + = $ebx $T0 24 - ^ =
STACK WIN 4 dfb1 45 7 0 8 0 0 0 1 $T2 $esp .cbLocals + .cbSavedRegs + = $T0 .raSearchStart = $eip $T0 ^ = $esp $T0 4 + =
STACK WIN 4 dfb2 43 6 0 8 4 0 0 1 $T2 $esp .cbLocals + .cbSavedRegs + = $T0 .raSearchStart = $eip $T0 ^ = $esp $T0 4 + = $ebx $T0 4 - ^ =
STACK WIN 4 dfb3 3f 5 0 8 8 0 0 1 $T2 $esp .cbLocals + .cbSavedRegs + = $T0 .raSearchStart = $eip $T0 ^ = $esp $T0 4 + = $ebx $T0 4 - ^ =
STACK WIN 4 dfb8 39 0 0 8 c 0 0 1 $T2 $esp .cbLocals + .cbSavedRegs + = $T0 .raSearchStart = $eip $T0 ^ = $esp $T0 4 + = $ebx $T0 4 - ^ =
STACK WIN 4 dff6 27 1 0 4 0 0 0 1 $T2 $esp .cbLocals + .cbSavedRegs + = $T0 .raSearchStart = $eip $T0 ^ = $esp $T0 4 + =
STACK WIN 4 dff7 25 0 0 4 4 0 0 1 $T2 $esp .cbLocals + .cbSavedRegs + = $T0 .raSearchStart = $eip $T0 ^ = $esp $T0 4 + =
STACK WIN 4 e01d 50 2 0 c 0 0 0 1 $T2 $esp .cbLocals + .cbSavedRegs + = $T0 .raSearchStart = $eip $T0 ^ = $esp $T0 4 + =
STACK WIN 4 e01e 4e 1 0 c 4 0 0 1 $T2 $esp .cbLocals + .cbSavedRegs + = $T0 .raSearchStart = $eip $T0 ^ = $esp $T0 4 + = $ebx $T0 4 - ^ =
STACK WIN 4 e01f 4c 0 0 c 8 0 0 1 $T2 $esp .cbLocals + .cbSavedRegs + = $T0 .raSearchStart = $eip $T0 ^ = $esp $T0 4 + = $ebx $T0 4 - ^ =
STACK WIN 4 e02f 3b 0 0 c c 0 0 1 $T2 $esp .cbLocals + .cbSavedRegs + = $T0 .raSearchStart = $eip $T0 ^ = $esp $T0 4 + = $ebx $T0 4 - ^ =
STACK WIN 4 e06d 73 6 0 c 0 3c 0 1 $T0 $ebp = $eip $T0 4 + ^ = $ebp $T0 ^ = $esp $T0 8 + = $L $T0 .cbSavedRegs - = $P $T0 8 + .cbParams + =
STACK WIN 4 e0e0 47 6 0 8 0 1c 0 1 $T0 $ebp = $eip $T0 4 + ^ = $ebp $T0 ^ = $esp $T0 8 + = $L $T0 .cbSavedRegs - = $P $T0 8 + .cbParams + =
STACK WIN 4 e127 2a 0 0 c 0 0 0 1 $T2 $esp .cbLocals + .cbSavedRegs + = $T0 .raSearchStart = $eip $T0 ^ = $esp $T0 4 + =
STACK WIN 4 e151 c3 2 0 4 0 0 0 1 $T2 $esp .cbLocals + .cbSavedRegs + = $T0 .raSearchStart = $eip $T0 ^ = $esp $T0 4 + =
STACK WIN 4 e152 c1 1 0 4 4 0 0 1 $T2 $esp .cbLocals + .cbSavedRegs + = $T0 .raSearchStart = $eip $T0 ^ = $esp $T0 4 + = $ebp $T0 4 - ^ =
STACK WIN 4 e153 bf 0 0 4 8 0 0 1 $T2 $esp .cbLocals + .cbSavedRegs + = $T0 .raSearchStart = $eip $T0 ^ = $esp $T0 4 + = $ebp $T0 4 - ^ =
STACK WIN 4 e16c a5 0 0 4 c 0 0 1 $T2 $esp .cbLocals + .cbSavedRegs + = $T0 .raSearchStart = $eip $T0 ^ = $esp $T0 4 + = $ebp $T0 4 - ^ = $ebx $T0 12 - ^ =
STACK WIN 4 e1a7 69 0 0 4 10 0 0 1 $T2 $esp .cbLocals + .cbSavedRegs + = $T0 .raSearchStart = $eip $T0 ^ = $esp $T0 4 + = $ebp $T0 4 - ^ = $ebx $T0 12 - ^ =
STACK WIN 4 e214 12 0 0 4 0 0 0 1 $T2 $esp .cbLocals + .cbSavedRegs + = $T0 .raSearchStart = $eip $T0 ^ = $esp $T0 4 + =
STACK WIN 4 e226 17 0 0 8 0 0 0 1 $T2 $esp .cbLocals + .cbSavedRegs + = $T0 .raSearchStart = $eip $T0 ^ = $esp $T0 4 + =
STACK WIN 4 e23d 31 1 0 4 0 0 0 1 $T2 $esp .cbLocals + .cbSavedRegs + = $T0 .raSearchStart = $eip $T0 ^ = $esp $T0 4 + =
STACK WIN 4 e23e 2f 0 0 4 4 0 0 1 $T2 $esp .cbLocals + .cbSavedRegs + = $T0 .raSearchStart = $eip $T0 ^ = $esp $T0 4 + =
STACK WIN 4 e26e cb 25 0 8 0 3c 0 1 $T0 $ebp = $eip $T0 4 + ^ = $ebp $T0 ^ = $esp $T0 8 + = $L $T0 .cbSavedRegs - = $P $T0 8 + .cbParams + =
STACK WIN 4 e275 7b 1e 0 8 4 3c 0 1 $T0 $ebp = $eip $T0 4 + ^ = $ebp $T0 ^ = $esp $T0 8 + = $L $T0 .cbSavedRegs - = $P $T0 8 + .cbParams + = $ebx $T0 64 - ^ =
STACK WIN 4 e27c 73 17 0 8 8 3c 0 1 $T0 $ebp = $eip $T0 4 + ^ = $ebp $T0 ^ = $esp $T0 8 + = $L $T0 .cbSavedRegs - = $P $T0 8 + .cbParams + = $ebx $T0 64 - ^ =
STACK WIN 4 e293 5b 0 0 8 c 3c 0 1 $T0 $ebp = $eip $T0 4 + ^ = $ebp $T0 ^ = $esp $T0 8 + = $L $T0 .cbSavedRegs - = $P $T0 8 + .cbParams + = $ebx $T0 64 - ^ =
STACK WIN 4 e339 c3 11 0 c 0 3c 0 1 $T0 $ebp = $eip $T0 4 + ^ = $ebp $T0 ^ = $esp $T0 8 + = $L $T0 .cbSavedRegs - = $P $T0 8 + .cbParams + =
STACK WIN 4 e348 6c 2 0 c 4 3c 0 1 $T0 $ebp = $eip $T0 4 + ^ = $ebp $T0 ^ = $esp $T0 8 + = $L $T0 .cbSavedRegs - = $P $T0 8 + .cbParams + = $ebx $T0 64 - ^ =
STACK WIN 4 e349 6a 1 0 c 8 3c 0 1 $T0 $ebp = $eip $T0 4 + ^ = $ebp $T0 ^ = $esp $T0 8 + = $L $T0 .cbSavedRegs - = $P $T0 8 + .cbParams + = $ebx $T0 64 - ^ =
STACK WIN 4 e34a 68 0 0 c c 3c 0 1 $T0 $ebp = $eip $T0 4 + ^ = $ebp $T0 ^ = $esp $T0 8 + = $L $T0 .cbSavedRegs - = $P $T0 8 + .cbParams + = $ebx $T0 64 - ^ =
STACK WIN 4 e3fc 2e 0 0 0 0 0 0 1 $T2 $esp .cbLocals + .cbSavedRegs + = $T0 .raSearchStart = $eip $T0 ^ = $esp $T0 4 + =
STACK WIN 4 e42a 40a 15 0 c 0 a8 0 1 $T0 $ebp 108 + = $eip $T0 4 + ^ = $ebp $T0 ^ = $esp $T0 8 + = $L $T0 .cbSavedRegs - = $P $T0 8 + .cbParams + =
STACK WIN 4 e436 3f9 9 0 c 4 a8 0 1 $T0 $ebp 108 + = $eip $T0 4 + ^ = $ebp $T0 ^ = $esp $T0 8 + = $L $T0 .cbSavedRegs - = $P $T0 8 + .cbParams + = $ebx $T0 172 - ^ =
STACK WIN 4 e43f 3ef 0 0 c 8 a8 0 1 $T0 $ebp 108 + = $eip $T0 4 + ^ = $ebp $T0 ^ = $esp $T0 8 + = $L $T0 .cbSavedRegs - = $P $T0 8 + .cbParams + = $ebx $T0 172 - ^ =
STACK WIN 4 e470 3bd 0 0 c c a8 0 1 $T0 $ebp 108 + = $eip $T0 4 + ^ = $ebp $T0 ^ = $esp $T0 8 + = $L $T0 .cbSavedRegs - = $P $T0 8 + .cbParams + = $ebx $T0 172 - ^ =
STACK WIN 4 e834 39b 14 0 10 0 110 0 1 $T0 $ebp = $eip $T0 4 + ^ = $ebp $T0 ^ = $esp $T0 8 + = $L $T0 .cbSavedRegs - = $P $T0 8 + .cbParams + =
STACK WIN 4 e841 38c 7 0 10 4 110 0 1 $T0 $ebp = $eip $T0 4 + ^ = $ebp $T0 ^ = $esp $T0 8 + = $L $T0 .cbSavedRegs - = $P $T0 8 + .cbParams + = $ebx $T0 276 - ^ =
STACK WIN 4 e844 388 4 0 10 8 110 0 1 $T0 $ebp = $eip $T0 4 + ^ = $ebp $T0 ^ = $esp $T0 8 + = $L $T0 .cbSavedRegs - = $P $T0 8 + .cbParams + = $ebx $T0 276 - ^ =
STACK WIN 4 e848 383 0 0 10 c 110 0 1 $T0 $ebp = $eip $T0 4 + ^ = $ebp $T0 ^ = $esp $T0 8 + = $L $T0 .cbSavedRegs - = $P $T0 8 + .cbParams + = $ebx $T0 276 - ^ =
STACK WIN 4 ebcf 31 0 0 10 0 0 0 1 $T2 $esp .cbLocals + .cbSavedRegs + = $T0 .raSearchStart = $eip $T0 ^ = $esp $T0 4 + =
STACK WIN 4 ec00 1c 3 0 14 0 0 0 1 $T0 $ebp = $eip $T0 4 + ^ = $ebp $T0 ^ = $esp $T0 8 + = $L $T0 .cbSavedRegs - = $P $T0 8 + .cbParams + =
STACK WIN 4 ec1c a91 18 0 20 0 294 0 1 $T0 $ebp 88 + = $eip $T0 4 + ^ = $ebp $T0 ^ = $esp $T0 8 + = $L $T0 .cbSavedRegs - = $P $T0 8 + .cbParams + =
STACK WIN 4 ec28 a80 c 0 20 4 294 0 1 $T0 $ebp 88 + = $eip $T0 4 + ^ = $ebp $T0 ^ = $esp $T0 8 + = $L $T0 .cbSavedRegs - = $P $T0 8 + .cbParams + = $ebx $T0 664 - ^ =
STACK WIN 4 ec30 a77 4 0 20 8 294 0 1 $T0 $ebp 88 + = $eip $T0 4 + ^ = $ebp $T0 ^ = $esp $T0 8 + = $L $T0 .cbSavedRegs - = $P $T0 8 + .cbParams + = $ebx $T0 664 - ^ =
STACK WIN 4 ec34 a72 0 0 20 c 294 0 1 $T0 $ebp 88 + = $eip $T0 4 + ^ = $ebp $T0 ^ = $esp $T0 8 + = $L $T0 .cbSavedRegs - = $P $T0 8 + .cbParams + = $ebx $T0 664 - ^ =
STACK WIN 4 f6ad 23 3 0 18 0 0 0 1 $T0 $ebp = $eip $T0 4 + ^ = $ebp $T0 ^ = $esp $T0 8 + = $L $T0 .cbSavedRegs - = $P $T0 8 + .cbParams + =
STACK WIN 4 f6d0 36 3 0 1c 0 0 0 1 $T0 $ebp = $eip $T0 4 + ^ = $ebp $T0 ^ = $esp $T0 8 + = $L $T0 .cbSavedRegs - = $P $T0 8 + .cbParams + =
STACK WIN 4 f706 272 8 0 18 0 28 0 1 $T0 $ebp = $eip $T0 4 + ^ = $ebp $T0 ^ = $esp $T0 8 + = $L $T0 .cbSavedRegs - = $P $T0 8 + .cbParams + =
STACK WIN 4 f70d 269 1 0 18 4 28 0 1 $T0 $ebp = $eip $T0 4 + ^ = $ebp $T0 ^ = $esp $T0 8 + = $L $T0 .cbSavedRegs - = $P $T0 8 + .cbParams + =
STACK WIN 4 f70e 267 0 0 18 8 28 0 1 $T0 $ebp = $eip $T0 4 + ^ = $ebp $T0 ^ = $esp $T0 8 + = $L $T0 .cbSavedRegs - = $P $T0 8 + .cbParams + =
STACK WIN 4 f752 1bd 0 0 18 c 28 0 1 $T0 $ebp = $eip $T0 4 + ^ = $ebp $T0 ^ = $esp $T0 8 + = $L $T0 .cbSavedRegs - = $P $T0 8 + .cbParams + = $ebx $T0 80 - ^ =
STACK WIN 4 f978 40 5 0 18 0 0 0 1 $T0 $ebp = $eip $T0 4 + ^ = $ebp $T0 ^ = $esp $T0 8 + = $L $T0 .cbSavedRegs - = $P $T0 8 + .cbParams + =
STACK WIN 4 f97c 3a 1 0 18 4 0 0 1 $T0 $ebp = $eip $T0 4 + ^ = $ebp $T0 ^ = $esp $T0 8 + = $L $T0 .cbSavedRegs - = $P $T0 8 + .cbParams + =
STACK WIN 4 f97d 38 0 0 18 8 0 0 1 $T0 $ebp = $eip $T0 4 + ^ = $ebp $T0 ^ = $esp $T0 8 + = $L $T0 .cbSavedRegs - = $P $T0 8 + .cbParams + =
STACK WIN 4 f9b8 8e 9 0 8 0 0 0 1 $T0 $ebp = $eip $T0 4 + ^ = $ebp $T0 ^ = $esp $T0 8 + = $L $T0 .cbSavedRegs - = $P $T0 8 + .cbParams + =
STACK WIN 4 f9c1 83 0 0 8 4 0 0 1 $T0 $ebp = $eip $T0 4 + ^ = $ebp $T0 ^ = $esp $T0 8 + = $L $T0 .cbSavedRegs - = $P $T0 8 + .cbParams + =
STACK WIN 4 f9e1 62 0 0 8 8 0 0 1 $T0 $ebp = $eip $T0 4 + ^ = $ebp $T0 ^ = $esp $T0 8 + = $L $T0 .cbSavedRegs - = $P $T0 8 + .cbParams + = $ebx $T0 8 - ^ =
STACK WIN 4 f9e2 60 0 0 8 c 0 0 1 $T0 $ebp = $eip $T0 4 + ^ = $ebp $T0 ^ = $esp $T0 8 + = $L $T0 .cbSavedRegs - = $P $T0 8 + .cbParams + = $ebx $T0 8 - ^ =
STACK WIN 4 fa46 f0 8 0 8 0 c 0 1 $T0 $ebp = $eip $T0 4 + ^ = $ebp $T0 ^ = $esp $T0 8 + = $L $T0 .cbSavedRegs - = $P $T0 8 + .cbParams + =
STACK WIN 4 fa4d e7 1 0 8 4 c 0 1 $T0 $ebp = $eip $T0 4 + ^ = $ebp $T0 ^ = $esp $T0 8 + = $L $T0 .cbSavedRegs - = $P $T0 8 + .cbParams + =
STACK WIN 4 fa4e e5 0 0 8 8 c 0 1 $T0 $ebp = $eip $T0 4 + ^ = $ebp $T0 ^ = $esp $T0 8 + = $L $T0 .cbSavedRegs - = $P $T0 8 + .cbParams + =
STACK WIN 4 fa97 9b 0 0 8 c c 0 1 $T0 $ebp = $eip $T0 4 + ^ = $ebp $T0 ^ = $esp $T0 8 + = $L $T0 .cbSavedRegs - = $P $T0 8 + .cbParams + = $ebx $T0 24 - ^ =
STACK WIN 4 fb36 cc 8 0 8 0 8 0 1 $T0 $ebp = $eip $T0 4 + ^ = $ebp $T0 ^ = $esp $T0 8 + = $L $T0 .cbSavedRegs - = $P $T0 8 + .cbParams + =
STACK WIN 4 fb3c c4 2 0 8 4 8 0 1 $T0 $ebp = $eip $T0 4 + ^ = $ebp $T0 ^ = $esp $T0 8 + = $L $T0 .cbSavedRegs - = $P $T0 8 + .cbParams + = $ebx $T0 12 - ^ =
STACK WIN 4 fb3d c2 1 0 8 8 8 0 1 $T0 $ebp = $eip $T0 4 + ^ = $ebp $T0 ^ = $esp $T0 8 + = $L $T0 .cbSavedRegs - = $P $T0 8 + .cbParams + = $ebx $T0 12 - ^ =
STACK WIN 4 fb3e c0 0 0 8 c 8 0 1 $T0 $ebp = $eip $T0 4 + ^ = $ebp $T0 ^ = $esp $T0 8 + = $L $T0 .cbSavedRegs - = $P $T0 8 + .cbParams + = $ebx $T0 12 - ^ =
STACK WIN 4 fc02 42 6 0 4 0 0 0 1 $T2 $esp .cbLocals + .cbSavedRegs + = $T0 .raSearchStart = $eip $T0 ^ = $esp $T0 4 + =
STACK WIN 4 fc03 40 5 0 4 4 0 0 1 $T2 $esp .cbLocals + .cbSavedRegs + = $T0 .raSearchStart = $eip $T0 ^ = $esp $T0 4 + =
STACK WIN 4 fc08 3a 0 0 4 8 0 0 1 $T2 $esp .cbLocals + .cbSavedRegs + = $T0 .raSearchStart = $eip $T0 ^ = $esp $T0 4 + =
STACK WIN 4 fc44 e 0 0 4 0 0 0 1 $T2 $esp .cbLocals + .cbSavedRegs + = $T0 .raSearchStart = $eip $T0 ^ = $esp $T0 4 + =
STACK WIN 4 fc52 21 0 0 c 0 0 0 1 $T2 $esp .cbLocals + .cbSavedRegs + = $T0 .raSearchStart = $eip $T0 ^ = $esp $T0 4 + =
STACK WIN 4 fc73 3e 12 0 c 0 0 0 1 $T2 $esp .cbLocals + .cbSavedRegs + = $T0 .raSearchStart = $eip $T0 ^ = $esp $T0 4 + =
STACK WIN 4 fc7b 35 a 0 c 4 0 0 1 $T2 $esp .cbLocals + .cbSavedRegs + = $T0 .raSearchStart = $eip $T0 ^ = $esp $T0 4 + =
STACK WIN 4 fc85 2a 0 0 c 8 0 0 1 $T2 $esp .cbLocals + .cbSavedRegs + = $T0 .raSearchStart = $eip $T0 ^ = $esp $T0 4 + =
STACK WIN 4 fcb1 be 5 0 8 0 4 0 1 $T0 $ebp = $eip $T0 4 + ^ = $ebp $T0 ^ = $esp $T0 8 + = $L $T0 .cbSavedRegs - = $P $T0 8 + .cbParams + =
STACK WIN 4 fcb6 b7 0 0 8 4 4 0 1 $T0 $ebp = $eip $T0 4 + ^ = $ebp $T0 ^ = $esp $T0 8 + = $L $T0 .cbSavedRegs - = $P $T0 8 + .cbParams + =
STACK WIN 4 fce2 8a 0 0 8 8 4 0 1 $T0 $ebp = $eip $T0 4 + ^ = $ebp $T0 ^ = $esp $T0 8 + = $L $T0 .cbSavedRegs - = $P $T0 8 + .cbParams + =
STACK WIN 4 fd6f 110 12 0 c 0 c 0 1 $T0 $ebp = $eip $T0 4 + ^ = $ebp $T0 ^ = $esp $T0 8 + = $L $T0 .cbSavedRegs - = $P $T0 8 + .cbParams + =
STACK WIN 4 fd7a 103 7 0 c 4 c 0 1 $T0 $ebp = $eip $T0 4 + ^ = $ebp $T0 ^ = $esp $T0 8 + = $L $T0 .cbSavedRegs - = $P $T0 8 + .cbParams + = $ebx $T0 16 - ^ =
STACK WIN 4 fd80 fc 1 0 c 8 c 0 1 $T0 $ebp = $eip $T0 4 + ^ = $ebp $T0 ^ = $esp $T0 8 + = $L $T0 .cbSavedRegs - = $P $T0 8 + .cbParams + = $ebx $T0 16 - ^ =
STACK WIN 4 fd81 fa 0 0 c c c 0 1 $T0 $ebp = $eip $T0 4 + ^ = $ebp $T0 ^ = $esp $T0 8 + = $L $T0 .cbSavedRegs - = $P $T0 8 + .cbParams + = $ebx $T0 16 - ^ =
STACK WIN 4 fe7f b3 17 0 c 0 8 0 1 $T0 $ebp = $eip $T0 4 + ^ = $ebp $T0 ^ = $esp $T0 8 + = $L $T0 .cbSavedRegs - = $P $T0 8 + .cbParams + =
STACK WIN 4 fe89 a7 d 0 c 4 8 0 1 $T0 $ebp = $eip $T0 4 + ^ = $ebp $T0 ^ = $esp $T0 8 + = $L $T0 .cbSavedRegs - = $P $T0 8 + .cbParams + = $ebx $T0 12 - ^ =
STACK WIN 4 fe8a a5 c 0 c 8 8 0 1 $T0 $ebp = $eip $T0 4 + ^ = $ebp $T0 ^ = $esp $T0 8 + = $L $T0 .cbSavedRegs - = $P $T0 8 + .cbParams + = $ebx $T0 12 - ^ =
STACK WIN 4 fe96 98 0 0 c c 8 0 1 $T0 $ebp = $eip $T0 4 + ^ = $ebp $T0 ^ = $esp $T0 8 + = $L $T0 .cbSavedRegs - = $P $T0 8 + .cbParams + = $ebx $T0 12 - ^ =
STACK WIN 4 ff32 a 0 0 4 0 0 0 1 $T2 $esp .cbLocals + .cbSavedRegs + = $T0 .raSearchStart = $eip $T0 ^ = $esp $T0 4 + =
STACK WIN 4 ff3c 50 1 0 0 0 0 0 1 $T2 $esp .cbLocals + .cbSavedRegs + = $T0 .raSearchStart = $eip $T0 ^ = $esp $T0 4 + =
STACK WIN 4 ff3d 4e 0 0 0 4 0 0 1 $T2 $esp .cbLocals + .cbSavedRegs + = $T0 .raSearchStart = $eip $T0 ^ = $esp $T0 4 + = $ebx $T0 4 - ^ =
STACK WIN 4 ff49 41 0 0 0 8 0 0 1 $T2 $esp .cbLocals + .cbSavedRegs + = $T0 .raSearchStart = $eip $T0 ^ = $esp $T0 4 + = $ebx $T0 4 - ^ =
STACK WIN 4 ff5c 26 0 0 0 c 0 0 1 $T2 $esp .cbLocals + .cbSavedRegs + = $T0 .raSearchStart = $eip $T0 ^ = $esp $T0 4 + = $ebx $T0 4 - ^ =
STACK WIN 4 ff8c 8 0 0 4 0 0 0 1 $T2 $esp .cbLocals + .cbSavedRegs + = $T0 .raSearchStart = $eip $T0 ^ = $esp $T0 4 + =
STACK WIN 4 ff94 b 0 0 4 0 0 0 1 $T2 $esp .cbLocals + .cbSavedRegs + = $T0 .raSearchStart = $eip $T0 ^ = $esp $T0 4 + =
STACK WIN 4 ff9f 30 1 0 4 0 0 0 1 $T2 $esp .cbLocals + .cbSavedRegs + = $T0 .raSearchStart = $eip $T0 ^ = $esp $T0 4 + =
STACK WIN 4 ffa0 2e 0 0 4 4 0 0 1 $T2 $esp .cbLocals + .cbSavedRegs + = $T0 .raSearchStart = $eip $T0 ^ = $esp $T0 4 + =
STACK WIN 4 ffcf 1e 2 0 0 0 0 0 1 $T2 $esp .cbLocals + .cbSavedRegs + = $T0 .raSearchStart = $eip $T0 ^ = $esp $T0 4 + =
STACK WIN 4 ffd0 1c 1 0 0 4 0 0 1 $T2 $esp .cbLocals + .cbSavedRegs + = $T0 .raSearchStart = $eip $T0 ^ = $esp $T0 4 + =
STACK WIN 4 ffd1 1a 0 0 0 8 0 0 1 $T2 $esp .cbLocals + .cbSavedRegs + = $T0 .raSearchStart = $eip $T0 ^ = $esp $T0 4 + =
STACK WIN 4 ffed 24 0 0 c 0 0 0 1 $T2 $esp .cbLocals + .cbSavedRegs + = $T0 .raSearchStart = $eip $T0 ^ = $esp $T0 4 + =
STACK WIN 4 10011 145 15 0 8 0 10 0 1 $T0 $ebp = $eip $T0 4 + ^ = $ebp $T0 ^ = $esp $T0 8 + = $L $T0 .cbSavedRegs - = $P $T0 8 + .cbParams + =
STACK WIN 4 1001f 135 7 0 8 4 10 0 1 $T0 $ebp = $eip $T0 4 + ^ = $ebp $T0 ^ = $esp $T0 8 + = $L $T0 .cbSavedRegs - = $P $T0 8 + .cbParams + =
STACK WIN 4 10026 12d 0 0 8 8 10 0 1 $T0 $ebp = $eip $T0 4 + ^ = $ebp $T0 ^ = $esp $T0 8 + = $L $T0 .cbSavedRegs - = $P $T0 8 + .cbParams + =
STACK WIN 4 10083 53 0 0 8 c 10 0 1 $T0 $ebp = $eip $T0 4 + ^ = $ebp $T0 ^ = $esp $T0 8 + = $L $T0 .cbSavedRegs - = $P $T0 8 + .cbParams + = $ebx $T0 28 - ^ =
STACK WIN 4 10156 1f 0 0 8 0 0 0 1 $T2 $esp .cbLocals + .cbSavedRegs + = $T0 .raSearchStart = $eip $T0 ^ = $esp $T0 4 + =
STACK WIN 4 10175 11e a 0 c 0 4 0 1 $T0 $ebp = $eip $T0 4 + ^ = $ebp $T0 ^ = $esp $T0 8 + = $L $T0 .cbSavedRegs - = $P $T0 8 + .cbParams + =
STACK WIN 4 1017e 113 1 0 c 4 4 0 1 $T0 $ebp = $eip $T0 4 + ^ = $ebp $T0 ^ = $esp $T0 8 + = $L $T0 .cbSavedRegs - = $P $T0 8 + .cbParams + = $ebx $T0 8 - ^ =
STACK WIN 4 1017f 111 0 0 c 8 4 0 1 $T0 $ebp = $eip $T0 4 + ^ = $ebp $T0 ^ = $esp $T0 8 + = $L $T0 .cbSavedRegs - = $P $T0 8 + .cbParams + = $ebx $T0 8 - ^ =
STACK WIN 4 101c9 94 0 0 c c 4 0 1 $T0 $ebp = $eip $T0 4 + ^ = $ebp $T0 ^ = $esp $T0 8 + = $L $T0 .cbSavedRegs - = $P $T0 8 + .cbParams + = $ebx $T0 8 - ^ =
STACK WIN 4 10293 83 a 0 8 0 0 0 1 $T2 $esp .cbLocals + .cbSavedRegs + = $T0 .raSearchStart = $eip $T0 ^ = $esp $T0 4 + =
STACK WIN 4 10294 81 9 0 8 4 0 0 1 $T2 $esp .cbLocals + .cbSavedRegs + = $T0 .raSearchStart = $eip $T0 ^ = $esp $T0 4 + =
STACK WIN 4 1029d 77 0 0 8 8 0 0 1 $T2 $esp .cbLocals + .cbSavedRegs + = $T0 .raSearchStart = $eip $T0 ^ = $esp $T0 4 + =
STACK WIN 4 10316 1e 3 0 c 0 0 0 1 $T0 $ebp = $eip $T0 4 + ^ = $ebp $T0 ^ = $esp $T0 8 + = $L $T0 .cbSavedRegs - = $P $T0 8 + .cbParams + =
STACK WIN 4 10334 2b 1 0 c 0 0 0 1 $T2 $esp .cbLocals + .cbSavedRegs + = $T0 .raSearchStart = $eip $T0 ^ = $esp $T0 4 + =
STACK WIN 4 10335 29 0 0 c 4 0 0 1 $T2 $esp .cbLocals + .cbSavedRegs + = $T0 .raSearchStart = $eip $T0 ^ = $esp $T0 4 + =
STACK WIN 4 1035f 23 0 0 8 0 0 0 1 $T2 $esp .cbLocals + .cbSavedRegs + = $T0 .raSearchStart = $eip $T0 ^ = $esp $T0 4 + =
STACK WIN 4 10382 138 21 0 8 0 24 0 1 $T0 $ebp = $eip $T0 4 + ^ = $ebp $T0 ^ = $esp $T0 8 + = $L $T0 .cbSavedRegs - = $P $T0 8 + .cbParams + =
STACK WIN 4 10396 11d d 0 8 4 24 0 1 $T0 $ebp = $eip $T0 4 + ^ = $ebp $T0 ^ = $esp $T0 8 + = $L $T0 .cbSavedRegs - = $P $T0 8 + .cbParams + = $ebx $T0 40 - ^ =
STACK WIN 4 10397 119 c 0 8 8 24 0 1 $T0 $ebp = $eip $T0 4 + ^ = $ebp $T0 ^ = $esp $T0 8 + = $L $T0 .cbSavedRegs - = $P $T0 8 + .cbParams + = $ebx $T0 40 - ^ =
STACK WIN 4 1039d 112 6 0 8 c 24 0 1 $T0 $ebp = $eip $T0 4 + ^ = $ebp $T0 ^ = $esp $T0 8 + = $L $T0 .cbSavedRegs - = $P $T0 8 + .cbParams + = $ebx $T0 40 - ^ =
STACK WIN 4 104ba 10b 7 0 c 0 c 0 1 $T0 $ebp = $eip $T0 4 + ^ = $ebp $T0 ^ = $esp $T0 8 + = $L $T0 .cbSavedRegs - = $P $T0 8 + .cbParams + =
STACK WIN 4 104c1 102 0 0 c 4 c 0 1 $T0 $ebp = $eip $T0 4 + ^ = $ebp $T0 ^ = $esp $T0 8 + = $L $T0 .cbSavedRegs - = $P $T0 8 + .cbParams + = $ebx $T0 16 - ^ =
STACK WIN 4 104d5 ed 0 0 c 8 c 0 1 $T0 $ebp = $eip $T0 4 + ^ = $ebp $T0 ^ = $esp $T0 8 + = $L $T0 .cbSavedRegs - = $P $T0 8 + .cbParams + = $ebx $T0 16 - ^ =
STACK WIN 4 104d6 eb 0 0 c c c 0 1 $T0 $ebp = $eip $T0 4 + ^ = $ebp $T0 ^ = $esp $T0 8 + = $L $T0 .cbSavedRegs - = $P $T0 8 + .cbParams + = $ebx $T0 16 - ^ =
STACK WIN 4 105c5 64 8 0 8 0 c 0 1 $T0 $ebp = $eip $T0 4 + ^ = $ebp $T0 ^ = $esp $T0 8 + = $L $T0 .cbSavedRegs - = $P $T0 8 + .cbParams + =
STACK WIN 4 105cc 5b 1 0 8 4 c 0 1 $T0 $ebp = $eip $T0 4 + ^ = $ebp $T0 ^ = $esp $T0 8 + = $L $T0 .cbSavedRegs - = $P $T0 8 + .cbParams + = $ebx $T0 16 - ^ =
STACK WIN 4 105cd 59 0 0 8 8 c 0 1 $T0 $ebp = $eip $T0 4 + ^ = $ebp $T0 ^ = $esp $T0 8 + = $L $T0 .cbSavedRegs - = $P $T0 8 + .cbParams + = $ebx $T0 16 - ^ =
STACK WIN 4 10629 ee 7 0 10 0 20 0 1 $T0 $ebp = $eip $T0 4 + ^ = $ebp $T0 ^ = $esp $T0 8 + = $L $T0 .cbSavedRegs - = $P $T0 8 + .cbParams + =
STACK WIN 4 10630 e5 0 0 10 4 20 0 1 $T0 $ebp = $eip $T0 4 + ^ = $ebp $T0 ^ = $esp $T0 8 + = $L $T0 .cbSavedRegs - = $P $T0 8 + .cbParams + =
STACK WIN 4 10672 a2 0 0 10 8 20 0 1 $T0 $ebp = $eip $T0 4 + ^ = $ebp $T0 ^ = $esp $T0 8 + = $L $T0 .cbSavedRegs - = $P $T0 8 + .cbParams + =
STACK WIN 4 10717 163 7 0 c 0 4 0 1 $T0 $ebp = $eip $T0 4 + ^ = $ebp $T0 ^ = $esp $T0 8 + = $L $T0 .cbSavedRegs - = $P $T0 8 + .cbParams + =
STACK WIN 4 1071c 15c 2 0 c 4 4 0 1 $T0 $ebp = $eip $T0 4 + ^ = $ebp $T0 ^ = $esp $T0 8 + = $L $T0 .cbSavedRegs - = $P $T0 8 + .cbParams + = $ebx $T0 8 - ^ =
STACK WIN 4 1071d 15a 1 0 c 8 4 0 1 $T0 $ebp = $eip $T0 4 + ^ = $ebp $T0 ^ = $esp $T0 8 + = $L $T0 .cbSavedRegs - = $P $T0 8 + .cbParams + = $ebx $T0 8 - ^ =
STACK WIN 4 1071e 158 0 0 c c 4 0 1 $T0 $ebp = $eip $T0 4 + ^ = $ebp $T0 ^ = $esp $T0 8 + = $L $T0 .cbSavedRegs - = $P $T0 8 + .cbParams + = $ebx $T0 8 - ^ =
STACK WIN 4 1087a 38 5 0 4 0 0 0 1 $T2 $esp .cbLocals + .cbSavedRegs + = $T0 .raSearchStart = $eip $T0 ^ = $esp $T0 4 + =
STACK WIN 4 1087f 32 0 0 4 4 0 0 1 $T2 $esp .cbLocals + .cbSavedRegs + = $T0 .raSearchStart = $eip $T0 ^ = $esp $T0 4 + =
STACK WIN 4 108b2 16 0 0 8 0 0 0 1 $T2 $esp .cbLocals + .cbSavedRegs + = $T0 .raSearchStart = $eip $T0 ^ = $esp $T0 4 + =
STACK WIN 4 108c8 4c 7 0 c 0 14 0 1 $T0 $ebp = $eip $T0 4 + ^ = $ebp $T0 ^ = $esp $T0 8 + = $L $T0 .cbSavedRegs - = $P $T0 8 + .cbParams + =
STACK WIN 4 108cf 43 0 0 c 4 14 0 1 $T0 $ebp = $eip $T0 4 + ^ = $ebp $T0 ^ = $esp $T0 8 + = $L $T0 .cbSavedRegs - = $P $T0 8 + .cbParams + =
STACK WIN 4 10914 a4 6 0 c 0 8 0 1 $T0 $ebp = $eip $T0 4 + ^ = $ebp $T0 ^ = $esp $T0 8 + = $L $T0 .cbSavedRegs - = $P $T0 8 + .cbParams + =
STACK WIN 4 1091a 9c 0 0 c 4 8 0 1 $T0 $ebp = $eip $T0 4 + ^ = $ebp $T0 ^ = $esp $T0 8 + = $L $T0 .cbSavedRegs - = $P $T0 8 + .cbParams + =
STACK WIN 4 1092e 87 0 0 c 8 8 0 1 $T0 $ebp = $eip $T0 4 + ^ = $ebp $T0 ^ = $esp $T0 8 + = $L $T0 .cbSavedRegs - = $P $T0 8 + .cbParams + =
STACK WIN 4 10959 52 0 0 c c 8 0 1 $T0 $ebp = $eip $T0 4 + ^ = $ebp $T0 ^ = $esp $T0 8 + = $L $T0 .cbSavedRegs - = $P $T0 8 + .cbParams + = $ebx $T0 32 - ^ =
STACK WIN 4 109b8 208 a 0 8 0 1c 0 1 $T0 $ebp = $eip $T0 4 + ^ = $ebp $T0 ^ = $esp $T0 8 + = $L $T0 .cbSavedRegs - = $P $T0 8 + .cbParams + =
STACK WIN 4 109bf 1ff 3 0 8 4 1c 0 1 $T0 $ebp = $eip $T0 4 + ^ = $ebp $T0 ^ = $esp $T0 8 + = $L $T0 .cbSavedRegs - = $P $T0 8 + .cbParams + = $ebx $T0 32 - ^ =
STACK WIN 4 109c2 1fb 0 0 8 8 1c 0 1 $T0 $ebp = $eip $T0 4 + ^ = $ebp $T0 ^ = $esp $T0 8 + = $L $T0 .cbSavedRegs - = $P $T0 8 + .cbParams + = $ebx $T0 32 - ^ =
STACK WIN 4 109ea 1d2 0 0 8 c 1c 0 1 $T0 $ebp = $eip $T0 4 + ^ = $ebp $T0 ^ = $esp $T0 8 + = $L $T0 .cbSavedRegs - = $P $T0 8 + .cbParams + = $ebx $T0 32 - ^ =
STACK WIN 4 10bc0 80 7 0 c 0 8 0 1 $T0 $ebp = $eip $T0 4 + ^ = $ebp $T0 ^ = $esp $T0 8 + = $L $T0 .cbSavedRegs - = $P $T0 8 + .cbParams + =
STACK WIN 4 10bc6 78 1 0 c 4 8 0 1 $T0 $ebp = $eip $T0 4 + ^ = $ebp $T0 ^ = $esp $T0 8 + = $L $T0 .cbSavedRegs - = $P $T0 8 + .cbParams + = $ebx $T0 12 - ^ =
STACK WIN 4 10bc7 76 0 0 c 8 8 0 1 $T0 $ebp = $eip $T0 4 + ^ = $ebp $T0 ^ = $esp $T0 8 + = $L $T0 .cbSavedRegs - = $P $T0 8 + .cbParams + = $ebx $T0 12 - ^ =
STACK WIN 4 10bdd 5f 0 0 c c 8 0 1 $T0 $ebp = $eip $T0 4 + ^ = $ebp $T0 ^ = $esp $T0 8 + = $L $T0 .cbSavedRegs - = $P $T0 8 + .cbParams + = $ebx $T0 12 - ^ =
STACK WIN 4 10c40 7f 5 0 8 0 8 0 1 $T0 $ebp = $eip $T0 4 + ^ = $ebp $T0 ^ = $esp $T0 8 + = $L $T0 .cbSavedRegs - = $P $T0 8 + .cbParams + =
STACK WIN 4 10cbf 233 a 0 8 0 20 0 1 $T0 $ebp = $eip $T0 4 + ^ = $ebp $T0 ^ = $esp $T0 8 + = $L $T0 .cbSavedRegs - = $P $T0 8 + .cbParams + =
STACK WIN 4 10cc6 22a 3 0 8 4 20 0 1 $T0 $ebp = $eip $T0 4 + ^ = $ebp $T0 ^ = $esp $T0 8 + = $L $T0 .cbSavedRegs - = $P $T0 8 + .cbParams + = $ebx $T0 36 - ^ =
STACK WIN 4 10cc9 226 0 0 8 8 20 0 1 $T0 $ebp = $eip $T0 4 + ^ = $ebp $T0 ^ = $esp $T0 8 + = $L $T0 .cbSavedRegs - = $P $T0 8 + .cbParams + = $ebx $T0 36 - ^ =
STACK WIN 4 10cee 200 0 0 8 c 20 0 1 $T0 $ebp = $eip $T0 4 + ^ = $ebp $T0 ^ = $esp $T0 8 + = $L $T0 .cbSavedRegs - = $P $T0 8 + .cbParams + = $ebx $T0 36 - ^ =
STACK WIN 4 10ef2 50 1 0 4 0 0 0 1 $T2 $esp .cbLocals + .cbSavedRegs + = $T0 .raSearchStart = $eip $T0 ^ = $esp $T0 4 + =
STACK WIN 4 10ef3 4e 0 0 4 4 0 0 1 $T2 $esp .cbLocals + .cbSavedRegs + = $T0 .raSearchStart = $eip $T0 ^ = $esp $T0 4 + =
STACK WIN 4 10f0a 36 0 0 4 8 0 0 1 $T2 $esp .cbLocals + .cbSavedRegs + = $T0 .raSearchStart = $eip $T0 ^ = $esp $T0 4 + =
STACK WIN 4 10f42 2c 1 0 4 0 0 0 1 $T2 $esp .cbLocals + .cbSavedRegs + = $T0 .raSearchStart = $eip $T0 ^ = $esp $T0 4 + =
STACK WIN 4 10f43 2a 0 0 4 4 0 0 1 $T2 $esp .cbLocals + .cbSavedRegs + = $T0 .raSearchStart = $eip $T0 ^ = $esp $T0 4 + =
STACK WIN 4 10f56 16 0 0 4 8 0 0 1 $T2 $esp .cbLocals + .cbSavedRegs + = $T0 .raSearchStart = $eip $T0 ^ = $esp $T0 4 + =
STACK WIN 4 10f6e 21b 9 0 14 0 34 0 1 $T0 $ebp = $eip $T0 4 + ^ = $ebp $T0 ^ = $esp $T0 8 + = $L $T0 .cbSavedRegs - = $P $T0 8 + .cbParams + =
STACK WIN 4 10f75 212 2 0 14 4 34 0 1 $T0 $ebp = $eip $T0 4 + ^ = $ebp $T0 ^ = $esp $T0 8 + = $L $T0 .cbSavedRegs - = $P $T0 8 + .cbParams + = $ebx $T0 56 - ^ =
STACK WIN 4 10f76 210 1 0 14 8 34 0 1 $T0 $ebp = $eip $T0 4 + ^ = $ebp $T0 ^ = $esp $T0 8 + = $L $T0 .cbSavedRegs - = $P $T0 8 + .cbParams + = $ebx $T0 56 - ^ =
STACK WIN 4 10f77 20e 0 0 14 c 34 0 1 $T0 $ebp = $eip $T0 4 + ^ = $ebp $T0 ^ = $esp $T0 8 + = $L $T0 .cbSavedRegs - = $P $T0 8 + .cbParams + = $ebx $T0 56 - ^ =
STACK WIN 4 11189 4a 4 0 14 0 0 0 1 $T0 $ebp = $eip $T0 4 + ^ = $ebp $T0 ^ = $esp $T0 8 + = $L $T0 .cbSavedRegs - = $P $T0 8 + .cbParams + =
STACK WIN 4 1118d 44 0 0 14 4 0 0 1 $T0 $ebp = $eip $T0 4 + ^ = $ebp $T0 ^ = $esp $T0 8 + = $L $T0 .cbSavedRegs - = $P $T0 8 + .cbParams + =
STACK WIN 4 111b0 20 0 0 14 8 0 0 1 $T0 $ebp = $eip $T0 4 + ^ = $ebp $T0 ^ = $esp $T0 8 + = $L $T0 .cbSavedRegs - = $P $T0 8 + .cbParams + =
STACK WIN 4 111d3 60 8 0 10 0 0 0 1 $T0 $ebp = $eip $T0 4 + ^ = $ebp $T0 ^ = $esp $T0 8 + = $L $T0 .cbSavedRegs - = $P $T0 8 + .cbParams + =
STACK WIN 4 111d7 5a 4 0 10 4 0 0 1 $T0 $ebp = $eip $T0 4 + ^ = $ebp $T0 ^ = $esp $T0 8 + = $L $T0 .cbSavedRegs - = $P $T0 8 + .cbParams + =
STACK WIN 4 111db 55 0 0 10 8 0 0 1 $T0 $ebp = $eip $T0 4 + ^ = $ebp $T0 ^ = $esp $T0 8 + = $L $T0 .cbSavedRegs - = $P $T0 8 + .cbParams + =
STACK WIN 4 11233 d5 12 0 c 0 1c 0 1 $T0 $ebp = $eip $T0 4 + ^ = $ebp $T0 ^ = $esp $T0 8 + = $L $T0 .cbSavedRegs - = $P $T0 8 + .cbParams + =
STACK WIN 4 1123e c8 7 0 c 4 1c 0 1 $T0 $ebp = $eip $T0 4 + ^ = $ebp $T0 ^ = $esp $T0 8 + = $L $T0 .cbSavedRegs - = $P $T0 8 + .cbParams + =
STACK WIN 4 11245 c0 0 0 c 8 1c 0 1 $T0 $ebp = $eip $T0 4 + ^ = $ebp $T0 ^ = $esp $T0 8 + = $L $T0 .cbSavedRegs - = $P $T0 8 + .cbParams + =
STACK WIN 4 1129a 6a 0 0 c c 1c 0 1 $T0 $ebp = $eip $T0 4 + ^ = $ebp $T0 ^ = $esp $T0 8 + = $L $T0 .cbSavedRegs - = $P $T0 8 + .cbParams + = $ebx $T0 56 - ^ =
STACK WIN 4 11308 f9 8 0 c 0 c 0 1 $T0 $ebp = $eip $T0 4 + ^ = $ebp $T0 ^ = $esp $T0 8 + = $L $T0 .cbSavedRegs - = $P $T0 8 + .cbParams + =
STACK WIN 4 1130f f0 1 0 c 4 c 0 1 $T0 $ebp = $eip $T0 4 + ^ = $ebp $T0 ^ = $esp $T0 8 + = $L $T0 .cbSavedRegs - = $P $T0 8 + .cbParams + =
STACK WIN 4 11310 ee 0 0 c 8 c 0 1 $T0 $ebp = $eip $T0 4 + ^ = $ebp $T0 ^ = $esp $T0 8 + = $L $T0 .cbSavedRegs - = $P $T0 8 + .cbParams + =
STACK WIN 4 1134d 7d 0 0 c c c 0 1 $T0 $ebp = $eip $T0 4 + ^ = $ebp $T0 ^ = $esp $T0 8 + = $L $T0 .cbSavedRegs - = $P $T0 8 + .cbParams + = $ebx $T0 44 - ^ =
STACK WIN 4 11401 38 1 0 c 0 0 0 1 $T2 $esp .cbLocals + .cbSavedRegs + = $T0 .raSearchStart = $eip $T0 ^ = $esp $T0 4 + =
STACK WIN 4 11402 36 0 0 c 4 0 0 1 $T2 $esp .cbLocals + .cbSavedRegs + = $T0 .raSearchStart = $eip $T0 ^ = $esp $T0 4 + =
STACK WIN 4 1141b 1c 0 0 c 8 0 0 1 $T2 $esp .cbLocals + .cbSavedRegs + = $T0 .raSearchStart = $eip $T0 ^ = $esp $T0 4 + =
STACK WIN 4 11439 4f 5 0 c 0 4 0 1 $T0 $ebp = $eip $T0 4 + ^ = $ebp $T0 ^ = $esp $T0 8 + = $L $T0 .cbSavedRegs - = $P $T0 8 + .cbParams + =
STACK WIN 4 1143e 48 0 0 c 4 4 0 1 $T0 $ebp = $eip $T0 4 + ^ = $ebp $T0 ^ = $esp $T0 8 + = $L $T0 .cbSavedRegs - = $P $T0 8 + .cbParams + =
STACK WIN 4 11488 40 1 0 c 0 0 0 1 $T2 $esp .cbLocals + .cbSavedRegs + = $T0 .raSearchStart = $eip $T0 ^ = $esp $T0 4 + =
STACK WIN 4 11489 3e 0 0 c 4 0 0 1 $T2 $esp .cbLocals + .cbSavedRegs + = $T0 .raSearchStart = $eip $T0 ^ = $esp $T0 4 + =
STACK WIN 4 114aa 1c 0 0 c 8 0 0 1 $T2 $esp .cbLocals + .cbSavedRegs + = $T0 .raSearchStart = $eip $T0 ^ = $esp $T0 4 + =
STACK WIN 4 114c8 86 7 0 c 0 8 0 1 $T0 $ebp = $eip $T0 4 + ^ = $ebp $T0 ^ = $esp $T0 8 + = $L $T0 .cbSavedRegs - = $P $T0 8 + .cbParams + =
STACK WIN 4 114ce 7e 1 0 c 4 8 0 1 $T0 $ebp = $eip $T0 4 + ^ = $ebp $T0 ^ = $esp $T0 8 + = $L $T0 .cbSavedRegs - = $P $T0 8 + .cbParams + = $ebx $T0 12 - ^ =
STACK WIN 4 114cf 7c 0 0 c 8 8 0 1 $T0 $ebp = $eip $T0 4 + ^ = $ebp $T0 ^ = $esp $T0 8 + = $L $T0 .cbSavedRegs - = $P $T0 8 + .cbParams + = $ebx $T0 12 - ^ =
STACK WIN 4 1154e 165 b 0 c 0 1c 0 1 $T0 $ebp = $eip $T0 4 + ^ = $ebp $T0 ^ = $esp $T0 8 + = $L $T0 .cbSavedRegs - = $P $T0 8 + .cbParams + =
STACK WIN 4 11555 15c 4 0 c 4 1c 0 1 $T0 $ebp = $eip $T0 4 + ^ = $ebp $T0 ^ = $esp $T0 8 + = $L $T0 .cbSavedRegs - = $P $T0 8 + .cbParams + = $ebx $T0 32 - ^ =
STACK WIN 4 11556 15a 3 0 c 8 1c 0 1 $T0 $ebp = $eip $T0 4 + ^ = $ebp $T0 ^ = $esp $T0 8 + = $L $T0 .cbSavedRegs - = $P $T0 8 + .cbParams + = $ebx $T0 32 - ^ =
STACK WIN 4 11559 156 0 0 c c 1c 0 1 $T0 $ebp = $eip $T0 4 + ^ = $ebp $T0 ^ = $esp $T0 8 + = $L $T0 .cbSavedRegs - = $P $T0 8 + .cbParams + = $ebx $T0 32 - ^ =
STACK WIN 4 116b3 e3 b 0 10 0 10 0 1 $T0 $ebp = $eip $T0 4 + ^ = $ebp $T0 ^ = $esp $T0 8 + = $L $T0 .cbSavedRegs - = $P $T0 8 + .cbParams + =
STACK WIN 4 116bd d7 1 0 10 4 10 0 1 $T0 $ebp = $eip $T0 4 + ^ = $ebp $T0 ^ = $esp $T0 8 + = $L $T0 .cbSavedRegs - = $P $T0 8 + .cbParams + = $ebx $T0 20 - ^ =
STACK WIN 4 116be d5 0 0 10 8 10 0 1 $T0 $ebp = $eip $T0 4 + ^ = $ebp $T0 ^ = $esp $T0 8 + = $L $T0 .cbSavedRegs - = $P $T0 8 + .cbParams + = $ebx $T0 20 - ^ =
STACK WIN 4 116e9 9c 0 0 10 c 10 0 1 $T0 $ebp = $eip $T0 4 + ^ = $ebp $T0 ^ = $esp $T0 8 + = $L $T0 .cbSavedRegs - = $P $T0 8 + .cbParams + = $ebx $T0 20 - ^ =
STACK WIN 4 11796 150 10 0 c 0 14 0 1 $T0 $ebp = $eip $T0 4 + ^ = $ebp $T0 ^ = $esp $T0 8 + = $L $T0 .cbSavedRegs - = $P $T0 8 + .cbParams + =
STACK WIN 4 1179d 147 9 0 c 4 14 0 1 $T0 $ebp = $eip $T0 4 + ^ = $ebp $T0 ^ = $esp $T0 8 + = $L $T0 .cbSavedRegs - = $P $T0 8 + .cbParams + = $ebx $T0 24 - ^ =
STACK WIN 4 1179e 145 8 0 c 8 14 0 1 $T0 $ebp = $eip $T0 4 + ^ = $ebp $T0 ^ = $esp $T0 8 + = $L $T0 .cbSavedRegs - = $P $T0 8 + .cbParams + = $ebx $T0 24 - ^ =
STACK WIN 4 117a6 13c 0 0 c c 14 0 1 $T0 $ebp = $eip $T0 4 + ^ = $ebp $T0 ^ = $esp $T0 8 + = $L $T0 .cbSavedRegs - = $P $T0 8 + .cbParams + = $ebx $T0 24 - ^ =
STACK WIN 4 118e6 a8 1f 0 c 0 c 0 1 $T0 $ebp = $eip $T0 4 + ^ = $ebp $T0 ^ = $esp $T0 8 + = $L $T0 .cbSavedRegs - = $P $T0 8 + .cbParams + =
STACK WIN 4 118ed 9f 18 0 c 4 c 0 1 $T0 $ebp = $eip $T0 4 + ^ = $ebp $T0 ^ = $esp $T0 8 + = $L $T0 .cbSavedRegs - = $P $T0 8 + .cbParams + =
STACK WIN 4 11905 86 0 0 c 8 c 0 1 $T0 $ebp = $eip $T0 4 + ^ = $ebp $T0 ^ = $esp $T0 8 + = $L $T0 .cbSavedRegs - = $P $T0 8 + .cbParams + =
STACK WIN 4 1198e a3 12 0 8 0 8 0 1 $T0 $ebp = $eip $T0 4 + ^ = $ebp $T0 ^ = $esp $T0 8 + = $L $T0 .cbSavedRegs - = $P $T0 8 + .cbParams + =
STACK WIN 4 1199c 93 4 0 8 4 8 0 1 $T0 $ebp = $eip $T0 4 + ^ = $ebp $T0 ^ = $esp $T0 8 + = $L $T0 .cbSavedRegs - = $P $T0 8 + .cbParams + = $ebx $T0 12 - ^ =
STACK WIN 4 119a0 8e 0 0 8 8 8 0 1 $T0 $ebp = $eip $T0 4 + ^ = $ebp $T0 ^ = $esp $T0 8 + = $L $T0 .cbSavedRegs - = $P $T0 8 + .cbParams + = $ebx $T0 12 - ^ =
STACK WIN 4 119b7 76 0 0 8 c 8 0 1 $T0 $ebp = $eip $T0 4 + ^ = $ebp $T0 ^ = $esp $T0 8 + = $L $T0 .cbSavedRegs - = $P $T0 8 + .cbParams + = $ebx $T0 12 - ^ =
STACK WIN 4 11a31 37 1 0 c 0 0 0 1 $T2 $esp .cbLocals + .cbSavedRegs + = $T0 .raSearchStart = $eip $T0 ^ = $esp $T0 4 + =
STACK WIN 4 11a32 35 0 0 c 4 0 0 1 $T2 $esp .cbLocals + .cbSavedRegs + = $T0 .raSearchStart = $eip $T0 ^ = $esp $T0 4 + =
STACK WIN 4 11a68 115 7 0 10 0 10 0 1 $T0 $ebp = $eip $T0 4 + ^ = $ebp $T0 ^ = $esp $T0 8 + = $L $T0 .cbSavedRegs - = $P $T0 8 + .cbParams + =
STACK WIN 4 11a6f 10c 0 0 10 4 10 0 1 $T0 $ebp = $eip $T0 4 + ^ = $ebp $T0 ^ = $esp $T0 8 + = $L $T0 .cbSavedRegs - = $P $T0 8 + .cbParams + =
STACK WIN 4 11aa7 d3 0 0 10 8 10 0 1 $T0 $ebp = $eip $T0 4 + ^ = $ebp $T0 ^ = $esp $T0 8 + = $L $T0 .cbSavedRegs - = $P $T0 8 + .cbParams + =
STACK WIN 4 11ac1 b8 0 0 10 c 10 0 1 $T0 $ebp = $eip $T0 4 + ^ = $ebp $T0 ^ = $esp $T0 8 + = $L $T0 .cbSavedRegs - = $P $T0 8 + .cbParams + = $ebx $T0 28 - ^ =
STACK WIN 4 11b7d 155 7 0 10 0 14 0 1 $T0 $ebp = $eip $T0 4 + ^ = $ebp $T0 ^ = $esp $T0 8 + = $L $T0 .cbSavedRegs - = $P $T0 8 + .cbParams + =
STACK WIN 4 11b84 14c 0 0 10 4 14 0 1 $T0 $ebp = $eip $T0 4 + ^ = $ebp $T0 ^ = $esp $T0 8 + = $L $T0 .cbSavedRegs - = $P $T0 8 + .cbParams + = $ebx $T0 24 - ^ =
STACK WIN 4 11bce 101 0 0 10 8 14 0 1 $T0 $ebp = $eip $T0 4 + ^ = $ebp $T0 ^ = $esp $T0 8 + = $L $T0 .cbSavedRegs - = $P $T0 8 + .cbParams + = $ebx $T0 24 - ^ =
STACK WIN 4 11bcf ff 0 0 10 c 14 0 1 $T0 $ebp = $eip $T0 4 + ^ = $ebp $T0 ^ = $esp $T0 8 + = $L $T0 .cbSavedRegs - = $P $T0 8 + .cbParams + = $ebx $T0 24 - ^ =
STACK WIN 4 11cd2 fb 6 0 c 0 c 0 1 $T0 $ebp = $eip $T0 4 + ^ = $ebp $T0 ^ = $esp $T0 8 + = $L $T0 .cbSavedRegs - = $P $T0 8 + .cbParams + =
STACK WIN 4 11cfa d1 0 0 c 4 c 0 1 $T0 $ebp = $eip $T0 4 + ^ = $ebp $T0 ^ = $esp $T0 8 + = $L $T0 .cbSavedRegs - = $P $T0 8 + .cbParams + =
STACK WIN 4 11cfb cf 0 0 c 8 c 0 1 $T0 $ebp = $eip $T0 4 + ^ = $ebp $T0 ^ = $esp $T0 8 + = $L $T0 .cbSavedRegs - = $P $T0 8 + .cbParams + =
STACK WIN 4 11d17 b2 0 0 c c c 0 1 $T0 $ebp = $eip $T0 4 + ^ = $ebp $T0 ^ = $esp $T0 8 + = $L $T0 .cbSavedRegs - = $P $T0 8 + .cbParams + = $ebx $T0 24 - ^ =
STACK WIN 4 11dcd 6b 7 0 c 0 8 0 1 $T0 $ebp = $eip $T0 4 + ^ = $ebp $T0 ^ = $esp $T0 8 + = $L $T0 .cbSavedRegs - = $P $T0 8 + .cbParams + =
STACK WIN 4 11dd3 3d 1 0 c 4 8 0 1 $T0 $ebp = $eip $T0 4 + ^ = $ebp $T0 ^ = $esp $T0 8 + = $L $T0 .cbSavedRegs - = $P $T0 8 + .cbParams + = $ebx $T0 12 - ^ =
STACK WIN 4 11dd4 3b 0 0 c 8 8 0 1 $T0 $ebp = $eip $T0 4 + ^ = $ebp $T0 ^ = $esp $T0 8 + = $L $T0 .cbSavedRegs - = $P $T0 8 + .cbParams + = $ebx $T0 12 - ^ =
STACK WIN 4 11e38 84 7 0 8 0 4 0 1 $T0 $ebp = $eip $T0 4 + ^ = $ebp $T0 ^ = $esp $T0 8 + = $L $T0 .cbSavedRegs - = $P $T0 8 + .cbParams + =
STACK WIN 4 11e3f 7b 0 0 8 4 4 0 1 $T0 $ebp = $eip $T0 4 + ^ = $ebp $T0 ^ = $esp $T0 8 + = $L $T0 .cbSavedRegs - = $P $T0 8 + .cbParams + = $ebx $T0 8 - ^ =
STACK WIN 4 11e57 5e 0 0 8 8 4 0 1 $T0 $ebp = $eip $T0 4 + ^ = $ebp $T0 ^ = $esp $T0 8 + = $L $T0 .cbSavedRegs - = $P $T0 8 + .cbParams + = $ebx $T0 8 - ^ =
STACK WIN 4 11ebc 3a 4 0 c 0 0 0 1 $T0 $ebp = $eip $T0 4 + ^ = $ebp $T0 ^ = $esp $T0 8 + = $L $T0 .cbSavedRegs - = $P $T0 8 + .cbParams + =
STACK WIN 4 11ec0 34 0 0 c 4 0 0 1 $T0 $ebp = $eip $T0 4 + ^ = $ebp $T0 ^ = $esp $T0 8 + = $L $T0 .cbSavedRegs - = $P $T0 8 + .cbParams + =
STACK WIN 4 11ef6 43 4 0 14 0 0 0 1 $T0 $ebp = $eip $T0 4 + ^ = $ebp $T0 ^ = $esp $T0 8 + = $L $T0 .cbSavedRegs - = $P $T0 8 + .cbParams + =
STACK WIN 4 11efa 3d 0 0 14 4 0 0 1 $T0 $ebp = $eip $T0 4 + ^ = $ebp $T0 ^ = $esp $T0 8 + = $L $T0 .cbSavedRegs - = $P $T0 8 + .cbParams + =
STACK WIN 4 11f39 3e 0 0 4 0 0 0 1 $T2 $esp .cbLocals + .cbSavedRegs + = $T0 .raSearchStart = $eip $T0 ^ = $esp $T0 4 + =
STACK WIN 4 11f77 27 2 0 0 0 0 0 1 $T2 $esp .cbLocals + .cbSavedRegs + = $T0 .raSearchStart = $eip $T0 ^ = $esp $T0 4 + =
STACK WIN 4 11f78 25 1 0 0 4 0 0 1 $T2 $esp .cbLocals + .cbSavedRegs + = $T0 .raSearchStart = $eip $T0 ^ = $esp $T0 4 + =
STACK WIN 4 11f79 21 0 0 0 8 0 0 1 $T2 $esp .cbLocals + .cbSavedRegs + = $T0 .raSearchStart = $eip $T0 ^ = $esp $T0 4 + =
STACK WIN 4 11f9e 66 2 0 8 0 0 0 1 $T2 $esp .cbLocals + .cbSavedRegs + = $T0 .raSearchStart = $eip $T0 ^ = $esp $T0 4 + =
STACK WIN 4 11f9f 64 1 0 8 4 0 0 1 $T2 $esp .cbLocals + .cbSavedRegs + = $T0 .raSearchStart = $eip $T0 ^ = $esp $T0 4 + = $ebp $T0 4 - ^ =
STACK WIN 4 11fa0 62 0 0 8 8 0 0 1 $T2 $esp .cbLocals + .cbSavedRegs + = $T0 .raSearchStart = $eip $T0 ^ = $esp $T0 4 + = $ebp $T0 4 - ^ =
STACK WIN 4 11fc1 40 0 0 8 c 0 0 1 $T2 $esp .cbLocals + .cbSavedRegs + = $T0 .raSearchStart = $eip $T0 ^ = $esp $T0 4 + = $ebp $T0 4 - ^ =
STACK WIN 4 11fc8 2f 0 0 8 10 0 0 1 $T2 $esp .cbLocals + .cbSavedRegs + = $T0 .raSearchStart = $eip $T0 ^ = $esp $T0 4 + = $ebp $T0 4 - ^ = $ebx $T0 16 - ^ =
STACK WIN 4 12004 60 b 0 c 0 1c 0 1 $T0 $ebp = $eip $T0 4 + ^ = $ebp $T0 ^ = $esp $T0 8 + = $L $T0 .cbSavedRegs - = $P $T0 8 + .cbParams + =
STACK WIN 4 1200f 53 0 0 c 4 1c 0 1 $T0 $ebp = $eip $T0 4 + ^ = $ebp $T0 ^ = $esp $T0 8 + = $L $T0 .cbSavedRegs - = $P $T0 8 + .cbParams + =
STACK WIN 4 12064 18e e 0 8 0 c 0 1 $T0 $ebp = $eip $T0 4 + ^ = $ebp $T0 ^ = $esp $T0 8 + = $L $T0 .cbSavedRegs - = $P $T0 8 + .cbParams + =
STACK WIN 4 1206e 182 4 0 8 4 c 0 1 $T0 $ebp = $eip $T0 4 + ^ = $ebp $T0 ^ = $esp $T0 8 + = $L $T0 .cbSavedRegs - = $P $T0 8 + .cbParams + = $ebx $T0 16 - ^ =
STACK WIN 4 1206f 17e 3 0 8 8 c 0 1 $T0 $ebp = $eip $T0 4 + ^ = $ebp $T0 ^ = $esp $T0 8 + = $L $T0 .cbSavedRegs - = $P $T0 8 + .cbParams + = $ebx $T0 16 - ^ =
STACK WIN 4 12072 17a 0 0 8 c c 0 1 $T0 $ebp = $eip $T0 4 + ^ = $ebp $T0 ^ = $esp $T0 8 + = $L $T0 .cbSavedRegs - = $P $T0 8 + .cbParams + = $ebx $T0 16 - ^ =
STACK WIN 4 121f2 44 7 0 8 0 8 0 1 $T0 $ebp = $eip $T0 4 + ^ = $ebp $T0 ^ = $esp $T0 8 + = $L $T0 .cbSavedRegs - = $P $T0 8 + .cbParams + =
STACK WIN 4 121f8 3c 1 0 8 4 8 0 1 $T0 $ebp = $eip $T0 4 + ^ = $ebp $T0 ^ = $esp $T0 8 + = $L $T0 .cbSavedRegs - = $P $T0 8 + .cbParams + =
STACK WIN 4 121f9 38 0 0 8 8 8 0 1 $T0 $ebp = $eip $T0 4 + ^ = $ebp $T0 ^ = $esp $T0 8 + = $L $T0 .cbSavedRegs - = $P $T0 8 + .cbParams + =
STACK WIN 4 12236 ac b 0 c 0 1c 0 1 $T0 $ebp = $eip $T0 4 + ^ = $ebp $T0 ^ = $esp $T0 8 + = $L $T0 .cbSavedRegs - = $P $T0 8 + .cbParams + =
STACK WIN 4 1223d a3 4 0 c 4 1c 0 1 $T0 $ebp = $eip $T0 4 + ^ = $ebp $T0 ^ = $esp $T0 8 + = $L $T0 .cbSavedRegs - = $P $T0 8 + .cbParams + = $ebx $T0 32 - ^ =
STACK WIN 4 1223e a1 3 0 c 8 1c 0 1 $T0 $ebp = $eip $T0 4 + ^ = $ebp $T0 ^ = $esp $T0 8 + = $L $T0 .cbSavedRegs - = $P $T0 8 + .cbParams + = $ebx $T0 32 - ^ =
STACK WIN 4 12241 9d 0 0 c c 1c 0 1 $T0 $ebp = $eip $T0 4 + ^ = $ebp $T0 ^ = $esp $T0 8 + = $L $T0 .cbSavedRegs - = $P $T0 8 + .cbParams + = $ebx $T0 32 - ^ =
STACK WIN 4 122e2 ad 4 0 8 0 0 0 1 $T0 $ebp = $eip $T0 4 + ^ = $ebp $T0 ^ = $esp $T0 8 + = $L $T0 .cbSavedRegs - = $P $T0 8 + .cbParams + =
STACK WIN 4 122e6 a7 0 0 8 4 0 0 1 $T0 $ebp = $eip $T0 4 + ^ = $ebp $T0 ^ = $esp $T0 8 + = $L $T0 .cbSavedRegs - = $P $T0 8 + .cbParams + = $ebx $T0 4 - ^ =
STACK WIN 4 122fe 8e 0 0 8 8 0 0 1 $T0 $ebp = $eip $T0 4 + ^ = $ebp $T0 ^ = $esp $T0 8 + = $L $T0 .cbSavedRegs - = $P $T0 8 + .cbParams + = $ebx $T0 4 - ^ =
STACK WIN 4 12315 76 0 0 8 c 0 0 1 $T0 $ebp = $eip $T0 4 + ^ = $ebp $T0 ^ = $esp $T0 8 + = $L $T0 .cbSavedRegs - = $P $T0 8 + .cbParams + = $ebx $T0 4 - ^ =
STACK WIN 4 1238f 3e 6 0 4 0 8 0 1 $T0 $ebp = $eip $T0 4 + ^ = $ebp $T0 ^ = $esp $T0 8 + = $L $T0 .cbSavedRegs - = $P $T0 8 + .cbParams + =
STACK WIN 4 12395 36 0 0 4 4 8 0 1 $T0 $ebp = $eip $T0 4 + ^ = $ebp $T0 ^ = $esp $T0 8 + = $L $T0 .cbSavedRegs - = $P $T0 8 + .cbParams + =
STACK WIN 4 123cd a7 1 0 8 0 0 0 1 $T2 $esp .cbLocals + .cbSavedRegs + = $T0 .raSearchStart = $eip $T0 ^ = $esp $T0 4 + =
STACK WIN 4 123ce 49 0 0 8 4 0 0 1 $T2 $esp .cbLocals + .cbSavedRegs + = $T0 .raSearchStart = $eip $T0 ^ = $esp $T0 4 + = $ebp $T0 4 - ^ =
STACK WIN 4 123fb 1b 0 0 8 8 0 0 1 $T2 $esp .cbLocals + .cbSavedRegs + = $T0 .raSearchStart = $eip $T0 ^ = $esp $T0 4 + = $ebp $T0 4 - ^ = $ebx $T0 8 - ^ =
STACK WIN 4 12419 17 0 0 8 c 0 0 1 $T2 $esp .cbLocals + .cbSavedRegs + = $T0 .raSearchStart = $eip $T0 ^ = $esp $T0 4 + = $ebp $T0 4 - ^ = $ebx $T0 8 - ^ =
STACK WIN 4 12435 3d 0 0 8 10 0 0 1 $T2 $esp .cbLocals + .cbSavedRegs + = $T0 .raSearchStart = $eip $T0 ^ = $esp $T0 4 + = $ebp $T0 4 - ^ = $ebx $T0 8 - ^ =
STACK WIN 4 12474 66 6 0 8 0 4 0 1 $T0 $ebp = $eip $T0 4 + ^ = $ebp $T0 ^ = $esp $T0 8 + = $L $T0 .cbSavedRegs - = $P $T0 8 + .cbParams + =
STACK WIN 4 12479 5f 1 0 8 4 4 0 1 $T0 $ebp = $eip $T0 4 + ^ = $ebp $T0 ^ = $esp $T0 8 + = $L $T0 .cbSavedRegs - = $P $T0 8 + .cbParams + =
STACK WIN 4 1247a 5b 0 0 8 8 4 0 1 $T0 $ebp = $eip $T0 4 + ^ = $ebp $T0 ^ = $esp $T0 8 + = $L $T0 .cbSavedRegs - = $P $T0 8 + .cbParams + =
STACK WIN 4 124da 131 8 0 4 0 10 0 1 $T0 $ebp = $eip $T0 4 + ^ = $ebp $T0 ^ = $esp $T0 8 + = $L $T0 .cbSavedRegs - = $P $T0 8 + .cbParams + =
STACK WIN 4 124e1 128 1 0 4 4 10 0 1 $T0 $ebp = $eip $T0 4 + ^ = $ebp $T0 ^ = $esp $T0 8 + = $L $T0 .cbSavedRegs - = $P $T0 8 + .cbParams + = $ebx $T0 20 - ^ =
STACK WIN 4 124e2 126 0 0 4 8 10 0 1 $T0 $ebp = $eip $T0 4 + ^ = $ebp $T0 ^ = $esp $T0 8 + = $L $T0 .cbSavedRegs - = $P $T0 8 + .cbParams + = $ebx $T0 20 - ^ =
STACK WIN 4 12508 ff 0 0 4 c 10 0 1 $T0 $ebp = $eip $T0 4 + ^ = $ebp $T0 ^ = $esp $T0 8 + = $L $T0 .cbSavedRegs - = $P $T0 8 + .cbParams + = $ebx $T0 20 - ^ =
STACK WIN 4 1260b 20b e 0 10 0 1c 0 1 $T0 $ebp = $eip $T0 4 + ^ = $ebp $T0 ^ = $esp $T0 8 + = $L $T0 .cbSavedRegs - = $P $T0 8 + .cbParams + =
STACK WIN 4 12615 1e7 4 0 10 4 1c 0 1 $T0 $ebp = $eip $T0 4 + ^ = $ebp $T0 ^ = $esp $T0 8 + = $L $T0 .cbSavedRegs - = $P $T0 8 + .cbParams + = $ebx $T0 32 - ^ =
STACK WIN 4 12616 1e5 3 0 10 8 1c 0 1 $T0 $ebp = $eip $T0 4 + ^ = $ebp $T0 ^ = $esp $T0 8 + = $L $T0 .cbSavedRegs - = $P $T0 8 + .cbParams + = $ebx $T0 32 - ^ =
STACK WIN 4 12619 1e1 0 0 10 c 1c 0 1 $T0 $ebp = $eip $T0 4 + ^ = $ebp $T0 ^ = $esp $T0 8 + = $L $T0 .cbSavedRegs - = $P $T0 8 + .cbParams + = $ebx $T0 32 - ^ =
STACK WIN 4 12816 68 5 0 c 0 0 0 1 $T0 $ebp = $eip $T0 4 + ^ = $ebp $T0 ^ = $esp $T0 8 + = $L $T0 .cbSavedRegs - = $P $T0 8 + .cbParams + =
STACK WIN 4 1281a 62 1 0 c 4 0 0 1 $T0 $ebp = $eip $T0 4 + ^ = $ebp $T0 ^ = $esp $T0 8 + = $L $T0 .cbSavedRegs - = $P $T0 8 + .cbParams + = $ebx $T0 4 - ^ =
STACK WIN 4 1281b 60 0 0 c 8 0 0 1 $T0 $ebp = $eip $T0 4 + ^ = $ebp $T0 ^ = $esp $T0 8 + = $L $T0 .cbSavedRegs - = $P $T0 8 + .cbParams + = $ebx $T0 4 - ^ =
STACK WIN 4 12838 42 0 0 c c 0 0 1 $T0 $ebp = $eip $T0 4 + ^ = $ebp $T0 ^ = $esp $T0 8 + = $L $T0 .cbSavedRegs - = $P $T0 8 + .cbParams + = $ebx $T0 4 - ^ =
STACK WIN 4 1287e 5f 9 0 14 0 0 0 1 $T0 $ebp = $eip $T0 4 + ^ = $ebp $T0 ^ = $esp $T0 8 + = $L $T0 .cbSavedRegs - = $P $T0 8 + .cbParams + =
STACK WIN 4 12882 59 5 0 14 4 0 0 1 $T0 $ebp = $eip $T0 4 + ^ = $ebp $T0 ^ = $esp $T0 8 + = $L $T0 .cbSavedRegs - = $P $T0 8 + .cbParams + = $ebx $T0 4 - ^ =
STACK WIN 4 12883 57 4 0 14 8 0 0 1 $T0 $ebp = $eip $T0 4 + ^ = $ebp $T0 ^ = $esp $T0 8 + = $L $T0 .cbSavedRegs - = $P $T0 8 + .cbParams + = $ebx $T0 4 - ^ =
STACK WIN 4 12887 52 0 0 14 c 0 0 1 $T0 $ebp = $eip $T0 4 + ^ = $ebp $T0 ^ = $esp $T0 8 + = $L $T0 .cbSavedRegs - = $P $T0 8 + .cbParams + = $ebx $T0 4 - ^ =
STACK WIN 4 128dd 84 4 0 8 0 4 0 1 $T0 $ebp = $eip $T0 4 + ^ = $ebp $T0 ^ = $esp $T0 8 + = $L $T0 .cbSavedRegs - = $P $T0 8 + .cbParams + =
STACK WIN 4 12901 5e 0 0 8 4 4 0 1 $T0 $ebp = $eip $T0 4 + ^ = $ebp $T0 ^ = $esp $T0 8 + = $L $T0 .cbSavedRegs - = $P $T0 8 + .cbParams + =
STACK WIN 4 12905 59 0 0 8 8 4 0 1 $T0 $ebp = $eip $T0 4 + ^ = $ebp $T0 ^ = $esp $T0 8 + = $L $T0 .cbSavedRegs - = $P $T0 8 + .cbParams + =
STACK WIN 4 12921 3c 0 0 8 c 4 0 1 $T0 $ebp = $eip $T0 4 + ^ = $ebp $T0 ^ = $esp $T0 8 + = $L $T0 .cbSavedRegs - = $P $T0 8 + .cbParams + = $ebx $T0 16 - ^ =
STACK WIN 4 12961 19 0 0 c 0 0 0 1 $T2 $esp .cbLocals + .cbSavedRegs + = $T0 .raSearchStart = $eip $T0 ^ = $esp $T0 4 + =
STACK WIN 4 1297a 28 0 0 4 0 0 0 1 $T2 $esp .cbLocals + .cbSavedRegs + = $T0 .raSearchStart = $eip $T0 ^ = $esp $T0 4 + =
STACK WIN 4 129a2 28 0 0 4 0 0 0 1 $T2 $esp .cbLocals + .cbSavedRegs + = $T0 .raSearchStart = $eip $T0 ^ = $esp $T0 4 + =
STACK WIN 4 129ca 72 1 0 8 0 0 0 1 $T2 $esp .cbLocals + .cbSavedRegs + = $T0 .raSearchStart = $eip $T0 ^ = $esp $T0 4 + =
STACK WIN 4 129cb 70 0 0 8 4 0 0 1 $T2 $esp .cbLocals + .cbSavedRegs + = $T0 .raSearchStart = $eip $T0 ^ = $esp $T0 4 + =
STACK WIN 4 12a3c 77 8 0 0 0 8 0 1 $T0 $ebp = $eip $T0 4 + ^ = $ebp $T0 ^ = $esp $T0 8 + = $L $T0 .cbSavedRegs - = $P $T0 8 + .cbParams + =
STACK WIN 4 12a42 6f 2 0 0 4 8 0 1 $T0 $ebp = $eip $T0 4 + ^ = $ebp $T0 ^ = $esp $T0 8 + = $L $T0 .cbSavedRegs - = $P $T0 8 + .cbParams + =
STACK WIN 4 12ab3 16 a 0 c 0 0 0 1 $T2 $esp .cbLocals + .cbSavedRegs + = $T0 .raSearchStart = $eip $T0 ^ = $esp $T0 4 + =
STACK WIN 4 12ab8 10 5 0 c 4 0 0 1 $T2 $esp .cbLocals + .cbSavedRegs + = $T0 .raSearchStart = $eip $T0 ^ = $esp $T0 4 + = $ebx $T0 4 - ^ =
STACK WIN 4 12abd a 0 0 c 8 0 0 1 $T2 $esp .cbLocals + .cbSavedRegs + = $T0 .raSearchStart = $eip $T0 ^ = $esp $T0 4 + = $ebx $T0 4 - ^ =
STACK WIN 4 12ac9 57 0 0 c 0 0 0 1 $T2 $esp .cbLocals + .cbSavedRegs + = $T0 .raSearchStart = $eip $T0 ^ = $esp $T0 4 + =
STACK WIN 4 12b20 82 f 0 10 0 0 0 1 $T0 $ebp = $eip $T0 4 + ^ = $ebp $T0 ^ = $esp $T0 8 + = $L $T0 .cbSavedRegs - = $P $T0 8 + .cbParams + =
STACK WIN 4 12b27 79 8 0 10 4 0 0 1 $T0 $ebp = $eip $T0 4 + ^ = $ebp $T0 ^ = $esp $T0 8 + = $L $T0 .cbSavedRegs - = $P $T0 8 + .cbParams + =
STACK WIN 4 12b2f 70 0 0 10 8 0 0 1 $T0 $ebp = $eip $T0 4 + ^ = $ebp $T0 ^ = $esp $T0 8 + = $L $T0 .cbSavedRegs - = $P $T0 8 + .cbParams + =
STACK WIN 4 12b35 1e 0 0 10 c 0 0 1 $T0 $ebp = $eip $T0 4 + ^ = $ebp $T0 ^ = $esp $T0 8 + = $L $T0 .cbSavedRegs - = $P $T0 8 + .cbParams + = $ebx $T0 12 - ^ =
STACK WIN 4 12ba2 77 f 0 10 0 0 0 1 $T0 $ebp = $eip $T0 4 + ^ = $ebp $T0 ^ = $esp $T0 8 + = $L $T0 .cbSavedRegs - = $P $T0 8 + .cbParams + =
STACK WIN 4 12ba9 6e 8 0 10 4 0 0 1 $T0 $ebp = $eip $T0 4 + ^ = $ebp $T0 ^ = $esp $T0 8 + = $L $T0 .cbSavedRegs - = $P $T0 8 + .cbParams + =
STACK WIN 4 12bb1 65 0 0 10 8 0 0 1 $T0 $ebp = $eip $T0 4 + ^ = $ebp $T0 ^ = $esp $T0 8 + = $L $T0 .cbSavedRegs - = $P $T0 8 + .cbParams + =
STACK WIN 4 12bb7 25 0 0 10 c 0 0 1 $T0 $ebp = $eip $T0 4 + ^ = $ebp $T0 ^ = $esp $T0 8 + = $L $T0 .cbSavedRegs - = $P $T0 8 + .cbParams + = $ebx $T0 12 - ^ =
STACK WIN 4 12c19 157 23 0 4 0 108 0 1 $T0 $ebp 136 + = $eip $T0 4 + ^ = $ebp $T0 ^ = $esp $T0 8 + = $L $T0 .cbSavedRegs - = $P $T0 8 + .cbParams + =
STACK WIN 4 12c35 12e 7 0 4 4 108 0 1 $T0 $ebp 136 + = $eip $T0 4 + ^ = $ebp $T0 ^ = $esp $T0 8 + = $L $T0 .cbSavedRegs - = $P $T0 8 + .cbParams + =
STACK WIN 4 12c3c 124 0 0 4 8 108 0 1 $T0 $ebp 136 + = $eip $T0 4 + ^ = $ebp $T0 ^ = $esp $T0 8 + = $L $T0 .cbSavedRegs - = $P $T0 8 + .cbParams + =
STACK WIN 4 12c4e 10b 0 0 4 c 108 0 1 $T0 $ebp 136 + = $eip $T0 4 + ^ = $ebp $T0 ^ = $esp $T0 8 + = $L $T0 .cbSavedRegs - = $P $T0 8 + .cbParams + = $ebx $T0 276 - ^ =
STACK WIN 4 12d70 10d 8 0 10 0 0 0 1 $T0 $ebp = $eip $T0 4 + ^ = $ebp $T0 ^ = $esp $T0 8 + = $L $T0 .cbSavedRegs - = $P $T0 8 + .cbParams + =
STACK WIN 4 12d74 107 4 0 10 4 0 0 1 $T0 $ebp = $eip $T0 4 + ^ = $ebp $T0 ^ = $esp $T0 8 + = $L $T0 .cbSavedRegs - = $P $T0 8 + .cbParams + =
STACK WIN 4 12d78 102 0 0 10 8 0 0 1 $T0 $ebp = $eip $T0 4 + ^ = $ebp $T0 ^ = $esp $T0 8 + = $L $T0 .cbSavedRegs - = $P $T0 8 + .cbParams + =
STACK WIN 4 12e7d 108 f 0 0 0 8 0 1 $T0 $ebp = $eip $T0 4 + ^ = $ebp $T0 ^ = $esp $T0 8 + = $L $T0 .cbSavedRegs - = $P $T0 8 + .cbParams + =
STACK WIN 4 12e8c f7 0 0 0 4 8 0 1 $T0 $ebp = $eip $T0 4 + ^ = $ebp $T0 ^ = $esp $T0 8 + = $L $T0 .cbSavedRegs - = $P $T0 8 + .cbParams + =
STACK WIN 4 12f85 13f f 0 10 0 c 0 1 $T0 $ebp = $eip $T0 4 + ^ = $ebp $T0 ^ = $esp $T0 8 + = $L $T0 .cbSavedRegs - = $P $T0 8 + .cbParams + =
STACK WIN 4 12f90 132 4 0 10 4 c 0 1 $T0 $ebp = $eip $T0 4 + ^ = $ebp $T0 ^ = $esp $T0 8 + = $L $T0 .cbSavedRegs - = $P $T0 8 + .cbParams + = $ebx $T0 16 - ^ =
STACK WIN 4 12f91 130 3 0 10 8 c 0 1 $T0 $ebp = $eip $T0 4 + ^ = $ebp $T0 ^ = $esp $T0 8 + = $L $T0 .cbSavedRegs - = $P $T0 8 + .cbParams + = $ebx $T0 16 - ^ =
STACK WIN 4 12f92 12e 2 0 10 c c 0 1 $T0 $ebp = $eip $T0 4 + ^ = $ebp $T0 ^ = $esp $T0 8 + = $L $T0 .cbSavedRegs - = $P $T0 8 + .cbParams + = $ebx $T0 16 - ^ =
STACK WIN 4 130c4 4a 8 0 10 0 0 0 1 $T0 $ebp = $eip $T0 4 + ^ = $ebp $T0 ^ = $esp $T0 8 + = $L $T0 .cbSavedRegs - = $P $T0 8 + .cbParams + =
STACK WIN 4 130c8 44 4 0 10 4 0 0 1 $T0 $ebp = $eip $T0 4 + ^ = $ebp $T0 ^ = $esp $T0 8 + = $L $T0 .cbSavedRegs - = $P $T0 8 + .cbParams + =
STACK WIN 4 130cc 3f 0 0 10 8 0 0 1 $T0 $ebp = $eip $T0 4 + ^ = $ebp $T0 ^ = $esp $T0 8 + = $L $T0 .cbSavedRegs - = $P $T0 8 + .cbParams + =
STACK WIN 4 1310e 61 9 0 4 0 c 0 1 $T0 $ebp = $eip $T0 4 + ^ = $ebp $T0 ^ = $esp $T0 8 + = $L $T0 .cbSavedRegs - = $P $T0 8 + .cbParams + =
STACK WIN 4 13115 58 2 0 4 4 c 0 1 $T0 $ebp = $eip $T0 4 + ^ = $ebp $T0 ^ = $esp $T0 8 + = $L $T0 .cbSavedRegs - = $P $T0 8 + .cbParams + = $ebx $T0 16 - ^ =
STACK WIN 4 13116 56 1 0 4 8 c 0 1 $T0 $ebp = $eip $T0 4 + ^ = $ebp $T0 ^ = $esp $T0 8 + = $L $T0 .cbSavedRegs - = $P $T0 8 + .cbParams + = $ebx $T0 16 - ^ =
STACK WIN 4 13117 54 0 0 4 c c 0 1 $T0 $ebp = $eip $T0 4 + ^ = $ebp $T0 ^ = $esp $T0 8 + = $L $T0 .cbSavedRegs - = $P $T0 8 + .cbParams + = $ebx $T0 16 - ^ =
STACK WIN 4 1316f e8 e 0 4 0 8 0 1 $T0 $ebp = $eip $T0 4 + ^ = $ebp $T0 ^ = $esp $T0 8 + = $L $T0 .cbSavedRegs - = $P $T0 8 + .cbParams + =
STACK WIN 4 13175 e0 8 0 4 4 8 0 1 $T0 $ebp = $eip $T0 4 + ^ = $ebp $T0 ^ = $esp $T0 8 + = $L $T0 .cbSavedRegs - = $P $T0 8 + .cbParams + = $ebx $T0 12 - ^ =
STACK WIN 4 13176 de 7 0 4 8 8 0 1 $T0 $ebp = $eip $T0 4 + ^ = $ebp $T0 ^ = $esp $T0 8 + = $L $T0 .cbSavedRegs - = $P $T0 8 + .cbParams + = $ebx $T0 12 - ^ =
STACK WIN 4 1317d d6 0 0 4 c 8 0 1 $T0 $ebp = $eip $T0 4 + ^ = $ebp $T0 ^ = $esp $T0 8 + = $L $T0 .cbSavedRegs - = $P $T0 8 + .cbParams + = $ebx $T0 12 - ^ =
STACK WIN 4 13257 6b 5 0 c 0 0 0 1 $T0 $ebp = $eip $T0 4 + ^ = $ebp $T0 ^ = $esp $T0 8 + = $L $T0 .cbSavedRegs - = $P $T0 8 + .cbParams + =
STACK WIN 4 1325b 65 1 0 c 4 0 0 1 $T0 $ebp = $eip $T0 4 + ^ = $ebp $T0 ^ = $esp $T0 8 + = $L $T0 .cbSavedRegs - = $P $T0 8 + .cbParams + = $ebx $T0 4 - ^ =
STACK WIN 4 1325c 61 0 0 c 8 0 0 1 $T0 $ebp = $eip $T0 4 + ^ = $ebp $T0 ^ = $esp $T0 8 + = $L $T0 .cbSavedRegs - = $P $T0 8 + .cbParams + = $ebx $T0 4 - ^ =
STACK WIN 4 13291 2b 0 0 c c 0 0 1 $T0 $ebp = $eip $T0 4 + ^ = $ebp $T0 ^ = $esp $T0 8 + = $L $T0 .cbSavedRegs - = $P $T0 8 + .cbParams + = $ebx $T0 4 - ^ =
STACK WIN 4 132c2 5b 7 0 4 0 c 0 1 $T0 $ebp = $eip $T0 4 + ^ = $ebp $T0 ^ = $esp $T0 8 + = $L $T0 .cbSavedRegs - = $P $T0 8 + .cbParams + =
STACK WIN 4 132c9 52 0 0 4 4 c 0 1 $T0 $ebp = $eip $T0 4 + ^ = $ebp $T0 ^ = $esp $T0 8 + = $L $T0 .cbSavedRegs - = $P $T0 8 + .cbParams + =
STACK WIN 4 132d3 37 0 0 4 8 c 0 1 $T0 $ebp = $eip $T0 4 + ^ = $ebp $T0 ^ = $esp $T0 8 + = $L $T0 .cbSavedRegs - = $P $T0 8 + .cbParams + = $ebx $T0 20 - ^ =
STACK WIN 4 1331d 1ec 22 0 18 0 28 0 1 $T0 $ebp = $eip $T0 4 + ^ = $ebp $T0 ^ = $esp $T0 8 + = $L $T0 .cbSavedRegs - = $P $T0 8 + .cbParams + =
STACK WIN 4 13331 5b e 0 18 4 28 0 1 $T0 $ebp = $eip $T0 4 + ^ = $ebp $T0 ^ = $esp $T0 8 + = $L $T0 .cbSavedRegs - = $P $T0 8 + .cbParams + = $ebx $T0 44 - ^ =
STACK WIN 4 1333b 4e 4 0 18 8 28 0 1 $T0 $ebp = $eip $T0 4 + ^ = $ebp $T0 ^ = $esp $T0 8 + = $L $T0 .cbSavedRegs - = $P $T0 8 + .cbParams + = $ebx $T0 44 - ^ =
STACK WIN 4 1333f 49 0 0 18 c 28 0 1 $T0 $ebp = $eip $T0 4 + ^ = $ebp $T0 ^ = $esp $T0 8 + = $L $T0 .cbSavedRegs - = $P $T0 8 + .cbParams + = $ebx $T0 44 - ^ =
STACK WIN 4 13509 f2 5 0 c 0 0 0 1 $T0 $ebp = $eip $T0 4 + ^ = $ebp $T0 ^ = $esp $T0 8 + = $L $T0 .cbSavedRegs - = $P $T0 8 + .cbParams + =
STACK WIN 4 1350d ec 1 0 c 4 0 0 1 $T0 $ebp = $eip $T0 4 + ^ = $ebp $T0 ^ = $esp $T0 8 + = $L $T0 .cbSavedRegs - = $P $T0 8 + .cbParams + = $ebx $T0 4 - ^ =
STACK WIN 4 1350e ea 0 0 c 8 0 0 1 $T0 $ebp = $eip $T0 4 + ^ = $ebp $T0 ^ = $esp $T0 8 + = $L $T0 .cbSavedRegs - = $P $T0 8 + .cbParams + = $ebx $T0 4 - ^ =
STACK WIN 4 1352b cc 0 0 c c 0 0 1 $T0 $ebp = $eip $T0 4 + ^ = $ebp $T0 ^ = $esp $T0 8 + = $L $T0 .cbSavedRegs - = $P $T0 8 + .cbParams + = $ebx $T0 4 - ^ =
STACK WIN 4 135fb 123 10 0 8 0 4 0 1 $T0 $ebp = $eip $T0 4 + ^ = $ebp $T0 ^ = $esp $T0 8 + = $L $T0 .cbSavedRegs - = $P $T0 8 + .cbParams + =
STACK WIN 4 13604 118 7 0 8 4 4 0 1 $T0 $ebp = $eip $T0 4 + ^ = $ebp $T0 ^ = $esp $T0 8 + = $L $T0 .cbSavedRegs - = $P $T0 8 + .cbParams + = $ebx $T0 8 - ^ =
STACK WIN 4 13605 116 6 0 8 8 4 0 1 $T0 $ebp = $eip $T0 4 + ^ = $ebp $T0 ^ = $esp $T0 8 + = $L $T0 .cbSavedRegs - = $P $T0 8 + .cbParams + = $ebx $T0 8 - ^ =
STACK WIN 4 1360b 10f 0 0 8 c 4 0 1 $T0 $ebp = $eip $T0 4 + ^ = $ebp $T0 ^ = $esp $T0 8 + = $L $T0 .cbSavedRegs - = $P $T0 8 + .cbParams + = $ebx $T0 8 - ^ =
STACK WIN 4 1371e 22 6 0 4 0 0 0 1 $T2 $esp .cbLocals + .cbSavedRegs + = $T0 .raSearchStart = $eip $T0 ^ = $esp $T0 4 + =
STACK WIN 4 1371f 20 5 0 4 4 0 0 1 $T2 $esp .cbLocals + .cbSavedRegs + = $T0 .raSearchStart = $eip $T0 ^ = $esp $T0 4 + =
STACK WIN 4 13724 1a 0 0 4 8 0 0 1 $T2 $esp .cbLocals + .cbSavedRegs + = $T0 .raSearchStart = $eip $T0 ^ = $esp $T0 4 + =
STACK WIN 4 13740 7c 5 0 1c 0 0 0 1 $T0 $ebp = $eip $T0 4 + ^ = $ebp $T0 ^ = $esp $T0 8 + = $L $T0 .cbSavedRegs - = $P $T0 8 + .cbParams + =
STACK WIN 4 13744 76 1 0 1c 4 0 0 1 $T0 $ebp = $eip $T0 4 + ^ = $ebp $T0 ^ = $esp $T0 8 + = $L $T0 .cbSavedRegs - = $P $T0 8 + .cbParams + = $ebx $T0 4 - ^ =
STACK WIN 4 13745 72 0 0 1c 8 0 0 1 $T0 $ebp = $eip $T0 4 + ^ = $ebp $T0 ^ = $esp $T0 8 + = $L $T0 .cbSavedRegs - = $P $T0 8 + .cbParams + = $ebx $T0 4 - ^ =
STACK WIN 4 13776 40 0 0 1c c 0 0 1 $T0 $ebp = $eip $T0 4 + ^ = $ebp $T0 ^ = $esp $T0 8 + = $L $T0 .cbSavedRegs - = $P $T0 8 + .cbParams + = $ebx $T0 4 - ^ =
STACK WIN 4 137bc 8e 3 0 10 0 0 0 1 $T0 $ebp = $eip $T0 4 + ^ = $ebp $T0 ^ = $esp $T0 8 + = $L $T0 .cbSavedRegs - = $P $T0 8 + .cbParams + =
STACK WIN 4 137d6 72 0 0 10 4 0 0 1 $T0 $ebp = $eip $T0 4 + ^ = $ebp $T0 ^ = $esp $T0 8 + = $L $T0 .cbSavedRegs - = $P $T0 8 + .cbParams + =
STACK WIN 4 137eb 5c 0 0 10 8 0 0 1 $T0 $ebp = $eip $T0 4 + ^ = $ebp $T0 ^ = $esp $T0 8 + = $L $T0 .cbSavedRegs - = $P $T0 8 + .cbParams + =
STACK WIN 4 1384a 24a 0 0 4 0 0 0 1 $T2 $esp .cbLocals + .cbSavedRegs + = $T0 .raSearchStart = $eip $T0 ^ = $esp $T0 4 + =
STACK WIN 4 13a94 42 6 0 4 0 20 0 1 $T0 $ebp = $eip $T0 4 + ^ = $ebp $T0 ^ = $esp $T0 8 + = $L $T0 .cbSavedRegs - = $P $T0 8 + .cbParams + =
STACK WIN 4 13ad6 1c3 b 0 18 0 20 0 1 $T0 $ebp = $eip $T0 4 + ^ = $ebp $T0 ^ = $esp $T0 8 + = $L $T0 .cbSavedRegs - = $P $T0 8 + .cbParams + =
STACK WIN 4 13add 1ba 4 0 18 4 20 0 1 $T0 $ebp = $eip $T0 4 + ^ = $ebp $T0 ^ = $esp $T0 8 + = $L $T0 .cbSavedRegs - = $P $T0 8 + .cbParams + =
STACK WIN 4 13ae1 1b5 0 0 18 8 20 0 1 $T0 $ebp = $eip $T0 4 + ^ = $ebp $T0 ^ = $esp $T0 8 + = $L $T0 .cbSavedRegs - = $P $T0 8 + .cbParams + =
STACK WIN 4 13b0f 15b 0 0 18 c 20 0 1 $T0 $ebp = $eip $T0 4 + ^ = $ebp $T0 ^ = $esp $T0 8 + = $L $T0 .cbSavedRegs - = $P $T0 8 + .cbParams + = $ebx $T0 44 - ^ =
STACK WIN 4 13c99 f 0 0 0 0 0 0 1 $T2 $esp .cbLocals + .cbSavedRegs + = $T0 .raSearchStart = $eip $T0 ^ = $esp $T0 4 + =
STACK WIN 4 13ca8 5 0 0 4 0 0 0 1 $T2 $esp .cbLocals + .cbSavedRegs + = $T0 .raSearchStart = $eip $T0 ^ = $esp $T0 4 + =
STACK WIN 4 13cad 5 0 0 4 0 0 0 1 $T2 $esp .cbLocals + .cbSavedRegs + = $T0 .raSearchStart = $eip $T0 ^ = $esp $T0 4 + =
STACK WIN 4 13cb2 10 0 0 8 0 0 0 1 $T2 $esp .cbLocals + .cbSavedRegs + = $T0 .raSearchStart = $eip $T0 ^ = $esp $T0 4 + =
STACK WIN 4 13cc2 2b 1 0 c 0 0 0 1 $T2 $esp .cbLocals + .cbSavedRegs + = $T0 .raSearchStart = $eip $T0 ^ = $esp $T0 4 + =
STACK WIN 4 13cc3 29 0 0 c 4 0 0 1 $T2 $esp .cbLocals + .cbSavedRegs + = $T0 .raSearchStart = $eip $T0 ^ = $esp $T0 4 + =
STACK WIN 4 13ced 67c 0 0 8 0 0 0 1 $T2 $esp .cbLocals + .cbSavedRegs + = $T0 .raSearchStart = $eip $T0 ^ = $esp $T0 4 + =
STACK WIN 4 14369 a6 0 0 8 0 0 0 1 $T2 $esp .cbLocals + .cbSavedRegs + = $T0 .raSearchStart = $eip $T0 ^ = $esp $T0 4 + =
STACK WIN 4 1440f 72 0 0 8 0 0 0 1 $T2 $esp .cbLocals + .cbSavedRegs + = $T0 .raSearchStart = $eip $T0 ^ = $esp $T0 4 + =
STACK WIN 4 14481 5d4 0 0 0 0 0 0 1 $T2 $esp .cbLocals + .cbSavedRegs + = $T0 .raSearchStart = $eip $T0 ^ = $esp $T0 4 + =
STACK WIN 4 14a55 67 0 0 4 0 0 0 1 $T2 $esp .cbLocals + .cbSavedRegs + = $T0 .raSearchStart = $eip $T0 ^ = $esp $T0 4 + =
STACK WIN 4 14abc 6c 10 0 8 0 54 0 1 $T0 $ebp = $eip $T0 4 + ^ = $ebp $T0 ^ = $esp $T0 8 + = $L $T0 .cbSavedRegs - = $P $T0 8 + .cbParams + =
STACK WIN 4 14b28 d08 0 0 0 0 0 0 1 $T2 $esp .cbLocals + .cbSavedRegs + = $T0 .raSearchStart = $eip $T0 ^ = $esp $T0 4 + =
STACK WIN 4 15830 12d 0 0 8 0 0 0 1 $T2 $esp .cbLocals + .cbSavedRegs + = $T0 .raSearchStart = $eip $T0 ^ = $esp $T0 4 + =
STACK WIN 4 1595d 36f 15 0 0 0 80 0 1 $T0 $ebp = $eip $T0 4 + ^ = $ebp $T0 ^ = $esp $T0 8 + = $L $T0 .cbSavedRegs - = $P $T0 8 + .cbParams + =
STACK WIN 4 15971 c8 1 0 0 4 80 0 1 $T0 $ebp = $eip $T0 4 + ^ = $ebp $T0 ^ = $esp $T0 8 + = $L $T0 .cbSavedRegs - = $P $T0 8 + .cbParams + = $ebx $T0 132 - ^ =
STACK WIN 4 15972 c4 0 0 0 8 80 0 1 $T0 $ebp = $eip $T0 4 + ^ = $ebp $T0 ^ = $esp $T0 8 + = $L $T0 .cbSavedRegs - = $P $T0 8 + .cbParams + = $ebx $T0 132 - ^ =
STACK WIN 4 15ccc 18 3 0 0 0 0 0 1 $T2 $esp .cbLocals + .cbSavedRegs + = $T0 .raSearchStart = $eip $T0 ^ = $esp $T0 4 + =
STACK WIN 4 15ccd 16 2 0 0 4 0 0 1 $T2 $esp .cbLocals + .cbSavedRegs + = $T0 .raSearchStart = $eip $T0 ^ = $esp $T0 4 + =
STACK WIN 4 15cd4 e 0 0 0 8 0 0 1 $T2 $esp .cbLocals + .cbSavedRegs + = $T0 .raSearchStart = $eip $T0 ^ = $esp $T0 4 + =
STACK WIN 4 15ce4 1c 3 0 4 0 0 0 1 $T2 $esp .cbLocals + .cbSavedRegs + = $T0 .raSearchStart = $eip $T0 ^ = $esp $T0 4 + =
STACK WIN 4 15ce5 1a 2 0 4 4 0 0 1 $T2 $esp .cbLocals + .cbSavedRegs + = $T0 .raSearchStart = $eip $T0 ^ = $esp $T0 4 + =
STACK WIN 4 15d00 1c 0 0 4 0 0 0 1 $T2 $esp .cbLocals + .cbSavedRegs + = $T0 .raSearchStart = $eip $T0 ^ = $esp $T0 4 + =
STACK WIN 4 15d1c 66 e 0 4 0 4 0 1 $T0 $ebp = $eip $T0 4 + ^ = $ebp $T0 ^ = $esp $T0 8 + = $L $T0 .cbSavedRegs - = $P $T0 8 + .cbParams + =
STACK WIN 4 15d2a 56 0 0 4 4 4 0 1 $T0 $ebp = $eip $T0 4 + ^ = $ebp $T0 ^ = $esp $T0 8 + = $L $T0 .cbSavedRegs - = $P $T0 8 + .cbParams + =
STACK WIN 4 15d82 68 e 0 4 0 4 0 1 $T0 $ebp = $eip $T0 4 + ^ = $ebp $T0 ^ = $esp $T0 8 + = $L $T0 .cbSavedRegs - = $P $T0 8 + .cbParams + =
STACK WIN 4 15d90 58 0 0 4 4 4 0 1 $T0 $ebp = $eip $T0 4 + ^ = $ebp $T0 ^ = $esp $T0 8 + = $L $T0 .cbSavedRegs - = $P $T0 8 + .cbParams + =
STACK WIN 4 15dea e0 16 0 4 0 8 0 1 $T0 $ebp = $eip $T0 4 + ^ = $ebp $T0 ^ = $esp $T0 8 + = $L $T0 .cbSavedRegs - = $P $T0 8 + .cbParams + =
STACK WIN 4 15df9 cf 7 0 4 4 8 0 1 $T0 $ebp = $eip $T0 4 + ^ = $ebp $T0 ^ = $esp $T0 8 + = $L $T0 .cbSavedRegs - = $P $T0 8 + .cbParams + =
STACK WIN 4 15e00 c7 0 0 4 8 8 0 1 $T0 $ebp = $eip $T0 4 + ^ = $ebp $T0 ^ = $esp $T0 8 + = $L $T0 .cbSavedRegs - = $P $T0 8 + .cbParams + =
STACK WIN 4 15eca 68 e 0 4 0 4 0 1 $T0 $ebp = $eip $T0 4 + ^ = $ebp $T0 ^ = $esp $T0 8 + = $L $T0 .cbSavedRegs - = $P $T0 8 + .cbParams + =
STACK WIN 4 15ed8 58 0 0 4 4 4 0 1 $T0 $ebp = $eip $T0 4 + ^ = $ebp $T0 ^ = $esp $T0 8 + = $L $T0 .cbSavedRegs - = $P $T0 8 + .cbParams + =
STACK WIN 4 15f32 e7 17 0 c 0 8 0 1 $T0 $ebp = $eip $T0 4 + ^ = $ebp $T0 ^ = $esp $T0 8 + = $L $T0 .cbSavedRegs - = $P $T0 8 + .cbParams + =
STACK WIN 4 15f41 d6 8 0 c 4 8 0 1 $T0 $ebp = $eip $T0 4 + ^ = $ebp $T0 ^ = $esp $T0 8 + = $L $T0 .cbSavedRegs - = $P $T0 8 + .cbParams + = $ebx $T0 12 - ^ =
STACK WIN 4 15f42 d4 7 0 c 8 8 0 1 $T0 $ebp = $eip $T0 4 + ^ = $ebp $T0 ^ = $esp $T0 8 + = $L $T0 .cbSavedRegs - = $P $T0 8 + .cbParams + = $ebx $T0 12 - ^ =
STACK WIN 4 15f49 cc 0 0 c c 8 0 1 $T0 $ebp = $eip $T0 4 + ^ = $ebp $T0 ^ = $esp $T0 8 + = $L $T0 .cbSavedRegs - = $P $T0 8 + .cbParams + = $ebx $T0 12 - ^ =
STACK WIN 4 16019 140 16 0 8 0 8 0 1 $T0 $ebp = $eip $T0 4 + ^ = $ebp $T0 ^ = $esp $T0 8 + = $L $T0 .cbSavedRegs - = $P $T0 8 + .cbParams + =
STACK WIN 4 16028 12f 7 0 8 4 8 0 1 $T0 $ebp = $eip $T0 4 + ^ = $ebp $T0 ^ = $esp $T0 8 + = $L $T0 .cbSavedRegs - = $P $T0 8 + .cbParams + =
STACK WIN 4 1602f 127 0 0 8 8 8 0 1 $T0 $ebp = $eip $T0 4 + ^ = $ebp $T0 ^ = $esp $T0 8 + = $L $T0 .cbSavedRegs - = $P $T0 8 + .cbParams + =
STACK WIN 4 160da 32 0 0 8 c 8 0 1 $T0 $ebp = $eip $T0 4 + ^ = $ebp $T0 ^ = $esp $T0 8 + = $L $T0 .cbSavedRegs - = $P $T0 8 + .cbParams + = $ebx $T0 20 - ^ =
STACK WIN 4 16159 1c1 16 0 8 0 8 0 1 $T0 $ebp = $eip $T0 4 + ^ = $ebp $T0 ^ = $esp $T0 8 + = $L $T0 .cbSavedRegs - = $P $T0 8 + .cbParams + =
STACK WIN 4 16168 1b0 7 0 8 4 8 0 1 $T0 $ebp = $eip $T0 4 + ^ = $ebp $T0 ^ = $esp $T0 8 + = $L $T0 .cbSavedRegs - = $P $T0 8 + .cbParams + =
STACK WIN 4 1616f 1a8 0 0 8 8 8 0 1 $T0 $ebp = $eip $T0 4 + ^ = $ebp $T0 ^ = $esp $T0 8 + = $L $T0 .cbSavedRegs - = $P $T0 8 + .cbParams + =
STACK WIN 4 161e1 10e 0 0 8 c 8 0 1 $T0 $ebp = $eip $T0 4 + ^ = $ebp $T0 ^ = $esp $T0 8 + = $L $T0 .cbSavedRegs - = $P $T0 8 + .cbParams + = $ebx $T0 36 - ^ =
STACK WIN 4 1631a b5 16 0 c 0 4 0 1 $T0 $ebp = $eip $T0 4 + ^ = $ebp $T0 ^ = $esp $T0 8 + = $L $T0 .cbSavedRegs - = $P $T0 8 + .cbParams + =
STACK WIN 4 16328 a5 8 0 c 4 4 0 1 $T0 $ebp = $eip $T0 4 + ^ = $ebp $T0 ^ = $esp $T0 8 + = $L $T0 .cbSavedRegs - = $P $T0 8 + .cbParams + = $ebx $T0 8 - ^ =
STACK WIN 4 16329 a1 7 0 c 8 4 0 1 $T0 $ebp = $eip $T0 4 + ^ = $ebp $T0 ^ = $esp $T0 8 + = $L $T0 .cbSavedRegs - = $P $T0 8 + .cbParams + = $ebx $T0 8 - ^ =
STACK WIN 4 16330 99 0 0 c c 4 0 1 $T0 $ebp = $eip $T0 4 + ^ = $ebp $T0 ^ = $esp $T0 8 + = $L $T0 .cbSavedRegs - = $P $T0 8 + .cbParams + = $ebx $T0 8 - ^ =
STACK WIN 4 163cf 9c e 0 c 0 4 0 1 $T0 $ebp = $eip $T0 4 + ^ = $ebp $T0 ^ = $esp $T0 8 + = $L $T0 .cbSavedRegs - = $P $T0 8 + .cbParams + =
STACK WIN 4 163dd 8c 0 0 c 4 4 0 1 $T0 $ebp = $eip $T0 4 + ^ = $ebp $T0 ^ = $esp $T0 8 + = $L $T0 .cbSavedRegs - = $P $T0 8 + .cbParams + =
STACK WIN 4 1646b b6 e 0 10 0 4 0 1 $T0 $ebp = $eip $T0 4 + ^ = $ebp $T0 ^ = $esp $T0 8 + = $L $T0 .cbSavedRegs - = $P $T0 8 + .cbParams + =
STACK WIN 4 16479 a6 0 0 10 4 4 0 1 $T0 $ebp = $eip $T0 4 + ^ = $ebp $T0 ^ = $esp $T0 8 + = $L $T0 .cbSavedRegs - = $P $T0 8 + .cbParams + =
STACK WIN 4 16521 97 f 0 c 0 4 0 1 $T0 $ebp = $eip $T0 4 + ^ = $ebp $T0 ^ = $esp $T0 8 + = $L $T0 .cbSavedRegs - = $P $T0 8 + .cbParams + =
STACK WIN 4 1652f 87 1 0 c 4 4 0 1 $T0 $ebp = $eip $T0 4 + ^ = $ebp $T0 ^ = $esp $T0 8 + = $L $T0 .cbSavedRegs - = $P $T0 8 + .cbParams + =
STACK WIN 4 16530 83 0 0 c 8 4 0 1 $T0 $ebp = $eip $T0 4 + ^ = $ebp $T0 ^ = $esp $T0 8 + = $L $T0 .cbSavedRegs - = $P $T0 8 + .cbParams + =
STACK WIN 4 165b8 c9 f 0 14 0 4 0 1 $T0 $ebp = $eip $T0 4 + ^ = $ebp $T0 ^ = $esp $T0 8 + = $L $T0 .cbSavedRegs - = $P $T0 8 + .cbParams + =
STACK WIN 4 165c6 b9 1 0 14 4 4 0 1 $T0 $ebp = $eip $T0 4 + ^ = $ebp $T0 ^ = $esp $T0 8 + = $L $T0 .cbSavedRegs - = $P $T0 8 + .cbParams + =
STACK WIN 4 165c7 b5 0 0 14 8 4 0 1 $T0 $ebp = $eip $T0 4 + ^ = $ebp $T0 ^ = $esp $T0 8 + = $L $T0 .cbSavedRegs - = $P $T0 8 + .cbParams + =
STACK WIN 4 16681 fe 4 0 14 0 4 0 1 $T0 $ebp = $eip $T0 4 + ^ = $ebp $T0 ^ = $esp $T0 8 + = $L $T0 .cbSavedRegs - = $P $T0 8 + .cbParams + =
STACK WIN 4 166ad d0 0 0 14 4 4 0 1 $T0 $ebp = $eip $T0 4 + ^ = $ebp $T0 ^ = $esp $T0 8 + = $L $T0 .cbSavedRegs - = $P $T0 8 + .cbParams + = $ebx $T0 8 - ^ =
STACK WIN 4 166ae cc 0 0 14 8 4 0 1 $T0 $ebp = $eip $T0 4 + ^ = $ebp $T0 ^ = $esp $T0 8 + = $L $T0 .cbSavedRegs - = $P $T0 8 + .cbParams + = $ebx $T0 8 - ^ =
STACK WIN 4 166b5 c4 0 0 14 c 4 0 1 $T0 $ebp = $eip $T0 4 + ^ = $ebp $T0 ^ = $esp $T0 8 + = $L $T0 .cbSavedRegs - = $P $T0 8 + .cbParams + = $ebx $T0 8 - ^ =
STACK WIN 4 1677f 6b 4 0 4 0 4 0 1 $T0 $ebp = $eip $T0 4 + ^ = $ebp $T0 ^ = $esp $T0 8 + = $L $T0 .cbSavedRegs - = $P $T0 8 + .cbParams + =
STACK WIN 4 167a7 41 0 0 4 4 4 0 1 $T0 $ebp = $eip $T0 4 + ^ = $ebp $T0 ^ = $esp $T0 8 + = $L $T0 .cbSavedRegs - = $P $T0 8 + .cbParams + =
STACK WIN 4 167ea 68 e 0 4 0 4 0 1 $T0 $ebp = $eip $T0 4 + ^ = $ebp $T0 ^ = $esp $T0 8 + = $L $T0 .cbSavedRegs - = $P $T0 8 + .cbParams + =
STACK WIN 4 167f8 58 0 0 4 4 4 0 1 $T0 $ebp = $eip $T0 4 + ^ = $ebp $T0 ^ = $esp $T0 8 + = $L $T0 .cbSavedRegs - = $P $T0 8 + .cbParams + =
STACK WIN 4 16852 f0 10 0 8 0 8 0 1 $T0 $ebp = $eip $T0 4 + ^ = $ebp $T0 ^ = $esp $T0 8 + = $L $T0 .cbSavedRegs - = $P $T0 8 + .cbParams + =
STACK WIN 4 16861 df 1 0 8 4 8 0 1 $T0 $ebp = $eip $T0 4 + ^ = $ebp $T0 ^ = $esp $T0 8 + = $L $T0 .cbSavedRegs - = $P $T0 8 + .cbParams + =
STACK WIN 4 16862 dd 0 0 8 8 8 0 1 $T0 $ebp = $eip $T0 4 + ^ = $ebp $T0 ^ = $esp $T0 8 + = $L $T0 .cbSavedRegs - = $P $T0 8 + .cbParams + =
STACK WIN 4 16942 ae 10 0 c 0 4 0 1 $T0 $ebp = $eip $T0 4 + ^ = $ebp $T0 ^ = $esp $T0 8 + = $L $T0 .cbSavedRegs - = $P $T0 8 + .cbParams + =
STACK WIN 4 16950 9e 2 0 c 4 4 0 1 $T0 $ebp = $eip $T0 4 + ^ = $ebp $T0 ^ = $esp $T0 8 + = $L $T0 .cbSavedRegs - = $P $T0 8 + .cbParams + = $ebx $T0 8 - ^ =
STACK WIN 4 16951 9a 1 0 c 8 4 0 1 $T0 $ebp = $eip $T0 4 + ^ = $ebp $T0 ^ = $esp $T0 8 + = $L $T0 .cbSavedRegs - = $P $T0 8 + .cbParams + = $ebx $T0 8 - ^ =
STACK WIN 4 16952 98 0 0 c c 4 0 1 $T0 $ebp = $eip $T0 4 + ^ = $ebp $T0 ^ = $esp $T0 8 + = $L $T0 .cbSavedRegs - = $P $T0 8 + .cbParams + = $ebx $T0 8 - ^ =
STACK WIN 4 169f0 b7 f 0 14 0 4 0 1 $T0 $ebp = $eip $T0 4 + ^ = $ebp $T0 ^ = $esp $T0 8 + = $L $T0 .cbSavedRegs - = $P $T0 8 + .cbParams + =
STACK WIN 4 169fe a7 1 0 14 4 4 0 1 $T0 $ebp = $eip $T0 4 + ^ = $ebp $T0 ^ = $esp $T0 8 + = $L $T0 .cbSavedRegs - = $P $T0 8 + .cbParams + =
STACK WIN 4 169ff a3 0 0 14 8 4 0 1 $T0 $ebp = $eip $T0 4 + ^ = $ebp $T0 ^ = $esp $T0 8 + = $L $T0 .cbSavedRegs - = $P $T0 8 + .cbParams + =
STACK WIN 4 16aa7 b0 f 0 10 0 4 0 1 $T0 $ebp = $eip $T0 4 + ^ = $ebp $T0 ^ = $esp $T0 8 + = $L $T0 .cbSavedRegs - = $P $T0 8 + .cbParams + =
STACK WIN 4 16ab5 a0 1 0 10 4 4 0 1 $T0 $ebp = $eip $T0 4 + ^ = $ebp $T0 ^ = $esp $T0 8 + = $L $T0 .cbSavedRegs - = $P $T0 8 + .cbParams + =
STACK WIN 4 16ab6 9c 0 0 10 8 4 0 1 $T0 $ebp = $eip $T0 4 + ^ = $ebp $T0 ^ = $esp $T0 8 + = $L $T0 .cbSavedRegs - = $P $T0 8 + .cbParams + =
STACK WIN 4 16b57 5f 4 0 4 0 4 0 1 $T0 $ebp = $eip $T0 4 + ^ = $ebp $T0 ^ = $esp $T0 8 + = $L $T0 .cbSavedRegs - = $P $T0 8 + .cbParams + =
STACK WIN 4 16b73 41 0 0 4 4 4 0 1 $T0 $ebp = $eip $T0 4 + ^ = $ebp $T0 ^ = $esp $T0 8 + = $L $T0 .cbSavedRegs - = $P $T0 8 + .cbParams + =
STACK WIN 4 16bb6 c9 f 0 10 0 4 0 1 $T0 $ebp = $eip $T0 4 + ^ = $ebp $T0 ^ = $esp $T0 8 + = $L $T0 .cbSavedRegs - = $P $T0 8 + .cbParams + =
STACK WIN 4 16bc4 b9 1 0 10 4 4 0 1 $T0 $ebp = $eip $T0 4 + ^ = $ebp $T0 ^ = $esp $T0 8 + = $L $T0 .cbSavedRegs - = $P $T0 8 + .cbParams + =
STACK WIN 4 16bc5 b7 0 0 10 8 4 0 1 $T0 $ebp = $eip $T0 4 + ^ = $ebp $T0 ^ = $esp $T0 8 + = $L $T0 .cbSavedRegs - = $P $T0 8 + .cbParams + =
STACK WIN 4 16c7f da f 0 14 0 4 0 1 $T0 $ebp = $eip $T0 4 + ^ = $ebp $T0 ^ = $esp $T0 8 + = $L $T0 .cbSavedRegs - = $P $T0 8 + .cbParams + =
STACK WIN 4 16c8d ca 1 0 14 4 4 0 1 $T0 $ebp = $eip $T0 4 + ^ = $ebp $T0 ^ = $esp $T0 8 + = $L $T0 .cbSavedRegs - = $P $T0 8 + .cbParams + =
STACK WIN 4 16c8e c8 0 0 14 8 4 0 1 $T0 $ebp = $eip $T0 4 + ^ = $ebp $T0 ^ = $esp $T0 8 + = $L $T0 .cbSavedRegs - = $P $T0 8 + .cbParams + =
STACK WIN 4 16d59 6f 4 0 8 0 4 0 1 $T0 $ebp = $eip $T0 4 + ^ = $ebp $T0 ^ = $esp $T0 8 + = $L $T0 .cbSavedRegs - = $P $T0 8 + .cbParams + =
STACK WIN 4 16d75 51 0 0 8 4 4 0 1 $T0 $ebp = $eip $T0 4 + ^ = $ebp $T0 ^ = $esp $T0 8 + = $L $T0 .cbSavedRegs - = $P $T0 8 + .cbParams + =
STACK WIN 4 16dc8 a6 10 0 c 0 4 0 1 $T0 $ebp = $eip $T0 4 + ^ = $ebp $T0 ^ = $esp $T0 8 + = $L $T0 .cbSavedRegs - = $P $T0 8 + .cbParams + =
STACK WIN 4 16dd6 96 2 0 c 4 4 0 1 $T0 $ebp = $eip $T0 4 + ^ = $ebp $T0 ^ = $esp $T0 8 + = $L $T0 .cbSavedRegs - = $P $T0 8 + .cbParams + = $ebx $T0 8 - ^ =
STACK WIN 4 16dd7 92 1 0 c 8 4 0 1 $T0 $ebp = $eip $T0 4 + ^ = $ebp $T0 ^ = $esp $T0 8 + = $L $T0 .cbSavedRegs - = $P $T0 8 + .cbParams + = $ebx $T0 8 - ^ =
STACK WIN 4 16dd8 90 0 0 c c 4 0 1 $T0 $ebp = $eip $T0 4 + ^ = $ebp $T0 ^ = $esp $T0 8 + = $L $T0 .cbSavedRegs - = $P $T0 8 + .cbParams + = $ebx $T0 8 - ^ =
STACK WIN 4 16e6e b3 f 0 10 0 4 0 1 $T0 $ebp = $eip $T0 4 + ^ = $ebp $T0 ^ = $esp $T0 8 + = $L $T0 .cbSavedRegs - = $P $T0 8 + .cbParams + =
STACK WIN 4 16e7c a3 1 0 10 4 4 0 1 $T0 $ebp = $eip $T0 4 + ^ = $ebp $T0 ^ = $esp $T0 8 + = $L $T0 .cbSavedRegs - = $P $T0 8 + .cbParams + =
STACK WIN 4 16e7d 9f 0 0 10 8 4 0 1 $T0 $ebp = $eip $T0 4 + ^ = $ebp $T0 ^ = $esp $T0 8 + = $L $T0 .cbSavedRegs - = $P $T0 8 + .cbParams + =
STACK WIN 4 16f21 b3 f 0 10 0 4 0 1 $T0 $ebp = $eip $T0 4 + ^ = $ebp $T0 ^ = $esp $T0 8 + = $L $T0 .cbSavedRegs - = $P $T0 8 + .cbParams + =
STACK WIN 4 16f2f a3 1 0 10 4 4 0 1 $T0 $ebp = $eip $T0 4 + ^ = $ebp $T0 ^ = $esp $T0 8 + = $L $T0 .cbSavedRegs - = $P $T0 8 + .cbParams + =
STACK WIN 4 16f30 9f 0 0 10 8 4 0 1 $T0 $ebp = $eip $T0 4 + ^ = $ebp $T0 ^ = $esp $T0 8 + = $L $T0 .cbSavedRegs - = $P $T0 8 + .cbParams + =
STACK WIN 4 16fd4 a2 f 0 c 0 4 0 1 $T0 $ebp = $eip $T0 4 + ^ = $ebp $T0 ^ = $esp $T0 8 + = $L $T0 .cbSavedRegs - = $P $T0 8 + .cbParams + =
STACK WIN 4 16fe2 92 1 0 c 4 4 0 1 $T0 $ebp = $eip $T0 4 + ^ = $ebp $T0 ^ = $esp $T0 8 + = $L $T0 .cbSavedRegs - = $P $T0 8 + .cbParams + =
STACK WIN 4 16fe3 8e 0 0 c 8 4 0 1 $T0 $ebp = $eip $T0 4 + ^ = $ebp $T0 ^ = $esp $T0 8 + = $L $T0 .cbSavedRegs - = $P $T0 8 + .cbParams + =
STACK WIN 4 17076 101 10 0 10 0 4 0 1 $T0 $ebp = $eip $T0 4 + ^ = $ebp $T0 ^ = $esp $T0 8 + = $L $T0 .cbSavedRegs - = $P $T0 8 + .cbParams + =
STACK WIN 4 17084 f1 2 0 10 4 4 0 1 $T0 $ebp = $eip $T0 4 + ^ = $ebp $T0 ^ = $esp $T0 8 + = $L $T0 .cbSavedRegs - = $P $T0 8 + .cbParams + = $ebx $T0 8 - ^ =
STACK WIN 4 17085 ef 1 0 10 8 4 0 1 $T0 $ebp = $eip $T0 4 + ^ = $ebp $T0 ^ = $esp $T0 8 + = $L $T0 .cbSavedRegs - = $P $T0 8 + .cbParams + = $ebx $T0 8 - ^ =
STACK WIN 4 17086 ed 0 0 10 c 4 0 1 $T0 $ebp = $eip $T0 4 + ^ = $ebp $T0 ^ = $esp $T0 8 + = $L $T0 .cbSavedRegs - = $P $T0 8 + .cbParams + = $ebx $T0 8 - ^ =
STACK WIN 4 17177 5f 4 0 4 0 4 0 1 $T0 $ebp = $eip $T0 4 + ^ = $ebp $T0 ^ = $esp $T0 8 + = $L $T0 .cbSavedRegs - = $P $T0 8 + .cbParams + =
STACK WIN 4 17193 41 0 0 4 4 4 0 1 $T0 $ebp = $eip $T0 4 + ^ = $ebp $T0 ^ = $esp $T0 8 + = $L $T0 .cbSavedRegs - = $P $T0 8 + .cbParams + =
STACK WIN 4 171d6 96 f 0 c 0 4 0 1 $T0 $ebp = $eip $T0 4 + ^ = $ebp $T0 ^ = $esp $T0 8 + = $L $T0 .cbSavedRegs - = $P $T0 8 + .cbParams + =
STACK WIN 4 171e4 86 1 0 c 4 4 0 1 $T0 $ebp = $eip $T0 4 + ^ = $ebp $T0 ^ = $esp $T0 8 + = $L $T0 .cbSavedRegs - = $P $T0 8 + .cbParams + =
STACK WIN 4 171e5 82 0 0 c 8 4 0 1 $T0 $ebp = $eip $T0 4 + ^ = $ebp $T0 ^ = $esp $T0 8 + = $L $T0 .cbSavedRegs - = $P $T0 8 + .cbParams + =
STACK WIN 4 1726c e0 10 0 14 0 4 0 1 $T0 $ebp = $eip $T0 4 + ^ = $ebp $T0 ^ = $esp $T0 8 + = $L $T0 .cbSavedRegs - = $P $T0 8 + .cbParams + =
STACK WIN 4 1727a d0 2 0 14 4 4 0 1 $T0 $ebp = $eip $T0 4 + ^ = $ebp $T0 ^ = $esp $T0 8 + = $L $T0 .cbSavedRegs - = $P $T0 8 + .cbParams + = $ebx $T0 8 - ^ =
STACK WIN 4 1727b cc 1 0 14 8 4 0 1 $T0 $ebp = $eip $T0 4 + ^ = $ebp $T0 ^ = $esp $T0 8 + = $L $T0 .cbSavedRegs - = $P $T0 8 + .cbParams + = $ebx $T0 8 - ^ =
STACK WIN 4 1727c ca 0 0 14 c 4 0 1 $T0 $ebp = $eip $T0 4 + ^ = $ebp $T0 ^ = $esp $T0 8 + = $L $T0 .cbSavedRegs - = $P $T0 8 + .cbParams + = $ebx $T0 8 - ^ =
STACK WIN 4 1734c e0 10 0 14 0 4 0 1 $T0 $ebp = $eip $T0 4 + ^ = $ebp $T0 ^ = $esp $T0 8 + = $L $T0 .cbSavedRegs - = $P $T0 8 + .cbParams + =
STACK WIN 4 1735a d0 2 0 14 4 4 0 1 $T0 $ebp = $eip $T0 4 + ^ = $ebp $T0 ^ = $esp $T0 8 + = $L $T0 .cbSavedRegs - = $P $T0 8 + .cbParams + = $ebx $T0 8 - ^ =
STACK WIN 4 1735b cc 1 0 14 8 4 0 1 $T0 $ebp = $eip $T0 4 + ^ = $ebp $T0 ^ = $esp $T0 8 + = $L $T0 .cbSavedRegs - = $P $T0 8 + .cbParams + = $ebx $T0 8 - ^ =
STACK WIN 4 1735c ca 0 0 14 c 4 0 1 $T0 $ebp = $eip $T0 4 + ^ = $ebp $T0 ^ = $esp $T0 8 + = $L $T0 .cbSavedRegs - = $P $T0 8 + .cbParams + = $ebx $T0 8 - ^ =
STACK WIN 4 1742c b1 10 0 c 0 4 0 1 $T0 $ebp = $eip $T0 4 + ^ = $ebp $T0 ^ = $esp $T0 8 + = $L $T0 .cbSavedRegs - = $P $T0 8 + .cbParams + =
STACK WIN 4 1743a a1 2 0 c 4 4 0 1 $T0 $ebp = $eip $T0 4 + ^ = $ebp $T0 ^ = $esp $T0 8 + = $L $T0 .cbSavedRegs - = $P $T0 8 + .cbParams + = $ebx $T0 8 - ^ =
STACK WIN 4 1743b 9d 1 0 c 8 4 0 1 $T0 $ebp = $eip $T0 4 + ^ = $ebp $T0 ^ = $esp $T0 8 + = $L $T0 .cbSavedRegs - = $P $T0 8 + .cbParams + = $ebx $T0 8 - ^ =
STACK WIN 4 1743c 9b 0 0 c c 4 0 1 $T0 $ebp = $eip $T0 4 + ^ = $ebp $T0 ^ = $esp $T0 8 + = $L $T0 .cbSavedRegs - = $P $T0 8 + .cbParams + = $ebx $T0 8 - ^ =
STACK WIN 4 174dd 99 f 0 c 0 4 0 1 $T0 $ebp = $eip $T0 4 + ^ = $ebp $T0 ^ = $esp $T0 8 + = $L $T0 .cbSavedRegs - = $P $T0 8 + .cbParams + =
STACK WIN 4 174eb 89 1 0 c 4 4 0 1 $T0 $ebp = $eip $T0 4 + ^ = $ebp $T0 ^ = $esp $T0 8 + = $L $T0 .cbSavedRegs - = $P $T0 8 + .cbParams + =
STACK WIN 4 174ec 85 0 0 c 8 4 0 1 $T0 $ebp = $eip $T0 4 + ^ = $ebp $T0 ^ = $esp $T0 8 + = $L $T0 .cbSavedRegs - = $P $T0 8 + .cbParams + =
STACK WIN 4 17576 e3 10 0 14 0 4 0 1 $T0 $ebp = $eip $T0 4 + ^ = $ebp $T0 ^ = $esp $T0 8 + = $L $T0 .cbSavedRegs - = $P $T0 8 + .cbParams + =
STACK WIN 4 17584 d3 2 0 14 4 4 0 1 $T0 $ebp = $eip $T0 4 + ^ = $ebp $T0 ^ = $esp $T0 8 + = $L $T0 .cbSavedRegs - = $P $T0 8 + .cbParams + = $ebx $T0 8 - ^ =
STACK WIN 4 17585 cf 1 0 14 8 4 0 1 $T0 $ebp = $eip $T0 4 + ^ = $ebp $T0 ^ = $esp $T0 8 + = $L $T0 .cbSavedRegs - = $P $T0 8 + .cbParams + = $ebx $T0 8 - ^ =
STACK WIN 4 17586 cd 0 0 14 c 4 0 1 $T0 $ebp = $eip $T0 4 + ^ = $ebp $T0 ^ = $esp $T0 8 + = $L $T0 .cbSavedRegs - = $P $T0 8 + .cbParams + = $ebx $T0 8 - ^ =
STACK WIN 4 17659 e3 10 0 14 0 4 0 1 $T0 $ebp = $eip $T0 4 + ^ = $ebp $T0 ^ = $esp $T0 8 + = $L $T0 .cbSavedRegs - = $P $T0 8 + .cbParams + =
STACK WIN 4 17667 d3 2 0 14 4 4 0 1 $T0 $ebp = $eip $T0 4 + ^ = $ebp $T0 ^ = $esp $T0 8 + = $L $T0 .cbSavedRegs - = $P $T0 8 + .cbParams + = $ebx $T0 8 - ^ =
STACK WIN 4 17668 cf 1 0 14 8 4 0 1 $T0 $ebp = $eip $T0 4 + ^ = $ebp $T0 ^ = $esp $T0 8 + = $L $T0 .cbSavedRegs - = $P $T0 8 + .cbParams + = $ebx $T0 8 - ^ =
STACK WIN 4 17669 cd 0 0 14 c 4 0 1 $T0 $ebp = $eip $T0 4 + ^ = $ebp $T0 ^ = $esp $T0 8 + = $L $T0 .cbSavedRegs - = $P $T0 8 + .cbParams + = $ebx $T0 8 - ^ =
STACK WIN 4 1773c b1 10 0 c 0 4 0 1 $T0 $ebp = $eip $T0 4 + ^ = $ebp $T0 ^ = $esp $T0 8 + = $L $T0 .cbSavedRegs - = $P $T0 8 + .cbParams + =
STACK WIN 4 1774a a1 2 0 c 4 4 0 1 $T0 $ebp = $eip $T0 4 + ^ = $ebp $T0 ^ = $esp $T0 8 + = $L $T0 .cbSavedRegs - = $P $T0 8 + .cbParams + = $ebx $T0 8 - ^ =
STACK WIN 4 1774b 9d 1 0 c 8 4 0 1 $T0 $ebp = $eip $T0 4 + ^ = $ebp $T0 ^ = $esp $T0 8 + = $L $T0 .cbSavedRegs - = $P $T0 8 + .cbParams + = $ebx $T0 8 - ^ =
STACK WIN 4 1774c 9b 0 0 c c 4 0 1 $T0 $ebp = $eip $T0 4 + ^ = $ebp $T0 ^ = $esp $T0 8 + = $L $T0 .cbSavedRegs - = $P $T0 8 + .cbParams + = $ebx $T0 8 - ^ =
STACK WIN 4 177ed 89 f 0 8 0 4 0 1 $T0 $ebp = $eip $T0 4 + ^ = $ebp $T0 ^ = $esp $T0 8 + = $L $T0 .cbSavedRegs - = $P $T0 8 + .cbParams + =
STACK WIN 4 177fb 79 1 0 8 4 4 0 1 $T0 $ebp = $eip $T0 4 + ^ = $ebp $T0 ^ = $esp $T0 8 + = $L $T0 .cbSavedRegs - = $P $T0 8 + .cbParams + =
STACK WIN 4 177fc 75 0 0 8 8 4 0 1 $T0 $ebp = $eip $T0 4 + ^ = $ebp $T0 ^ = $esp $T0 8 + = $L $T0 .cbSavedRegs - = $P $T0 8 + .cbParams + =
STACK WIN 4 17876 e3 10 0 14 0 4 0 1 $T0 $ebp = $eip $T0 4 + ^ = $ebp $T0 ^ = $esp $T0 8 + = $L $T0 .cbSavedRegs - = $P $T0 8 + .cbParams + =
STACK WIN 4 17884 d3 2 0 14 4 4 0 1 $T0 $ebp = $eip $T0 4 + ^ = $ebp $T0 ^ = $esp $T0 8 + = $L $T0 .cbSavedRegs - = $P $T0 8 + .cbParams + = $ebx $T0 8 - ^ =
STACK WIN 4 17885 cf 1 0 14 8 4 0 1 $T0 $ebp = $eip $T0 4 + ^ = $ebp $T0 ^ = $esp $T0 8 + = $L $T0 .cbSavedRegs - = $P $T0 8 + .cbParams + = $ebx $T0 8 - ^ =
STACK WIN 4 17886 cd 0 0 14 c 4 0 1 $T0 $ebp = $eip $T0 4 + ^ = $ebp $T0 ^ = $esp $T0 8 + = $L $T0 .cbSavedRegs - = $P $T0 8 + .cbParams + = $ebx $T0 8 - ^ =
STACK WIN 4 17959 9a f 0 c 0 4 0 1 $T0 $ebp = $eip $T0 4 + ^ = $ebp $T0 ^ = $esp $T0 8 + = $L $T0 .cbSavedRegs - = $P $T0 8 + .cbParams + =
STACK WIN 4 17967 8a 1 0 c 4 4 0 1 $T0 $ebp = $eip $T0 4 + ^ = $ebp $T0 ^ = $esp $T0 8 + = $L $T0 .cbSavedRegs - = $P $T0 8 + .cbParams + =
STACK WIN 4 17968 86 0 0 c 8 4 0 1 $T0 $ebp = $eip $T0 4 + ^ = $ebp $T0 ^ = $esp $T0 8 + = $L $T0 .cbSavedRegs - = $P $T0 8 + .cbParams + =
STACK WIN 4 179f3 65 4 0 8 0 4 0 1 $T0 $ebp = $eip $T0 4 + ^ = $ebp $T0 ^ = $esp $T0 8 + = $L $T0 .cbSavedRegs - = $P $T0 8 + .cbParams + =
STACK WIN 4 17a0f 47 0 0 8 4 4 0 1 $T0 $ebp = $eip $T0 4 + ^ = $ebp $T0 ^ = $esp $T0 8 + = $L $T0 .cbSavedRegs - = $P $T0 8 + .cbParams + =
STACK WIN 4 17a58 b1 10 0 c 0 4 0 1 $T0 $ebp = $eip $T0 4 + ^ = $ebp $T0 ^ = $esp $T0 8 + = $L $T0 .cbSavedRegs - = $P $T0 8 + .cbParams + =
STACK WIN 4 17a66 a1 2 0 c 4 4 0 1 $T0 $ebp = $eip $T0 4 + ^ = $ebp $T0 ^ = $esp $T0 8 + = $L $T0 .cbSavedRegs - = $P $T0 8 + .cbParams + = $ebx $T0 8 - ^ =
STACK WIN 4 17a67 9d 1 0 c 8 4 0 1 $T0 $ebp = $eip $T0 4 + ^ = $ebp $T0 ^ = $esp $T0 8 + = $L $T0 .cbSavedRegs - = $P $T0 8 + .cbParams + = $ebx $T0 8 - ^ =
STACK WIN 4 17a68 9b 0 0 c c 4 0 1 $T0 $ebp = $eip $T0 4 + ^ = $ebp $T0 ^ = $esp $T0 8 + = $L $T0 .cbSavedRegs - = $P $T0 8 + .cbParams + = $ebx $T0 8 - ^ =
STACK WIN 4 17b09 99 f 0 c 0 4 0 1 $T0 $ebp = $eip $T0 4 + ^ = $ebp $T0 ^ = $esp $T0 8 + = $L $T0 .cbSavedRegs - = $P $T0 8 + .cbParams + =
STACK WIN 4 17b17 89 1 0 c 4 4 0 1 $T0 $ebp = $eip $T0 4 + ^ = $ebp $T0 ^ = $esp $T0 8 + = $L $T0 .cbSavedRegs - = $P $T0 8 + .cbParams + =
STACK WIN 4 17b18 85 0 0 c 8 4 0 1 $T0 $ebp = $eip $T0 4 + ^ = $ebp $T0 ^ = $esp $T0 8 + = $L $T0 .cbSavedRegs - = $P $T0 8 + .cbParams + =
STACK WIN 4 17ba2 e3 10 0 14 0 4 0 1 $T0 $ebp = $eip $T0 4 + ^ = $ebp $T0 ^ = $esp $T0 8 + = $L $T0 .cbSavedRegs - = $P $T0 8 + .cbParams + =
STACK WIN 4 17bb0 d3 2 0 14 4 4 0 1 $T0 $ebp = $eip $T0 4 + ^ = $ebp $T0 ^ = $esp $T0 8 + = $L $T0 .cbSavedRegs - = $P $T0 8 + .cbParams + = $ebx $T0 8 - ^ =
STACK WIN 4 17bb1 cf 1 0 14 8 4 0 1 $T0 $ebp = $eip $T0 4 + ^ = $ebp $T0 ^ = $esp $T0 8 + = $L $T0 .cbSavedRegs - = $P $T0 8 + .cbParams + = $ebx $T0 8 - ^ =
STACK WIN 4 17bb2 cd 0 0 14 c 4 0 1 $T0 $ebp = $eip $T0 4 + ^ = $ebp $T0 ^ = $esp $T0 8 + = $L $T0 .cbSavedRegs - = $P $T0 8 + .cbParams + = $ebx $T0 8 - ^ =
STACK WIN 4 17c85 9a f 0 c 0 4 0 1 $T0 $ebp = $eip $T0 4 + ^ = $ebp $T0 ^ = $esp $T0 8 + = $L $T0 .cbSavedRegs - = $P $T0 8 + .cbParams + =
STACK WIN 4 17c93 8a 1 0 c 4 4 0 1 $T0 $ebp = $eip $T0 4 + ^ = $ebp $T0 ^ = $esp $T0 8 + = $L $T0 .cbSavedRegs - = $P $T0 8 + .cbParams + =
STACK WIN 4 17c94 86 0 0 c 8 4 0 1 $T0 $ebp = $eip $T0 4 + ^ = $ebp $T0 ^ = $esp $T0 8 + = $L $T0 .cbSavedRegs - = $P $T0 8 + .cbParams + =
STACK WIN 4 17d1f b1 10 0 c 0 4 0 1 $T0 $ebp = $eip $T0 4 + ^ = $ebp $T0 ^ = $esp $T0 8 + = $L $T0 .cbSavedRegs - = $P $T0 8 + .cbParams + =
STACK WIN 4 17d2d a1 2 0 c 4 4 0 1 $T0 $ebp = $eip $T0 4 + ^ = $ebp $T0 ^ = $esp $T0 8 + = $L $T0 .cbSavedRegs - = $P $T0 8 + .cbParams + = $ebx $T0 8 - ^ =
STACK WIN 4 17d2e 9d 1 0 c 8 4 0 1 $T0 $ebp = $eip $T0 4 + ^ = $ebp $T0 ^ = $esp $T0 8 + = $L $T0 .cbSavedRegs - = $P $T0 8 + .cbParams + = $ebx $T0 8 - ^ =
STACK WIN 4 17d2f 9b 0 0 c c 4 0 1 $T0 $ebp = $eip $T0 4 + ^ = $ebp $T0 ^ = $esp $T0 8 + = $L $T0 .cbSavedRegs - = $P $T0 8 + .cbParams + = $ebx $T0 8 - ^ =
STACK WIN 4 17dd0 99 f 0 c 0 4 0 1 $T0 $ebp = $eip $T0 4 + ^ = $ebp $T0 ^ = $esp $T0 8 + = $L $T0 .cbSavedRegs - = $P $T0 8 + .cbParams + =
STACK WIN 4 17dde 89 1 0 c 4 4 0 1 $T0 $ebp = $eip $T0 4 + ^ = $ebp $T0 ^ = $esp $T0 8 + = $L $T0 .cbSavedRegs - = $P $T0 8 + .cbParams + =
STACK WIN 4 17ddf 85 0 0 c 8 4 0 1 $T0 $ebp = $eip $T0 4 + ^ = $ebp $T0 ^ = $esp $T0 8 + = $L $T0 .cbSavedRegs - = $P $T0 8 + .cbParams + =
STACK WIN 4 17e69 e3 10 0 14 0 4 0 1 $T0 $ebp = $eip $T0 4 + ^ = $ebp $T0 ^ = $esp $T0 8 + = $L $T0 .cbSavedRegs - = $P $T0 8 + .cbParams + =
STACK WIN 4 17e77 d3 2 0 14 4 4 0 1 $T0 $ebp = $eip $T0 4 + ^ = $ebp $T0 ^ = $esp $T0 8 + = $L $T0 .cbSavedRegs - = $P $T0 8 + .cbParams + = $ebx $T0 8 - ^ =
STACK WIN 4 17e78 cf 1 0 14 8 4 0 1 $T0 $ebp = $eip $T0 4 + ^ = $ebp $T0 ^ = $esp $T0 8 + = $L $T0 .cbSavedRegs - = $P $T0 8 + .cbParams + = $ebx $T0 8 - ^ =
STACK WIN 4 17e79 cd 0 0 14 c 4 0 1 $T0 $ebp = $eip $T0 4 + ^ = $ebp $T0 ^ = $esp $T0 8 + = $L $T0 .cbSavedRegs - = $P $T0 8 + .cbParams + = $ebx $T0 8 - ^ =
STACK WIN 4 17f4c 99 f 0 c 0 4 0 1 $T0 $ebp = $eip $T0 4 + ^ = $ebp $T0 ^ = $esp $T0 8 + = $L $T0 .cbSavedRegs - = $P $T0 8 + .cbParams + =
STACK WIN 4 17f5a 89 1 0 c 4 4 0 1 $T0 $ebp = $eip $T0 4 + ^ = $ebp $T0 ^ = $esp $T0 8 + = $L $T0 .cbSavedRegs - = $P $T0 8 + .cbParams + =
STACK WIN 4 17f5b 85 0 0 c 8 4 0 1 $T0 $ebp = $eip $T0 4 + ^ = $ebp $T0 ^ = $esp $T0 8 + = $L $T0 .cbSavedRegs - = $P $T0 8 + .cbParams + =
STACK WIN 4 17fe8 cc f 0 14 0 4 0 1 $T0 $ebp = $eip $T0 4 + ^ = $ebp $T0 ^ = $esp $T0 8 + = $L $T0 .cbSavedRegs - = $P $T0 8 + .cbParams + =
STACK WIN 4 17ff6 bc 1 0 14 4 4 0 1 $T0 $ebp = $eip $T0 4 + ^ = $ebp $T0 ^ = $esp $T0 8 + = $L $T0 .cbSavedRegs - = $P $T0 8 + .cbParams + =
STACK WIN 4 17ff7 b8 0 0 14 8 4 0 1 $T0 $ebp = $eip $T0 4 + ^ = $ebp $T0 ^ = $esp $T0 8 + = $L $T0 .cbSavedRegs - = $P $T0 8 + .cbParams + =
STACK WIN 4 180b4 9a f 0 c 0 4 0 1 $T0 $ebp = $eip $T0 4 + ^ = $ebp $T0 ^ = $esp $T0 8 + = $L $T0 .cbSavedRegs - = $P $T0 8 + .cbParams + =
STACK WIN 4 180c2 8a 1 0 c 4 4 0 1 $T0 $ebp = $eip $T0 4 + ^ = $ebp $T0 ^ = $esp $T0 8 + = $L $T0 .cbSavedRegs - = $P $T0 8 + .cbParams + =
STACK WIN 4 180c3 86 0 0 c 8 4 0 1 $T0 $ebp = $eip $T0 4 + ^ = $ebp $T0 ^ = $esp $T0 8 + = $L $T0 .cbSavedRegs - = $P $T0 8 + .cbParams + =
STACK WIN 4 1814e 9a f 0 c 0 4 0 1 $T0 $ebp = $eip $T0 4 + ^ = $ebp $T0 ^ = $esp $T0 8 + = $L $T0 .cbSavedRegs - = $P $T0 8 + .cbParams + =
STACK WIN 4 1815c 8a 1 0 c 4 4 0 1 $T0 $ebp = $eip $T0 4 + ^ = $ebp $T0 ^ = $esp $T0 8 + = $L $T0 .cbSavedRegs - = $P $T0 8 + .cbParams + =
STACK WIN 4 1815d 86 0 0 c 8 4 0 1 $T0 $ebp = $eip $T0 4 + ^ = $ebp $T0 ^ = $esp $T0 8 + = $L $T0 .cbSavedRegs - = $P $T0 8 + .cbParams + =
STACK WIN 4 181e8 99 f 0 c 0 4 0 1 $T0 $ebp = $eip $T0 4 + ^ = $ebp $T0 ^ = $esp $T0 8 + = $L $T0 .cbSavedRegs - = $P $T0 8 + .cbParams + =
STACK WIN 4 181f6 89 1 0 c 4 4 0 1 $T0 $ebp = $eip $T0 4 + ^ = $ebp $T0 ^ = $esp $T0 8 + = $L $T0 .cbSavedRegs - = $P $T0 8 + .cbParams + =
STACK WIN 4 181f7 85 0 0 c 8 4 0 1 $T0 $ebp = $eip $T0 4 + ^ = $ebp $T0 ^ = $esp $T0 8 + = $L $T0 .cbSavedRegs - = $P $T0 8 + .cbParams + =
STACK WIN 4 18281 e3 10 0 14 0 4 0 1 $T0 $ebp = $eip $T0 4 + ^ = $ebp $T0 ^ = $esp $T0 8 + = $L $T0 .cbSavedRegs - = $P $T0 8 + .cbParams + =
STACK WIN 4 1828f d3 2 0 14 4 4 0 1 $T0 $ebp = $eip $T0 4 + ^ = $ebp $T0 ^ = $esp $T0 8 + = $L $T0 .cbSavedRegs - = $P $T0 8 + .cbParams + = $ebx $T0 8 - ^ =
STACK WIN 4 18290 cf 1 0 14 8 4 0 1 $T0 $ebp = $eip $T0 4 + ^ = $ebp $T0 ^ = $esp $T0 8 + = $L $T0 .cbSavedRegs - = $P $T0 8 + .cbParams + = $ebx $T0 8 - ^ =
STACK WIN 4 18291 cd 0 0 14 c 4 0 1 $T0 $ebp = $eip $T0 4 + ^ = $ebp $T0 ^ = $esp $T0 8 + = $L $T0 .cbSavedRegs - = $P $T0 8 + .cbParams + = $ebx $T0 8 - ^ =
STACK WIN 4 18364 e3 10 0 14 0 4 0 1 $T0 $ebp = $eip $T0 4 + ^ = $ebp $T0 ^ = $esp $T0 8 + = $L $T0 .cbSavedRegs - = $P $T0 8 + .cbParams + =
STACK WIN 4 18372 d3 2 0 14 4 4 0 1 $T0 $ebp = $eip $T0 4 + ^ = $ebp $T0 ^ = $esp $T0 8 + = $L $T0 .cbSavedRegs - = $P $T0 8 + .cbParams + = $ebx $T0 8 - ^ =
STACK WIN 4 18373 cf 1 0 14 8 4 0 1 $T0 $ebp = $eip $T0 4 + ^ = $ebp $T0 ^ = $esp $T0 8 + = $L $T0 .cbSavedRegs - = $P $T0 8 + .cbParams + = $ebx $T0 8 - ^ =
STACK WIN 4 18374 cd 0 0 14 c 4 0 1 $T0 $ebp = $eip $T0 4 + ^ = $ebp $T0 ^ = $esp $T0 8 + = $L $T0 .cbSavedRegs - = $P $T0 8 + .cbParams + = $ebx $T0 8 - ^ =
STACK WIN 4 18447 e3 10 0 14 0 4 0 1 $T0 $ebp = $eip $T0 4 + ^ = $ebp $T0 ^ = $esp $T0 8 + = $L $T0 .cbSavedRegs - = $P $T0 8 + .cbParams + =
STACK WIN 4 18455 d3 2 0 14 4 4 0 1 $T0 $ebp = $eip $T0 4 + ^ = $ebp $T0 ^ = $esp $T0 8 + = $L $T0 .cbSavedRegs - = $P $T0 8 + .cbParams + = $ebx $T0 8 - ^ =
STACK WIN 4 18456 cf 1 0 14 8 4 0 1 $T0 $ebp = $eip $T0 4 + ^ = $ebp $T0 ^ = $esp $T0 8 + = $L $T0 .cbSavedRegs - = $P $T0 8 + .cbParams + = $ebx $T0 8 - ^ =
STACK WIN 4 18457 cd 0 0 14 c 4 0 1 $T0 $ebp = $eip $T0 4 + ^ = $ebp $T0 ^ = $esp $T0 8 + = $L $T0 .cbSavedRegs - = $P $T0 8 + .cbParams + = $ebx $T0 8 - ^ =
STACK WIN 4 1852a e3 10 0 14 0 4 0 1 $T0 $ebp = $eip $T0 4 + ^ = $ebp $T0 ^ = $esp $T0 8 + = $L $T0 .cbSavedRegs - = $P $T0 8 + .cbParams + =
STACK WIN 4 18538 d3 2 0 14 4 4 0 1 $T0 $ebp = $eip $T0 4 + ^ = $ebp $T0 ^ = $esp $T0 8 + = $L $T0 .cbSavedRegs - = $P $T0 8 + .cbParams + = $ebx $T0 8 - ^ =
STACK WIN 4 18539 cf 1 0 14 8 4 0 1 $T0 $ebp = $eip $T0 4 + ^ = $ebp $T0 ^ = $esp $T0 8 + = $L $T0 .cbSavedRegs - = $P $T0 8 + .cbParams + = $ebx $T0 8 - ^ =
STACK WIN 4 1853a cd 0 0 14 c 4 0 1 $T0 $ebp = $eip $T0 4 + ^ = $ebp $T0 ^ = $esp $T0 8 + = $L $T0 .cbSavedRegs - = $P $T0 8 + .cbParams + = $ebx $T0 8 - ^ =
STACK WIN 4 1860d e3 10 0 14 0 4 0 1 $T0 $ebp = $eip $T0 4 + ^ = $ebp $T0 ^ = $esp $T0 8 + = $L $T0 .cbSavedRegs - = $P $T0 8 + .cbParams + =
STACK WIN 4 1861b d3 2 0 14 4 4 0 1 $T0 $ebp = $eip $T0 4 + ^ = $ebp $T0 ^ = $esp $T0 8 + = $L $T0 .cbSavedRegs - = $P $T0 8 + .cbParams + = $ebx $T0 8 - ^ =
STACK WIN 4 1861c cf 1 0 14 8 4 0 1 $T0 $ebp = $eip $T0 4 + ^ = $ebp $T0 ^ = $esp $T0 8 + = $L $T0 .cbSavedRegs - = $P $T0 8 + .cbParams + = $ebx $T0 8 - ^ =
STACK WIN 4 1861d cd 0 0 14 c 4 0 1 $T0 $ebp = $eip $T0 4 + ^ = $ebp $T0 ^ = $esp $T0 8 + = $L $T0 .cbSavedRegs - = $P $T0 8 + .cbParams + = $ebx $T0 8 - ^ =
STACK WIN 4 186f0 ed f 0 14 0 4 0 1 $T0 $ebp = $eip $T0 4 + ^ = $ebp $T0 ^ = $esp $T0 8 + = $L $T0 .cbSavedRegs - = $P $T0 8 + .cbParams + =
STACK WIN 4 186fe dd 1 0 14 4 4 0 1 $T0 $ebp = $eip $T0 4 + ^ = $ebp $T0 ^ = $esp $T0 8 + = $L $T0 .cbSavedRegs - = $P $T0 8 + .cbParams + =
STACK WIN 4 186ff db 0 0 14 8 4 0 1 $T0 $ebp = $eip $T0 4 + ^ = $ebp $T0 ^ = $esp $T0 8 + = $L $T0 .cbSavedRegs - = $P $T0 8 + .cbParams + =
STACK WIN 4 187dd 152 10 0 20 0 4 0 1 $T0 $ebp = $eip $T0 4 + ^ = $ebp $T0 ^ = $esp $T0 8 + = $L $T0 .cbSavedRegs - = $P $T0 8 + .cbParams + =
STACK WIN 4 187eb 142 2 0 20 4 4 0 1 $T0 $ebp = $eip $T0 4 + ^ = $ebp $T0 ^ = $esp $T0 8 + = $L $T0 .cbSavedRegs - = $P $T0 8 + .cbParams + = $ebx $T0 8 - ^ =
STACK WIN 4 187ec 140 1 0 20 8 4 0 1 $T0 $ebp = $eip $T0 4 + ^ = $ebp $T0 ^ = $esp $T0 8 + = $L $T0 .cbSavedRegs - = $P $T0 8 + .cbParams + = $ebx $T0 8 - ^ =
STACK WIN 4 187ed 13e 0 0 20 c 4 0 1 $T0 $ebp = $eip $T0 4 + ^ = $ebp $T0 ^ = $esp $T0 8 + = $L $T0 .cbSavedRegs - = $P $T0 8 + .cbParams + = $ebx $T0 8 - ^ =
STACK WIN 4 1892f f5 10 0 18 0 4 0 1 $T0 $ebp = $eip $T0 4 + ^ = $ebp $T0 ^ = $esp $T0 8 + = $L $T0 .cbSavedRegs - = $P $T0 8 + .cbParams + =
STACK WIN 4 1893d e5 2 0 18 4 4 0 1 $T0 $ebp = $eip $T0 4 + ^ = $ebp $T0 ^ = $esp $T0 8 + = $L $T0 .cbSavedRegs - = $P $T0 8 + .cbParams + = $ebx $T0 8 - ^ =
STACK WIN 4 1893e e1 1 0 18 8 4 0 1 $T0 $ebp = $eip $T0 4 + ^ = $ebp $T0 ^ = $esp $T0 8 + = $L $T0 .cbSavedRegs - = $P $T0 8 + .cbParams + = $ebx $T0 8 - ^ =
STACK WIN 4 1893f df 0 0 18 c 4 0 1 $T0 $ebp = $eip $T0 4 + ^ = $ebp $T0 ^ = $esp $T0 8 + = $L $T0 .cbSavedRegs - = $P $T0 8 + .cbParams + = $ebx $T0 8 - ^ =
STACK WIN 4 18a24 131 f 0 20 0 4 0 1 $T0 $ebp = $eip $T0 4 + ^ = $ebp $T0 ^ = $esp $T0 8 + = $L $T0 .cbSavedRegs - = $P $T0 8 + .cbParams + =
STACK WIN 4 18a32 121 1 0 20 4 4 0 1 $T0 $ebp = $eip $T0 4 + ^ = $ebp $T0 ^ = $esp $T0 8 + = $L $T0 .cbSavedRegs - = $P $T0 8 + .cbParams + =
STACK WIN 4 18a33 11f 0 0 20 8 4 0 1 $T0 $ebp = $eip $T0 4 + ^ = $ebp $T0 ^ = $esp $T0 8 + = $L $T0 .cbSavedRegs - = $P $T0 8 + .cbParams + =
STACK WIN 4 18b55 ff f 0 18 0 4 0 1 $T0 $ebp = $eip $T0 4 + ^ = $ebp $T0 ^ = $esp $T0 8 + = $L $T0 .cbSavedRegs - = $P $T0 8 + .cbParams + =
STACK WIN 4 18b63 ef 1 0 18 4 4 0 1 $T0 $ebp = $eip $T0 4 + ^ = $ebp $T0 ^ = $esp $T0 8 + = $L $T0 .cbSavedRegs - = $P $T0 8 + .cbParams + =
STACK WIN 4 18b64 ed 0 0 18 8 4 0 1 $T0 $ebp = $eip $T0 4 + ^ = $ebp $T0 ^ = $esp $T0 8 + = $L $T0 .cbSavedRegs - = $P $T0 8 + .cbParams + =
STACK WIN 4 18c54 9a f 0 c 0 4 0 1 $T0 $ebp = $eip $T0 4 + ^ = $ebp $T0 ^ = $esp $T0 8 + = $L $T0 .cbSavedRegs - = $P $T0 8 + .cbParams + =
STACK WIN 4 18c62 8a 1 0 c 4 4 0 1 $T0 $ebp = $eip $T0 4 + ^ = $ebp $T0 ^ = $esp $T0 8 + = $L $T0 .cbSavedRegs - = $P $T0 8 + .cbParams + =
STACK WIN 4 18c63 86 0 0 c 8 4 0 1 $T0 $ebp = $eip $T0 4 + ^ = $ebp $T0 ^ = $esp $T0 8 + = $L $T0 .cbSavedRegs - = $P $T0 8 + .cbParams + =
STACK WIN 4 18cee 9a f 0 c 0 4 0 1 $T0 $ebp = $eip $T0 4 + ^ = $ebp $T0 ^ = $esp $T0 8 + = $L $T0 .cbSavedRegs - = $P $T0 8 + .cbParams + =
STACK WIN 4 18cfc 8a 1 0 c 4 4 0 1 $T0 $ebp = $eip $T0 4 + ^ = $ebp $T0 ^ = $esp $T0 8 + = $L $T0 .cbSavedRegs - = $P $T0 8 + .cbParams + =
STACK WIN 4 18cfd 86 0 0 c 8 4 0 1 $T0 $ebp = $eip $T0 4 + ^ = $ebp $T0 ^ = $esp $T0 8 + = $L $T0 .cbSavedRegs - = $P $T0 8 + .cbParams + =
STACK WIN 4 18d88 62 4 0 4 0 4 0 1 $T0 $ebp = $eip $T0 4 + ^ = $ebp $T0 ^ = $esp $T0 8 + = $L $T0 .cbSavedRegs - = $P $T0 8 + .cbParams + =
STACK WIN 4 18da4 44 0 0 4 4 4 0 1 $T0 $ebp = $eip $T0 4 + ^ = $ebp $T0 ^ = $esp $T0 8 + = $L $T0 .cbSavedRegs - = $P $T0 8 + .cbParams + =
STACK WIN 4 18dea 62 4 0 4 0 4 0 1 $T0 $ebp = $eip $T0 4 + ^ = $ebp $T0 ^ = $esp $T0 8 + = $L $T0 .cbSavedRegs - = $P $T0 8 + .cbParams + =
STACK WIN 4 18e06 44 0 0 4 4 4 0 1 $T0 $ebp = $eip $T0 4 + ^ = $ebp $T0 ^ = $esp $T0 8 + = $L $T0 .cbSavedRegs - = $P $T0 8 + .cbParams + =
STACK WIN 4 18e4c 9f e 0 c 0 4 0 1 $T0 $ebp = $eip $T0 4 + ^ = $ebp $T0 ^ = $esp $T0 8 + = $L $T0 .cbSavedRegs - = $P $T0 8 + .cbParams + =
STACK WIN 4 18e5a 8f 0 0 c 4 4 0 1 $T0 $ebp = $eip $T0 4 + ^ = $ebp $T0 ^ = $esp $T0 8 + = $L $T0 .cbSavedRegs - = $P $T0 8 + .cbParams + =
STACK WIN 4 18eeb 2c8 0 0 4 0 0 0 1 $T2 $esp .cbLocals + .cbSavedRegs + = $T0 .raSearchStart = $eip $T0 ^ = $esp $T0 4 + =
STACK WIN 4 191b3 5f 0 0 0 0 0 0 1 $T2 $esp .cbLocals + .cbSavedRegs + = $T0 .raSearchStart = $eip $T0 ^ = $esp $T0 4 + =
STACK WIN 4 19212 1d8 8 0 0 0 20 0 1 $T0 $ebp = $eip $T0 4 + ^ = $ebp $T0 ^ = $esp $T0 8 + = $L $T0 .cbSavedRegs - = $P $T0 8 + .cbParams + =
STACK WIN 4 19219 1cf 1 0 0 4 20 0 1 $T0 $ebp = $eip $T0 4 + ^ = $ebp $T0 ^ = $esp $T0 8 + = $L $T0 .cbSavedRegs - = $P $T0 8 + .cbParams + =
STACK WIN 4 1921a 1cd 0 0 0 8 20 0 1 $T0 $ebp = $eip $T0 4 + ^ = $ebp $T0 ^ = $esp $T0 8 + = $L $T0 .cbSavedRegs - = $P $T0 8 + .cbParams + =
STACK WIN 4 19256 186 0 0 0 c 20 0 1 $T0 $ebp = $eip $T0 4 + ^ = $ebp $T0 ^ = $esp $T0 8 + = $L $T0 .cbSavedRegs - = $P $T0 8 + .cbParams + = $ebx $T0 44 - ^ =
STACK WIN 4 193ea 16 0 0 4 0 0 0 1 $T2 $esp .cbLocals + .cbSavedRegs + = $T0 .raSearchStart = $eip $T0 ^ = $esp $T0 4 + =
STACK WIN 4 19400 e 0 0 4 0 0 0 1 $T2 $esp .cbLocals + .cbSavedRegs + = $T0 .raSearchStart = $eip $T0 ^ = $esp $T0 4 + =
STACK WIN 4 1940e e 0 0 4 0 0 0 1 $T2 $esp .cbLocals + .cbSavedRegs + = $T0 .raSearchStart = $eip $T0 ^ = $esp $T0 4 + =
STACK WIN 4 1941c e 0 0 4 0 0 0 1 $T2 $esp .cbLocals + .cbSavedRegs + = $T0 .raSearchStart = $eip $T0 ^ = $esp $T0 4 + =
STACK WIN 4 1942a 30 0 0 c 0 0 0 1 $T2 $esp .cbLocals + .cbSavedRegs + = $T0 .raSearchStart = $eip $T0 ^ = $esp $T0 4 + =
STACK WIN 4 1945a 6 0 0 0 0 0 0 1 $T2 $esp .cbLocals + .cbSavedRegs + = $T0 .raSearchStart = $eip $T0 ^ = $esp $T0 4 + =
STACK WIN 4 19460 14a 1a 0 0 0 18 0 1 $T0 $ebp = $eip $T0 4 + ^ = $ebp $T0 ^ = $esp $T0 8 + = $L $T0 .cbSavedRegs - = $P $T0 8 + .cbParams + =
STACK WIN 4 19473 135 7 0 0 4 18 0 1 $T0 $ebp = $eip $T0 4 + ^ = $ebp $T0 ^ = $esp $T0 8 + = $L $T0 .cbSavedRegs - = $P $T0 8 + .cbParams + = $ebx $T0 28 - ^ =
STACK WIN 4 19474 133 6 0 0 8 18 0 1 $T0 $ebp = $eip $T0 4 + ^ = $ebp $T0 ^ = $esp $T0 8 + = $L $T0 .cbSavedRegs - = $P $T0 8 + .cbParams + = $ebx $T0 28 - ^ =
STACK WIN 4 195aa 12e b 0 c 0 20 0 1 $T0 $ebp = $eip $T0 4 + ^ = $ebp $T0 ^ = $esp $T0 8 + = $L $T0 .cbSavedRegs - = $P $T0 8 + .cbParams + =
STACK WIN 4 195bc 11a 0 0 c 4 20 0 1 $T0 $ebp = $eip $T0 4 + ^ = $ebp $T0 ^ = $esp $T0 8 + = $L $T0 .cbSavedRegs - = $P $T0 8 + .cbParams + = $ebx $T0 36 - ^ =
STACK WIN 4 195c2 113 0 0 c 8 20 0 1 $T0 $ebp = $eip $T0 4 + ^ = $ebp $T0 ^ = $esp $T0 8 + = $L $T0 .cbSavedRegs - = $P $T0 8 + .cbParams + = $ebx $T0 36 - ^ =
STACK WIN 4 195c3 111 0 0 c c 20 0 1 $T0 $ebp = $eip $T0 4 + ^ = $ebp $T0 ^ = $esp $T0 8 + = $L $T0 .cbSavedRegs - = $P $T0 8 + .cbParams + = $ebx $T0 36 - ^ =
STACK WIN 4 196d8 8a 0 0 8 0 0 0 1 $T2 $esp .cbLocals + .cbSavedRegs + = $T0 .raSearchStart = $eip $T0 ^ = $esp $T0 4 + =
STACK WIN 4 196e7 7a 0 0 8 4 0 0 1 $T2 $esp .cbLocals + .cbSavedRegs + = $T0 .raSearchStart = $eip $T0 ^ = $esp $T0 4 + = $ebx $T0 4 - ^ =
STACK WIN 4 196e8 74 0 0 8 8 0 0 1 $T2 $esp .cbLocals + .cbSavedRegs + = $T0 .raSearchStart = $eip $T0 ^ = $esp $T0 4 + = $ebx $T0 4 - ^ =
STACK WIN 4 196ed 6e 0 0 8 c 0 0 1 $T2 $esp .cbLocals + .cbSavedRegs + = $T0 .raSearchStart = $eip $T0 ^ = $esp $T0 4 + = $ebx $T0 4 - ^ =
STACK WIN 4 19762 29 0 0 0 0 0 0 1 $T2 $esp .cbLocals + .cbSavedRegs + = $T0 .raSearchStart = $eip $T0 ^ = $esp $T0 4 + =
STACK WIN 4 1978b 34e 17 0 8 0 60 0 1 $T0 $ebp = $eip $T0 4 + ^ = $ebp $T0 ^ = $esp $T0 8 + = $L $T0 .cbSavedRegs - = $P $T0 8 + .cbParams + =
STACK WIN 4 1979f 333 3 0 8 4 60 0 1 $T0 $ebp = $eip $T0 4 + ^ = $ebp $T0 ^ = $esp $T0 8 + = $L $T0 .cbSavedRegs - = $P $T0 8 + .cbParams + = $ebx $T0 100 - ^ =
STACK WIN 4 197a2 32d 0 0 8 8 60 0 1 $T0 $ebp = $eip $T0 4 + ^ = $ebp $T0 ^ = $esp $T0 8 + = $L $T0 .cbSavedRegs - = $P $T0 8 + .cbParams + = $ebx $T0 100 - ^ =
STACK WIN 4 197c4 307 0 0 8 c 60 0 1 $T0 $ebp = $eip $T0 4 + ^ = $ebp $T0 ^ = $esp $T0 8 + = $L $T0 .cbSavedRegs - = $P $T0 8 + .cbParams + = $ebx $T0 100 - ^ =
STACK WIN 4 19ad9 a5 6 0 4 0 0 0 1 $T2 $esp .cbLocals + .cbSavedRegs + = $T0 .raSearchStart = $eip $T0 ^ = $esp $T0 4 + =
STACK WIN 4 19ada a3 5 0 4 4 0 0 1 $T2 $esp .cbLocals + .cbSavedRegs + = $T0 .raSearchStart = $eip $T0 ^ = $esp $T0 4 + =
STACK WIN 4 19adf 9d 0 0 4 8 0 0 1 $T2 $esp .cbLocals + .cbSavedRegs + = $T0 .raSearchStart = $eip $T0 ^ = $esp $T0 4 + =
STACK WIN 4 19b7e f 0 0 0 0 0 0 1 $T2 $esp .cbLocals + .cbSavedRegs + = $T0 .raSearchStart = $eip $T0 ^ = $esp $T0 4 + =
STACK WIN 4 19b8d 36 c 0 4 0 0 0 1 $T2 $esp .cbLocals + .cbSavedRegs + = $T0 .raSearchStart = $eip $T0 ^ = $esp $T0 4 + =
STACK WIN 4 19b94 27 5 0 4 4 0 0 1 $T2 $esp .cbLocals + .cbSavedRegs + = $T0 .raSearchStart = $eip $T0 ^ = $esp $T0 4 + =
STACK WIN 4 19b99 21 0 0 4 8 0 0 1 $T2 $esp .cbLocals + .cbSavedRegs + = $T0 .raSearchStart = $eip $T0 ^ = $esp $T0 4 + =
STACK WIN 4 19bc3 38 1 0 4 0 0 0 1 $T2 $esp .cbLocals + .cbSavedRegs + = $T0 .raSearchStart = $eip $T0 ^ = $esp $T0 4 + =
STACK WIN 4 19bc4 36 0 0 4 4 0 0 1 $T2 $esp .cbLocals + .cbSavedRegs + = $T0 .raSearchStart = $eip $T0 ^ = $esp $T0 4 + =
STACK WIN 4 19bfb e5 0 0 4 0 0 0 1 $T2 $esp .cbLocals + .cbSavedRegs + = $T0 .raSearchStart = $eip $T0 ^ = $esp $T0 4 + =
STACK WIN 4 19ce0 379 0 0 8 0 0 0 1 $T2 $esp .cbLocals + .cbSavedRegs + = $T0 .raSearchStart = $eip $T0 ^ = $esp $T0 4 + =
STACK WIN 4 1a059 3b0 0 0 8 0 0 0 1 $T2 $esp .cbLocals + .cbSavedRegs + = $T0 .raSearchStart = $eip $T0 ^ = $esp $T0 4 + =
STACK WIN 4 1a409 222 0 0 8 0 0 0 1 $T2 $esp .cbLocals + .cbSavedRegs + = $T0 .raSearchStart = $eip $T0 ^ = $esp $T0 4 + =
STACK WIN 4 1a62b 210 0 0 4 0 0 0 1 $T2 $esp .cbLocals + .cbSavedRegs + = $T0 .raSearchStart = $eip $T0 ^ = $esp $T0 4 + =
STACK WIN 4 1a83b 356 5 0 c 0 0 0 1 $T0 $ebp = $eip $T0 4 + ^ = $ebp $T0 ^ = $esp $T0 8 + = $L $T0 .cbSavedRegs - = $P $T0 8 + .cbParams + =
STACK WIN 4 1a83f c6 1 0 c 4 0 0 1 $T0 $ebp = $eip $T0 4 + ^ = $ebp $T0 ^ = $esp $T0 8 + = $L $T0 .cbSavedRegs - = $P $T0 8 + .cbParams + = $ebx $T0 4 - ^ =
STACK WIN 4 1a840 c4 0 0 c 8 0 0 1 $T0 $ebp = $eip $T0 4 + ^ = $ebp $T0 ^ = $esp $T0 8 + = $L $T0 .cbSavedRegs - = $P $T0 8 + .cbParams + = $ebx $T0 4 - ^ =
STACK WIN 4 1a864 1e7 0 0 c c 0 0 1 $T0 $ebp = $eip $T0 4 + ^ = $ebp $T0 ^ = $esp $T0 8 + = $L $T0 .cbSavedRegs - = $P $T0 8 + .cbParams + = $ebx $T0 4 - ^ =
STACK WIN 4 1ab91 13 0 0 8 0 0 0 1 $T2 $esp .cbLocals + .cbSavedRegs + = $T0 .raSearchStart = $eip $T0 ^ = $esp $T0 4 + =
STACK WIN 4 1aba4 d3 3 0 c 0 0 0 1 $T0 $ebp = $eip $T0 4 + ^ = $ebp $T0 ^ = $esp $T0 8 + = $L $T0 .cbSavedRegs - = $P $T0 8 + .cbParams + =
STACK WIN 4 1ac77 22 0 0 4 0 0 0 1 $T2 $esp .cbLocals + .cbSavedRegs + = $T0 .raSearchStart = $eip $T0 ^ = $esp $T0 4 + =
STACK WIN 4 1ac99 4b 0 0 4 0 0 0 1 $T2 $esp .cbLocals + .cbSavedRegs + = $T0 .raSearchStart = $eip $T0 ^ = $esp $T0 4 + =
STACK WIN 4 1ace4 2ed 8 0 8 0 c 0 1 $T0 $ebp = $eip $T0 4 + ^ = $ebp $T0 ^ = $esp $T0 8 + = $L $T0 .cbSavedRegs - = $P $T0 8 + .cbParams + =
STACK WIN 4 1aceb b7 1 0 8 4 c 0 1 $T0 $ebp = $eip $T0 4 + ^ = $ebp $T0 ^ = $esp $T0 8 + = $L $T0 .cbSavedRegs - = $P $T0 8 + .cbParams + = $ebx $T0 16 - ^ =
STACK WIN 4 1acec b5 0 0 8 8 c 0 1 $T0 $ebp = $eip $T0 4 + ^ = $ebp $T0 ^ = $esp $T0 8 + = $L $T0 .cbSavedRegs - = $P $T0 8 + .cbParams + = $ebx $T0 16 - ^ =
STACK WIN 4 1ad04 113 0 0 8 c c 0 1 $T0 $ebp = $eip $T0 4 + ^ = $ebp $T0 ^ = $esp $T0 8 + = $L $T0 .cbSavedRegs - = $P $T0 8 + .cbParams + = $ebx $T0 16 - ^ =
STACK WIN 4 1afd1 1f 0 0 8 0 0 0 1 $T2 $esp .cbLocals + .cbSavedRegs + = $T0 .raSearchStart = $eip $T0 ^ = $esp $T0 4 + =
STACK WIN 4 1aff0 16 0 0 4 0 0 0 1 $T2 $esp .cbLocals + .cbSavedRegs + = $T0 .raSearchStart = $eip $T0 ^ = $esp $T0 4 + =
STACK WIN 4 1b006 15 0 0 4 0 0 0 1 $T2 $esp .cbLocals + .cbSavedRegs + = $T0 .raSearchStart = $eip $T0 ^ = $esp $T0 4 + =
STACK WIN 4 1b01b a4 0 0 4 0 0 0 1 $T2 $esp .cbLocals + .cbSavedRegs + = $T0 .raSearchStart = $eip $T0 ^ = $esp $T0 4 + =
STACK WIN 4 1b0bf 1ad e 0 10 0 14 0 1 $T0 $ebp = $eip $T0 4 + ^ = $ebp $T0 ^ = $esp $T0 8 + = $L $T0 .cbSavedRegs - = $P $T0 8 + .cbParams + =
STACK WIN 4 1b0c6 1a4 7 0 10 4 14 0 1 $T0 $ebp = $eip $T0 4 + ^ = $ebp $T0 ^ = $esp $T0 8 + = $L $T0 .cbSavedRegs - = $P $T0 8 + .cbParams + = $ebx $T0 24 - ^ =
STACK WIN 4 1b0c7 1a2 6 0 10 8 14 0 1 $T0 $ebp = $eip $T0 4 + ^ = $ebp $T0 ^ = $esp $T0 8 + = $L $T0 .cbSavedRegs - = $P $T0 8 + .cbParams + = $ebx $T0 24 - ^ =
STACK WIN 4 1b0cd 19b 0 0 10 c 14 0 1 $T0 $ebp = $eip $T0 4 + ^ = $ebp $T0 ^ = $esp $T0 8 + = $L $T0 .cbSavedRegs - = $P $T0 8 + .cbParams + = $ebx $T0 24 - ^ =
STACK WIN 4 1b26c 27 0 0 4 0 0 0 1 $T2 $esp .cbLocals + .cbSavedRegs + = $T0 .raSearchStart = $eip $T0 ^ = $esp $T0 4 + =
STACK WIN 4 1b293 f 0 0 4 0 0 0 1 $T2 $esp .cbLocals + .cbSavedRegs + = $T0 .raSearchStart = $eip $T0 ^ = $esp $T0 4 + =
STACK WIN 4 1b2a2 17 0 0 4 0 0 0 1 $T2 $esp .cbLocals + .cbSavedRegs + = $T0 .raSearchStart = $eip $T0 ^ = $esp $T0 4 + =
STACK WIN 4 1b2b9 e 0 0 4 0 0 0 1 $T2 $esp .cbLocals + .cbSavedRegs + = $T0 .raSearchStart = $eip $T0 ^ = $esp $T0 4 + =
STACK WIN 4 1b2c7 4d9 9 0 4 0 58 0 1 $T0 $ebp = $eip $T0 4 + ^ = $ebp $T0 ^ = $esp $T0 8 + = $L $T0 .cbSavedRegs - = $P $T0 8 + .cbParams + =
STACK WIN 4 1b2ce 14e 2 0 4 4 58 0 1 $T0 $ebp = $eip $T0 4 + ^ = $ebp $T0 ^ = $esp $T0 8 + = $L $T0 .cbSavedRegs - = $P $T0 8 + .cbParams + = $ebx $T0 92 - ^ =
STACK WIN 4 1b2cf 14c 1 0 4 8 58 0 1 $T0 $ebp = $eip $T0 4 + ^ = $ebp $T0 ^ = $esp $T0 8 + = $L $T0 .cbSavedRegs - = $P $T0 8 + .cbParams + = $ebx $T0 92 - ^ =
STACK WIN 4 1b2d0 14a 0 0 4 c 58 0 1 $T0 $ebp = $eip $T0 4 + ^ = $ebp $T0 ^ = $esp $T0 8 + = $L $T0 .cbSavedRegs - = $P $T0 8 + .cbParams + = $ebx $T0 92 - ^ =
STACK WIN 4 1b7a0 388 8 0 10 0 48 0 1 $T0 $ebp = $eip $T0 4 + ^ = $ebp $T0 ^ = $esp $T0 8 + = $L $T0 .cbSavedRegs - = $P $T0 8 + .cbParams + =
STACK WIN 4 1b7a7 119 1 0 10 4 48 0 1 $T0 $ebp = $eip $T0 4 + ^ = $ebp $T0 ^ = $esp $T0 8 + = $L $T0 .cbSavedRegs - = $P $T0 8 + .cbParams + =
STACK WIN 4 1b7a8 117 0 0 10 8 48 0 1 $T0 $ebp = $eip $T0 4 + ^ = $ebp $T0 ^ = $esp $T0 8 + = $L $T0 .cbSavedRegs - = $P $T0 8 + .cbParams + =
STACK WIN 4 1bb28 59 1 0 c 0 0 0 1 $T2 $esp .cbLocals + .cbSavedRegs + = $T0 .raSearchStart = $eip $T0 ^ = $esp $T0 4 + =
STACK WIN 4 1bb29 57 0 0 c 4 0 0 1 $T2 $esp .cbLocals + .cbSavedRegs + = $T0 .raSearchStart = $eip $T0 ^ = $esp $T0 4 + =
STACK WIN 4 1bb49 36 0 0 c 8 0 0 1 $T2 $esp .cbLocals + .cbSavedRegs + = $T0 .raSearchStart = $eip $T0 ^ = $esp $T0 4 + = $ebx $T0 8 - ^ =
STACK WIN 4 1bb81 53 9 0 18 0 0 0 1 $T0 $ebp = $eip $T0 4 + ^ = $ebp $T0 ^ = $esp $T0 8 + = $L $T0 .cbSavedRegs - = $P $T0 8 + .cbParams + =
STACK WIN 4 1bb85 4d 5 0 18 4 0 0 1 $T0 $ebp = $eip $T0 4 + ^ = $ebp $T0 ^ = $esp $T0 8 + = $L $T0 .cbSavedRegs - = $P $T0 8 + .cbParams + =
STACK WIN 4 1bbd4 51 3 0 14 0 0 0 1 $T0 $ebp = $eip $T0 4 + ^ = $ebp $T0 ^ = $esp $T0 8 + = $L $T0 .cbSavedRegs - = $P $T0 8 + .cbParams + =
STACK WIN 4 1bc25 aa c 0 14 0 0 0 1 $T0 $ebp = $eip $T0 4 + ^ = $ebp $T0 ^ = $esp $T0 8 + = $L $T0 .cbSavedRegs - = $P $T0 8 + .cbParams + =
STACK WIN 4 1bc29 a4 8 0 14 4 0 0 1 $T0 $ebp = $eip $T0 4 + ^ = $ebp $T0 ^ = $esp $T0 8 + = $L $T0 .cbSavedRegs - = $P $T0 8 + .cbParams + =
STACK WIN 4 1bc31 9b 0 0 14 8 0 0 1 $T0 $ebp = $eip $T0 4 + ^ = $ebp $T0 ^ = $esp $T0 8 + = $L $T0 .cbSavedRegs - = $P $T0 8 + .cbParams + =
STACK WIN 4 1bc5f 55 0 0 14 c 0 0 1 $T0 $ebp = $eip $T0 4 + ^ = $ebp $T0 ^ = $esp $T0 8 + = $L $T0 .cbSavedRegs - = $P $T0 8 + .cbParams + = $ebx $T0 12 - ^ =
STACK WIN 4 1bccf 7e 7 0 8 0 0 0 1 $T2 $esp .cbLocals + .cbSavedRegs + = $T0 .raSearchStart = $eip $T0 ^ = $esp $T0 4 + =
STACK WIN 4 1bcd0 7c 6 0 8 4 0 0 1 $T2 $esp .cbLocals + .cbSavedRegs + = $T0 .raSearchStart = $eip $T0 ^ = $esp $T0 4 + = $ebx $T0 4 - ^ =
STACK WIN 4 1bcd1 78 5 0 8 8 0 0 1 $T2 $esp .cbLocals + .cbSavedRegs + = $T0 .raSearchStart = $eip $T0 ^ = $esp $T0 4 + = $ebx $T0 4 - ^ =
STACK WIN 4 1bcd6 72 0 0 8 c 0 0 1 $T2 $esp .cbLocals + .cbSavedRegs + = $T0 .raSearchStart = $eip $T0 ^ = $esp $T0 4 + = $ebx $T0 4 - ^ =
STACK WIN 4 1bd4d 212 1b 0 c 0 84 0 1 $T0 $ebp = $eip $T0 4 + ^ = $ebp $T0 ^ = $esp $T0 8 + = $L $T0 .cbSavedRegs - = $P $T0 8 + .cbParams + =
STACK WIN 4 1bd64 1f4 4 0 c 4 84 0 1 $T0 $ebp = $eip $T0 4 + ^ = $ebp $T0 ^ = $esp $T0 8 + = $L $T0 .cbSavedRegs - = $P $T0 8 + .cbParams + = $ebx $T0 136 - ^ =
STACK WIN 4 1bd67 1ee 1 0 c 8 84 0 1 $T0 $ebp = $eip $T0 4 + ^ = $ebp $T0 ^ = $esp $T0 8 + = $L $T0 .cbSavedRegs - = $P $T0 8 + .cbParams + = $ebx $T0 136 - ^ =
STACK WIN 4 1bd68 1ea 0 0 c c 84 0 1 $T0 $ebp = $eip $T0 4 + ^ = $ebp $T0 ^ = $esp $T0 8 + = $L $T0 .cbSavedRegs - = $P $T0 8 + .cbParams + = $ebx $T0 136 - ^ =
STACK WIN 4 1bf5f 4f 9 0 4 0 0 0 1 $T2 $esp .cbLocals + .cbSavedRegs + = $T0 .raSearchStart = $eip $T0 ^ = $esp $T0 4 + =
STACK WIN 4 1bf68 45 0 0 4 4 0 0 1 $T2 $esp .cbLocals + .cbSavedRegs + = $T0 .raSearchStart = $eip $T0 ^ = $esp $T0 4 + =
STACK WIN 4 1bfae e7 1 0 0 0 0 0 1 $T2 $esp .cbLocals + .cbSavedRegs + = $T0 .raSearchStart = $eip $T0 ^ = $esp $T0 4 + =
STACK WIN 4 1bfaf e5 0 0 0 4 0 0 1 $T2 $esp .cbLocals + .cbSavedRegs + = $T0 .raSearchStart = $eip $T0 ^ = $esp $T0 4 + = $ebx $T0 4 - ^ =
STACK WIN 4 1c095 2bc a 0 14 0 58 0 1 $T0 $ebp = $eip $T0 4 + ^ = $ebp $T0 ^ = $esp $T0 8 + = $L $T0 .cbSavedRegs - = $P $T0 8 + .cbParams + =
STACK WIN 4 1c09c 2b3 3 0 14 4 58 0 1 $T0 $ebp = $eip $T0 4 + ^ = $ebp $T0 ^ = $esp $T0 8 + = $L $T0 .cbSavedRegs - = $P $T0 8 + .cbParams + = $ebx $T0 92 - ^ =
STACK WIN 4 1c09f 2af 0 0 14 8 58 0 1 $T0 $ebp = $eip $T0 4 + ^ = $ebp $T0 ^ = $esp $T0 8 + = $L $T0 .cbSavedRegs - = $P $T0 8 + .cbParams + = $ebx $T0 92 - ^ =
STACK WIN 4 1c14d 1a4 0 0 14 c 58 0 1 $T0 $ebp = $eip $T0 4 + ^ = $ebp $T0 ^ = $esp $T0 8 + = $L $T0 .cbSavedRegs - = $P $T0 8 + .cbParams + = $ebx $T0 92 - ^ =
STACK WIN 4 1c351 ea f 0 c 0 44 0 1 $T0 $ebp = $eip $T0 4 + ^ = $ebp $T0 ^ = $esp $T0 8 + = $L $T0 .cbSavedRegs - = $P $T0 8 + .cbParams + =
STACK WIN 4 1c358 e1 8 0 c 4 44 0 1 $T0 $ebp = $eip $T0 4 + ^ = $ebp $T0 ^ = $esp $T0 8 + = $L $T0 .cbSavedRegs - = $P $T0 8 + .cbParams + = $ebx $T0 72 - ^ =
STACK WIN 4 1c360 d8 0 0 c 8 44 0 1 $T0 $ebp = $eip $T0 4 + ^ = $ebp $T0 ^ = $esp $T0 8 + = $L $T0 .cbSavedRegs - = $P $T0 8 + .cbParams + = $ebx $T0 72 - ^ =
STACK WIN 4 1c3b0 85 0 0 c c 44 0 1 $T0 $ebp = $eip $T0 4 + ^ = $ebp $T0 ^ = $esp $T0 8 + = $L $T0 .cbSavedRegs - = $P $T0 8 + .cbParams + = $ebx $T0 72 - ^ =
STACK WIN 4 1c43b d0 6 0 0 0 4 0 1 $T0 $ebp = $eip $T0 4 + ^ = $ebp $T0 ^ = $esp $T0 8 + = $L $T0 .cbSavedRegs - = $P $T0 8 + .cbParams + =
STACK WIN 4 1c440 c9 1 0 0 4 4 0 1 $T0 $ebp = $eip $T0 4 + ^ = $ebp $T0 ^ = $esp $T0 8 + = $L $T0 .cbSavedRegs - = $P $T0 8 + .cbParams + = $ebx $T0 8 - ^ =
STACK WIN 4 1c441 c7 0 0 0 8 4 0 1 $T0 $ebp = $eip $T0 4 + ^ = $ebp $T0 ^ = $esp $T0 8 + = $L $T0 .cbSavedRegs - = $P $T0 8 + .cbParams + = $ebx $T0 8 - ^ =
STACK WIN 4 1c50b 21b 7 0 10 0 30 0 1 $T0 $ebp = $eip $T0 4 + ^ = $ebp $T0 ^ = $esp $T0 8 + = $L $T0 .cbSavedRegs - = $P $T0 8 + .cbParams + =
STACK WIN 4 1c512 212 0 0 10 4 30 0 1 $T0 $ebp = $eip $T0 4 + ^ = $ebp $T0 ^ = $esp $T0 8 + = $L $T0 .cbSavedRegs - = $P $T0 8 + .cbParams + =
STACK WIN 4 1c551 1ab 0 0 10 8 30 0 1 $T0 $ebp = $eip $T0 4 + ^ = $ebp $T0 ^ = $esp $T0 8 + = $L $T0 .cbSavedRegs - = $P $T0 8 + .cbParams + = $ebx $T0 56 - ^ =
STACK WIN 4 1c552 1a9 0 0 10 c 30 0 1 $T0 $ebp = $eip $T0 4 + ^ = $ebp $T0 ^ = $esp $T0 8 + = $L $T0 .cbSavedRegs - = $P $T0 8 + .cbParams + = $ebx $T0 56 - ^ =
STACK WIN 4 1c726 10a f 0 c 0 98 0 1 $T0 $ebp 108 + = $eip $T0 4 + ^ = $ebp $T0 ^ = $esp $T0 8 + = $L $T0 .cbSavedRegs - = $P $T0 8 + .cbParams + =
STACK WIN 4 1c732 f9 3 0 c 4 98 0 1 $T0 $ebp 108 + = $eip $T0 4 + ^ = $ebp $T0 ^ = $esp $T0 8 + = $L $T0 .cbSavedRegs - = $P $T0 8 + .cbParams + = $ebx $T0 156 - ^ =
STACK WIN 4 1c735 f5 0 0 c 8 98 0 1 $T0 $ebp 108 + = $eip $T0 4 + ^ = $ebp $T0 ^ = $esp $T0 8 + = $L $T0 .cbSavedRegs - = $P $T0 8 + .cbParams + = $ebx $T0 156 - ^ =
STACK WIN 4 1c7da 1e 0 0 c c 98 0 1 $T0 $ebp 108 + = $eip $T0 4 + ^ = $ebp $T0 ^ = $esp $T0 8 + = $L $T0 .cbSavedRegs - = $P $T0 8 + .cbParams + = $ebx $T0 156 - ^ =
STACK WIN 4 1c830 10a f 0 c 0 98 0 1 $T0 $ebp 108 + = $eip $T0 4 + ^ = $ebp $T0 ^ = $esp $T0 8 + = $L $T0 .cbSavedRegs - = $P $T0 8 + .cbParams + =
STACK WIN 4 1c83c f9 3 0 c 4 98 0 1 $T0 $ebp 108 + = $eip $T0 4 + ^ = $ebp $T0 ^ = $esp $T0 8 + = $L $T0 .cbSavedRegs - = $P $T0 8 + .cbParams + = $ebx $T0 156 - ^ =
STACK WIN 4 1c83f f5 0 0 c 8 98 0 1 $T0 $ebp 108 + = $eip $T0 4 + ^ = $ebp $T0 ^ = $esp $T0 8 + = $L $T0 .cbSavedRegs - = $P $T0 8 + .cbParams + = $ebx $T0 156 - ^ =
STACK WIN 4 1c8e4 1e 0 0 c c 98 0 1 $T0 $ebp 108 + = $eip $T0 4 + ^ = $ebp $T0 ^ = $esp $T0 8 + = $L $T0 .cbSavedRegs - = $P $T0 8 + .cbParams + = $ebx $T0 156 - ^ =
STACK WIN 4 1c93a 59 9 0 8 0 0 0 1 $T2 $esp .cbLocals + .cbSavedRegs + = $T0 .raSearchStart = $eip $T0 ^ = $esp $T0 4 + =
STACK WIN 4 1c943 4f 0 0 8 4 0 0 1 $T2 $esp .cbLocals + .cbSavedRegs + = $T0 .raSearchStart = $eip $T0 ^ = $esp $T0 4 + =
STACK WIN 4 1c993 2df d 0 c 0 110 0 1 $T0 $ebp = $eip $T0 4 + ^ = $ebp $T0 ^ = $esp $T0 8 + = $L $T0 .cbSavedRegs - = $P $T0 8 + .cbParams + =
STACK WIN 4 1c99d 2d3 3 0 c 4 110 0 1 $T0 $ebp = $eip $T0 4 + ^ = $ebp $T0 ^ = $esp $T0 8 + = $L $T0 .cbSavedRegs - = $P $T0 8 + .cbParams + = $ebx $T0 276 - ^ =
STACK WIN 4 1c9a0 2cf 0 0 c 8 110 0 1 $T0 $ebp = $eip $T0 4 + ^ = $ebp $T0 ^ = $esp $T0 8 + = $L $T0 .cbSavedRegs - = $P $T0 8 + .cbParams + = $ebx $T0 276 - ^ =
STACK WIN 4 1caf7 164 0 0 c c 110 0 1 $T0 $ebp = $eip $T0 4 + ^ = $ebp $T0 ^ = $esp $T0 8 + = $L $T0 .cbSavedRegs - = $P $T0 8 + .cbParams + = $ebx $T0 276 - ^ =
STACK WIN 4 1cc72 ad 3 0 8 0 0 0 1 $T0 $ebp = $eip $T0 4 + ^ = $ebp $T0 ^ = $esp $T0 8 + = $L $T0 .cbSavedRegs - = $P $T0 8 + .cbParams + =
STACK WIN 4 1cd1f 44 4 0 10 0 0 0 1 $T0 $ebp = $eip $T0 4 + ^ = $ebp $T0 ^ = $esp $T0 8 + = $L $T0 .cbSavedRegs - = $P $T0 8 + .cbParams + =
STACK WIN 4 1cd23 3e 0 0 10 4 0 0 1 $T0 $ebp = $eip $T0 4 + ^ = $ebp $T0 ^ = $esp $T0 8 + = $L $T0 .cbSavedRegs - = $P $T0 8 + .cbParams + =
STACK WIN 4 1cd63 a2 9 0 18 0 10 0 1 $T0 $ebp = $eip $T0 4 + ^ = $ebp $T0 ^ = $esp $T0 8 + = $L $T0 .cbSavedRegs - = $P $T0 8 + .cbParams + =
STACK WIN 4 1cd6a 99 2 0 18 4 10 0 1 $T0 $ebp = $eip $T0 4 + ^ = $ebp $T0 ^ = $esp $T0 8 + = $L $T0 .cbSavedRegs - = $P $T0 8 + .cbParams + =
STACK WIN 4 1cd7e 76 0 0 18 8 10 0 1 $T0 $ebp = $eip $T0 4 + ^ = $ebp $T0 ^ = $esp $T0 8 + = $L $T0 .cbSavedRegs - = $P $T0 8 + .cbParams + = $ebx $T0 24 - ^ =
STACK WIN 4 1cd7f 74 0 0 18 c 10 0 1 $T0 $ebp = $eip $T0 4 + ^ = $ebp $T0 ^ = $esp $T0 8 + = $L $T0 .cbSavedRegs - = $P $T0 8 + .cbParams + = $ebx $T0 24 - ^ =
STACK WIN 4 1ce05 11a 9 0 14 0 2c 0 1 $T0 $ebp = $eip $T0 4 + ^ = $ebp $T0 ^ = $esp $T0 8 + = $L $T0 .cbSavedRegs - = $P $T0 8 + .cbParams + =
STACK WIN 4 1ce0c 111 2 0 14 4 2c 0 1 $T0 $ebp = $eip $T0 4 + ^ = $ebp $T0 ^ = $esp $T0 8 + = $L $T0 .cbSavedRegs - = $P $T0 8 + .cbParams + = $ebx $T0 48 - ^ =
STACK WIN 4 1ce0d 10f 1 0 14 8 2c 0 1 $T0 $ebp = $eip $T0 4 + ^ = $ebp $T0 ^ = $esp $T0 8 + = $L $T0 .cbSavedRegs - = $P $T0 8 + .cbParams + = $ebx $T0 48 - ^ =
STACK WIN 4 1ce0e 10b 0 0 14 c 2c 0 1 $T0 $ebp = $eip $T0 4 + ^ = $ebp $T0 ^ = $esp $T0 8 + = $L $T0 .cbSavedRegs - = $P $T0 8 + .cbParams + = $ebx $T0 48 - ^ =
STACK WIN 4 1cf1f 3b 1 0 0 0 0 0 1 $T2 $esp .cbLocals + .cbSavedRegs + = $T0 .raSearchStart = $eip $T0 ^ = $esp $T0 4 + =
STACK WIN 4 1cf20 39 0 0 0 4 0 0 1 $T2 $esp .cbLocals + .cbSavedRegs + = $T0 .raSearchStart = $eip $T0 ^ = $esp $T0 4 + =
STACK WIN 4 1cf5a 1a 0 0 4 0 0 0 1 $T2 $esp .cbLocals + .cbSavedRegs + = $T0 .raSearchStart = $eip $T0 ^ = $esp $T0 4 + =
STACK WIN 4 1cf74 47 6 0 10 0 10 0 1 $T0 $ebp = $eip $T0 4 + ^ = $ebp $T0 ^ = $esp $T0 8 + = $L $T0 .cbSavedRegs - = $P $T0 8 + .cbParams + =
STACK WIN 4 1cfbb 149 19 0 c 0 44 0 1 $T0 $ebp = $eip $T0 4 + ^ = $ebp $T0 ^ = $esp $T0 8 + = $L $T0 .cbSavedRegs - = $P $T0 8 + .cbParams + =
STACK WIN 4 1cfcf 12e 5 0 c 4 44 0 1 $T0 $ebp = $eip $T0 4 + ^ = $ebp $T0 ^ = $esp $T0 8 + = $L $T0 .cbSavedRegs - = $P $T0 8 + .cbParams + = $ebx $T0 72 - ^ =
STACK WIN 4 1cfd0 12a 4 0 c 8 44 0 1 $T0 $ebp = $eip $T0 4 + ^ = $ebp $T0 ^ = $esp $T0 8 + = $L $T0 .cbSavedRegs - = $P $T0 8 + .cbParams + = $ebx $T0 72 - ^ =
STACK WIN 4 1cfd4 125 0 0 c c 44 0 1 $T0 $ebp = $eip $T0 4 + ^ = $ebp $T0 ^ = $esp $T0 8 + = $L $T0 .cbSavedRegs - = $P $T0 8 + .cbParams + = $ebx $T0 72 - ^ =
STACK WIN 4 1d104 136 c 0 c 0 34 0 1 $T0 $ebp = $eip $T0 4 + ^ = $ebp $T0 ^ = $esp $T0 8 + = $L $T0 .cbSavedRegs - = $P $T0 8 + .cbParams + =
STACK WIN 4 1d10f 129 1 0 c 4 34 0 1 $T0 $ebp = $eip $T0 4 + ^ = $ebp $T0 ^ = $esp $T0 8 + = $L $T0 .cbSavedRegs - = $P $T0 8 + .cbParams + = $ebx $T0 56 - ^ =
STACK WIN 4 1d110 127 0 0 c 8 34 0 1 $T0 $ebp = $eip $T0 4 + ^ = $ebp $T0 ^ = $esp $T0 8 + = $L $T0 .cbSavedRegs - = $P $T0 8 + .cbParams + = $ebx $T0 56 - ^ =
STACK WIN 4 1d17b b8 0 0 c c 34 0 1 $T0 $ebp = $eip $T0 4 + ^ = $ebp $T0 ^ = $esp $T0 8 + = $L $T0 .cbSavedRegs - = $P $T0 8 + .cbParams + = $ebx $T0 56 - ^ =
STACK WIN 4 1d23a 82 6 0 c 0 30 0 1 $T0 $ebp = $eip $T0 4 + ^ = $ebp $T0 ^ = $esp $T0 8 + = $L $T0 .cbSavedRegs - = $P $T0 8 + .cbParams + =
STACK WIN 4 1d289 31 0 0 c 4 30 0 1 $T0 $ebp = $eip $T0 4 + ^ = $ebp $T0 ^ = $esp $T0 8 + = $L $T0 .cbSavedRegs - = $P $T0 8 + .cbParams + =
STACK WIN 4 1d2bc 1bd 10 0 c 0 30 0 1 $T0 $ebp = $eip $T0 4 + ^ = $ebp $T0 ^ = $esp $T0 8 + = $L $T0 .cbSavedRegs - = $P $T0 8 + .cbParams + =
STACK WIN 4 1d2ca 1ad 2 0 c 4 30 0 1 $T0 $ebp = $eip $T0 4 + ^ = $ebp $T0 ^ = $esp $T0 8 + = $L $T0 .cbSavedRegs - = $P $T0 8 + .cbParams + = $ebx $T0 52 - ^ =
STACK WIN 4 1d2cb 1ab 1 0 c 8 30 0 1 $T0 $ebp = $eip $T0 4 + ^ = $ebp $T0 ^ = $esp $T0 8 + = $L $T0 .cbSavedRegs - = $P $T0 8 + .cbParams + = $ebx $T0 52 - ^ =
STACK WIN 4 1d2cc 1a9 0 0 c c 30 0 1 $T0 $ebp = $eip $T0 4 + ^ = $ebp $T0 ^ = $esp $T0 8 + = $L $T0 .cbSavedRegs - = $P $T0 8 + .cbParams + = $ebx $T0 52 - ^ =
STACK WIN 4 1d479 81 6 0 c 0 34 0 1 $T0 $ebp = $eip $T0 4 + ^ = $ebp $T0 ^ = $esp $T0 8 + = $L $T0 .cbSavedRegs - = $P $T0 8 + .cbParams + =
STACK WIN 4 1d4fa 1bc 9 0 14 0 c 0 1 $T0 $ebp = $eip $T0 4 + ^ = $ebp $T0 ^ = $esp $T0 8 + = $L $T0 .cbSavedRegs - = $P $T0 8 + .cbParams + =
STACK WIN 4 1d501 1b3 2 0 14 4 c 0 1 $T0 $ebp = $eip $T0 4 + ^ = $ebp $T0 ^ = $esp $T0 8 + = $L $T0 .cbSavedRegs - = $P $T0 8 + .cbParams + = $ebx $T0 16 - ^ =
STACK WIN 4 1d502 1b1 1 0 14 8 c 0 1 $T0 $ebp = $eip $T0 4 + ^ = $ebp $T0 ^ = $esp $T0 8 + = $L $T0 .cbSavedRegs - = $P $T0 8 + .cbParams + = $ebx $T0 16 - ^ =
STACK WIN 4 1d503 1af 0 0 14 c c 0 1 $T0 $ebp = $eip $T0 4 + ^ = $ebp $T0 ^ = $esp $T0 8 + = $L $T0 .cbSavedRegs - = $P $T0 8 + .cbParams + = $ebx $T0 16 - ^ =
STACK WIN 4 1d6b6 6e 7 0 14 0 10 0 1 $T0 $ebp = $eip $T0 4 + ^ = $ebp $T0 ^ = $esp $T0 8 + = $L $T0 .cbSavedRegs - = $P $T0 8 + .cbParams + =
STACK WIN 4 1d6bd 65 0 0 14 4 10 0 1 $T0 $ebp = $eip $T0 4 + ^ = $ebp $T0 ^ = $esp $T0 8 + = $L $T0 .cbSavedRegs - = $P $T0 8 + .cbParams + =
STACK WIN 4 1d724 73 1 0 4 0 0 0 1 $T2 $esp .cbLocals + .cbSavedRegs + = $T0 .raSearchStart = $eip $T0 ^ = $esp $T0 4 + =
STACK WIN 4 1d725 71 0 0 4 4 0 0 1 $T2 $esp .cbLocals + .cbSavedRegs + = $T0 .raSearchStart = $eip $T0 ^ = $esp $T0 4 + =
STACK WIN 4 1d744 51 0 0 4 8 0 0 1 $T2 $esp .cbLocals + .cbSavedRegs + = $T0 .raSearchStart = $eip $T0 ^ = $esp $T0 4 + = $ebx $T0 8 - ^ =
STACK WIN 4 1d745 4f 0 0 4 c 0 0 1 $T2 $esp .cbLocals + .cbSavedRegs + = $T0 .raSearchStart = $eip $T0 ^ = $esp $T0 4 + = $ebx $T0 8 - ^ =
STACK WIN 4 1d797 1e2 1a 0 10 0 54 0 1 $T0 $ebp = $eip $T0 4 + ^ = $ebp $T0 ^ = $esp $T0 8 + = $L $T0 .cbSavedRegs - = $P $T0 8 + .cbParams + =
STACK WIN 4 1d7a1 1d6 10 0 10 4 54 0 1 $T0 $ebp = $eip $T0 4 + ^ = $ebp $T0 ^ = $esp $T0 8 + = $L $T0 .cbSavedRegs - = $P $T0 8 + .cbParams + = $ebx $T0 88 - ^ =
STACK WIN 4 1d7b0 1c6 1 0 10 8 54 0 1 $T0 $ebp = $eip $T0 4 + ^ = $ebp $T0 ^ = $esp $T0 8 + = $L $T0 .cbSavedRegs - = $P $T0 8 + .cbParams + = $ebx $T0 88 - ^ =
STACK WIN 4 1d7b1 1c4 0 0 10 c 54 0 1 $T0 $ebp = $eip $T0 4 + ^ = $ebp $T0 ^ = $esp $T0 8 + = $L $T0 .cbSavedRegs - = $P $T0 8 + .cbParams + = $ebx $T0 88 - ^ =
STACK WIN 4 1d979 13c 21 0 14 0 58 0 1 $T0 $ebp = $eip $T0 4 + ^ = $ebp $T0 ^ = $esp $T0 8 + = $L $T0 .cbSavedRegs - = $P $T0 8 + .cbParams + =
STACK WIN 4 1d983 130 17 0 14 4 58 0 1 $T0 $ebp = $eip $T0 4 + ^ = $ebp $T0 ^ = $esp $T0 8 + = $L $T0 .cbSavedRegs - = $P $T0 8 + .cbParams + = $ebx $T0 92 - ^ =
STACK WIN 4 1d987 12b 13 0 14 8 58 0 1 $T0 $ebp = $eip $T0 4 + ^ = $ebp $T0 ^ = $esp $T0 8 + = $L $T0 .cbSavedRegs - = $P $T0 8 + .cbParams + = $ebx $T0 92 - ^ =
STACK WIN 4 1d99a 117 0 0 14 c 58 0 1 $T0 $ebp = $eip $T0 4 + ^ = $ebp $T0 ^ = $esp $T0 8 + = $L $T0 .cbSavedRegs - = $P $T0 8 + .cbParams + = $ebx $T0 92 - ^ =
STACK WIN 4 1dab5 eb a 0 20 0 4 0 1 $T0 $ebp = $eip $T0 4 + ^ = $ebp $T0 ^ = $esp $T0 8 + = $L $T0 .cbSavedRegs - = $P $T0 8 + .cbParams + =
STACK WIN 4 1daba e4 5 0 20 4 4 0 1 $T0 $ebp = $eip $T0 4 + ^ = $ebp $T0 ^ = $esp $T0 8 + = $L $T0 .cbSavedRegs - = $P $T0 8 + .cbParams + = $ebx $T0 8 - ^ =
STACK WIN 4 1dabe df 1 0 20 8 4 0 1 $T0 $ebp = $eip $T0 4 + ^ = $ebp $T0 ^ = $esp $T0 8 + = $L $T0 .cbSavedRegs - = $P $T0 8 + .cbParams + = $ebx $T0 8 - ^ =
STACK WIN 4 1dabf dd 0 0 20 c 4 0 1 $T0 $ebp = $eip $T0 4 + ^ = $ebp $T0 ^ = $esp $T0 8 + = $L $T0 .cbSavedRegs - = $P $T0 8 + .cbParams + = $ebx $T0 8 - ^ =
STACK WIN 4 1dba0 68 1 0 8 0 0 0 1 $T2 $esp .cbLocals + .cbSavedRegs + = $T0 .raSearchStart = $eip $T0 ^ = $esp $T0 4 + =
STACK WIN 4 1dba1 66 0 0 8 4 0 0 1 $T2 $esp .cbLocals + .cbSavedRegs + = $T0 .raSearchStart = $eip $T0 ^ = $esp $T0 4 + =
STACK WIN 4 1dbb6 50 0 0 8 8 0 0 1 $T2 $esp .cbLocals + .cbSavedRegs + = $T0 .raSearchStart = $eip $T0 ^ = $esp $T0 4 + =
STACK WIN 4 1dc08 2c 6 0 8 0 0 0 1 $T2 $esp .cbLocals + .cbSavedRegs + = $T0 .raSearchStart = $eip $T0 ^ = $esp $T0 4 + =
STACK WIN 4 1dc09 2a 5 0 8 4 0 0 1 $T2 $esp .cbLocals + .cbSavedRegs + = $T0 .raSearchStart = $eip $T0 ^ = $esp $T0 4 + =
STACK WIN 4 1dc0e 22 0 0 8 8 0 0 1 $T2 $esp .cbLocals + .cbSavedRegs + = $T0 .raSearchStart = $eip $T0 ^ = $esp $T0 4 + =
STACK WIN 4 1dc34 55 7 0 8 0 0 0 1 $T2 $esp .cbLocals + .cbSavedRegs + = $T0 .raSearchStart = $eip $T0 ^ = $esp $T0 4 + =
STACK WIN 4 1dc35 53 6 0 8 4 0 0 1 $T2 $esp .cbLocals + .cbSavedRegs + = $T0 .raSearchStart = $eip $T0 ^ = $esp $T0 4 + = $ebx $T0 4 - ^ =
STACK WIN 4 1dc36 51 5 0 8 8 0 0 1 $T2 $esp .cbLocals + .cbSavedRegs + = $T0 .raSearchStart = $eip $T0 ^ = $esp $T0 4 + = $ebx $T0 4 - ^ =
STACK WIN 4 1dc3b 4b 0 0 8 c 0 0 1 $T2 $esp .cbLocals + .cbSavedRegs + = $T0 .raSearchStart = $eip $T0 ^ = $esp $T0 4 + = $ebx $T0 4 - ^ =
STACK WIN 4 1dc89 d0 f 0 14 0 c 0 1 $T0 $ebp = $eip $T0 4 + ^ = $ebp $T0 ^ = $esp $T0 8 + = $L $T0 .cbSavedRegs - = $P $T0 8 + .cbParams + =
STACK WIN 4 1dc93 c4 5 0 14 4 c 0 1 $T0 $ebp = $eip $T0 4 + ^ = $ebp $T0 ^ = $esp $T0 8 + = $L $T0 .cbSavedRegs - = $P $T0 8 + .cbParams + = $ebx $T0 16 - ^ =
STACK WIN 4 1dc94 c2 4 0 14 8 c 0 1 $T0 $ebp = $eip $T0 4 + ^ = $ebp $T0 ^ = $esp $T0 8 + = $L $T0 .cbSavedRegs - = $P $T0 8 + .cbParams + = $ebx $T0 16 - ^ =
STACK WIN 4 1dc98 bd 0 0 14 c c 0 1 $T0 $ebp = $eip $T0 4 + ^ = $ebp $T0 ^ = $esp $T0 8 + = $L $T0 .cbSavedRegs - = $P $T0 8 + .cbParams + = $ebx $T0 16 - ^ =
STACK WIN 4 1dd59 5d 15 0 c 0 10 0 1 $T0 $ebp = $eip $T0 4 + ^ = $ebp $T0 ^ = $esp $T0 8 + = $L $T0 .cbSavedRegs - = $P $T0 8 + .cbParams + =
STACK WIN 4 1dd67 4d 7 0 c 4 10 0 1 $T0 $ebp = $eip $T0 4 + ^ = $ebp $T0 ^ = $esp $T0 8 + = $L $T0 .cbSavedRegs - = $P $T0 8 + .cbParams + =
STACK WIN 4 1dd6e 45 0 0 c 8 10 0 1 $T0 $ebp = $eip $T0 4 + ^ = $ebp $T0 ^ = $esp $T0 8 + = $L $T0 .cbSavedRegs - = $P $T0 8 + .cbParams + =
STACK WIN 4 1ddb6 5f e 0 c 0 10 0 1 $T0 $ebp = $eip $T0 4 + ^ = $ebp $T0 ^ = $esp $T0 8 + = $L $T0 .cbSavedRegs - = $P $T0 8 + .cbParams + =
STACK WIN 4 1ddc0 53 4 0 c 4 10 0 1 $T0 $ebp = $eip $T0 4 + ^ = $ebp $T0 ^ = $esp $T0 8 + = $L $T0 .cbSavedRegs - = $P $T0 8 + .cbParams + =
STACK WIN 4 1ddc4 4e 0 0 c 8 10 0 1 $T0 $ebp = $eip $T0 4 + ^ = $ebp $T0 ^ = $esp $T0 8 + = $L $T0 .cbSavedRegs - = $P $T0 8 + .cbParams + =
STACK WIN 4 1de15 14a 9 0 14 0 4 0 1 $T0 $ebp = $eip $T0 4 + ^ = $ebp $T0 ^ = $esp $T0 8 + = $L $T0 .cbSavedRegs - = $P $T0 8 + .cbParams + =
STACK WIN 4 1de1a 143 4 0 14 4 4 0 1 $T0 $ebp = $eip $T0 4 + ^ = $ebp $T0 ^ = $esp $T0 8 + = $L $T0 .cbSavedRegs - = $P $T0 8 + .cbParams + =
STACK WIN 4 1de1e 13e 0 0 14 8 4 0 1 $T0 $ebp = $eip $T0 4 + ^ = $ebp $T0 ^ = $esp $T0 8 + = $L $T0 .cbSavedRegs - = $P $T0 8 + .cbParams + =
STACK WIN 4 1de33 128 0 0 14 c 4 0 1 $T0 $ebp = $eip $T0 4 + ^ = $ebp $T0 ^ = $esp $T0 8 + = $L $T0 .cbSavedRegs - = $P $T0 8 + .cbParams + = $ebx $T0 16 - ^ =
STACK WIN 4 1df5f 16 0 0 8 0 0 0 1 $T2 $esp .cbLocals + .cbSavedRegs + = $T0 .raSearchStart = $eip $T0 ^ = $esp $T0 4 + =
STACK WIN 4 1df75 57 6 0 8 0 c 0 1 $T0 $ebp = $eip $T0 4 + ^ = $ebp $T0 ^ = $esp $T0 8 + = $L $T0 .cbSavedRegs - = $P $T0 8 + .cbParams + =
STACK WIN 4 1df9a 21 0 0 8 4 c 0 1 $T0 $ebp = $eip $T0 4 + ^ = $ebp $T0 ^ = $esp $T0 8 + = $L $T0 .cbSavedRegs - = $P $T0 8 + .cbParams + =
STACK WIN 4 1dfa1 19 0 0 8 8 c 0 1 $T0 $ebp = $eip $T0 4 + ^ = $ebp $T0 ^ = $esp $T0 8 + = $L $T0 .cbSavedRegs - = $P $T0 8 + .cbParams + =
STACK WIN 4 1dfcc 82 7 0 c 0 c 0 1 $T0 $ebp = $eip $T0 4 + ^ = $ebp $T0 ^ = $esp $T0 8 + = $L $T0 .cbSavedRegs - = $P $T0 8 + .cbParams + =
STACK WIN 4 1dfd3 79 0 0 c 4 c 0 1 $T0 $ebp = $eip $T0 4 + ^ = $ebp $T0 ^ = $esp $T0 8 + = $L $T0 .cbSavedRegs - = $P $T0 8 + .cbParams + =
STACK WIN 4 1dfed 5e 0 0 c 8 c 0 1 $T0 $ebp = $eip $T0 4 + ^ = $ebp $T0 ^ = $esp $T0 8 + = $L $T0 .cbSavedRegs - = $P $T0 8 + .cbParams + =
STACK WIN 4 1e017 33 0 0 c c c 0 1 $T0 $ebp = $eip $T0 4 + ^ = $ebp $T0 ^ = $esp $T0 8 + = $L $T0 .cbSavedRegs - = $P $T0 8 + .cbParams + = $ebx $T0 24 - ^ =
STACK WIN 4 1e04e 1f 0 0 4 0 0 0 1 $T2 $esp .cbLocals + .cbSavedRegs + = $T0 .raSearchStart = $eip $T0 ^ = $esp $T0 4 + =
STACK WIN 4 1e06d 56 8 0 8 0 0 0 1 $T0 $ebp = $eip $T0 4 + ^ = $ebp $T0 ^ = $esp $T0 8 + = $L $T0 .cbSavedRegs - = $P $T0 8 + .cbParams + =
STACK WIN 4 1e071 50 4 0 8 4 0 0 1 $T0 $ebp = $eip $T0 4 + ^ = $ebp $T0 ^ = $esp $T0 8 + = $L $T0 .cbSavedRegs - = $P $T0 8 + .cbParams + =
STACK WIN 4 1e075 4b 0 0 8 8 0 0 1 $T0 $ebp = $eip $T0 4 + ^ = $ebp $T0 ^ = $esp $T0 8 + = $L $T0 .cbSavedRegs - = $P $T0 8 + .cbParams + =
STACK WIN 4 1e0c3 32 0 0 c 0 0 0 1 $T2 $esp .cbLocals + .cbSavedRegs + = $T0 .raSearchStart = $eip $T0 ^ = $esp $T0 4 + =
STACK WIN 4 1e0cb 29 0 0 c 4 0 0 1 $T2 $esp .cbLocals + .cbSavedRegs + = $T0 .raSearchStart = $eip $T0 ^ = $esp $T0 4 + =
STACK WIN 4 1e0f5 8e e 0 18 0 0 0 1 $T0 $ebp = $eip $T0 4 + ^ = $ebp $T0 ^ = $esp $T0 8 + = $L $T0 .cbSavedRegs - = $P $T0 8 + .cbParams + =
STACK WIN 4 1e0f9 88 a 0 18 4 0 0 1 $T0 $ebp = $eip $T0 4 + ^ = $ebp $T0 ^ = $esp $T0 8 + = $L $T0 .cbSavedRegs - = $P $T0 8 + .cbParams + = $ebx $T0 4 - ^ =
STACK WIN 4 1e0fa 86 9 0 18 8 0 0 1 $T0 $ebp = $eip $T0 4 + ^ = $ebp $T0 ^ = $esp $T0 8 + = $L $T0 .cbSavedRegs - = $P $T0 8 + .cbParams + = $ebx $T0 4 - ^ =
STACK WIN 4 1e103 7c 0 0 18 c 0 0 1 $T0 $ebp = $eip $T0 4 + ^ = $ebp $T0 ^ = $esp $T0 8 + = $L $T0 .cbSavedRegs - = $P $T0 8 + .cbParams + = $ebx $T0 4 - ^ =
STACK WIN 4 1e183 55 f 0 c 0 0 0 1 $T2 $esp .cbLocals + .cbSavedRegs + = $T0 .raSearchStart = $eip $T0 ^ = $esp $T0 4 + =
STACK WIN 4 1e192 45 0 0 c 4 0 0 1 $T2 $esp .cbLocals + .cbSavedRegs + = $T0 .raSearchStart = $eip $T0 ^ = $esp $T0 4 + =
STACK WIN 4 1e19f 2d 0 0 c 8 0 0 1 $T2 $esp .cbLocals + .cbSavedRegs + = $T0 .raSearchStart = $eip $T0 ^ = $esp $T0 4 + =
STACK WIN 4 1e1d8 16 0 0 4 0 0 0 1 $T2 $esp .cbLocals + .cbSavedRegs + = $T0 .raSearchStart = $eip $T0 ^ = $esp $T0 4 + =
STACK WIN 4 1e1ee 62 10 0 10 0 0 0 1 $T0 $ebp = $eip $T0 4 + ^ = $ebp $T0 ^ = $esp $T0 8 + = $L $T0 .cbSavedRegs - = $P $T0 8 + .cbParams + =
STACK WIN 4 1e1f8 56 6 0 10 4 0 0 1 $T0 $ebp = $eip $T0 4 + ^ = $ebp $T0 ^ = $esp $T0 8 + = $L $T0 .cbSavedRegs - = $P $T0 8 + .cbParams + =
STACK WIN 4 1e1fe 4d 0 0 10 8 0 0 1 $T0 $ebp = $eip $T0 4 + ^ = $ebp $T0 ^ = $esp $T0 8 + = $L $T0 .cbSavedRegs - = $P $T0 8 + .cbParams + =
STACK WIN 4 1e208 3b 0 0 10 c 0 0 1 $T0 $ebp = $eip $T0 4 + ^ = $ebp $T0 ^ = $esp $T0 8 + = $L $T0 .cbSavedRegs - = $P $T0 8 + .cbParams + = $ebx $T0 12 - ^ =
STACK WIN 4 1e250 13b 15 0 0 0 4c 0 1 $T0 $ebp = $eip $T0 4 + ^ = $ebp $T0 ^ = $esp $T0 8 + = $L $T0 .cbSavedRegs - = $P $T0 8 + .cbParams + =
STACK WIN 4 1e261 123 4 0 0 4 4c 0 1 $T0 $ebp = $eip $T0 4 + ^ = $ebp $T0 ^ = $esp $T0 8 + = $L $T0 .cbSavedRegs - = $P $T0 8 + .cbParams + = $ebx $T0 80 - ^ =
STACK WIN 4 1e264 11d 1 0 0 8 4c 0 1 $T0 $ebp = $eip $T0 4 + ^ = $ebp $T0 ^ = $esp $T0 8 + = $L $T0 .cbSavedRegs - = $P $T0 8 + .cbParams + = $ebx $T0 80 - ^ =
STACK WIN 4 1e265 11b 0 0 0 c 4c 0 1 $T0 $ebp = $eip $T0 4 + ^ = $ebp $T0 ^ = $esp $T0 8 + = $L $T0 .cbSavedRegs - = $P $T0 8 + .cbParams + = $ebx $T0 80 - ^ =
STACK WIN 4 1e38b b6 f 0 4 0 18 0 1 $T0 $ebp = $eip $T0 4 + ^ = $ebp $T0 ^ = $esp $T0 8 + = $L $T0 .cbSavedRegs - = $P $T0 8 + .cbParams + =
STACK WIN 4 1e392 ad 8 0 4 4 18 0 1 $T0 $ebp = $eip $T0 4 + ^ = $ebp $T0 ^ = $esp $T0 8 + = $L $T0 .cbSavedRegs - = $P $T0 8 + .cbParams + = $ebx $T0 28 - ^ =
STACK WIN 4 1e393 ab 7 0 4 8 18 0 1 $T0 $ebp = $eip $T0 4 + ^ = $ebp $T0 ^ = $esp $T0 8 + = $L $T0 .cbSavedRegs - = $P $T0 8 + .cbParams + = $ebx $T0 28 - ^ =
STACK WIN 4 1e39a a3 0 0 4 c 18 0 1 $T0 $ebp = $eip $T0 4 + ^ = $ebp $T0 ^ = $esp $T0 8 + = $L $T0 .cbSavedRegs - = $P $T0 8 + .cbParams + = $ebx $T0 28 - ^ =
STACK WIN 4 1e441 49 8 0 8 0 0 0 1 $T0 $ebp = $eip $T0 4 + ^ = $ebp $T0 ^ = $esp $T0 8 + = $L $T0 .cbSavedRegs - = $P $T0 8 + .cbParams + =
STACK WIN 4 1e445 43 4 0 8 4 0 0 1 $T0 $ebp = $eip $T0 4 + ^ = $ebp $T0 ^ = $esp $T0 8 + = $L $T0 .cbSavedRegs - = $P $T0 8 + .cbParams + =
STACK WIN 4 1e449 3e 0 0 8 8 0 0 1 $T0 $ebp = $eip $T0 4 + ^ = $ebp $T0 ^ = $esp $T0 8 + = $L $T0 .cbSavedRegs - = $P $T0 8 + .cbParams + =
STACK WIN 4 1e48a 23 0 0 c 0 0 0 1 $T2 $esp .cbLocals + .cbSavedRegs + = $T0 .raSearchStart = $eip $T0 ^ = $esp $T0 4 + =
STACK WIN 4 1e4ad 172 9 0 10 0 18 0 1 $T0 $ebp = $eip $T0 4 + ^ = $ebp $T0 ^ = $esp $T0 8 + = $L $T0 .cbSavedRegs - = $P $T0 8 + .cbParams + =
STACK WIN 4 1e4b4 169 2 0 10 4 18 0 1 $T0 $ebp = $eip $T0 4 + ^ = $ebp $T0 ^ = $esp $T0 8 + = $L $T0 .cbSavedRegs - = $P $T0 8 + .cbParams + = $ebx $T0 28 - ^ =
STACK WIN 4 1e4b5 167 1 0 10 8 18 0 1 $T0 $ebp = $eip $T0 4 + ^ = $ebp $T0 ^ = $esp $T0 8 + = $L $T0 .cbSavedRegs - = $P $T0 8 + .cbParams + = $ebx $T0 28 - ^ =
STACK WIN 4 1e4b6 165 0 0 10 c 18 0 1 $T0 $ebp = $eip $T0 4 + ^ = $ebp $T0 ^ = $esp $T0 8 + = $L $T0 .cbSavedRegs - = $P $T0 8 + .cbParams + = $ebx $T0 28 - ^ =
STACK WIN 4 1e61f 159 9 0 10 0 10 0 1 $T0 $ebp = $eip $T0 4 + ^ = $ebp $T0 ^ = $esp $T0 8 + = $L $T0 .cbSavedRegs - = $P $T0 8 + .cbParams + =
STACK WIN 4 1e626 150 2 0 10 4 10 0 1 $T0 $ebp = $eip $T0 4 + ^ = $ebp $T0 ^ = $esp $T0 8 + = $L $T0 .cbSavedRegs - = $P $T0 8 + .cbParams + = $ebx $T0 20 - ^ =
STACK WIN 4 1e627 14e 1 0 10 8 10 0 1 $T0 $ebp = $eip $T0 4 + ^ = $ebp $T0 ^ = $esp $T0 8 + = $L $T0 .cbSavedRegs - = $P $T0 8 + .cbParams + = $ebx $T0 20 - ^ =
STACK WIN 4 1e628 14c 0 0 10 c 10 0 1 $T0 $ebp = $eip $T0 4 + ^ = $ebp $T0 ^ = $esp $T0 8 + = $L $T0 .cbSavedRegs - = $P $T0 8 + .cbParams + = $ebx $T0 20 - ^ =
STACK WIN 4 1e778 133 9 0 c 0 14 0 1 $T0 $ebp = $eip $T0 4 + ^ = $ebp $T0 ^ = $esp $T0 8 + = $L $T0 .cbSavedRegs - = $P $T0 8 + .cbParams + =
STACK WIN 4 1e77f 12a 2 0 c 4 14 0 1 $T0 $ebp = $eip $T0 4 + ^ = $ebp $T0 ^ = $esp $T0 8 + = $L $T0 .cbSavedRegs - = $P $T0 8 + .cbParams + = $ebx $T0 24 - ^ =
STACK WIN 4 1e780 128 1 0 c 8 14 0 1 $T0 $ebp = $eip $T0 4 + ^ = $ebp $T0 ^ = $esp $T0 8 + = $L $T0 .cbSavedRegs - = $P $T0 8 + .cbParams + = $ebx $T0 24 - ^ =
STACK WIN 4 1e781 126 0 0 c c 14 0 1 $T0 $ebp = $eip $T0 4 + ^ = $ebp $T0 ^ = $esp $T0 8 + = $L $T0 .cbSavedRegs - = $P $T0 8 + .cbParams + = $ebx $T0 24 - ^ =
STACK WIN 4 1e8ab 123 e 0 14 0 8 0 1 $T0 $ebp = $eip $T0 4 + ^ = $ebp $T0 ^ = $esp $T0 8 + = $L $T0 .cbSavedRegs - = $P $T0 8 + .cbParams + =
STACK WIN 4 1e8b1 11b 8 0 14 4 8 0 1 $T0 $ebp = $eip $T0 4 + ^ = $ebp $T0 ^ = $esp $T0 8 + = $L $T0 .cbSavedRegs - = $P $T0 8 + .cbParams + =
STACK WIN 4 1e8b7 114 2 0 14 8 8 0 1 $T0 $ebp = $eip $T0 4 + ^ = $ebp $T0 ^ = $esp $T0 8 + = $L $T0 .cbSavedRegs - = $P $T0 8 + .cbParams + =
STACK WIN 4 1e906 c4 0 0 14 c 8 0 1 $T0 $ebp = $eip $T0 4 + ^ = $ebp $T0 ^ = $esp $T0 8 + = $L $T0 .cbSavedRegs - = $P $T0 8 + .cbParams + = $ebx $T0 20 - ^ =
STACK WIN 4 1e9ce 35 6 0 18 0 c 0 1 $T0 $ebp = $eip $T0 4 + ^ = $ebp $T0 ^ = $esp $T0 8 + = $L $T0 .cbSavedRegs - = $P $T0 8 + .cbParams + =
STACK WIN 4 1ea03 35 6 0 18 0 c 0 1 $T0 $ebp = $eip $T0 4 + ^ = $ebp $T0 ^ = $esp $T0 8 + = $L $T0 .cbSavedRegs - = $P $T0 8 + .cbParams + =
STACK WIN 4 1ea38 140 f 0 10 0 c 0 1 $T0 $ebp = $eip $T0 4 + ^ = $ebp $T0 ^ = $esp $T0 8 + = $L $T0 .cbSavedRegs - = $P $T0 8 + .cbParams + =
STACK WIN 4 1ea3f 137 8 0 10 4 c 0 1 $T0 $ebp = $eip $T0 4 + ^ = $ebp $T0 ^ = $esp $T0 8 + = $L $T0 .cbSavedRegs - = $P $T0 8 + .cbParams + = $ebx $T0 16 - ^ =
STACK WIN 4 1ea40 135 7 0 10 8 c 0 1 $T0 $ebp = $eip $T0 4 + ^ = $ebp $T0 ^ = $esp $T0 8 + = $L $T0 .cbSavedRegs - = $P $T0 8 + .cbParams + = $ebx $T0 16 - ^ =
STACK WIN 4 1ea45 12f 2 0 10 c c 0 1 $T0 $ebp = $eip $T0 4 + ^ = $ebp $T0 ^ = $esp $T0 8 + = $L $T0 .cbSavedRegs - = $P $T0 8 + .cbParams + = $ebx $T0 16 - ^ =
STACK WIN 4 1eb78 31 6 0 14 0 c 0 1 $T0 $ebp = $eip $T0 4 + ^ = $ebp $T0 ^ = $esp $T0 8 + = $L $T0 .cbSavedRegs - = $P $T0 8 + .cbParams + =
STACK WIN 4 1eba9 31 6 0 14 0 c 0 1 $T0 $ebp = $eip $T0 4 + ^ = $ebp $T0 ^ = $esp $T0 8 + = $L $T0 .cbSavedRegs - = $P $T0 8 + .cbParams + =
STACK WIN 4 1ebda 32d 11 0 34 0 d4 0 1 $T0 $ebp = $eip $T0 4 + ^ = $ebp $T0 ^ = $esp $T0 8 + = $L $T0 .cbSavedRegs - = $P $T0 8 + .cbParams + =
STACK WIN 4 1ebe4 217 7 0 34 4 d4 0 1 $T0 $ebp = $eip $T0 4 + ^ = $ebp $T0 ^ = $esp $T0 8 + = $L $T0 .cbSavedRegs - = $P $T0 8 + .cbParams + = $ebx $T0 216 - ^ =
STACK WIN 4 1ebea 210 1 0 34 8 d4 0 1 $T0 $ebp = $eip $T0 4 + ^ = $ebp $T0 ^ = $esp $T0 8 + = $L $T0 .cbSavedRegs - = $P $T0 8 + .cbParams + = $ebx $T0 216 - ^ =
STACK WIN 4 1ebeb 20e 0 0 34 c d4 0 1 $T0 $ebp = $eip $T0 4 + ^ = $ebp $T0 ^ = $esp $T0 8 + = $L $T0 .cbSavedRegs - = $P $T0 8 + .cbParams + = $ebx $T0 216 - ^ =
STACK WIN 4 1ef07 14c f 0 1c 0 18 0 1 $T0 $ebp = $eip $T0 4 + ^ = $ebp $T0 ^ = $esp $T0 8 + = $L $T0 .cbSavedRegs - = $P $T0 8 + .cbParams + =
STACK WIN 4 1ef14 13d 2 0 1c 4 18 0 1 $T0 $ebp = $eip $T0 4 + ^ = $ebp $T0 ^ = $esp $T0 8 + = $L $T0 .cbSavedRegs - = $P $T0 8 + .cbParams + = $ebx $T0 28 - ^ =
STACK WIN 4 1ef15 13b 1 0 1c 8 18 0 1 $T0 $ebp = $eip $T0 4 + ^ = $ebp $T0 ^ = $esp $T0 8 + = $L $T0 .cbSavedRegs - = $P $T0 8 + .cbParams + = $ebx $T0 28 - ^ =
STACK WIN 4 1ef16 139 0 0 1c c 18 0 1 $T0 $ebp = $eip $T0 4 + ^ = $ebp $T0 ^ = $esp $T0 8 + = $L $T0 .cbSavedRegs - = $P $T0 8 + .cbParams + = $ebx $T0 28 - ^ =
STACK WIN 4 1f053 25 0 0 4 0 0 0 1 $T2 $esp .cbLocals + .cbSavedRegs + = $T0 .raSearchStart = $eip $T0 ^ = $esp $T0 4 + =
STACK WIN 4 1f078 29 1 0 4 0 0 0 1 $T2 $esp .cbLocals + .cbSavedRegs + = $T0 .raSearchStart = $eip $T0 ^ = $esp $T0 4 + =
STACK WIN 4 1f079 27 0 0 4 4 0 0 1 $T2 $esp .cbLocals + .cbSavedRegs + = $T0 .raSearchStart = $eip $T0 ^ = $esp $T0 4 + =
STACK WIN 4 1f0a1 32 0 0 4 0 0 0 1 $T2 $esp .cbLocals + .cbSavedRegs + = $T0 .raSearchStart = $eip $T0 ^ = $esp $T0 4 + =
STACK WIN 4 1f0aa 26 0 0 4 4 0 0 1 $T2 $esp .cbLocals + .cbSavedRegs + = $T0 .raSearchStart = $eip $T0 ^ = $esp $T0 4 + =
STACK WIN 4 1f0ad 11 0 0 4 8 0 0 1 $T2 $esp .cbLocals + .cbSavedRegs + = $T0 .raSearchStart = $eip $T0 ^ = $esp $T0 4 + =
STACK WIN 4 1f0d3 6f 5 0 10 0 0 0 1 $T0 $ebp = $eip $T0 4 + ^ = $ebp $T0 ^ = $esp $T0 8 + = $L $T0 .cbSavedRegs - = $P $T0 8 + .cbParams + =
STACK WIN 4 1f0d7 69 1 0 10 4 0 0 1 $T0 $ebp = $eip $T0 4 + ^ = $ebp $T0 ^ = $esp $T0 8 + = $L $T0 .cbSavedRegs - = $P $T0 8 + .cbParams + =
STACK WIN 4 1f0d8 67 0 0 10 8 0 0 1 $T0 $ebp = $eip $T0 4 + ^ = $ebp $T0 ^ = $esp $T0 8 + = $L $T0 .cbSavedRegs - = $P $T0 8 + .cbParams + =
STACK WIN 4 1f142 a5 e 0 10 0 c 0 1 $T0 $ebp = $eip $T0 4 + ^ = $ebp $T0 ^ = $esp $T0 8 + = $L $T0 .cbSavedRegs - = $P $T0 8 + .cbParams + =
STACK WIN 4 1f14f 96 1 0 10 4 c 0 1 $T0 $ebp = $eip $T0 4 + ^ = $ebp $T0 ^ = $esp $T0 8 + = $L $T0 .cbSavedRegs - = $P $T0 8 + .cbParams + =
STACK WIN 4 1f150 94 0 0 10 8 c 0 1 $T0 $ebp = $eip $T0 4 + ^ = $ebp $T0 ^ = $esp $T0 8 + = $L $T0 .cbSavedRegs - = $P $T0 8 + .cbParams + =
STACK WIN 4 1f191 52 0 0 10 c c 0 1 $T0 $ebp = $eip $T0 4 + ^ = $ebp $T0 ^ = $esp $T0 8 + = $L $T0 .cbSavedRegs - = $P $T0 8 + .cbParams + = $ebx $T0 24 - ^ =
STACK WIN 4 1f1e7 51 3 0 10 0 0 0 1 $T0 $ebp = $eip $T0 4 + ^ = $ebp $T0 ^ = $esp $T0 8 + = $L $T0 .cbSavedRegs - = $P $T0 8 + .cbParams + =
STACK WIN 4 1f238 97 9 0 c 0 4 0 1 $T0 $ebp = $eip $T0 4 + ^ = $ebp $T0 ^ = $esp $T0 8 + = $L $T0 .cbSavedRegs - = $P $T0 8 + .cbParams + =
STACK WIN 4 1f23d 90 4 0 c 4 4 0 1 $T0 $ebp = $eip $T0 4 + ^ = $ebp $T0 ^ = $esp $T0 8 + = $L $T0 .cbSavedRegs - = $P $T0 8 + .cbParams + =
STACK WIN 4 1f241 8b 0 0 c 8 4 0 1 $T0 $ebp = $eip $T0 4 + ^ = $ebp $T0 ^ = $esp $T0 8 + = $L $T0 .cbSavedRegs - = $P $T0 8 + .cbParams + =
STACK WIN 4 1f2cf 100 a 0 10 0 4 0 1 $T0 $ebp = $eip $T0 4 + ^ = $ebp $T0 ^ = $esp $T0 8 + = $L $T0 .cbSavedRegs - = $P $T0 8 + .cbParams + =
STACK WIN 4 1f2d4 f9 5 0 10 4 4 0 1 $T0 $ebp = $eip $T0 4 + ^ = $ebp $T0 ^ = $esp $T0 8 + = $L $T0 .cbSavedRegs - = $P $T0 8 + .cbParams + = $ebx $T0 8 - ^ =
STACK WIN 4 1f2d5 f7 4 0 10 8 4 0 1 $T0 $ebp = $eip $T0 4 + ^ = $ebp $T0 ^ = $esp $T0 8 + = $L $T0 .cbSavedRegs - = $P $T0 8 + .cbParams + = $ebx $T0 8 - ^ =
STACK WIN 4 1f2d9 f2 0 0 10 c 4 0 1 $T0 $ebp = $eip $T0 4 + ^ = $ebp $T0 ^ = $esp $T0 8 + = $L $T0 .cbSavedRegs - = $P $T0 8 + .cbParams + = $ebx $T0 8 - ^ =
STACK WIN 4 1f3cf c5 a 0 c 0 18 0 1 $T0 $ebp = $eip $T0 4 + ^ = $ebp $T0 ^ = $esp $T0 8 + = $L $T0 .cbSavedRegs - = $P $T0 8 + .cbParams + =
STACK WIN 4 1f3d6 bc 3 0 c 4 18 0 1 $T0 $ebp = $eip $T0 4 + ^ = $ebp $T0 ^ = $esp $T0 8 + = $L $T0 .cbSavedRegs - = $P $T0 8 + .cbParams + =
STACK WIN 4 1f3d9 b8 0 0 c 8 18 0 1 $T0 $ebp = $eip $T0 4 + ^ = $ebp $T0 ^ = $esp $T0 8 + = $L $T0 .cbSavedRegs - = $P $T0 8 + .cbParams + =
STACK WIN 4 1f408 88 0 0 c c 18 0 1 $T0 $ebp = $eip $T0 4 + ^ = $ebp $T0 ^ = $esp $T0 8 + = $L $T0 .cbSavedRegs - = $P $T0 8 + .cbParams + = $ebx $T0 36 - ^ =
STACK WIN 4 1f494 5b a 0 8 0 4 0 1 $T0 $ebp = $eip $T0 4 + ^ = $ebp $T0 ^ = $esp $T0 8 + = $L $T0 .cbSavedRegs - = $P $T0 8 + .cbParams + =
STACK WIN 4 1f499 54 5 0 8 4 4 0 1 $T0 $ebp = $eip $T0 4 + ^ = $ebp $T0 ^ = $esp $T0 8 + = $L $T0 .cbSavedRegs - = $P $T0 8 + .cbParams + = $ebx $T0 8 - ^ =
STACK WIN 4 1f49a 52 4 0 8 8 4 0 1 $T0 $ebp = $eip $T0 4 + ^ = $ebp $T0 ^ = $esp $T0 8 + = $L $T0 .cbSavedRegs - = $P $T0 8 + .cbParams + = $ebx $T0 8 - ^ =
STACK WIN 4 1f49e 4d 0 0 8 c 4 0 1 $T0 $ebp = $eip $T0 4 + ^ = $ebp $T0 ^ = $esp $T0 8 + = $L $T0 .cbSavedRegs - = $P $T0 8 + .cbParams + = $ebx $T0 8 - ^ =
STACK WIN 4 1f4ef 62 5 0 10 0 0 0 1 $T0 $ebp = $eip $T0 4 + ^ = $ebp $T0 ^ = $esp $T0 8 + = $L $T0 .cbSavedRegs - = $P $T0 8 + .cbParams + =
STACK WIN 4 1f4f3 5c 1 0 10 4 0 0 1 $T0 $ebp = $eip $T0 4 + ^ = $ebp $T0 ^ = $esp $T0 8 + = $L $T0 .cbSavedRegs - = $P $T0 8 + .cbParams + = $ebx $T0 4 - ^ =
STACK WIN 4 1f4f4 5a 0 0 10 8 0 0 1 $T0 $ebp = $eip $T0 4 + ^ = $ebp $T0 ^ = $esp $T0 8 + = $L $T0 .cbSavedRegs - = $P $T0 8 + .cbParams + = $ebx $T0 4 - ^ =
STACK WIN 4 1f511 3c 0 0 10 c 0 0 1 $T0 $ebp = $eip $T0 4 + ^ = $ebp $T0 ^ = $esp $T0 8 + = $L $T0 .cbSavedRegs - = $P $T0 8 + .cbParams + = $ebx $T0 4 - ^ =
STACK WIN 4 1f551 76 a 0 8 0 c 0 1 $T0 $ebp = $eip $T0 4 + ^ = $ebp $T0 ^ = $esp $T0 8 + = $L $T0 .cbSavedRegs - = $P $T0 8 + .cbParams + =
STACK WIN 4 1f558 6d 3 0 8 4 c 0 1 $T0 $ebp = $eip $T0 4 + ^ = $ebp $T0 ^ = $esp $T0 8 + = $L $T0 .cbSavedRegs - = $P $T0 8 + .cbParams + =
STACK WIN 4 1f55b 69 0 0 8 8 c 0 1 $T0 $ebp = $eip $T0 4 + ^ = $ebp $T0 ^ = $esp $T0 8 + = $L $T0 .cbSavedRegs - = $P $T0 8 + .cbParams + =
STACK WIN 4 1f57e 45 0 0 8 c c 0 1 $T0 $ebp = $eip $T0 4 + ^ = $ebp $T0 ^ = $esp $T0 8 + = $L $T0 .cbSavedRegs - = $P $T0 8 + .cbParams + = $ebx $T0 24 - ^ =
STACK WIN 4 1f5c7 28 1 0 8 0 0 0 1 $T2 $esp .cbLocals + .cbSavedRegs + = $T0 .raSearchStart = $eip $T0 ^ = $esp $T0 4 + =
STACK WIN 4 1f5c8 26 0 0 8 4 0 0 1 $T2 $esp .cbLocals + .cbSavedRegs + = $T0 .raSearchStart = $eip $T0 ^ = $esp $T0 4 + =
STACK WIN 4 1f5ef b4 7 0 8 0 1c 0 1 $T0 $ebp = $eip $T0 4 + ^ = $ebp $T0 ^ = $esp $T0 8 + = $L $T0 .cbSavedRegs - = $P $T0 8 + .cbParams + =
STACK WIN 4 1f5f6 3a 0 0 8 4 1c 0 1 $T0 $ebp = $eip $T0 4 + ^ = $ebp $T0 ^ = $esp $T0 8 + = $L $T0 .cbSavedRegs - = $P $T0 8 + .cbParams + = $ebx $T0 32 - ^ =
STACK WIN 4 1f633 6e 0 0 8 8 1c 0 1 $T0 $ebp = $eip $T0 4 + ^ = $ebp $T0 ^ = $esp $T0 8 + = $L $T0 .cbSavedRegs - = $P $T0 8 + .cbParams + = $ebx $T0 32 - ^ =
STACK WIN 4 1f634 6a 0 0 8 c 1c 0 1 $T0 $ebp = $eip $T0 4 + ^ = $ebp $T0 ^ = $esp $T0 8 + = $L $T0 .cbSavedRegs - = $P $T0 8 + .cbParams + = $ebx $T0 32 - ^ =
STACK WIN 4 1f6a3 3b 0 0 0 0 0 0 1 $T2 $esp .cbLocals + .cbSavedRegs + = $T0 .raSearchStart = $eip $T0 ^ = $esp $T0 4 + =
STACK WIN 4 1f6de 1f 0 0 0 0 0 0 1 $T2 $esp .cbLocals + .cbSavedRegs + = $T0 .raSearchStart = $eip $T0 ^ = $esp $T0 4 + =
STACK WIN 4 1f6fd 1f 3 0 0 0 0 0 1 $T2 $esp .cbLocals + .cbSavedRegs + = $T0 .raSearchStart = $eip $T0 ^ = $esp $T0 4 + =
STACK WIN 4 1f6fe 1d 2 0 0 4 0 0 1 $T2 $esp .cbLocals + .cbSavedRegs + = $T0 .raSearchStart = $eip $T0 ^ = $esp $T0 4 + =
STACK WIN 4 1f71c 57 4 0 0 0 0 0 1 $T2 $esp .cbLocals + .cbSavedRegs + = $T0 .raSearchStart = $eip $T0 ^ = $esp $T0 4 + =
STACK WIN 4 1f71d 55 3 0 0 4 0 0 1 $T2 $esp .cbLocals + .cbSavedRegs + = $T0 .raSearchStart = $eip $T0 ^ = $esp $T0 4 + = $ebx $T0 4 - ^ =
STACK WIN 4 1f71e 53 2 0 0 8 0 0 1 $T2 $esp .cbLocals + .cbSavedRegs + = $T0 .raSearchStart = $eip $T0 ^ = $esp $T0 4 + = $ebx $T0 4 - ^ =
STACK WIN 4 1f723 4b 0 0 0 c 0 0 1 $T2 $esp .cbLocals + .cbSavedRegs + = $T0 .raSearchStart = $eip $T0 ^ = $esp $T0 4 + = $ebx $T0 4 - ^ =
STACK WIN 4 1f773 7e 9 0 8 0 4 0 1 $T0 $ebp = $eip $T0 4 + ^ = $ebp $T0 ^ = $esp $T0 8 + = $L $T0 .cbSavedRegs - = $P $T0 8 + .cbParams + =
STACK WIN 4 1f77b 74 1 0 8 4 4 0 1 $T0 $ebp = $eip $T0 4 + ^ = $ebp $T0 ^ = $esp $T0 8 + = $L $T0 .cbSavedRegs - = $P $T0 8 + .cbParams + = $ebx $T0 8 - ^ =
STACK WIN 4 1f77c 72 0 0 8 8 4 0 1 $T0 $ebp = $eip $T0 4 + ^ = $ebp $T0 ^ = $esp $T0 8 + = $L $T0 .cbSavedRegs - = $P $T0 8 + .cbParams + = $ebx $T0 8 - ^ =
STACK WIN 4 1f798 1d 0 0 8 c 4 0 1 $T0 $ebp = $eip $T0 4 + ^ = $ebp $T0 ^ = $esp $T0 8 + = $L $T0 .cbSavedRegs - = $P $T0 8 + .cbParams + = $ebx $T0 8 - ^ =
STACK WIN 4 1f7f1 35 3 0 0 0 0 0 1 $T2 $esp .cbLocals + .cbSavedRegs + = $T0 .raSearchStart = $eip $T0 ^ = $esp $T0 4 + =
STACK WIN 4 1f7f2 33 2 0 0 4 0 0 1 $T2 $esp .cbLocals + .cbSavedRegs + = $T0 .raSearchStart = $eip $T0 ^ = $esp $T0 4 + =
STACK WIN 4 1f826 126 6 0 c 0 4 0 1 $T0 $ebp = $eip $T0 4 + ^ = $ebp $T0 ^ = $esp $T0 8 + = $L $T0 .cbSavedRegs - = $P $T0 8 + .cbParams + =
STACK WIN 4 1f82b 11f 1 0 c 4 4 0 1 $T0 $ebp = $eip $T0 4 + ^ = $ebp $T0 ^ = $esp $T0 8 + = $L $T0 .cbSavedRegs - = $P $T0 8 + .cbParams + = $ebx $T0 8 - ^ =
STACK WIN 4 1f82c 11b 0 0 c 8 4 0 1 $T0 $ebp = $eip $T0 4 + ^ = $ebp $T0 ^ = $esp $T0 8 + = $L $T0 .cbSavedRegs - = $P $T0 8 + .cbParams + = $ebx $T0 8 - ^ =
STACK WIN 4 1f94c b4 1e 0 0 0 108 0 1 $T0 $ebp 136 + = $eip $T0 4 + ^ = $ebp $T0 ^ = $esp $T0 8 + = $L $T0 .cbSavedRegs - = $P $T0 8 + .cbParams + =
STACK WIN 4 1f968 8b 2 0 0 4 108 0 1 $T0 $ebp 136 + = $eip $T0 4 + ^ = $ebp $T0 ^ = $esp $T0 8 + = $L $T0 .cbSavedRegs - = $P $T0 8 + .cbParams + = $ebx $T0 268 - ^ =
STACK WIN 4 1f969 87 1 0 0 8 108 0 1 $T0 $ebp 136 + = $eip $T0 4 + ^ = $ebp $T0 ^ = $esp $T0 8 + = $L $T0 .cbSavedRegs - = $P $T0 8 + .cbParams + = $ebx $T0 268 - ^ =
STACK WIN 4 1f96a 85 0 0 0 c 108 0 1 $T0 $ebp 136 + = $eip $T0 4 + ^ = $ebp $T0 ^ = $esp $T0 8 + = $L $T0 .cbSavedRegs - = $P $T0 8 + .cbParams + = $ebx $T0 268 - ^ =
STACK WIN 4 1fa00 70 6 0 c 0 4 0 1 $T0 $ebp = $eip $T0 4 + ^ = $ebp $T0 ^ = $esp $T0 8 + = $L $T0 .cbSavedRegs - = $P $T0 8 + .cbParams + =
STACK WIN 4 1fa05 69 1 0 c 4 4 0 1 $T0 $ebp = $eip $T0 4 + ^ = $ebp $T0 ^ = $esp $T0 8 + = $L $T0 .cbSavedRegs - = $P $T0 8 + .cbParams + = $ebx $T0 8 - ^ =
STACK WIN 4 1fa06 67 0 0 c 8 4 0 1 $T0 $ebp = $eip $T0 4 + ^ = $ebp $T0 ^ = $esp $T0 8 + = $L $T0 .cbSavedRegs - = $P $T0 8 + .cbParams + = $ebx $T0 8 - ^ =
STACK WIN 4 1fa2a 42 0 0 c c 4 0 1 $T0 $ebp = $eip $T0 4 + ^ = $ebp $T0 ^ = $esp $T0 8 + = $L $T0 .cbSavedRegs - = $P $T0 8 + .cbParams + = $ebx $T0 8 - ^ =
STACK WIN 4 1fa70 61 a 0 0 0 0 0 1 $T2 $esp .cbLocals + .cbSavedRegs + = $T0 .raSearchStart = $eip $T0 ^ = $esp $T0 4 + =
STACK WIN 4 1fa78 58 2 0 0 4 0 0 1 $T2 $esp .cbLocals + .cbSavedRegs + = $T0 .raSearchStart = $eip $T0 ^ = $esp $T0 4 + =
STACK WIN 4 1fa84 4b 0 0 0 8 0 0 1 $T2 $esp .cbLocals + .cbSavedRegs + = $T0 .raSearchStart = $eip $T0 ^ = $esp $T0 4 + = $ebx $T0 8 - ^ =
STACK WIN 4 1fad1 92 6 0 0 0 4 0 1 $T0 $ebp = $eip $T0 4 + ^ = $ebp $T0 ^ = $esp $T0 8 + = $L $T0 .cbSavedRegs - = $P $T0 8 + .cbParams + =
STACK WIN 4 1fad6 8b 1 0 0 4 4 0 1 $T0 $ebp = $eip $T0 4 + ^ = $ebp $T0 ^ = $esp $T0 8 + = $L $T0 .cbSavedRegs - = $P $T0 8 + .cbParams + = $ebx $T0 8 - ^ =
STACK WIN 4 1fad7 89 0 0 0 8 4 0 1 $T0 $ebp = $eip $T0 4 + ^ = $ebp $T0 ^ = $esp $T0 8 + = $L $T0 .cbSavedRegs - = $P $T0 8 + .cbParams + = $ebx $T0 8 - ^ =
STACK WIN 4 1fae8 77 0 0 0 c 4 0 1 $T0 $ebp = $eip $T0 4 + ^ = $ebp $T0 ^ = $esp $T0 8 + = $L $T0 .cbSavedRegs - = $P $T0 8 + .cbParams + = $ebx $T0 8 - ^ =
STACK WIN 4 1fb63 39 4 0 4 0 0 0 1 $T2 $esp .cbLocals + .cbSavedRegs + = $T0 .raSearchStart = $eip $T0 ^ = $esp $T0 4 + =
STACK WIN 4 1fb64 37 3 0 4 4 0 0 1 $T2 $esp .cbLocals + .cbSavedRegs + = $T0 .raSearchStart = $eip $T0 ^ = $esp $T0 4 + =
STACK WIN 4 1fb65 35 2 0 4 8 0 0 1 $T2 $esp .cbLocals + .cbSavedRegs + = $T0 .raSearchStart = $eip $T0 ^ = $esp $T0 4 + =
STACK WIN 4 1fb9c a6 f 0 0 0 c 0 1 $T0 $ebp = $eip $T0 4 + ^ = $ebp $T0 ^ = $esp $T0 8 + = $L $T0 .cbSavedRegs - = $P $T0 8 + .cbParams + =
STACK WIN 4 1fbab 95 0 0 0 4 c 0 1 $T0 $ebp = $eip $T0 4 + ^ = $ebp $T0 ^ = $esp $T0 8 + = $L $T0 .cbSavedRegs - = $P $T0 8 + .cbParams + =
STACK WIN 4 1fbd9 66 0 0 0 8 c 0 1 $T0 $ebp = $eip $T0 4 + ^ = $ebp $T0 ^ = $esp $T0 8 + = $L $T0 .cbSavedRegs - = $P $T0 8 + .cbParams + =
STACK WIN 4 1fbde 56 0 0 0 c c 0 1 $T0 $ebp = $eip $T0 4 + ^ = $ebp $T0 ^ = $esp $T0 8 + = $L $T0 .cbSavedRegs - = $P $T0 8 + .cbParams + = $ebx $T0 24 - ^ =
STACK WIN 4 1fc42 ae 5 0 0 0 4 0 1 $T0 $ebp = $eip $T0 4 + ^ = $ebp $T0 ^ = $esp $T0 8 + = $L $T0 .cbSavedRegs - = $P $T0 8 + .cbParams + =
STACK WIN 4 1fc47 a7 0 0 0 4 4 0 1 $T0 $ebp = $eip $T0 4 + ^ = $ebp $T0 ^ = $esp $T0 8 + = $L $T0 .cbSavedRegs - = $P $T0 8 + .cbParams + =
STACK WIN 4 1fcf0 67 d 0 4 0 4 0 1 $T0 $ebp = $eip $T0 4 + ^ = $ebp $T0 ^ = $esp $T0 8 + = $L $T0 .cbSavedRegs - = $P $T0 8 + .cbParams + =
STACK WIN 4 1fcfc 59 1 0 4 4 4 0 1 $T0 $ebp = $eip $T0 4 + ^ = $ebp $T0 ^ = $esp $T0 8 + = $L $T0 .cbSavedRegs - = $P $T0 8 + .cbParams + =
STACK WIN 4 1fcfd 57 0 0 4 8 4 0 1 $T0 $ebp = $eip $T0 4 + ^ = $ebp $T0 ^ = $esp $T0 8 + = $L $T0 .cbSavedRegs - = $P $T0 8 + .cbParams + =
STACK WIN 4 1fd57 114 b 0 8 0 18 0 1 $T0 $ebp = $eip $T0 4 + ^ = $ebp $T0 ^ = $esp $T0 8 + = $L $T0 .cbSavedRegs - = $P $T0 8 + .cbParams + =
STACK WIN 4 1fd5e 10b 4 0 8 4 18 0 1 $T0 $ebp = $eip $T0 4 + ^ = $ebp $T0 ^ = $esp $T0 8 + = $L $T0 .cbSavedRegs - = $P $T0 8 + .cbParams + = $ebx $T0 28 - ^ =
STACK WIN 4 1fd5f 109 3 0 8 8 18 0 1 $T0 $ebp = $eip $T0 4 + ^ = $ebp $T0 ^ = $esp $T0 8 + = $L $T0 .cbSavedRegs - = $P $T0 8 + .cbParams + = $ebx $T0 28 - ^ =
STACK WIN 4 1fd60 107 2 0 8 c 18 0 1 $T0 $ebp = $eip $T0 4 + ^ = $ebp $T0 ^ = $esp $T0 8 + = $L $T0 .cbSavedRegs - = $P $T0 8 + .cbParams + = $ebx $T0 28 - ^ =
STACK WIN 4 1fe6b 69 3 0 8 0 0 0 1 $T2 $esp .cbLocals + .cbSavedRegs + = $T0 .raSearchStart = $eip $T0 ^ = $esp $T0 4 + =
STACK WIN 4 1fe6e 65 0 0 8 4 0 0 1 $T2 $esp .cbLocals + .cbSavedRegs + = $T0 .raSearchStart = $eip $T0 ^ = $esp $T0 4 + =
STACK WIN 4 1fed4 f1 a 0 8 0 c 0 1 $T0 $ebp = $eip $T0 4 + ^ = $ebp $T0 ^ = $esp $T0 8 + = $L $T0 .cbSavedRegs - = $P $T0 8 + .cbParams + =
STACK WIN 4 1fedb e8 3 0 8 4 c 0 1 $T0 $ebp = $eip $T0 4 + ^ = $ebp $T0 ^ = $esp $T0 8 + = $L $T0 .cbSavedRegs - = $P $T0 8 + .cbParams + = $ebx $T0 16 - ^ =
STACK WIN 4 1fedc e6 2 0 8 8 c 0 1 $T0 $ebp = $eip $T0 4 + ^ = $ebp $T0 ^ = $esp $T0 8 + = $L $T0 .cbSavedRegs - = $P $T0 8 + .cbParams + = $ebx $T0 16 - ^ =
STACK WIN 4 1fee2 df 0 0 8 c c 0 1 $T0 $ebp = $eip $T0 4 + ^ = $ebp $T0 ^ = $esp $T0 8 + = $L $T0 .cbSavedRegs - = $P $T0 8 + .cbParams + = $ebx $T0 16 - ^ =
STACK WIN 4 1ffc5 15 0 0 0 0 0 0 1 $T2 $esp .cbLocals + .cbSavedRegs + = $T0 .raSearchStart = $eip $T0 ^ = $esp $T0 4 + =
STACK WIN 4 1ffda c6 6 0 14 0 0 0 1 $T0 $ebp = $eip $T0 4 + ^ = $ebp $T0 ^ = $esp $T0 8 + = $L $T0 .cbSavedRegs - = $P $T0 8 + .cbParams + =
STACK WIN 4 1ffde c0 2 0 14 4 0 0 1 $T0 $ebp = $eip $T0 4 + ^ = $ebp $T0 ^ = $esp $T0 8 + = $L $T0 .cbSavedRegs - = $P $T0 8 + .cbParams + = $ebx $T0 4 - ^ =
STACK WIN 4 1ffdf be 1 0 14 8 0 0 1 $T0 $ebp = $eip $T0 4 + ^ = $ebp $T0 ^ = $esp $T0 8 + = $L $T0 .cbSavedRegs - = $P $T0 8 + .cbParams + = $ebx $T0 4 - ^ =
STACK WIN 4 1ffe0 ba 0 0 14 c 0 0 1 $T0 $ebp = $eip $T0 4 + ^ = $ebp $T0 ^ = $esp $T0 8 + = $L $T0 .cbSavedRegs - = $P $T0 8 + .cbParams + = $ebx $T0 4 - ^ =
STACK WIN 4 200a0 bd e 0 8 0 8 0 1 $T2 $esp .cbLocals + .cbSavedRegs + = $T0 .raSearchStart = $eip $T0 ^ = $esp $T0 4 + =
STACK WIN 4 200a3 b7 b 0 8 4 8 0 1 $T2 $esp .cbLocals + .cbSavedRegs + = $T0 .raSearchStart = $eip $T0 ^ = $esp $T0 4 + = $ebx $T0 12 - ^ =
STACK WIN 4 200a4 b5 a 0 8 8 8 0 1 $T2 $esp .cbLocals + .cbSavedRegs + = $T0 .raSearchStart = $eip $T0 ^ = $esp $T0 4 + = $ebp $T0 16 - ^ = $ebx $T0 12 - ^ =
STACK WIN 4 200ab ad 3 0 8 c 8 0 1 $T2 $esp .cbLocals + .cbSavedRegs + = $T0 .raSearchStart = $eip $T0 ^ = $esp $T0 4 + = $ebp $T0 16 - ^ = $ebx $T0 12 - ^ =
STACK WIN 4 200ae a7 0 0 8 10 8 0 1 $T2 $esp .cbLocals + .cbSavedRegs + = $T0 .raSearchStart = $eip $T0 ^ = $esp $T0 4 + = $ebp $T0 16 - ^ = $ebx $T0 12 - ^ =
STACK WIN 4 2015d 7c c 0 4 0 0 0 1 $T2 $esp .cbLocals + .cbSavedRegs + = $T0 .raSearchStart = $eip $T0 ^ = $esp $T0 4 + =
STACK WIN 4 2015e 7a b 0 4 4 0 0 1 $T2 $esp .cbLocals + .cbSavedRegs + = $T0 .raSearchStart = $eip $T0 ^ = $esp $T0 4 + = $ebx $T0 4 - ^ =
STACK WIN 4 20165 72 4 0 4 8 0 0 1 $T2 $esp .cbLocals + .cbSavedRegs + = $T0 .raSearchStart = $eip $T0 ^ = $esp $T0 4 + = $ebp $T0 8 - ^ = $ebx $T0 4 - ^ =
STACK WIN 4 20166 70 3 0 4 c 0 0 1 $T2 $esp .cbLocals + .cbSavedRegs + = $T0 .raSearchStart = $eip $T0 ^ = $esp $T0 4 + = $ebp $T0 8 - ^ = $ebx $T0 4 - ^ =
STACK WIN 4 20169 6a 0 0 4 10 0 0 1 $T2 $esp .cbLocals + .cbSavedRegs + = $T0 .raSearchStart = $eip $T0 ^ = $esp $T0 4 + = $ebp $T0 8 - ^ = $ebx $T0 4 - ^ =
STACK WIN 4 201d9 116 5 0 14 0 8 0 1 $T0 $ebp = $eip $T0 4 + ^ = $ebp $T0 ^ = $esp $T0 8 + = $L $T0 .cbSavedRegs - = $P $T0 8 + .cbParams + =
STACK WIN 4 20205 e8 0 0 14 4 8 0 1 $T0 $ebp = $eip $T0 4 + ^ = $ebp $T0 ^ = $esp $T0 8 + = $L $T0 .cbSavedRegs - = $P $T0 8 + .cbParams + = $ebx $T0 12 - ^ =
STACK WIN 4 20206 e6 0 0 14 8 8 0 1 $T0 $ebp = $eip $T0 4 + ^ = $ebp $T0 ^ = $esp $T0 8 + = $L $T0 .cbSavedRegs - = $P $T0 8 + .cbParams + = $ebx $T0 12 - ^ =
STACK WIN 4 20207 e2 0 0 14 c 8 0 1 $T0 $ebp = $eip $T0 4 + ^ = $ebp $T0 ^ = $esp $T0 8 + = $L $T0 .cbSavedRegs - = $P $T0 8 + .cbParams + = $ebx $T0 12 - ^ =
STACK WIN 4 202ef 1a4 b 0 28 0 10 0 1 $T0 $ebp = $eip $T0 4 + ^ = $ebp $T0 ^ = $esp $T0 8 + = $L $T0 .cbSavedRegs - = $P $T0 8 + .cbParams + =
STACK WIN 4 202f6 19b 4 0 28 4 10 0 1 $T0 $ebp = $eip $T0 4 + ^ = $ebp $T0 ^ = $esp $T0 8 + = $L $T0 .cbSavedRegs - = $P $T0 8 + .cbParams + = $ebx $T0 20 - ^ =
STACK WIN 4 202f7 199 3 0 28 8 10 0 1 $T0 $ebp = $eip $T0 4 + ^ = $ebp $T0 ^ = $esp $T0 8 + = $L $T0 .cbSavedRegs - = $P $T0 8 + .cbParams + = $ebx $T0 20 - ^ =
STACK WIN 4 202f8 195 2 0 28 c 10 0 1 $T0 $ebp = $eip $T0 4 + ^ = $ebp $T0 ^ = $esp $T0 8 + = $L $T0 .cbSavedRegs - = $P $T0 8 + .cbParams + = $ebx $T0 20 - ^ =
STACK WIN 4 20493 85 8 0 c 0 8 0 1 $T0 $ebp = $eip $T0 4 + ^ = $ebp $T0 ^ = $esp $T0 8 + = $L $T0 .cbSavedRegs - = $P $T0 8 + .cbParams + =
STACK WIN 4 20499 7d 2 0 c 4 8 0 1 $T0 $ebp = $eip $T0 4 + ^ = $ebp $T0 ^ = $esp $T0 8 + = $L $T0 .cbSavedRegs - = $P $T0 8 + .cbParams + = $ebx $T0 12 - ^ =
STACK WIN 4 2049a 7b 1 0 c 8 8 0 1 $T0 $ebp = $eip $T0 4 + ^ = $ebp $T0 ^ = $esp $T0 8 + = $L $T0 .cbSavedRegs - = $P $T0 8 + .cbParams + = $ebx $T0 12 - ^ =
STACK WIN 4 2049b 79 0 0 c c 8 0 1 $T0 $ebp = $eip $T0 4 + ^ = $ebp $T0 ^ = $esp $T0 8 + = $L $T0 .cbSavedRegs - = $P $T0 8 + .cbParams + = $ebx $T0 12 - ^ =
STACK WIN 4 20518 95 2 0 0 0 0 0 1 $T2 $esp .cbLocals + .cbSavedRegs + = $T0 .raSearchStart = $eip $T0 ^ = $esp $T0 4 + =
STACK WIN 4 20519 93 1 0 0 4 0 0 1 $T2 $esp .cbLocals + .cbSavedRegs + = $T0 .raSearchStart = $eip $T0 ^ = $esp $T0 4 + = $ebx $T0 4 - ^ =
STACK WIN 4 2051a 91 0 0 0 8 0 0 1 $T2 $esp .cbLocals + .cbSavedRegs + = $T0 .raSearchStart = $eip $T0 ^ = $esp $T0 4 + = $ebx $T0 4 - ^ =
STACK WIN 4 20532 78 0 0 0 c 0 0 1 $T2 $esp .cbLocals + .cbSavedRegs + = $T0 .raSearchStart = $eip $T0 ^ = $esp $T0 4 + = $ebx $T0 4 - ^ =
STACK WIN 4 205ad 1a3 4 0 10 0 0 0 1 $T0 $ebp = $eip $T0 4 + ^ = $ebp $T0 ^ = $esp $T0 8 + = $L $T0 .cbSavedRegs - = $P $T0 8 + .cbParams + =
STACK WIN 4 205b1 19d 0 0 10 4 0 0 1 $T0 $ebp = $eip $T0 4 + ^ = $ebp $T0 ^ = $esp $T0 8 + = $L $T0 .cbSavedRegs - = $P $T0 8 + .cbParams + =
STACK WIN 4 20604 149 0 0 10 8 0 0 1 $T0 $ebp = $eip $T0 4 + ^ = $ebp $T0 ^ = $esp $T0 8 + = $L $T0 .cbSavedRegs - = $P $T0 8 + .cbParams + = $ebx $T0 8 - ^ =
STACK WIN 4 20608 142 0 0 10 c 0 0 1 $T0 $ebp = $eip $T0 4 + ^ = $ebp $T0 ^ = $esp $T0 8 + = $L $T0 .cbSavedRegs - = $P $T0 8 + .cbParams + = $ebx $T0 8 - ^ =
STACK WIN 4 20750 e 0 0 4 0 0 0 1 $T2 $esp .cbLocals + .cbSavedRegs + = $T0 .raSearchStart = $eip $T0 ^ = $esp $T0 4 + =
STACK WIN 4 2075e f 0 0 4 0 0 0 1 $T2 $esp .cbLocals + .cbSavedRegs + = $T0 .raSearchStart = $eip $T0 ^ = $esp $T0 4 + =
STACK WIN 4 2076d e 0 0 4 0 0 0 1 $T2 $esp .cbLocals + .cbSavedRegs + = $T0 .raSearchStart = $eip $T0 ^ = $esp $T0 4 + =
STACK WIN 4 2077b 1b 0 0 8 0 0 0 1 $T2 $esp .cbLocals + .cbSavedRegs + = $T0 .raSearchStart = $eip $T0 ^ = $esp $T0 4 + =
STACK WIN 4 20796 ee 5 0 8 0 4 0 1 $T0 $ebp = $eip $T0 4 + ^ = $ebp $T0 ^ = $esp $T0 8 + = $L $T0 .cbSavedRegs - = $P $T0 8 + .cbParams + =
STACK WIN 4 2079b e7 0 0 8 4 4 0 1 $T0 $ebp = $eip $T0 4 + ^ = $ebp $T0 ^ = $esp $T0 8 + = $L $T0 .cbSavedRegs - = $P $T0 8 + .cbParams + =
STACK WIN 4 20884 75 1 0 0 0 0 0 1 $T2 $esp .cbLocals + .cbSavedRegs + = $T0 .raSearchStart = $eip $T0 ^ = $esp $T0 4 + =
STACK WIN 4 20885 73 0 0 0 4 0 0 1 $T2 $esp .cbLocals + .cbSavedRegs + = $T0 .raSearchStart = $eip $T0 ^ = $esp $T0 4 + =
STACK WIN 4 208f9 28 0 0 0 0 0 0 1 $T2 $esp .cbLocals + .cbSavedRegs + = $T0 .raSearchStart = $eip $T0 ^ = $esp $T0 4 + =
STACK WIN 4 20921 a8 9 0 c 0 c 0 1 $T0 $ebp = $eip $T0 4 + ^ = $ebp $T0 ^ = $esp $T0 8 + = $L $T0 .cbSavedRegs - = $P $T0 8 + .cbParams + =
STACK WIN 4 20928 9f 2 0 c 4 c 0 1 $T0 $ebp = $eip $T0 4 + ^ = $ebp $T0 ^ = $esp $T0 8 + = $L $T0 .cbSavedRegs - = $P $T0 8 + .cbParams + = $ebx $T0 16 - ^ =
STACK WIN 4 20929 9d 1 0 c 8 c 0 1 $T0 $ebp = $eip $T0 4 + ^ = $ebp $T0 ^ = $esp $T0 8 + = $L $T0 .cbSavedRegs - = $P $T0 8 + .cbParams + = $ebx $T0 16 - ^ =
STACK WIN 4 2092a 99 0 0 c c c 0 1 $T0 $ebp = $eip $T0 4 + ^ = $ebp $T0 ^ = $esp $T0 8 + = $L $T0 .cbSavedRegs - = $P $T0 8 + .cbParams + = $ebx $T0 16 - ^ =
STACK WIN 4 209c9 3d 8 0 8 0 0 0 1 $T2 $esp .cbLocals + .cbSavedRegs + = $T0 .raSearchStart = $eip $T0 ^ = $esp $T0 4 + =
STACK WIN 4 209ca 3b 7 0 8 4 0 0 1 $T2 $esp .cbLocals + .cbSavedRegs + = $T0 .raSearchStart = $eip $T0 ^ = $esp $T0 4 + = $ebx $T0 4 - ^ =
STACK WIN 4 209d1 33 0 0 8 8 0 0 1 $T2 $esp .cbLocals + .cbSavedRegs + = $T0 .raSearchStart = $eip $T0 ^ = $esp $T0 4 + = $ebx $T0 4 - ^ =
STACK WIN 4 209d8 24 0 0 8 c 0 0 1 $T2 $esp .cbLocals + .cbSavedRegs + = $T0 .raSearchStart = $eip $T0 ^ = $esp $T0 4 + = $ebx $T0 4 - ^ =
STACK WIN 4 20a06 3a 3 0 8 0 0 0 1 $T0 $ebp = $eip $T0 4 + ^ = $ebp $T0 ^ = $esp $T0 8 + = $L $T0 .cbSavedRegs - = $P $T0 8 + .cbParams + =
STACK WIN 4 20a10 23 0 0 8 4 0 0 1 $T0 $ebp = $eip $T0 4 + ^ = $ebp $T0 ^ = $esp $T0 8 + = $L $T0 .cbSavedRegs - = $P $T0 8 + .cbParams + =
STACK WIN 4 20a40 24 1 0 4 0 0 0 1 $T2 $esp .cbLocals + .cbSavedRegs + = $T0 .raSearchStart = $eip $T0 ^ = $esp $T0 4 + =
STACK WIN 4 20a41 22 0 0 4 4 0 0 1 $T2 $esp .cbLocals + .cbSavedRegs + = $T0 .raSearchStart = $eip $T0 ^ = $esp $T0 4 + =
STACK WIN 4 20a64 40 0 0 4 0 0 0 1 $T2 $esp .cbLocals + .cbSavedRegs + = $T0 .raSearchStart = $eip $T0 ^ = $esp $T0 4 + =
STACK WIN 4 20a80 23 0 0 4 4 0 0 1 $T2 $esp .cbLocals + .cbSavedRegs + = $T0 .raSearchStart = $eip $T0 ^ = $esp $T0 4 + =
STACK WIN 4 20aa4 43 8 0 c 0 0 0 1 $T2 $esp .cbLocals + .cbSavedRegs + = $T0 .raSearchStart = $eip $T0 ^ = $esp $T0 4 + =
STACK WIN 4 20aa5 41 7 0 c 4 0 0 1 $T2 $esp .cbLocals + .cbSavedRegs + = $T0 .raSearchStart = $eip $T0 ^ = $esp $T0 4 + =
STACK WIN 4 20aac 39 0 0 c 8 0 0 1 $T2 $esp .cbLocals + .cbSavedRegs + = $T0 .raSearchStart = $eip $T0 ^ = $esp $T0 4 + =
STACK WIN 4 20ae7 40 1 0 4 0 0 0 1 $T2 $esp .cbLocals + .cbSavedRegs + = $T0 .raSearchStart = $eip $T0 ^ = $esp $T0 4 + =
STACK WIN 4 20ae8 2e 0 0 4 4 0 0 1 $T2 $esp .cbLocals + .cbSavedRegs + = $T0 .raSearchStart = $eip $T0 ^ = $esp $T0 4 + =
STACK WIN 4 20b27 8d a 0 4 0 4 0 1 $T0 $ebp = $eip $T0 4 + ^ = $ebp $T0 ^ = $esp $T0 8 + = $L $T0 .cbSavedRegs - = $P $T0 8 + .cbParams + =
STACK WIN 4 20b2c 86 5 0 4 4 4 0 1 $T0 $ebp = $eip $T0 4 + ^ = $ebp $T0 ^ = $esp $T0 8 + = $L $T0 .cbSavedRegs - = $P $T0 8 + .cbParams + = $ebx $T0 8 - ^ =
STACK WIN 4 20bb4 155 8 0 0 0 c 0 1 $T0 $ebp = $eip $T0 4 + ^ = $ebp $T0 ^ = $esp $T0 8 + = $L $T0 .cbSavedRegs - = $P $T0 8 + .cbParams + =
STACK WIN 4 20bbb 14c 1 0 0 4 c 0 1 $T0 $ebp = $eip $T0 4 + ^ = $ebp $T0 ^ = $esp $T0 8 + = $L $T0 .cbSavedRegs - = $P $T0 8 + .cbParams + = $ebx $T0 16 - ^ =
STACK WIN 4 20bbc 14a 0 0 0 8 c 0 1 $T0 $ebp = $eip $T0 4 + ^ = $ebp $T0 ^ = $esp $T0 8 + = $L $T0 .cbSavedRegs - = $P $T0 8 + .cbParams + = $ebx $T0 16 - ^ =
STACK WIN 4 20d09 1b 0 0 4 0 0 0 1 $T2 $esp .cbLocals + .cbSavedRegs + = $T0 .raSearchStart = $eip $T0 ^ = $esp $T0 4 + =
STACK WIN 4 20d24 46 1 0 4 0 0 0 1 $T2 $esp .cbLocals + .cbSavedRegs + = $T0 .raSearchStart = $eip $T0 ^ = $esp $T0 4 + =
STACK WIN 4 20d25 44 0 0 4 4 0 0 1 $T2 $esp .cbLocals + .cbSavedRegs + = $T0 .raSearchStart = $eip $T0 ^ = $esp $T0 4 + =
STACK WIN 4 20d36 32 0 0 4 8 0 0 1 $T2 $esp .cbLocals + .cbSavedRegs + = $T0 .raSearchStart = $eip $T0 ^ = $esp $T0 4 + = $ebx $T0 8 - ^ =
STACK WIN 4 20d3e 20 0 0 4 c 0 0 1 $T2 $esp .cbLocals + .cbSavedRegs + = $T0 .raSearchStart = $eip $T0 ^ = $esp $T0 4 + = $ebx $T0 8 - ^ =
STACK WIN 4 20d6a 46 1 0 4 0 0 0 1 $T2 $esp .cbLocals + .cbSavedRegs + = $T0 .raSearchStart = $eip $T0 ^ = $esp $T0 4 + =
STACK WIN 4 20d6b 44 0 0 4 4 0 0 1 $T2 $esp .cbLocals + .cbSavedRegs + = $T0 .raSearchStart = $eip $T0 ^ = $esp $T0 4 + =
STACK WIN 4 20d7c 32 0 0 4 8 0 0 1 $T2 $esp .cbLocals + .cbSavedRegs + = $T0 .raSearchStart = $eip $T0 ^ = $esp $T0 4 + = $ebx $T0 8 - ^ =
STACK WIN 4 20d84 20 0 0 4 c 0 0 1 $T2 $esp .cbLocals + .cbSavedRegs + = $T0 .raSearchStart = $eip $T0 ^ = $esp $T0 4 + = $ebx $T0 8 - ^ =
STACK WIN 4 20db0 24 0 0 8 0 0 0 1 $T2 $esp .cbLocals + .cbSavedRegs + = $T0 .raSearchStart = $eip $T0 ^ = $esp $T0 4 + =
STACK WIN 4 20dd4 1eb b 0 c 0 14 0 1 $T0 $ebp = $eip $T0 4 + ^ = $ebp $T0 ^ = $esp $T0 8 + = $L $T0 .cbSavedRegs - = $P $T0 8 + .cbParams + =
STACK WIN 4 20ddb 1e2 4 0 c 4 14 0 1 $T0 $ebp = $eip $T0 4 + ^ = $ebp $T0 ^ = $esp $T0 8 + = $L $T0 .cbSavedRegs - = $P $T0 8 + .cbParams + = $ebx $T0 24 - ^ =
STACK WIN 4 20ddc 1e0 3 0 c 8 14 0 1 $T0 $ebp = $eip $T0 4 + ^ = $ebp $T0 ^ = $esp $T0 8 + = $L $T0 .cbSavedRegs - = $P $T0 8 + .cbParams + = $ebx $T0 24 - ^ =
STACK WIN 4 20ddf 1dc 0 0 c c 14 0 1 $T0 $ebp = $eip $T0 4 + ^ = $ebp $T0 ^ = $esp $T0 8 + = $L $T0 .cbSavedRegs - = $P $T0 8 + .cbParams + = $ebx $T0 24 - ^ =
STACK WIN 4 20fbf 50 2 0 c 0 0 0 1 $T2 $esp .cbLocals + .cbSavedRegs + = $T0 .raSearchStart = $eip $T0 ^ = $esp $T0 4 + =
STACK WIN 4 20fc0 4e 1 0 c 4 0 0 1 $T2 $esp .cbLocals + .cbSavedRegs + = $T0 .raSearchStart = $eip $T0 ^ = $esp $T0 4 + =
STACK WIN 4 20fc1 4c 0 0 c 8 0 0 1 $T2 $esp .cbLocals + .cbSavedRegs + = $T0 .raSearchStart = $eip $T0 ^ = $esp $T0 4 + =
STACK WIN 4 20fe3 1a 0 0 c c 0 0 1 $T2 $esp .cbLocals + .cbSavedRegs + = $T0 .raSearchStart = $eip $T0 ^ = $esp $T0 4 + = $ebx $T0 24 - ^ =
STACK WIN 4 2100f 50 9 0 4 0 4 0 1 $T0 $ebp = $eip $T0 4 + ^ = $ebp $T0 ^ = $esp $T0 8 + = $L $T0 .cbSavedRegs - = $P $T0 8 + .cbParams + =
STACK WIN 4 21018 45 0 0 4 4 4 0 1 $T0 $ebp = $eip $T0 4 + ^ = $ebp $T0 ^ = $esp $T0 8 + = $L $T0 .cbSavedRegs - = $P $T0 8 + .cbParams + =
STACK WIN 4 2102b 1c 0 0 4 8 4 0 1 $T0 $ebp = $eip $T0 4 + ^ = $ebp $T0 ^ = $esp $T0 8 + = $L $T0 .cbSavedRegs - = $P $T0 8 + .cbParams + =
STACK WIN 4 2105f 8b a 0 10 0 8 0 1 $T0 $ebp = $eip $T0 4 + ^ = $ebp $T0 ^ = $esp $T0 8 + = $L $T0 .cbSavedRegs - = $P $T0 8 + .cbParams + =
STACK WIN 4 21065 83 4 0 10 4 8 0 1 $T0 $ebp = $eip $T0 4 + ^ = $ebp $T0 ^ = $esp $T0 8 + = $L $T0 .cbSavedRegs - = $P $T0 8 + .cbParams + = $ebx $T0 12 - ^ =
STACK WIN 4 21066 81 3 0 10 8 8 0 1 $T0 $ebp = $eip $T0 4 + ^ = $ebp $T0 ^ = $esp $T0 8 + = $L $T0 .cbSavedRegs - = $P $T0 8 + .cbParams + = $ebx $T0 12 - ^ =
STACK WIN 4 21067 7f 2 0 10 c 8 0 1 $T0 $ebp = $eip $T0 4 + ^ = $ebp $T0 ^ = $esp $T0 8 + = $L $T0 .cbSavedRegs - = $P $T0 8 + .cbParams + = $ebx $T0 12 - ^ =
STACK WIN 4 210ea 412 8 0 14 0 1c 0 1 $T0 $ebp = $eip $T0 4 + ^ = $ebp $T0 ^ = $esp $T0 8 + = $L $T0 .cbSavedRegs - = $P $T0 8 + .cbParams + =
STACK WIN 4 210f1 409 1 0 14 4 1c 0 1 $T0 $ebp = $eip $T0 4 + ^ = $ebp $T0 ^ = $esp $T0 8 + = $L $T0 .cbSavedRegs - = $P $T0 8 + .cbParams + = $ebx $T0 32 - ^ =
STACK WIN 4 210f2 407 0 0 14 8 1c 0 1 $T0 $ebp = $eip $T0 4 + ^ = $ebp $T0 ^ = $esp $T0 8 + = $L $T0 .cbSavedRegs - = $P $T0 8 + .cbParams + = $ebx $T0 32 - ^ =
STACK WIN 4 21136 3c2 0 0 14 c 1c 0 1 $T0 $ebp = $eip $T0 4 + ^ = $ebp $T0 ^ = $esp $T0 8 + = $L $T0 .cbSavedRegs - = $P $T0 8 + .cbParams + = $ebx $T0 32 - ^ =
STACK WIN 4 214fc c4 6 0 c 0 14 0 1 $T0 $ebp = $eip $T0 4 + ^ = $ebp $T0 ^ = $esp $T0 8 + = $L $T0 .cbSavedRegs - = $P $T0 8 + .cbParams + =
STACK WIN 4 2153c 82 0 0 c 4 14 0 1 $T0 $ebp = $eip $T0 4 + ^ = $ebp $T0 ^ = $esp $T0 8 + = $L $T0 .cbSavedRegs - = $P $T0 8 + .cbParams + =
STACK WIN 4 2153d 7e 0 0 c 8 14 0 1 $T0 $ebp = $eip $T0 4 + ^ = $ebp $T0 ^ = $esp $T0 8 + = $L $T0 .cbSavedRegs - = $P $T0 8 + .cbParams + =
STACK WIN 4 21558 4c 0 0 c c 14 0 1 $T0 $ebp = $eip $T0 4 + ^ = $ebp $T0 ^ = $esp $T0 8 + = $L $T0 .cbSavedRegs - = $P $T0 8 + .cbParams + = $ebx $T0 32 - ^ =
STACK WIN 4 215c0 1d4 7 0 18 0 20 0 1 $T0 $ebp = $eip $T0 4 + ^ = $ebp $T0 ^ = $esp $T0 8 + = $L $T0 .cbSavedRegs - = $P $T0 8 + .cbParams + =
STACK WIN 4 215c7 1b9 0 0 18 4 20 0 1 $T0 $ebp = $eip $T0 4 + ^ = $ebp $T0 ^ = $esp $T0 8 + = $L $T0 .cbSavedRegs - = $P $T0 8 + .cbParams + =
STACK WIN 4 215f3 189 0 0 18 8 20 0 1 $T0 $ebp = $eip $T0 4 + ^ = $ebp $T0 ^ = $esp $T0 8 + = $L $T0 .cbSavedRegs - = $P $T0 8 + .cbParams + = $ebx $T0 60 - ^ =
STACK WIN 4 215f4 185 0 0 18 c 20 0 1 $T0 $ebp = $eip $T0 4 + ^ = $ebp $T0 ^ = $esp $T0 8 + = $L $T0 .cbSavedRegs - = $P $T0 8 + .cbParams + = $ebx $T0 60 - ^ =
STACK WIN 4 21794 6e 0 0 4 0 0 0 1 $T2 $esp .cbLocals + .cbSavedRegs + = $T0 .raSearchStart = $eip $T0 ^ = $esp $T0 4 + =
STACK WIN 4 21802 66 2 0 8 0 0 0 1 $T2 $esp .cbLocals + .cbSavedRegs + = $T0 .raSearchStart = $eip $T0 ^ = $esp $T0 4 + =
STACK WIN 4 21803 64 1 0 8 4 0 0 1 $T2 $esp .cbLocals + .cbSavedRegs + = $T0 .raSearchStart = $eip $T0 ^ = $esp $T0 4 + = $ebx $T0 4 - ^ =
STACK WIN 4 21804 62 0 0 8 8 0 0 1 $T2 $esp .cbLocals + .cbSavedRegs + = $T0 .raSearchStart = $eip $T0 ^ = $esp $T0 4 + = $ebx $T0 4 - ^ =
STACK WIN 4 21822 43 0 0 8 c 0 0 1 $T2 $esp .cbLocals + .cbSavedRegs + = $T0 .raSearchStart = $eip $T0 ^ = $esp $T0 4 + = $ebx $T0 4 - ^ =
STACK WIN 4 21868 19 0 0 4 0 0 0 1 $T2 $esp .cbLocals + .cbSavedRegs + = $T0 .raSearchStart = $eip $T0 ^ = $esp $T0 4 + =
STACK WIN 4 21881 57 1 0 4 0 0 0 1 $T2 $esp .cbLocals + .cbSavedRegs + = $T0 .raSearchStart = $eip $T0 ^ = $esp $T0 4 + =
STACK WIN 4 21882 55 0 0 4 4 0 0 1 $T2 $esp .cbLocals + .cbSavedRegs + = $T0 .raSearchStart = $eip $T0 ^ = $esp $T0 4 + =
STACK WIN 4 2188f 47 0 0 4 8 0 0 1 $T2 $esp .cbLocals + .cbSavedRegs + = $T0 .raSearchStart = $eip $T0 ^ = $esp $T0 4 + =
STACK WIN 4 218d8 11 0 0 4 0 0 0 1 $T2 $esp .cbLocals + .cbSavedRegs + = $T0 .raSearchStart = $eip $T0 ^ = $esp $T0 4 + =
STACK WIN 4 218e9 13 0 0 4 0 0 0 1 $T2 $esp .cbLocals + .cbSavedRegs + = $T0 .raSearchStart = $eip $T0 ^ = $esp $T0 4 + =
STACK WIN 4 218fc 31 0 0 0 0 0 0 1 $T2 $esp .cbLocals + .cbSavedRegs + = $T0 .raSearchStart = $eip $T0 ^ = $esp $T0 4 + =
STACK WIN 4 2192d 94 1 0 8 0 0 0 1 $T2 $esp .cbLocals + .cbSavedRegs + = $T0 .raSearchStart = $eip $T0 ^ = $esp $T0 4 + =
STACK WIN 4 2192e 92 0 0 8 4 0 0 1 $T2 $esp .cbLocals + .cbSavedRegs + = $T0 .raSearchStart = $eip $T0 ^ = $esp $T0 4 + =
STACK WIN 4 219c1 7d b 0 4 0 48 0 1 $T0 $ebp = $eip $T0 4 + ^ = $ebp $T0 ^ = $esp $T0 8 + = $L $T0 .cbSavedRegs - = $P $T0 8 + .cbParams + =
STACK WIN 4 219cc 70 0 0 4 4 48 0 1 $T0 $ebp = $eip $T0 4 + ^ = $ebp $T0 ^ = $esp $T0 8 + = $L $T0 .cbSavedRegs - = $P $T0 8 + .cbParams + =
STACK WIN 4 219e3 58 0 0 4 8 48 0 1 $T0 $ebp = $eip $T0 4 + ^ = $ebp $T0 ^ = $esp $T0 8 + = $L $T0 .cbSavedRegs - = $P $T0 8 + .cbParams + =
STACK WIN 4 21a3e c0 1 0 4 0 0 0 1 $T2 $esp .cbLocals + .cbSavedRegs + = $T0 .raSearchStart = $eip $T0 ^ = $esp $T0 4 + =
STACK WIN 4 21a3f be 0 0 4 4 0 0 1 $T2 $esp .cbLocals + .cbSavedRegs + = $T0 .raSearchStart = $eip $T0 ^ = $esp $T0 4 + =
STACK WIN 4 21aca 29 0 0 4 8 0 0 1 $T2 $esp .cbLocals + .cbSavedRegs + = $T0 .raSearchStart = $eip $T0 ^ = $esp $T0 4 + =
STACK WIN 4 21afe 1b 0 0 4 0 0 0 1 $T2 $esp .cbLocals + .cbSavedRegs + = $T0 .raSearchStart = $eip $T0 ^ = $esp $T0 4 + =
STACK WIN 4 21b19 1b 0 0 4 0 0 0 1 $T2 $esp .cbLocals + .cbSavedRegs + = $T0 .raSearchStart = $eip $T0 ^ = $esp $T0 4 + =
STACK WIN 4 21b34 dc a 0 10 0 0 0 1 $T0 $ebp = $eip $T0 4 + ^ = $ebp $T0 ^ = $esp $T0 8 + = $L $T0 .cbSavedRegs - = $P $T0 8 + .cbParams + =
STACK WIN 4 21b3c d2 2 0 10 4 0 0 1 $T0 $ebp = $eip $T0 4 + ^ = $ebp $T0 ^ = $esp $T0 8 + = $L $T0 .cbSavedRegs - = $P $T0 8 + .cbParams + = $ebx $T0 4 - ^ =
STACK WIN 4 21b48 c5 0 0 10 8 0 0 1 $T0 $ebp = $eip $T0 4 + ^ = $ebp $T0 ^ = $esp $T0 8 + = $L $T0 .cbSavedRegs - = $P $T0 8 + .cbParams + = $ebx $T0 4 - ^ =
STACK WIN 4 21b5e ae 0 0 10 c 0 0 1 $T0 $ebp = $eip $T0 4 + ^ = $ebp $T0 ^ = $esp $T0 8 + = $L $T0 .cbSavedRegs - = $P $T0 8 + .cbParams + = $ebx $T0 4 - ^ =
STACK WIN 4 21c10 259 11 0 1c 0 50 0 1 $T0 $ebp = $eip $T0 4 + ^ = $ebp $T0 ^ = $esp $T0 8 + = $L $T0 .cbSavedRegs - = $P $T0 8 + .cbParams + =
STACK WIN 4 21c17 250 a 0 1c 4 50 0 1 $T0 $ebp = $eip $T0 4 + ^ = $ebp $T0 ^ = $esp $T0 8 + = $L $T0 .cbSavedRegs - = $P $T0 8 + .cbParams + = $ebx $T0 84 - ^ =
STACK WIN 4 21c1d 249 4 0 1c 8 50 0 1 $T0 $ebp = $eip $T0 4 + ^ = $ebp $T0 ^ = $esp $T0 8 + = $L $T0 .cbSavedRegs - = $P $T0 8 + .cbParams + = $ebx $T0 84 - ^ =
STACK WIN 4 21c21 244 0 0 1c c 50 0 1 $T0 $ebp = $eip $T0 4 + ^ = $ebp $T0 ^ = $esp $T0 8 + = $L $T0 .cbSavedRegs - = $P $T0 8 + .cbParams + = $ebx $T0 84 - ^ =
STACK WIN 4 21e69 1d6 c 0 8 0 54 0 1 $T0 $ebp = $eip $T0 4 + ^ = $ebp $T0 ^ = $esp $T0 8 + = $L $T0 .cbSavedRegs - = $P $T0 8 + .cbParams + =
STACK WIN 4 21e70 1cd 5 0 8 4 54 0 1 $T0 $ebp = $eip $T0 4 + ^ = $ebp $T0 ^ = $esp $T0 8 + = $L $T0 .cbSavedRegs - = $P $T0 8 + .cbParams + = $ebx $T0 88 - ^ =
STACK WIN 4 21e71 1cb 4 0 8 8 54 0 1 $T0 $ebp = $eip $T0 4 + ^ = $ebp $T0 ^ = $esp $T0 8 + = $L $T0 .cbSavedRegs - = $P $T0 8 + .cbParams + = $ebx $T0 88 - ^ =
STACK WIN 4 21e75 1c6 0 0 8 c 54 0 1 $T0 $ebp = $eip $T0 4 + ^ = $ebp $T0 ^ = $esp $T0 8 + = $L $T0 .cbSavedRegs - = $P $T0 8 + .cbParams + = $ebx $T0 88 - ^ =
STACK WIN 4 2203f 65 f 0 10 0 c 0 1 $T0 $ebp = $eip $T0 4 + ^ = $ebp $T0 ^ = $esp $T0 8 + = $L $T0 .cbSavedRegs - = $P $T0 8 + .cbParams + =
STACK WIN 4 22049 59 5 0 10 4 c 0 1 $T0 $ebp = $eip $T0 4 + ^ = $ebp $T0 ^ = $esp $T0 8 + = $L $T0 .cbSavedRegs - = $P $T0 8 + .cbParams + =
STACK WIN 4 2204e 53 0 0 10 8 c 0 1 $T0 $ebp = $eip $T0 4 + ^ = $ebp $T0 ^ = $esp $T0 8 + = $L $T0 .cbSavedRegs - = $P $T0 8 + .cbParams + =
STACK WIN 4 220a4 5 0 0 4 0 0 0 1 $T2 $esp .cbLocals + .cbSavedRegs + = $T0 .raSearchStart = $eip $T0 ^ = $esp $T0 4 + =
STACK WIN 4 220a9 e 0 0 4 0 0 0 1 $T2 $esp .cbLocals + .cbSavedRegs + = $T0 .raSearchStart = $eip $T0 ^ = $esp $T0 4 + =
STACK WIN 4 220b7 33 0 0 0 0 0 0 1 $T2 $esp .cbLocals + .cbSavedRegs + = $T0 .raSearchStart = $eip $T0 ^ = $esp $T0 4 + =
STACK WIN 4 220ea 98 3 0 c 0 0 0 1 $T2 $esp .cbLocals + .cbSavedRegs + = $T0 .raSearchStart = $eip $T0 ^ = $esp $T0 4 + =
STACK WIN 4 220eb 96 2 0 c 4 0 0 1 $T2 $esp .cbLocals + .cbSavedRegs + = $T0 .raSearchStart = $eip $T0 ^ = $esp $T0 4 + = $ebx $T0 4 - ^ =
STACK WIN 4 220ec 94 1 0 c 8 0 0 1 $T2 $esp .cbLocals + .cbSavedRegs + = $T0 .raSearchStart = $eip $T0 ^ = $esp $T0 4 + = $ebx $T0 4 - ^ =
STACK WIN 4 220ed 92 0 0 c c 0 0 1 $T2 $esp .cbLocals + .cbSavedRegs + = $T0 .raSearchStart = $eip $T0 ^ = $esp $T0 4 + = $ebx $T0 4 - ^ =
STACK WIN 4 22182 23 1 0 4 0 0 0 1 $T2 $esp .cbLocals + .cbSavedRegs + = $T0 .raSearchStart = $eip $T0 ^ = $esp $T0 4 + =
STACK WIN 4 22183 21 0 0 4 4 0 0 1 $T2 $esp .cbLocals + .cbSavedRegs + = $T0 .raSearchStart = $eip $T0 ^ = $esp $T0 4 + =
STACK WIN 4 2218c 17 0 0 4 8 0 0 1 $T2 $esp .cbLocals + .cbSavedRegs + = $T0 .raSearchStart = $eip $T0 ^ = $esp $T0 4 + =
STACK WIN 4 221a5 1b 0 0 c 0 0 0 1 $T2 $esp .cbLocals + .cbSavedRegs + = $T0 .raSearchStart = $eip $T0 ^ = $esp $T0 4 + =
STACK WIN 4 221c0 21 3 0 18 0 0 0 1 $T0 $ebp = $eip $T0 4 + ^ = $ebp $T0 ^ = $esp $T0 8 + = $L $T0 .cbSavedRegs - = $P $T0 8 + .cbParams + =
STACK WIN 4 221e1 8d 9 0 1c 0 0 0 1 $T0 $ebp = $eip $T0 4 + ^ = $ebp $T0 ^ = $esp $T0 8 + = $L $T0 .cbSavedRegs - = $P $T0 8 + .cbParams + =
STACK WIN 4 221ea 82 0 0 1c 4 0 0 1 $T0 $ebp = $eip $T0 4 + ^ = $ebp $T0 ^ = $esp $T0 8 + = $L $T0 .cbSavedRegs - = $P $T0 8 + .cbParams + =
STACK WIN 4 2226e 36 3 0 18 0 0 0 1 $T0 $ebp = $eip $T0 4 + ^ = $ebp $T0 ^ = $esp $T0 8 + = $L $T0 .cbSavedRegs - = $P $T0 8 + .cbParams + =
STACK WIN 4 222a4 ef 14 0 14 0 c 0 1 $T0 $ebp = $eip $T0 4 + ^ = $ebp $T0 ^ = $esp $T0 8 + = $L $T0 .cbSavedRegs - = $P $T0 8 + .cbParams + =
STACK WIN 4 222b3 de 5 0 14 4 c 0 1 $T0 $ebp = $eip $T0 4 + ^ = $ebp $T0 ^ = $esp $T0 8 + = $L $T0 .cbSavedRegs - = $P $T0 8 + .cbParams + = $ebx $T0 16 - ^ =
STACK WIN 4 222b7 d9 1 0 14 8 c 0 1 $T0 $ebp = $eip $T0 4 + ^ = $ebp $T0 ^ = $esp $T0 8 + = $L $T0 .cbSavedRegs - = $P $T0 8 + .cbParams + = $ebx $T0 16 - ^ =
STACK WIN 4 222b8 d7 0 0 14 c c 0 1 $T0 $ebp = $eip $T0 4 + ^ = $ebp $T0 ^ = $esp $T0 8 + = $L $T0 .cbSavedRegs - = $P $T0 8 + .cbParams + = $ebx $T0 16 - ^ =
STACK WIN 4 22393 14f 1d 0 18 0 40 0 1 $T0 $ebp = $eip $T0 4 + ^ = $ebp $T0 ^ = $esp $T0 8 + = $L $T0 .cbSavedRegs - = $P $T0 8 + .cbParams + =
STACK WIN 4 223af 12c 1 0 18 4 40 0 1 $T0 $ebp = $eip $T0 4 + ^ = $ebp $T0 ^ = $esp $T0 8 + = $L $T0 .cbSavedRegs - = $P $T0 8 + .cbParams + = $ebx $T0 68 - ^ =
STACK WIN 4 223b0 128 0 0 18 8 40 0 1 $T0 $ebp = $eip $T0 4 + ^ = $ebp $T0 ^ = $esp $T0 8 + = $L $T0 .cbSavedRegs - = $P $T0 8 + .cbParams + = $ebx $T0 68 - ^ =
STACK WIN 4 2240a 32 0 0 18 c 40 0 1 $T0 $ebp = $eip $T0 4 + ^ = $ebp $T0 ^ = $esp $T0 8 + = $L $T0 .cbSavedRegs - = $P $T0 8 + .cbParams + = $ebx $T0 68 - ^ =
STACK WIN 4 224e2 115 9 0 c 0 18 0 1 $T0 $ebp = $eip $T0 4 + ^ = $ebp $T0 ^ = $esp $T0 8 + = $L $T0 .cbSavedRegs - = $P $T0 8 + .cbParams + =
STACK WIN 4 224e9 10c 2 0 c 4 18 0 1 $T0 $ebp = $eip $T0 4 + ^ = $ebp $T0 ^ = $esp $T0 8 + = $L $T0 .cbSavedRegs - = $P $T0 8 + .cbParams + = $ebx $T0 28 - ^ =
STACK WIN 4 224ea 10a 1 0 c 8 18 0 1 $T0 $ebp = $eip $T0 4 + ^ = $ebp $T0 ^ = $esp $T0 8 + = $L $T0 .cbSavedRegs - = $P $T0 8 + .cbParams + = $ebx $T0 28 - ^ =
STACK WIN 4 224eb 108 0 0 c c 18 0 1 $T0 $ebp = $eip $T0 4 + ^ = $ebp $T0 ^ = $esp $T0 8 + = $L $T0 .cbSavedRegs - = $P $T0 8 + .cbParams + = $ebx $T0 28 - ^ =
STACK WIN 4 225f7 13 0 0 8 0 0 0 1 $T2 $esp .cbLocals + .cbSavedRegs + = $T0 .raSearchStart = $eip $T0 ^ = $esp $T0 4 + =
STACK WIN 4 2260a 82 6 0 10 0 0 0 1 $T0 $ebp = $eip $T0 4 + ^ = $ebp $T0 ^ = $esp $T0 8 + = $L $T0 .cbSavedRegs - = $P $T0 8 + .cbParams + =
STACK WIN 4 2260e 7c 2 0 10 4 0 0 1 $T0 $ebp = $eip $T0 4 + ^ = $ebp $T0 ^ = $esp $T0 8 + = $L $T0 .cbSavedRegs - = $P $T0 8 + .cbParams + = $ebx $T0 4 - ^ =
STACK WIN 4 2260f 78 1 0 10 8 0 0 1 $T0 $ebp = $eip $T0 4 + ^ = $ebp $T0 ^ = $esp $T0 8 + = $L $T0 .cbSavedRegs - = $P $T0 8 + .cbParams + = $ebx $T0 4 - ^ =
STACK WIN 4 22610 76 0 0 10 c 0 0 1 $T0 $ebp = $eip $T0 4 + ^ = $ebp $T0 ^ = $esp $T0 8 + = $L $T0 .cbSavedRegs - = $P $T0 8 + .cbParams + = $ebx $T0 4 - ^ =
STACK WIN 4 2268c 17 0 0 c 0 0 0 1 $T2 $esp .cbLocals + .cbSavedRegs + = $T0 .raSearchStart = $eip $T0 ^ = $esp $T0 4 + =
STACK WIN 4 226a3 6 0 0 8 0 0 0 1 $T2 $esp .cbLocals + .cbSavedRegs + = $T0 .raSearchStart = $eip $T0 ^ = $esp $T0 4 + =
STACK WIN 4 226a9 6 0 0 8 0 0 0 1 $T2 $esp .cbLocals + .cbSavedRegs + = $T0 .raSearchStart = $eip $T0 ^ = $esp $T0 4 + =
STACK WIN 4 226af 6 0 0 8 0 0 0 1 $T2 $esp .cbLocals + .cbSavedRegs + = $T0 .raSearchStart = $eip $T0 ^ = $esp $T0 4 + =
STACK WIN 4 226b5 6 0 0 8 0 0 0 1 $T2 $esp .cbLocals + .cbSavedRegs + = $T0 .raSearchStart = $eip $T0 ^ = $esp $T0 4 + =
STACK WIN 4 226bb 4d0 10 0 24 0 104 0 1 $T0 $ebp = $eip $T0 4 + ^ = $ebp $T0 ^ = $esp $T0 8 + = $L $T0 .cbSavedRegs - = $P $T0 8 + .cbParams + =
STACK WIN 4 226c9 4c0 2 0 24 4 104 0 1 $T0 $ebp = $eip $T0 4 + ^ = $ebp $T0 ^ = $esp $T0 8 + = $L $T0 .cbSavedRegs - = $P $T0 8 + .cbParams + = $ebx $T0 264 - ^ =
STACK WIN 4 226ca 4be 1 0 24 8 104 0 1 $T0 $ebp = $eip $T0 4 + ^ = $ebp $T0 ^ = $esp $T0 8 + = $L $T0 .cbSavedRegs - = $P $T0 8 + .cbParams + = $ebx $T0 264 - ^ =
STACK WIN 4 226cb 4bc 0 0 24 c 104 0 1 $T0 $ebp = $eip $T0 4 + ^ = $ebp $T0 ^ = $esp $T0 8 + = $L $T0 .cbSavedRegs - = $P $T0 8 + .cbParams + = $ebx $T0 264 - ^ =
STACK WIN 4 22b8b 148 c 0 24 0 c 0 1 $T0 $ebp = $eip $T0 4 + ^ = $ebp $T0 ^ = $esp $T0 8 + = $L $T0 .cbSavedRegs - = $P $T0 8 + .cbParams + =
STACK WIN 4 22b96 13b 1 0 24 4 c 0 1 $T0 $ebp = $eip $T0 4 + ^ = $ebp $T0 ^ = $esp $T0 8 + = $L $T0 .cbSavedRegs - = $P $T0 8 + .cbParams + = $ebx $T0 16 - ^ =
STACK WIN 4 22b97 139 0 0 24 8 c 0 1 $T0 $ebp = $eip $T0 4 + ^ = $ebp $T0 ^ = $esp $T0 8 + = $L $T0 .cbSavedRegs - = $P $T0 8 + .cbParams + = $ebx $T0 16 - ^ =
STACK WIN 4 22bb6 119 0 0 24 c c 0 1 $T0 $ebp = $eip $T0 4 + ^ = $ebp $T0 ^ = $esp $T0 8 + = $L $T0 .cbSavedRegs - = $P $T0 8 + .cbParams + = $ebx $T0 16 - ^ =
STACK WIN 4 22cd3 27 3 0 20 0 0 0 1 $T0 $ebp = $eip $T0 4 + ^ = $ebp $T0 ^ = $esp $T0 8 + = $L $T0 .cbSavedRegs - = $P $T0 8 + .cbParams + =
STACK WIN 4 22cfa 84 4 0 24 0 0 0 1 $T0 $ebp = $eip $T0 4 + ^ = $ebp $T0 ^ = $esp $T0 8 + = $L $T0 .cbSavedRegs - = $P $T0 8 + .cbParams + =
STACK WIN 4 22cfe 7e 0 0 24 4 0 0 1 $T0 $ebp = $eip $T0 4 + ^ = $ebp $T0 ^ = $esp $T0 8 + = $L $T0 .cbSavedRegs - = $P $T0 8 + .cbParams + =
STACK WIN 4 22d15 66 0 0 24 8 0 0 1 $T0 $ebp = $eip $T0 4 + ^ = $ebp $T0 ^ = $esp $T0 8 + = $L $T0 .cbSavedRegs - = $P $T0 8 + .cbParams + =
STACK WIN 4 22d7e 27 3 0 20 0 0 0 1 $T0 $ebp = $eip $T0 4 + ^ = $ebp $T0 ^ = $esp $T0 8 + = $L $T0 .cbSavedRegs - = $P $T0 8 + .cbParams + =
STACK WIN 4 22da5 28f 16 0 10 0 a0 0 1 $T0 $ebp 104 + = $eip $T0 4 + ^ = $ebp $T0 ^ = $esp $T0 8 + = $L $T0 .cbSavedRegs - = $P $T0 8 + .cbParams + =
STACK WIN 4 22db4 27b 7 0 10 4 a0 0 1 $T0 $ebp 104 + = $eip $T0 4 + ^ = $ebp $T0 ^ = $esp $T0 8 + = $L $T0 .cbSavedRegs - = $P $T0 8 + .cbParams + = $ebx $T0 164 - ^ =
STACK WIN 4 22dba 274 1 0 10 8 a0 0 1 $T0 $ebp 104 + = $eip $T0 4 + ^ = $ebp $T0 ^ = $esp $T0 8 + = $L $T0 .cbSavedRegs - = $P $T0 8 + .cbParams + = $ebx $T0 164 - ^ =
STACK WIN 4 22dbb 272 0 0 10 c a0 0 1 $T0 $ebp 104 + = $eip $T0 4 + ^ = $ebp $T0 ^ = $esp $T0 8 + = $L $T0 .cbSavedRegs - = $P $T0 8 + .cbParams + = $ebx $T0 164 - ^ =
STACK WIN 4 23034 17 0 0 c 0 0 0 1 $T2 $esp .cbLocals + .cbSavedRegs + = $T0 .raSearchStart = $eip $T0 ^ = $esp $T0 4 + =
STACK WIN 4 2304b 16d f 0 c 0 7c 0 1 $T0 $ebp = $eip $T0 4 + ^ = $ebp $T0 ^ = $esp $T0 8 + = $L $T0 .cbSavedRegs - = $P $T0 8 + .cbParams + =
STACK WIN 4 23052 164 8 0 c 4 7c 0 1 $T0 $ebp = $eip $T0 4 + ^ = $ebp $T0 ^ = $esp $T0 8 + = $L $T0 .cbSavedRegs - = $P $T0 8 + .cbParams + = $ebx $T0 128 - ^ =
STACK WIN 4 23059 15c 1 0 c 8 7c 0 1 $T0 $ebp = $eip $T0 4 + ^ = $ebp $T0 ^ = $esp $T0 8 + = $L $T0 .cbSavedRegs - = $P $T0 8 + .cbParams + = $ebx $T0 128 - ^ =
STACK WIN 4 2305a 15a 0 0 c c 7c 0 1 $T0 $ebp = $eip $T0 4 + ^ = $ebp $T0 ^ = $esp $T0 8 + = $L $T0 .cbSavedRegs - = $P $T0 8 + .cbParams + = $ebx $T0 128 - ^ =
STACK WIN 4 231b8 45 1 0 4 0 0 0 1 $T2 $esp .cbLocals + .cbSavedRegs + = $T0 .raSearchStart = $eip $T0 ^ = $esp $T0 4 + =
STACK WIN 4 231b9 43 0 0 4 4 0 0 1 $T2 $esp .cbLocals + .cbSavedRegs + = $T0 .raSearchStart = $eip $T0 ^ = $esp $T0 4 + =
STACK WIN 4 231fd 3a 1 0 4 0 0 0 1 $T2 $esp .cbLocals + .cbSavedRegs + = $T0 .raSearchStart = $eip $T0 ^ = $esp $T0 4 + =
STACK WIN 4 231fe 38 0 0 4 4 0 0 1 $T2 $esp .cbLocals + .cbSavedRegs + = $T0 .raSearchStart = $eip $T0 ^ = $esp $T0 4 + =
STACK WIN 4 23237 77 2 0 c 0 0 0 1 $T2 $esp .cbLocals + .cbSavedRegs + = $T0 .raSearchStart = $eip $T0 ^ = $esp $T0 4 + =
STACK WIN 4 23238 75 1 0 c 4 0 0 1 $T2 $esp .cbLocals + .cbSavedRegs + = $T0 .raSearchStart = $eip $T0 ^ = $esp $T0 4 + =
STACK WIN 4 23239 73 0 0 c 8 0 0 1 $T2 $esp .cbLocals + .cbSavedRegs + = $T0 .raSearchStart = $eip $T0 ^ = $esp $T0 4 + =
STACK WIN 4 232ae 17 0 0 8 0 0 0 1 $T2 $esp .cbLocals + .cbSavedRegs + = $T0 .raSearchStart = $eip $T0 ^ = $esp $T0 4 + =
STACK WIN 4 232c5 17 0 0 8 0 0 0 1 $T2 $esp .cbLocals + .cbSavedRegs + = $T0 .raSearchStart = $eip $T0 ^ = $esp $T0 4 + =
STACK WIN 4 232dc 17 0 0 8 0 0 0 1 $T2 $esp .cbLocals + .cbSavedRegs + = $T0 .raSearchStart = $eip $T0 ^ = $esp $T0 4 + =
STACK WIN 4 232f3 69 2 0 c 0 0 0 1 $T2 $esp .cbLocals + .cbSavedRegs + = $T0 .raSearchStart = $eip $T0 ^ = $esp $T0 4 + =
STACK WIN 4 232f4 67 1 0 c 4 0 0 1 $T2 $esp .cbLocals + .cbSavedRegs + = $T0 .raSearchStart = $eip $T0 ^ = $esp $T0 4 + =
STACK WIN 4 232f5 65 0 0 c 8 0 0 1 $T2 $esp .cbLocals + .cbSavedRegs + = $T0 .raSearchStart = $eip $T0 ^ = $esp $T0 4 + =
STACK WIN 4 2335c 17 0 0 8 0 0 0 1 $T2 $esp .cbLocals + .cbSavedRegs + = $T0 .raSearchStart = $eip $T0 ^ = $esp $T0 4 + =
STACK WIN 4 23373 17 0 0 8 0 0 0 1 $T2 $esp .cbLocals + .cbSavedRegs + = $T0 .raSearchStart = $eip $T0 ^ = $esp $T0 4 + =
STACK WIN 4 2338a 55 10 0 0 0 4 0 1 $T0 $ebp = $eip $T0 4 + ^ = $ebp $T0 ^ = $esp $T0 8 + = $L $T0 .cbSavedRegs - = $P $T0 8 + .cbParams + =
STACK WIN 4 23397 46 3 0 0 4 4 0 1 $T0 $ebp = $eip $T0 4 + ^ = $ebp $T0 ^ = $esp $T0 8 + = $L $T0 .cbSavedRegs - = $P $T0 8 + .cbParams + = $ebx $T0 8 - ^ =
STACK WIN 4 23398 42 2 0 0 8 4 0 1 $T0 $ebp = $eip $T0 4 + ^ = $ebp $T0 ^ = $esp $T0 8 + = $L $T0 .cbSavedRegs - = $P $T0 8 + .cbParams + = $ebx $T0 8 - ^ =
STACK WIN 4 233df 8a 14 0 4 0 c 0 1 $T0 $ebp = $eip $T0 4 + ^ = $ebp $T0 ^ = $esp $T0 8 + = $L $T0 .cbSavedRegs - = $P $T0 8 + .cbParams + =
STACK WIN 4 233f3 74 0 0 4 4 c 0 1 $T0 $ebp = $eip $T0 4 + ^ = $ebp $T0 ^ = $esp $T0 8 + = $L $T0 .cbSavedRegs - = $P $T0 8 + .cbParams + = $ebx $T0 16 - ^ =
STACK WIN 4 23469 c 0 0 0 0 0 0 1 $T2 $esp .cbLocals + .cbSavedRegs + = $T0 .raSearchStart = $eip $T0 ^ = $esp $T0 4 + =
STACK WIN 4 23475 19 0 0 0 0 0 0 1 $T2 $esp .cbLocals + .cbSavedRegs + = $T0 .raSearchStart = $eip $T0 ^ = $esp $T0 4 + =
STACK WIN 4 2348e 209 8 0 10 0 54 0 1 $T0 $ebp = $eip $T0 4 + ^ = $ebp $T0 ^ = $esp $T0 8 + = $L $T0 .cbSavedRegs - = $P $T0 8 + .cbParams + =
STACK WIN 4 23495 200 1 0 10 4 54 0 1 $T0 $ebp = $eip $T0 4 + ^ = $ebp $T0 ^ = $esp $T0 8 + = $L $T0 .cbSavedRegs - = $P $T0 8 + .cbParams + =
STACK WIN 4 23496 1fc 0 0 10 8 54 0 1 $T0 $ebp = $eip $T0 4 + ^ = $ebp $T0 ^ = $esp $T0 8 + = $L $T0 .cbSavedRegs - = $P $T0 8 + .cbParams + =
STACK WIN 4 234d1 165 0 0 10 c 54 0 1 $T0 $ebp = $eip $T0 4 + ^ = $ebp $T0 ^ = $esp $T0 8 + = $L $T0 .cbSavedRegs - = $P $T0 8 + .cbParams + = $ebx $T0 96 - ^ =
STACK WIN 4 23697 94 13 0 14 0 c 0 1 $T0 $ebp = $eip $T0 4 + ^ = $ebp $T0 ^ = $esp $T0 8 + = $L $T0 .cbSavedRegs - = $P $T0 8 + .cbParams + =
STACK WIN 4 2369e 8b c 0 14 4 c 0 1 $T0 $ebp = $eip $T0 4 + ^ = $ebp $T0 ^ = $esp $T0 8 + = $L $T0 .cbSavedRegs - = $P $T0 8 + .cbParams + = $ebx $T0 16 - ^ =
STACK WIN 4 2369f 89 b 0 14 8 c 0 1 $T0 $ebp = $eip $T0 4 + ^ = $ebp $T0 ^ = $esp $T0 8 + = $L $T0 .cbSavedRegs - = $P $T0 8 + .cbParams + = $ebx $T0 16 - ^ =
STACK WIN 4 236a0 85 a 0 14 c c 0 1 $T0 $ebp = $eip $T0 4 + ^ = $ebp $T0 ^ = $esp $T0 8 + = $L $T0 .cbSavedRegs - = $P $T0 8 + .cbParams + = $ebx $T0 16 - ^ =
STACK WIN 4 2372b 1ed 7 0 c 0 58 0 1 $T0 $ebp = $eip $T0 4 + ^ = $ebp $T0 ^ = $esp $T0 8 + = $L $T0 .cbSavedRegs - = $P $T0 8 + .cbParams + =
STACK WIN 4 23732 1e4 0 0 c 4 58 0 1 $T0 $ebp = $eip $T0 4 + ^ = $ebp $T0 ^ = $esp $T0 8 + = $L $T0 .cbSavedRegs - = $P $T0 8 + .cbParams + =
STACK WIN 4 237cf f9 0 0 c 8 58 0 1 $T0 $ebp = $eip $T0 4 + ^ = $ebp $T0 ^ = $esp $T0 8 + = $L $T0 .cbSavedRegs - = $P $T0 8 + .cbParams + = $ebx $T0 108 - ^ =
STACK WIN 4 237d0 f7 0 0 c c 58 0 1 $T0 $ebp = $eip $T0 4 + ^ = $ebp $T0 ^ = $esp $T0 8 + = $L $T0 .cbSavedRegs - = $P $T0 8 + .cbParams + = $ebx $T0 108 - ^ =
STACK WIN 4 23918 19 0 0 0 0 0 0 1 $T2 $esp .cbLocals + .cbSavedRegs + = $T0 .raSearchStart = $eip $T0 ^ = $esp $T0 4 + =
STACK WIN 4 23931 19 0 0 0 0 0 0 1 $T2 $esp .cbLocals + .cbSavedRegs + = $T0 .raSearchStart = $eip $T0 ^ = $esp $T0 4 + =
STACK WIN 4 2394a 55 6 0 4 0 0 0 1 $T2 $esp .cbLocals + .cbSavedRegs + = $T0 .raSearchStart = $eip $T0 ^ = $esp $T0 4 + =
STACK WIN 4 2394b 53 5 0 4 4 0 0 1 $T2 $esp .cbLocals + .cbSavedRegs + = $T0 .raSearchStart = $eip $T0 ^ = $esp $T0 4 + =
STACK WIN 4 23950 4d 0 0 4 8 0 0 1 $T2 $esp .cbLocals + .cbSavedRegs + = $T0 .raSearchStart = $eip $T0 ^ = $esp $T0 4 + =
STACK WIN 4 2399f fc 2 0 4 0 0 0 1 $T2 $esp .cbLocals + .cbSavedRegs + = $T0 .raSearchStart = $eip $T0 ^ = $esp $T0 4 + =
STACK WIN 4 239a0 fa 1 0 4 4 0 0 1 $T2 $esp .cbLocals + .cbSavedRegs + = $T0 .raSearchStart = $eip $T0 ^ = $esp $T0 4 + = $ebp $T0 4 - ^ =
STACK WIN 4 239a1 f8 0 0 4 8 0 0 1 $T2 $esp .cbLocals + .cbSavedRegs + = $T0 .raSearchStart = $eip $T0 ^ = $esp $T0 4 + = $ebp $T0 4 - ^ =
STACK WIN 4 239b9 df 0 0 4 c 0 0 1 $T2 $esp .cbLocals + .cbSavedRegs + = $T0 .raSearchStart = $eip $T0 ^ = $esp $T0 4 + = $ebp $T0 4 - ^ = $ebx $T0 12 - ^ =
STACK WIN 4 239ba dd 0 0 4 10 0 0 1 $T2 $esp .cbLocals + .cbSavedRegs + = $T0 .raSearchStart = $eip $T0 ^ = $esp $T0 4 + = $ebp $T0 4 - ^ = $ebx $T0 12 - ^ =
STACK WIN 4 23a9b f 0 0 4 0 0 0 1 $T2 $esp .cbLocals + .cbSavedRegs + = $T0 .raSearchStart = $eip $T0 ^ = $esp $T0 4 + =
STACK WIN 4 23aaa 7 0 0 4 0 0 0 1 $T2 $esp .cbLocals + .cbSavedRegs + = $T0 .raSearchStart = $eip $T0 ^ = $esp $T0 4 + =
STACK WIN 4 23ab1 11 0 0 4 0 0 0 1 $T2 $esp .cbLocals + .cbSavedRegs + = $T0 .raSearchStart = $eip $T0 ^ = $esp $T0 4 + =
STACK WIN 4 23ac2 f 0 0 4 0 0 0 1 $T2 $esp .cbLocals + .cbSavedRegs + = $T0 .raSearchStart = $eip $T0 ^ = $esp $T0 4 + =
STACK WIN 4 23ad1 12 0 0 4 0 0 0 1 $T2 $esp .cbLocals + .cbSavedRegs + = $T0 .raSearchStart = $eip $T0 ^ = $esp $T0 4 + =
STACK WIN 4 23ae3 17 0 0 8 0 0 0 1 $T2 $esp .cbLocals + .cbSavedRegs + = $T0 .raSearchStart = $eip $T0 ^ = $esp $T0 4 + =
STACK WIN 4 23afa 27 1 0 c 0 0 0 1 $T2 $esp .cbLocals + .cbSavedRegs + = $T0 .raSearchStart = $eip $T0 ^ = $esp $T0 4 + =
STACK WIN 4 23afb 25 0 0 c 4 0 0 1 $T2 $esp .cbLocals + .cbSavedRegs + = $T0 .raSearchStart = $eip $T0 ^ = $esp $T0 4 + =
STACK WIN 4 23b21 29 c 0 c 0 0 0 1 $T2 $esp .cbLocals + .cbSavedRegs + = $T0 .raSearchStart = $eip $T0 ^ = $esp $T0 4 + =
STACK WIN 4 23b2d 1c 0 0 c 4 0 0 1 $T2 $esp .cbLocals + .cbSavedRegs + = $T0 .raSearchStart = $eip $T0 ^ = $esp $T0 4 + =
STACK WIN 4 23b4a 2c 1 0 4 0 0 0 1 $T2 $esp .cbLocals + .cbSavedRegs + = $T0 .raSearchStart = $eip $T0 ^ = $esp $T0 4 + =
STACK WIN 4 23b4b 22 0 0 4 4 0 0 1 $T2 $esp .cbLocals + .cbSavedRegs + = $T0 .raSearchStart = $eip $T0 ^ = $esp $T0 4 + =
STACK WIN 4 23b76 52 1 0 4 0 0 0 1 $T2 $esp .cbLocals + .cbSavedRegs + = $T0 .raSearchStart = $eip $T0 ^ = $esp $T0 4 + =
STACK WIN 4 23b77 50 0 0 4 4 0 0 1 $T2 $esp .cbLocals + .cbSavedRegs + = $T0 .raSearchStart = $eip $T0 ^ = $esp $T0 4 + =
STACK WIN 4 23bc8 30 1 0 4 0 0 0 1 $T2 $esp .cbLocals + .cbSavedRegs + = $T0 .raSearchStart = $eip $T0 ^ = $esp $T0 4 + =
STACK WIN 4 23bc9 2e 0 0 4 4 0 0 1 $T2 $esp .cbLocals + .cbSavedRegs + = $T0 .raSearchStart = $eip $T0 ^ = $esp $T0 4 + =
STACK WIN 4 23bf8 8 0 0 4 0 0 0 1 $T2 $esp .cbLocals + .cbSavedRegs + = $T0 .raSearchStart = $eip $T0 ^ = $esp $T0 4 + =
STACK WIN 4 23c00 30 0 0 4 0 0 0 1 $T2 $esp .cbLocals + .cbSavedRegs + = $T0 .raSearchStart = $eip $T0 ^ = $esp $T0 4 + =
STACK WIN 4 23c30 77 1 0 4 0 0 0 1 $T2 $esp .cbLocals + .cbSavedRegs + = $T0 .raSearchStart = $eip $T0 ^ = $esp $T0 4 + =
STACK WIN 4 23c31 75 0 0 4 4 0 0 1 $T2 $esp .cbLocals + .cbSavedRegs + = $T0 .raSearchStart = $eip $T0 ^ = $esp $T0 4 + =
STACK WIN 4 23ca7 b6 1 0 8 0 0 0 1 $T2 $esp .cbLocals + .cbSavedRegs + = $T0 .raSearchStart = $eip $T0 ^ = $esp $T0 4 + =
STACK WIN 4 23ca8 b4 0 0 8 4 0 0 1 $T2 $esp .cbLocals + .cbSavedRegs + = $T0 .raSearchStart = $eip $T0 ^ = $esp $T0 4 + =
STACK WIN 4 23d3e 1d 0 0 8 8 0 0 1 $T2 $esp .cbLocals + .cbSavedRegs + = $T0 .raSearchStart = $eip $T0 ^ = $esp $T0 4 + =
STACK WIN 4 23d5d 162 a 0 c 0 18 0 1 $T0 $ebp = $eip $T0 4 + ^ = $ebp $T0 ^ = $esp $T0 8 + = $L $T0 .cbSavedRegs - = $P $T0 8 + .cbParams + =
STACK WIN 4 23d64 159 3 0 c 4 18 0 1 $T0 $ebp = $eip $T0 4 + ^ = $ebp $T0 ^ = $esp $T0 8 + = $L $T0 .cbSavedRegs - = $P $T0 8 + .cbParams + =
STACK WIN 4 23d65 157 2 0 c 8 18 0 1 $T0 $ebp = $eip $T0 4 + ^ = $ebp $T0 ^ = $esp $T0 8 + = $L $T0 .cbSavedRegs - = $P $T0 8 + .cbParams + =
STACK WIN 4 23ebf c 0 0 4 0 0 0 1 $T2 $esp .cbLocals + .cbSavedRegs + = $T0 .raSearchStart = $eip $T0 ^ = $esp $T0 4 + =
STACK WIN 4 23ecb 6e 12 0 c 0 10 0 1 $T0 $ebp = $eip $T0 4 + ^ = $ebp $T0 ^ = $esp $T0 8 + = $L $T0 .cbSavedRegs - = $P $T0 8 + .cbParams + =
STACK WIN 4 23ed9 5e 4 0 c 4 10 0 1 $T0 $ebp = $eip $T0 4 + ^ = $ebp $T0 ^ = $esp $T0 8 + = $L $T0 .cbSavedRegs - = $P $T0 8 + .cbParams + =
STACK WIN 4 23edd 59 0 0 c 8 10 0 1 $T0 $ebp = $eip $T0 4 + ^ = $ebp $T0 ^ = $esp $T0 8 + = $L $T0 .cbSavedRegs - = $P $T0 8 + .cbParams + =
STACK WIN 4 23f39 bd 2 0 4 0 0 0 1 $T2 $esp .cbLocals + .cbSavedRegs + = $T0 .raSearchStart = $eip $T0 ^ = $esp $T0 4 + =
STACK WIN 4 23f3a bb 1 0 4 4 0 0 1 $T2 $esp .cbLocals + .cbSavedRegs + = $T0 .raSearchStart = $eip $T0 ^ = $esp $T0 4 + = $ebx $T0 4 - ^ =
STACK WIN 4 23f3b b9 0 0 4 8 0 0 1 $T2 $esp .cbLocals + .cbSavedRegs + = $T0 .raSearchStart = $eip $T0 ^ = $esp $T0 4 + = $ebx $T0 4 - ^ =
STACK WIN 4 23ff6 85 a 0 10 0 0 0 1 $T0 $ebp = $eip $T0 4 + ^ = $ebp $T0 ^ = $esp $T0 8 + = $L $T0 .cbSavedRegs - = $P $T0 8 + .cbParams + =
STACK WIN 4 23ffa 7f 6 0 10 4 0 0 1 $T0 $ebp = $eip $T0 4 + ^ = $ebp $T0 ^ = $esp $T0 8 + = $L $T0 .cbSavedRegs - = $P $T0 8 + .cbParams + =
STACK WIN 4 23ffb 7d 5 0 10 8 0 0 1 $T0 $ebp = $eip $T0 4 + ^ = $ebp $T0 ^ = $esp $T0 8 + = $L $T0 .cbSavedRegs - = $P $T0 8 + .cbParams + =
STACK WIN 4 2407b 7b d 0 1c 0 0 0 1 $T0 $ebp = $eip $T0 4 + ^ = $ebp $T0 ^ = $esp $T0 8 + = $L $T0 .cbSavedRegs - = $P $T0 8 + .cbParams + =
STACK WIN 4 24083 71 5 0 1c 4 0 0 1 $T0 $ebp = $eip $T0 4 + ^ = $ebp $T0 ^ = $esp $T0 8 + = $L $T0 .cbSavedRegs - = $P $T0 8 + .cbParams + = $ebx $T0 4 - ^ =
STACK WIN 4 24084 6f 4 0 1c 8 0 0 1 $T0 $ebp = $eip $T0 4 + ^ = $ebp $T0 ^ = $esp $T0 8 + = $L $T0 .cbSavedRegs - = $P $T0 8 + .cbParams + = $ebx $T0 4 - ^ =
STACK WIN 4 24088 6a 0 0 1c c 0 0 1 $T0 $ebp = $eip $T0 4 + ^ = $ebp $T0 ^ = $esp $T0 8 + = $L $T0 .cbSavedRegs - = $P $T0 8 + .cbParams + = $ebx $T0 4 - ^ =
STACK WIN 4 240f6 3e 0 0 14 0 0 0 1 $T2 $esp .cbLocals + .cbSavedRegs + = $T0 .raSearchStart = $eip $T0 ^ = $esp $T0 4 + =
STACK WIN 4 24134 95 6 0 18 0 0 0 1 $T0 $ebp = $eip $T0 4 + ^ = $ebp $T0 ^ = $esp $T0 8 + = $L $T0 .cbSavedRegs - = $P $T0 8 + .cbParams + =
STACK WIN 4 24138 8f 2 0 18 4 0 0 1 $T0 $ebp = $eip $T0 4 + ^ = $ebp $T0 ^ = $esp $T0 8 + = $L $T0 .cbSavedRegs - = $P $T0 8 + .cbParams + = $ebx $T0 4 - ^ =
STACK WIN 4 24140 86 0 0 18 8 0 0 1 $T0 $ebp = $eip $T0 4 + ^ = $ebp $T0 ^ = $esp $T0 8 + = $L $T0 .cbSavedRegs - = $P $T0 8 + .cbParams + = $ebx $T0 4 - ^ =
STACK WIN 4 241c9 79 b 0 18 0 48 0 1 $T0 $ebp = $eip $T0 4 + ^ = $ebp $T0 ^ = $esp $T0 8 + = $L $T0 .cbSavedRegs - = $P $T0 8 + .cbParams + =
STACK WIN 4 241d4 6c 0 0 18 4 48 0 1 $T0 $ebp = $eip $T0 4 + ^ = $ebp $T0 ^ = $esp $T0 8 + = $L $T0 .cbSavedRegs - = $P $T0 8 + .cbParams + =
STACK WIN 4 24242 fb 12 0 20 0 cc 0 1 $T0 $ebp 88 + = $eip $T0 4 + ^ = $ebp $T0 ^ = $esp $T0 8 + = $L $T0 .cbSavedRegs - = $P $T0 8 + .cbParams + =
STACK WIN 4 24252 da 2 0 20 4 cc 0 1 $T0 $ebp 88 + = $eip $T0 4 + ^ = $ebp $T0 ^ = $esp $T0 8 + = $L $T0 .cbSavedRegs - = $P $T0 8 + .cbParams + = $ebx $T0 208 - ^ =
STACK WIN 4 24253 d8 1 0 20 8 cc 0 1 $T0 $ebp 88 + = $eip $T0 4 + ^ = $ebp $T0 ^ = $esp $T0 8 + = $L $T0 .cbSavedRegs - = $P $T0 8 + .cbParams + = $ebx $T0 208 - ^ =
STACK WIN 4 24254 d6 0 0 20 c cc 0 1 $T0 $ebp 88 + = $eip $T0 4 + ^ = $ebp $T0 ^ = $esp $T0 8 + = $L $T0 .cbSavedRegs - = $P $T0 8 + .cbParams + = $ebx $T0 208 - ^ =
STACK WIN 4 2433d 85 b 0 10 0 38 0 1 $T0 $ebp = $eip $T0 4 + ^ = $ebp $T0 ^ = $esp $T0 8 + = $L $T0 .cbSavedRegs - = $P $T0 8 + .cbParams + =
STACK WIN 4 24348 78 0 0 10 4 38 0 1 $T0 $ebp = $eip $T0 4 + ^ = $ebp $T0 ^ = $esp $T0 8 + = $L $T0 .cbSavedRegs - = $P $T0 8 + .cbParams + = $ebx $T0 60 - ^ =
STACK WIN 4 243c2 10e 9 0 c 0 54 0 1 $T0 $ebp = $eip $T0 4 + ^ = $ebp $T0 ^ = $esp $T0 8 + = $L $T0 .cbSavedRegs - = $P $T0 8 + .cbParams + =
STACK WIN 4 243c9 105 2 0 c 4 54 0 1 $T0 $ebp = $eip $T0 4 + ^ = $ebp $T0 ^ = $esp $T0 8 + = $L $T0 .cbSavedRegs - = $P $T0 8 + .cbParams + = $ebx $T0 88 - ^ =
STACK WIN 4 243ca 103 1 0 c 8 54 0 1 $T0 $ebp = $eip $T0 4 + ^ = $ebp $T0 ^ = $esp $T0 8 + = $L $T0 .cbSavedRegs - = $P $T0 8 + .cbParams + = $ebx $T0 88 - ^ =
STACK WIN 4 243cb 101 0 0 c c 54 0 1 $T0 $ebp = $eip $T0 4 + ^ = $ebp $T0 ^ = $esp $T0 8 + = $L $T0 .cbSavedRegs - = $P $T0 8 + .cbParams + = $ebx $T0 88 - ^ =
STACK WIN 4 244d0 58 4 0 18 0 0 0 1 $T0 $ebp = $eip $T0 4 + ^ = $ebp $T0 ^ = $esp $T0 8 + = $L $T0 .cbSavedRegs - = $P $T0 8 + .cbParams + =
STACK WIN 4 244d4 52 0 0 18 4 0 0 1 $T0 $ebp = $eip $T0 4 + ^ = $ebp $T0 ^ = $esp $T0 8 + = $L $T0 .cbSavedRegs - = $P $T0 8 + .cbParams + =
STACK WIN 4 24528 1d 0 0 10 0 0 0 1 $T2 $esp .cbLocals + .cbSavedRegs + = $T0 .raSearchStart = $eip $T0 ^ = $esp $T0 4 + =
STACK WIN 4 24545 62 10 0 c 0 0 0 1 $T0 $ebp = $eip $T0 4 + ^ = $ebp $T0 ^ = $esp $T0 8 + = $L $T0 .cbSavedRegs - = $P $T0 8 + .cbParams + =
STACK WIN 4 24549 5c c 0 c 4 0 0 1 $T0 $ebp = $eip $T0 4 + ^ = $ebp $T0 ^ = $esp $T0 8 + = $L $T0 .cbSavedRegs - = $P $T0 8 + .cbParams + = $ebx $T0 4 - ^ =
STACK WIN 4 2454a 5a b 0 c 8 0 0 1 $T0 $ebp = $eip $T0 4 + ^ = $ebp $T0 ^ = $esp $T0 8 + = $L $T0 .cbSavedRegs - = $P $T0 8 + .cbParams + = $ebx $T0 4 - ^ =
STACK WIN 4 24555 4e 0 0 c c 0 0 1 $T0 $ebp = $eip $T0 4 + ^ = $ebp $T0 ^ = $esp $T0 8 + = $L $T0 .cbSavedRegs - = $P $T0 8 + .cbParams + = $ebx $T0 4 - ^ =
STACK WIN 4 245a7 1c1 c 0 1c 0 14 0 1 $T0 $ebp = $eip $T0 4 + ^ = $ebp $T0 ^ = $esp $T0 8 + = $L $T0 .cbSavedRegs - = $P $T0 8 + .cbParams + =
STACK WIN 4 245ae 1b8 5 0 1c 4 14 0 1 $T0 $ebp = $eip $T0 4 + ^ = $ebp $T0 ^ = $esp $T0 8 + = $L $T0 .cbSavedRegs - = $P $T0 8 + .cbParams + = $ebx $T0 24 - ^ =
STACK WIN 4 245b2 1b3 1 0 1c 8 14 0 1 $T0 $ebp = $eip $T0 4 + ^ = $ebp $T0 ^ = $esp $T0 8 + = $L $T0 .cbSavedRegs - = $P $T0 8 + .cbParams + = $ebx $T0 24 - ^ =
STACK WIN 4 245b3 1b1 0 0 1c c 14 0 1 $T0 $ebp = $eip $T0 4 + ^ = $ebp $T0 ^ = $esp $T0 8 + = $L $T0 .cbSavedRegs - = $P $T0 8 + .cbParams + = $ebx $T0 24 - ^ =
STACK WIN 4 24768 98 9 0 8 0 14 0 1 $T0 $ebp = $eip $T0 4 + ^ = $ebp $T0 ^ = $esp $T0 8 + = $L $T0 .cbSavedRegs - = $P $T0 8 + .cbParams + =
STACK WIN 4 2476f 8f 2 0 8 4 14 0 1 $T0 $ebp = $eip $T0 4 + ^ = $ebp $T0 ^ = $esp $T0 8 + = $L $T0 .cbSavedRegs - = $P $T0 8 + .cbParams + = $ebx $T0 24 - ^ =
STACK WIN 4 24770 8d 1 0 8 8 14 0 1 $T0 $ebp = $eip $T0 4 + ^ = $ebp $T0 ^ = $esp $T0 8 + = $L $T0 .cbSavedRegs - = $P $T0 8 + .cbParams + = $ebx $T0 24 - ^ =
STACK WIN 4 24771 8b 0 0 8 c 14 0 1 $T0 $ebp = $eip $T0 4 + ^ = $ebp $T0 ^ = $esp $T0 8 + = $L $T0 .cbSavedRegs - = $P $T0 8 + .cbParams + = $ebx $T0 24 - ^ =
STACK WIN 4 24800 140 d 0 10 0 1c 0 1 $T0 $ebp = $eip $T0 4 + ^ = $ebp $T0 ^ = $esp $T0 8 + = $L $T0 .cbSavedRegs - = $P $T0 8 + .cbParams + =
STACK WIN 4 2480d 131 0 0 10 4 1c 0 1 $T0 $ebp = $eip $T0 4 + ^ = $ebp $T0 ^ = $esp $T0 8 + = $L $T0 .cbSavedRegs - = $P $T0 8 + .cbParams + =
STACK WIN 4 2484c f1 0 0 10 8 1c 0 1 $T0 $ebp = $eip $T0 4 + ^ = $ebp $T0 ^ = $esp $T0 8 + = $L $T0 .cbSavedRegs - = $P $T0 8 + .cbParams + =
STACK WIN 4 24867 d5 0 0 10 c 1c 0 1 $T0 $ebp = $eip $T0 4 + ^ = $ebp $T0 ^ = $esp $T0 8 + = $L $T0 .cbSavedRegs - = $P $T0 8 + .cbParams + = $ebx $T0 40 - ^ =
STACK WIN 4 24940 200 12 0 14 0 20 0 1 $T0 $ebp = $eip $T0 4 + ^ = $ebp $T0 ^ = $esp $T0 8 + = $L $T0 .cbSavedRegs - = $P $T0 8 + .cbParams + =
STACK WIN 4 2494d 1f1 5 0 14 4 20 0 1 $T0 $ebp = $eip $T0 4 + ^ = $ebp $T0 ^ = $esp $T0 8 + = $L $T0 .cbSavedRegs - = $P $T0 8 + .cbParams + = $ebx $T0 36 - ^ =
STACK WIN 4 2494e 1ef 4 0 14 8 20 0 1 $T0 $ebp = $eip $T0 4 + ^ = $ebp $T0 ^ = $esp $T0 8 + = $L $T0 .cbSavedRegs - = $P $T0 8 + .cbParams + = $ebx $T0 36 - ^ =
STACK WIN 4 24952 1ea 0 0 14 c 20 0 1 $T0 $ebp = $eip $T0 4 + ^ = $ebp $T0 ^ = $esp $T0 8 + = $L $T0 .cbSavedRegs - = $P $T0 8 + .cbParams + = $ebx $T0 36 - ^ =
STACK WIN 4 24b40 28c 1c 0 24 0 118 0 1 $T0 $ebp = $eip $T0 4 + ^ = $ebp $T0 ^ = $esp $T0 8 + = $L $T0 .cbSavedRegs - = $P $T0 8 + .cbParams + =
STACK WIN 4 24b5b 26f 1 0 24 4 118 0 1 $T0 $ebp = $eip $T0 4 + ^ = $ebp $T0 ^ = $esp $T0 8 + = $L $T0 .cbSavedRegs - = $P $T0 8 + .cbParams + = $ebx $T0 284 - ^ =
STACK WIN 4 24b5c 26d 0 0 24 8 118 0 1 $T0 $ebp = $eip $T0 4 + ^ = $ebp $T0 ^ = $esp $T0 8 + = $L $T0 .cbSavedRegs - = $P $T0 8 + .cbParams + = $ebx $T0 284 - ^ =
STACK WIN 4 24b8e 23a 0 0 24 c 118 0 1 $T0 $ebp = $eip $T0 4 + ^ = $ebp $T0 ^ = $esp $T0 8 + = $L $T0 .cbSavedRegs - = $P $T0 8 + .cbParams + = $ebx $T0 284 - ^ =
STACK WIN 4 24dcc 384 12 0 28 0 70 0 1 $T0 $ebp = $eip $T0 4 + ^ = $ebp $T0 ^ = $esp $T0 8 + = $L $T0 .cbSavedRegs - = $P $T0 8 + .cbParams + =
STACK WIN 4 24dda 374 4 0 28 4 70 0 1 $T0 $ebp = $eip $T0 4 + ^ = $ebp $T0 ^ = $esp $T0 8 + = $L $T0 .cbSavedRegs - = $P $T0 8 + .cbParams + = $ebx $T0 116 - ^ =
STACK WIN 4 24dde 36f 0 0 28 8 70 0 1 $T0 $ebp = $eip $T0 4 + ^ = $ebp $T0 ^ = $esp $T0 8 + = $L $T0 .cbSavedRegs - = $P $T0 8 + .cbParams + = $ebx $T0 116 - ^ =
STACK WIN 4 24e03 349 0 0 28 c 70 0 1 $T0 $ebp = $eip $T0 4 + ^ = $ebp $T0 ^ = $esp $T0 8 + = $L $T0 .cbSavedRegs - = $P $T0 8 + .cbParams + = $ebx $T0 116 - ^ =
STACK WIN 4 25150 22e f 0 20 0 58 0 1 $T0 $ebp = $eip $T0 4 + ^ = $ebp $T0 ^ = $esp $T0 8 + = $L $T0 .cbSavedRegs - = $P $T0 8 + .cbParams + =
STACK WIN 4 2515b 221 4 0 20 4 58 0 1 $T0 $ebp = $eip $T0 4 + ^ = $ebp $T0 ^ = $esp $T0 8 + = $L $T0 .cbSavedRegs - = $P $T0 8 + .cbParams + = $ebx $T0 92 - ^ =
STACK WIN 4 2515c 21f 3 0 20 8 58 0 1 $T0 $ebp = $eip $T0 4 + ^ = $ebp $T0 ^ = $esp $T0 8 + = $L $T0 .cbSavedRegs - = $P $T0 8 + .cbParams + = $ebx $T0 92 - ^ =
STACK WIN 4 2515d 21d 2 0 20 c 58 0 1 $T0 $ebp = $eip $T0 4 + ^ = $ebp $T0 ^ = $esp $T0 8 + = $L $T0 .cbSavedRegs - = $P $T0 8 + .cbParams + = $ebx $T0 92 - ^ =
STACK WIN 4 2537e 64 3 0 30 0 0 0 1 $T0 $ebp = $eip $T0 4 + ^ = $ebp $T0 ^ = $esp $T0 8 + = $L $T0 .cbSavedRegs - = $P $T0 8 + .cbParams + =
STACK WIN 4 253e2 202 12 0 24 0 18 0 1 $T0 $ebp = $eip $T0 4 + ^ = $ebp $T0 ^ = $esp $T0 8 + = $L $T0 .cbSavedRegs - = $P $T0 8 + .cbParams + =
STACK WIN 4 253e9 1f9 b 0 24 4 18 0 1 $T0 $ebp = $eip $T0 4 + ^ = $ebp $T0 ^ = $esp $T0 8 + = $L $T0 .cbSavedRegs - = $P $T0 8 + .cbParams + =
STACK WIN 4 253ea 1f7 a 0 24 8 18 0 1 $T0 $ebp = $eip $T0 4 + ^ = $ebp $T0 ^ = $esp $T0 8 + = $L $T0 .cbSavedRegs - = $P $T0 8 + .cbParams + =
STACK WIN 4 25465 17b 0 0 24 c 18 0 1 $T0 $ebp = $eip $T0 4 + ^ = $ebp $T0 ^ = $esp $T0 8 + = $L $T0 .cbSavedRegs - = $P $T0 8 + .cbParams + = $ebx $T0 36 - ^ =
STACK WIN 4 255e4 369 15 0 2c 0 124 0 1 $T0 $ebp = $eip $T0 4 + ^ = $ebp $T0 ^ = $esp $T0 8 + = $L $T0 .cbSavedRegs - = $P $T0 8 + .cbParams + =
STACK WIN 4 255f9 352 0 0 2c 4 124 0 1 $T0 $ebp = $eip $T0 4 + ^ = $ebp $T0 ^ = $esp $T0 8 + = $L $T0 .cbSavedRegs - = $P $T0 8 + .cbParams + =
STACK WIN 4 25629 321 0 0 2c 8 124 0 1 $T0 $ebp = $eip $T0 4 + ^ = $ebp $T0 ^ = $esp $T0 8 + = $L $T0 .cbSavedRegs - = $P $T0 8 + .cbParams + =
STACK WIN 4 2594d 32 4 0 1c 0 0 0 1 $T0 $ebp = $eip $T0 4 + ^ = $ebp $T0 ^ = $esp $T0 8 + = $L $T0 .cbSavedRegs - = $P $T0 8 + .cbParams + =
STACK WIN 4 25951 2c 0 0 1c 4 0 0 1 $T0 $ebp = $eip $T0 4 + ^ = $ebp $T0 ^ = $esp $T0 8 + = $L $T0 .cbSavedRegs - = $P $T0 8 + .cbParams + = $ebx $T0 4 - ^ =
STACK WIN 4 2597f 54 a 0 20 0 c4 0 1 $T0 $ebp = $eip $T0 4 + ^ = $ebp $T0 ^ = $esp $T0 8 + = $L $T0 .cbSavedRegs - = $P $T0 8 + .cbParams + =
STACK WIN 4 25989 48 0 0 20 4 c4 0 1 $T0 $ebp = $eip $T0 4 + ^ = $ebp $T0 ^ = $esp $T0 8 + = $L $T0 .cbSavedRegs - = $P $T0 8 + .cbParams + = $ebx $T0 200 - ^ =
STACK WIN 4 259d3 7e 14 0 24 0 c4 0 1 $T0 $ebp 84 + = $eip $T0 4 + ^ = $ebp $T0 ^ = $esp $T0 8 + = $L $T0 .cbSavedRegs - = $P $T0 8 + .cbParams + =
STACK WIN 4 259e1 6b 6 0 24 4 c4 0 1 $T0 $ebp 84 + = $eip $T0 4 + ^ = $ebp $T0 ^ = $esp $T0 8 + = $L $T0 .cbSavedRegs - = $P $T0 8 + .cbParams + = $ebx $T0 200 - ^ =
STACK WIN 4 259e7 64 0 0 24 8 c4 0 1 $T0 $ebp 84 + = $eip $T0 4 + ^ = $ebp $T0 ^ = $esp $T0 8 + = $L $T0 .cbSavedRegs - = $P $T0 8 + .cbParams + = $ebx $T0 200 - ^ =
STACK WIN 4 25a51 6e 5 0 14 0 0 0 1 $T0 $ebp = $eip $T0 4 + ^ = $ebp $T0 ^ = $esp $T0 8 + = $L $T0 .cbSavedRegs - = $P $T0 8 + .cbParams + =
STACK WIN 4 25a55 68 1 0 14 4 0 0 1 $T0 $ebp = $eip $T0 4 + ^ = $ebp $T0 ^ = $esp $T0 8 + = $L $T0 .cbSavedRegs - = $P $T0 8 + .cbParams + = $ebx $T0 4 - ^ =
STACK WIN 4 25a56 66 0 0 14 8 0 0 1 $T0 $ebp = $eip $T0 4 + ^ = $ebp $T0 ^ = $esp $T0 8 + = $L $T0 .cbSavedRegs - = $P $T0 8 + .cbParams + = $ebx $T0 4 - ^ =
STACK WIN 4 25abf 97 f 0 18 0 c4 0 1 $T0 $ebp = $eip $T0 4 + ^ = $ebp $T0 ^ = $esp $T0 8 + = $L $T0 .cbSavedRegs - = $P $T0 8 + .cbParams + =
STACK WIN 4 25ac9 8b 5 0 18 4 c4 0 1 $T0 $ebp = $eip $T0 4 + ^ = $ebp $T0 ^ = $esp $T0 8 + = $L $T0 .cbSavedRegs - = $P $T0 8 + .cbParams + = $ebx $T0 200 - ^ =
STACK WIN 4 25aca 89 4 0 18 8 c4 0 1 $T0 $ebp = $eip $T0 4 + ^ = $ebp $T0 ^ = $esp $T0 8 + = $L $T0 .cbSavedRegs - = $P $T0 8 + .cbParams + = $ebx $T0 200 - ^ =
STACK WIN 4 25ace 84 0 0 18 c c4 0 1 $T0 $ebp = $eip $T0 4 + ^ = $ebp $T0 ^ = $esp $T0 8 + = $L $T0 .cbSavedRegs - = $P $T0 8 + .cbParams + = $ebx $T0 200 - ^ =
STACK WIN 4 25b56 c7 11 0 1c 0 c8 0 1 $T0 $ebp 92 + = $eip $T0 4 + ^ = $ebp $T0 ^ = $esp $T0 8 + = $L $T0 .cbSavedRegs - = $P $T0 8 + .cbParams + =
STACK WIN 4 25b62 b6 5 0 1c 4 c8 0 1 $T0 $ebp 92 + = $eip $T0 4 + ^ = $ebp $T0 ^ = $esp $T0 8 + = $L $T0 .cbSavedRegs - = $P $T0 8 + .cbParams + = $ebx $T0 204 - ^ =
STACK WIN 4 25b63 b4 4 0 1c 8 c8 0 1 $T0 $ebp 92 + = $eip $T0 4 + ^ = $ebp $T0 ^ = $esp $T0 8 + = $L $T0 .cbSavedRegs - = $P $T0 8 + .cbParams + = $ebx $T0 204 - ^ =
STACK WIN 4 25b67 af 0 0 1c c c8 0 1 $T0 $ebp 92 + = $eip $T0 4 + ^ = $ebp $T0 ^ = $esp $T0 8 + = $L $T0 .cbSavedRegs - = $P $T0 8 + .cbParams + = $ebx $T0 204 - ^ =
STACK WIN 4 25c1d 75 11 0 8 0 10 0 1 $T0 $ebp = $eip $T0 4 + ^ = $ebp $T0 ^ = $esp $T0 8 + = $L $T0 .cbSavedRegs - = $P $T0 8 + .cbParams + =
STACK WIN 4 25c24 6c a 0 8 4 10 0 1 $T0 $ebp = $eip $T0 4 + ^ = $ebp $T0 ^ = $esp $T0 8 + = $L $T0 .cbSavedRegs - = $P $T0 8 + .cbParams + =
STACK WIN 4 25c2e 61 0 0 8 8 10 0 1 $T0 $ebp = $eip $T0 4 + ^ = $ebp $T0 ^ = $esp $T0 8 + = $L $T0 .cbSavedRegs - = $P $T0 8 + .cbParams + =
STACK WIN 4 25c92 44 3 0 14 0 0 0 1 $T0 $ebp = $eip $T0 4 + ^ = $ebp $T0 ^ = $esp $T0 8 + = $L $T0 .cbSavedRegs - = $P $T0 8 + .cbParams + =
STACK WIN 4 25cd6 123 c 0 24 0 c8 0 1 $T0 $ebp 84 + = $eip $T0 4 + ^ = $ebp $T0 ^ = $esp $T0 8 + = $L $T0 .cbSavedRegs - = $P $T0 8 + .cbParams + =
STACK WIN 4 25ce2 112 0 0 24 4 c8 0 1 $T0 $ebp 84 + = $eip $T0 4 + ^ = $ebp $T0 ^ = $esp $T0 8 + = $L $T0 .cbSavedRegs - = $P $T0 8 + .cbParams + =
STACK WIN 4 25d0d e6 0 0 24 8 c8 0 1 $T0 $ebp 84 + = $eip $T0 4 + ^ = $ebp $T0 ^ = $esp $T0 8 + = $L $T0 .cbSavedRegs - = $P $T0 8 + .cbParams + = $ebx $T0 208 - ^ =
STACK WIN 4 25d11 e1 0 0 24 c c8 0 1 $T0 $ebp 84 + = $eip $T0 4 + ^ = $ebp $T0 ^ = $esp $T0 8 + = $L $T0 .cbSavedRegs - = $P $T0 8 + .cbParams + = $ebx $T0 208 - ^ =
STACK WIN 4 25df9 27 3 0 20 0 0 0 1 $T0 $ebp = $eip $T0 4 + ^ = $ebp $T0 ^ = $esp $T0 8 + = $L $T0 .cbSavedRegs - = $P $T0 8 + .cbParams + =
STACK WIN 4 25e20 67 4 0 1c 0 0 0 1 $T0 $ebp = $eip $T0 4 + ^ = $ebp $T0 ^ = $esp $T0 8 + = $L $T0 .cbSavedRegs - = $P $T0 8 + .cbParams + =
STACK WIN 4 25e24 61 0 0 1c 4 0 0 1 $T0 $ebp = $eip $T0 4 + ^ = $ebp $T0 ^ = $esp $T0 8 + = $L $T0 .cbSavedRegs - = $P $T0 8 + .cbParams + =
STACK WIN 4 25e87 20 3 0 14 0 0 0 1 $T0 $ebp = $eip $T0 4 + ^ = $ebp $T0 ^ = $esp $T0 8 + = $L $T0 .cbSavedRegs - = $P $T0 8 + .cbParams + =
STACK WIN 4 25ea7 20 0 0 c 0 0 0 1 $T2 $esp .cbLocals + .cbSavedRegs + = $T0 .raSearchStart = $eip $T0 ^ = $esp $T0 4 + =
STACK WIN 4 25ec7 24 3 0 18 0 0 0 1 $T0 $ebp = $eip $T0 4 + ^ = $ebp $T0 ^ = $esp $T0 8 + = $L $T0 .cbSavedRegs - = $P $T0 8 + .cbParams + =
STACK WIN 4 25eeb 46 9 0 1c 0 c4 0 1 $T0 $ebp = $eip $T0 4 + ^ = $ebp $T0 ^ = $esp $T0 8 + = $L $T0 .cbSavedRegs - = $P $T0 8 + .cbParams + =
STACK WIN 4 25f31 70 13 0 20 0 c4 0 1 $T0 $ebp 88 + = $eip $T0 4 + ^ = $ebp $T0 ^ = $esp $T0 8 + = $L $T0 .cbSavedRegs - = $P $T0 8 + .cbParams + =
STACK WIN 4 25f44 58 0 0 20 4 c4 0 1 $T0 $ebp 88 + = $eip $T0 4 + ^ = $ebp $T0 ^ = $esp $T0 8 + = $L $T0 .cbSavedRegs - = $P $T0 8 + .cbParams + =
STACK WIN 4 25fa1 14 0 0 4 0 0 0 1 $T2 $esp .cbLocals + .cbSavedRegs + = $T0 .raSearchStart = $eip $T0 ^ = $esp $T0 4 + =
STACK WIN 4 25fb5 34 1 0 0 0 0 0 1 $T2 $esp .cbLocals + .cbSavedRegs + = $T0 .raSearchStart = $eip $T0 ^ = $esp $T0 4 + =
STACK WIN 4 25fb6 32 0 0 0 4 0 0 1 $T2 $esp .cbLocals + .cbSavedRegs + = $T0 .raSearchStart = $eip $T0 ^ = $esp $T0 4 + =
STACK WIN 4 25fe9 35 0 0 8 0 0 0 1 $T2 $esp .cbLocals + .cbSavedRegs + = $T0 .raSearchStart = $eip $T0 ^ = $esp $T0 4 + =
STACK WIN 4 25ff8 23 0 0 8 4 0 0 1 $T2 $esp .cbLocals + .cbSavedRegs + = $T0 .raSearchStart = $eip $T0 ^ = $esp $T0 4 + =
STACK WIN 4 2601e 28 2 0 4 0 0 0 1 $T2 $esp .cbLocals + .cbSavedRegs + = $T0 .raSearchStart = $eip $T0 ^ = $esp $T0 4 + =
STACK WIN 4 2601f 26 1 0 4 4 0 0 1 $T2 $esp .cbLocals + .cbSavedRegs + = $T0 .raSearchStart = $eip $T0 ^ = $esp $T0 4 + =
STACK WIN 4 26020 22 0 0 4 8 0 0 1 $T2 $esp .cbLocals + .cbSavedRegs + = $T0 .raSearchStart = $eip $T0 ^ = $esp $T0 4 + =
STACK WIN 4 26046 125 2 0 4 0 0 0 1 $T2 $esp .cbLocals + .cbSavedRegs + = $T0 .raSearchStart = $eip $T0 ^ = $esp $T0 4 + =
STACK WIN 4 26047 123 1 0 4 4 0 0 1 $T2 $esp .cbLocals + .cbSavedRegs + = $T0 .raSearchStart = $eip $T0 ^ = $esp $T0 4 + = $ebx $T0 4 - ^ =
STACK WIN 4 26048 121 0 0 4 8 0 0 1 $T2 $esp .cbLocals + .cbSavedRegs + = $T0 .raSearchStart = $eip $T0 ^ = $esp $T0 4 + = $ebx $T0 4 - ^ =
STACK WIN 4 26063 105 0 0 4 c 0 0 1 $T2 $esp .cbLocals + .cbSavedRegs + = $T0 .raSearchStart = $eip $T0 ^ = $esp $T0 4 + = $ebp $T0 12 - ^ = $ebx $T0 4 - ^ =
STACK WIN 4 2606a fd 0 0 4 10 0 0 1 $T2 $esp .cbLocals + .cbSavedRegs + = $T0 .raSearchStart = $eip $T0 ^ = $esp $T0 4 + = $ebp $T0 12 - ^ = $ebx $T0 4 - ^ =
STACK WIN 4 2616b f 0 0 4 0 0 0 1 $T2 $esp .cbLocals + .cbSavedRegs + = $T0 .raSearchStart = $eip $T0 ^ = $esp $T0 4 + =
STACK WIN 4 2617a 70 1 0 4 0 0 0 1 $T2 $esp .cbLocals + .cbSavedRegs + = $T0 .raSearchStart = $eip $T0 ^ = $esp $T0 4 + =
STACK WIN 4 2617b 6e 0 0 4 4 0 0 1 $T2 $esp .cbLocals + .cbSavedRegs + = $T0 .raSearchStart = $eip $T0 ^ = $esp $T0 4 + =
STACK WIN 4 261a9 2c 0 0 4 8 0 0 1 $T2 $esp .cbLocals + .cbSavedRegs + = $T0 .raSearchStart = $eip $T0 ^ = $esp $T0 4 + =
STACK WIN 4 261ea 18 0 0 4 0 0 0 1 $T2 $esp .cbLocals + .cbSavedRegs + = $T0 .raSearchStart = $eip $T0 ^ = $esp $T0 4 + =
STACK WIN 4 26202 f 0 0 4 0 0 0 1 $T2 $esp .cbLocals + .cbSavedRegs + = $T0 .raSearchStart = $eip $T0 ^ = $esp $T0 4 + =
STACK WIN 4 26211 f 0 0 4 0 0 0 1 $T2 $esp .cbLocals + .cbSavedRegs + = $T0 .raSearchStart = $eip $T0 ^ = $esp $T0 4 + =
STACK WIN 4 26220 85 9 0 4 0 4 0 1 $T0 $ebp = $eip $T0 4 + ^ = $ebp $T0 ^ = $esp $T0 8 + = $L $T0 .cbSavedRegs - = $P $T0 8 + .cbParams + =
STACK WIN 4 26225 7e 4 0 4 4 4 0 1 $T0 $ebp = $eip $T0 4 + ^ = $ebp $T0 ^ = $esp $T0 8 + = $L $T0 .cbSavedRegs - = $P $T0 8 + .cbParams + =
STACK WIN 4 26229 79 0 0 4 8 4 0 1 $T0 $ebp = $eip $T0 4 + ^ = $ebp $T0 ^ = $esp $T0 8 + = $L $T0 .cbSavedRegs - = $P $T0 8 + .cbParams + =
STACK WIN 4 26255 4c 0 0 4 c 4 0 1 $T0 $ebp = $eip $T0 4 + ^ = $ebp $T0 ^ = $esp $T0 8 + = $L $T0 .cbSavedRegs - = $P $T0 8 + .cbParams + = $ebx $T0 16 - ^ =
STACK WIN 4 262a5 1c 0 0 8 0 0 0 1 $T2 $esp .cbLocals + .cbSavedRegs + = $T0 .raSearchStart = $eip $T0 ^ = $esp $T0 4 + =
STACK WIN 4 262c1 3f 0 0 8 0 0 0 1 $T2 $esp .cbLocals + .cbSavedRegs + = $T0 .raSearchStart = $eip $T0 ^ = $esp $T0 4 + =
STACK WIN 4 262ca 35 0 0 8 4 0 0 1 $T2 $esp .cbLocals + .cbSavedRegs + = $T0 .raSearchStart = $eip $T0 ^ = $esp $T0 4 + =
STACK WIN 4 262cf 2f 0 0 8 8 0 0 1 $T2 $esp .cbLocals + .cbSavedRegs + = $T0 .raSearchStart = $eip $T0 ^ = $esp $T0 4 + =
STACK WIN 4 26300 113 8 0 0 0 0 0 1 $T2 $esp .cbLocals + .cbSavedRegs + = $T0 .raSearchStart = $eip $T0 ^ = $esp $T0 4 + =
STACK WIN 4 26301 111 7 0 0 4 0 0 1 $T2 $esp .cbLocals + .cbSavedRegs + = $T0 .raSearchStart = $eip $T0 ^ = $esp $T0 4 + =
STACK WIN 4 26308 102 0 0 0 8 0 0 1 $T2 $esp .cbLocals + .cbSavedRegs + = $T0 .raSearchStart = $eip $T0 ^ = $esp $T0 4 + =
STACK WIN 4 26413 1a7 0 0 4 0 0 0 1 $T2 $esp .cbLocals + .cbSavedRegs + = $T0 .raSearchStart = $eip $T0 ^ = $esp $T0 4 + =
STACK WIN 4 265ba 5e c 0 10 0 0 0 1 $T0 $ebp = $eip $T0 4 + ^ = $ebp $T0 ^ = $esp $T0 8 + = $L $T0 .cbSavedRegs - = $P $T0 8 + .cbParams + =
STACK WIN 4 265be 58 8 0 10 4 0 0 1 $T0 $ebp = $eip $T0 4 + ^ = $ebp $T0 ^ = $esp $T0 8 + = $L $T0 .cbSavedRegs - = $P $T0 8 + .cbParams + = $ebx $T0 4 - ^ =
STACK WIN 4 265c2 53 4 0 10 8 0 0 1 $T0 $ebp = $eip $T0 4 + ^ = $ebp $T0 ^ = $esp $T0 8 + = $L $T0 .cbSavedRegs - = $P $T0 8 + .cbParams + = $ebx $T0 4 - ^ =
STACK WIN 4 265c6 4e 0 0 10 c 0 0 1 $T0 $ebp = $eip $T0 4 + ^ = $ebp $T0 ^ = $esp $T0 8 + = $L $T0 .cbSavedRegs - = $P $T0 8 + .cbParams + = $ebx $T0 4 - ^ =
STACK WIN 4 26618 12c f 0 4 0 0 0 1 $T0 $ebp = $eip $T0 4 + ^ = $ebp $T0 ^ = $esp $T0 8 + = $L $T0 .cbSavedRegs - = $P $T0 8 + .cbParams + =
STACK WIN 4 2661c 126 b 0 4 4 0 0 1 $T0 $ebp = $eip $T0 4 + ^ = $ebp $T0 ^ = $esp $T0 8 + = $L $T0 .cbSavedRegs - = $P $T0 8 + .cbParams + = $ebx $T0 4 - ^ =
STACK WIN 4 2661d 124 a 0 4 8 0 0 1 $T0 $ebp = $eip $T0 4 + ^ = $ebp $T0 ^ = $esp $T0 8 + = $L $T0 .cbSavedRegs - = $P $T0 8 + .cbParams + = $ebx $T0 4 - ^ =
STACK WIN 4 26627 119 0 0 4 c 0 0 1 $T0 $ebp = $eip $T0 4 + ^ = $ebp $T0 ^ = $esp $T0 8 + = $L $T0 .cbSavedRegs - = $P $T0 8 + .cbParams + = $ebx $T0 4 - ^ =
STACK WIN 4 26744 a8 15 0 4 0 a4 0 1 $T0 $ebp = $eip $T0 4 + ^ = $ebp $T0 ^ = $esp $T0 8 + = $L $T0 .cbSavedRegs - = $P $T0 8 + .cbParams + =
STACK WIN 4 26758 8d 1 0 4 4 a4 0 1 $T0 $ebp = $eip $T0 4 + ^ = $ebp $T0 ^ = $esp $T0 8 + = $L $T0 .cbSavedRegs - = $P $T0 8 + .cbParams + = $ebx $T0 168 - ^ =
STACK WIN 4 26759 89 0 0 4 8 a4 0 1 $T0 $ebp = $eip $T0 4 + ^ = $ebp $T0 ^ = $esp $T0 8 + = $L $T0 .cbSavedRegs - = $P $T0 8 + .cbParams + = $ebx $T0 168 - ^ =
STACK WIN 4 267ec 8 0 0 4 0 0 0 1 $T2 $esp .cbLocals + .cbSavedRegs + = $T0 .raSearchStart = $eip $T0 ^ = $esp $T0 4 + =
STACK WIN 4 267f4 8 0 0 4 0 0 0 1 $T2 $esp .cbLocals + .cbSavedRegs + = $T0 .raSearchStart = $eip $T0 ^ = $esp $T0 4 + =
STACK WIN 4 267fc 15 0 0 4 0 0 0 1 $T2 $esp .cbLocals + .cbSavedRegs + = $T0 .raSearchStart = $eip $T0 ^ = $esp $T0 4 + =
STACK WIN 4 26811 17 0 0 4 0 0 0 1 $T2 $esp .cbLocals + .cbSavedRegs + = $T0 .raSearchStart = $eip $T0 ^ = $esp $T0 4 + =
STACK WIN 4 26828 b 0 0 4 0 0 0 1 $T2 $esp .cbLocals + .cbSavedRegs + = $T0 .raSearchStart = $eip $T0 ^ = $esp $T0 4 + =
STACK WIN 4 26833 8 0 0 4 0 0 0 1 $T2 $esp .cbLocals + .cbSavedRegs + = $T0 .raSearchStart = $eip $T0 ^ = $esp $T0 4 + =
STACK WIN 4 2683b 8 0 0 4 0 0 0 1 $T2 $esp .cbLocals + .cbSavedRegs + = $T0 .raSearchStart = $eip $T0 ^ = $esp $T0 4 + =
STACK WIN 4 26843 8 0 0 4 0 0 0 1 $T2 $esp .cbLocals + .cbSavedRegs + = $T0 .raSearchStart = $eip $T0 ^ = $esp $T0 4 + =
STACK WIN 4 2684b d 0 0 4 0 0 0 1 $T2 $esp .cbLocals + .cbSavedRegs + = $T0 .raSearchStart = $eip $T0 ^ = $esp $T0 4 + =
STACK WIN 4 26858 8 0 0 4 0 0 0 1 $T2 $esp .cbLocals + .cbSavedRegs + = $T0 .raSearchStart = $eip $T0 ^ = $esp $T0 4 + =
STACK WIN 4 26860 8 0 0 4 0 0 0 1 $T2 $esp .cbLocals + .cbSavedRegs + = $T0 .raSearchStart = $eip $T0 ^ = $esp $T0 4 + =
STACK WIN 4 26868 1a 0 0 4 0 0 0 1 $T2 $esp .cbLocals + .cbSavedRegs + = $T0 .raSearchStart = $eip $T0 ^ = $esp $T0 4 + =
STACK WIN 4 26882 a 0 0 4 0 0 0 1 $T2 $esp .cbLocals + .cbSavedRegs + = $T0 .raSearchStart = $eip $T0 ^ = $esp $T0 4 + =
STACK WIN 4 2688c a 0 0 4 0 0 0 1 $T2 $esp .cbLocals + .cbSavedRegs + = $T0 .raSearchStart = $eip $T0 ^ = $esp $T0 4 + =
STACK WIN 4 26896 c 0 0 4 0 0 0 1 $T2 $esp .cbLocals + .cbSavedRegs + = $T0 .raSearchStart = $eip $T0 ^ = $esp $T0 4 + =
STACK WIN 4 268a2 c 0 0 4 0 0 0 1 $T2 $esp .cbLocals + .cbSavedRegs + = $T0 .raSearchStart = $eip $T0 ^ = $esp $T0 4 + =
STACK WIN 4 268ae 8 0 0 4 0 0 0 1 $T2 $esp .cbLocals + .cbSavedRegs + = $T0 .raSearchStart = $eip $T0 ^ = $esp $T0 4 + =
STACK WIN 4 268b6 b 0 0 4 0 0 0 1 $T2 $esp .cbLocals + .cbSavedRegs + = $T0 .raSearchStart = $eip $T0 ^ = $esp $T0 4 + =
STACK WIN 4 268c1 23 0 0 0 0 0 0 1 $T2 $esp .cbLocals + .cbSavedRegs + = $T0 .raSearchStart = $eip $T0 ^ = $esp $T0 4 + =
STACK WIN 4 268e4 82 4 0 8 0 0 0 1 $T0 $ebp = $eip $T0 4 + ^ = $ebp $T0 ^ = $esp $T0 8 + = $L $T0 .cbSavedRegs - = $P $T0 8 + .cbParams + =
STACK WIN 4 268e8 63 0 0 8 4 0 0 1 $T0 $ebp = $eip $T0 4 + ^ = $ebp $T0 ^ = $esp $T0 8 + = $L $T0 .cbSavedRegs - = $P $T0 8 + .cbParams + =
STACK WIN 4 268f9 44 0 0 8 8 0 0 1 $T0 $ebp = $eip $T0 4 + ^ = $ebp $T0 ^ = $esp $T0 8 + = $L $T0 .cbSavedRegs - = $P $T0 8 + .cbParams + = $ebx $T0 8 - ^ =
STACK WIN 4 268fa 42 0 0 8 c 0 0 1 $T0 $ebp = $eip $T0 4 + ^ = $ebp $T0 ^ = $esp $T0 8 + = $L $T0 .cbSavedRegs - = $P $T0 8 + .cbParams + = $ebx $T0 8 - ^ =
STACK WIN 4 26966 b9 6 0 8 0 8 0 1 $T0 $ebp = $eip $T0 4 + ^ = $ebp $T0 ^ = $esp $T0 8 + = $L $T0 .cbSavedRegs - = $P $T0 8 + .cbParams + =
STACK WIN 4 2696c 98 0 0 8 4 8 0 1 $T0 $ebp = $eip $T0 4 + ^ = $ebp $T0 ^ = $esp $T0 8 + = $L $T0 .cbSavedRegs - = $P $T0 8 + .cbParams + =
STACK WIN 4 2697d 79 0 0 8 8 8 0 1 $T0 $ebp = $eip $T0 4 + ^ = $ebp $T0 ^ = $esp $T0 8 + = $L $T0 .cbSavedRegs - = $P $T0 8 + .cbParams + = $ebx $T0 16 - ^ =
STACK WIN 4 2697e 77 0 0 8 c 8 0 1 $T0 $ebp = $eip $T0 4 + ^ = $ebp $T0 ^ = $esp $T0 8 + = $L $T0 .cbSavedRegs - = $P $T0 8 + .cbParams + = $ebx $T0 16 - ^ =
STACK WIN 4 26a1f 54 14 0 4 0 a4 0 1 $T0 $ebp = $eip $T0 4 + ^ = $ebp $T0 ^ = $esp $T0 8 + = $L $T0 .cbSavedRegs - = $P $T0 8 + .cbParams + =
STACK WIN 4 26a33 39 0 0 4 4 a4 0 1 $T0 $ebp = $eip $T0 4 + ^ = $ebp $T0 ^ = $esp $T0 8 + = $L $T0 .cbSavedRegs - = $P $T0 8 + .cbParams + =
STACK WIN 4 26a73 30 0 0 4 0 0 0 1 $T2 $esp .cbLocals + .cbSavedRegs + = $T0 .raSearchStart = $eip $T0 ^ = $esp $T0 4 + =
STACK WIN 4 26aa3 29 0 0 4 0 0 0 1 $T2 $esp .cbLocals + .cbSavedRegs + = $T0 .raSearchStart = $eip $T0 ^ = $esp $T0 4 + =
STACK WIN 4 26acc 28 0 0 4 0 0 0 1 $T2 $esp .cbLocals + .cbSavedRegs + = $T0 .raSearchStart = $eip $T0 ^ = $esp $T0 4 + =
STACK WIN 4 26ada 11 0 0 4 4 0 0 1 $T2 $esp .cbLocals + .cbSavedRegs + = $T0 .raSearchStart = $eip $T0 ^ = $esp $T0 4 + =
STACK WIN 4 26af4 3b 0 0 0 0 0 0 1 $T2 $esp .cbLocals + .cbSavedRegs + = $T0 .raSearchStart = $eip $T0 ^ = $esp $T0 4 + =
STACK WIN 4 26b2f 32 0 0 0 0 0 0 1 $T2 $esp .cbLocals + .cbSavedRegs + = $T0 .raSearchStart = $eip $T0 ^ = $esp $T0 4 + =
STACK WIN 4 26b61 6d 0 0 8 0 0 0 1 $T2 $esp .cbLocals + .cbSavedRegs + = $T0 .raSearchStart = $eip $T0 ^ = $esp $T0 4 + =
STACK WIN 4 26bad 20 0 0 8 4 0 0 1 $T2 $esp .cbLocals + .cbSavedRegs + = $T0 .raSearchStart = $eip $T0 ^ = $esp $T0 4 + =
STACK WIN 4 26bce 52 f 0 8 0 c 0 1 $T0 $ebp = $eip $T0 4 + ^ = $ebp $T0 ^ = $esp $T0 8 + = $L $T0 .cbSavedRegs - = $P $T0 8 + .cbParams + =
STACK WIN 4 26bd5 36 8 0 8 4 c 0 1 $T0 $ebp = $eip $T0 4 + ^ = $ebp $T0 ^ = $esp $T0 8 + = $L $T0 .cbSavedRegs - = $P $T0 8 + .cbParams + =
STACK WIN 4 26bdd 2d 0 0 8 8 c 0 1 $T0 $ebp = $eip $T0 4 + ^ = $ebp $T0 ^ = $esp $T0 8 + = $L $T0 .cbSavedRegs - = $P $T0 8 + .cbParams + =
STACK WIN 4 26c20 46 6 0 c 0 0 0 1 $T2 $esp .cbLocals + .cbSavedRegs + = $T0 .raSearchStart = $eip $T0 ^ = $esp $T0 4 + =
STACK WIN 4 26c21 44 5 0 c 4 0 0 1 $T2 $esp .cbLocals + .cbSavedRegs + = $T0 .raSearchStart = $eip $T0 ^ = $esp $T0 4 + =
STACK WIN 4 26c26 3e 0 0 c 8 0 0 1 $T2 $esp .cbLocals + .cbSavedRegs + = $T0 .raSearchStart = $eip $T0 ^ = $esp $T0 4 + =
STACK WIN 4 26c66 54 a 0 c 0 0 0 1 $T2 $esp .cbLocals + .cbSavedRegs + = $T0 .raSearchStart = $eip $T0 ^ = $esp $T0 4 + =
STACK WIN 4 26c67 52 9 0 c 4 0 0 1 $T2 $esp .cbLocals + .cbSavedRegs + = $T0 .raSearchStart = $eip $T0 ^ = $esp $T0 4 + =
STACK WIN 4 26c70 48 0 0 c 8 0 0 1 $T2 $esp .cbLocals + .cbSavedRegs + = $T0 .raSearchStart = $eip $T0 ^ = $esp $T0 4 + =
STACK WIN 4 26cba f 0 0 8 0 0 0 1 $T2 $esp .cbLocals + .cbSavedRegs + = $T0 .raSearchStart = $eip $T0 ^ = $esp $T0 4 + =
STACK WIN 4 26cc9 b 0 0 4 0 0 0 1 $T2 $esp .cbLocals + .cbSavedRegs + = $T0 .raSearchStart = $eip $T0 ^ = $esp $T0 4 + =
STACK WIN 4 26cd4 62 3 0 8 0 0 0 1 $T2 $esp .cbLocals + .cbSavedRegs + = $T0 .raSearchStart = $eip $T0 ^ = $esp $T0 4 + =
STACK WIN 4 26cd5 60 2 0 8 4 0 0 1 $T2 $esp .cbLocals + .cbSavedRegs + = $T0 .raSearchStart = $eip $T0 ^ = $esp $T0 4 + = $ebx $T0 4 - ^ =
STACK WIN 4 26cd6 5e 1 0 8 8 0 0 1 $T2 $esp .cbLocals + .cbSavedRegs + = $T0 .raSearchStart = $eip $T0 ^ = $esp $T0 4 + = $ebx $T0 4 - ^ =
STACK WIN 4 26cd7 5c 0 0 8 c 0 0 1 $T2 $esp .cbLocals + .cbSavedRegs + = $T0 .raSearchStart = $eip $T0 ^ = $esp $T0 4 + = $ebx $T0 4 - ^ =
STACK WIN 4 26d36 34 0 0 0 0 0 0 1 $T2 $esp .cbLocals + .cbSavedRegs + = $T0 .raSearchStart = $eip $T0 ^ = $esp $T0 4 + =
STACK WIN 4 26d41 12 0 0 0 4 0 0 1 $T2 $esp .cbLocals + .cbSavedRegs + = $T0 .raSearchStart = $eip $T0 ^ = $esp $T0 4 + =
STACK WIN 4 26d6a 13 1 0 4 0 0 0 1 $T2 $esp .cbLocals + .cbSavedRegs + = $T0 .raSearchStart = $eip $T0 ^ = $esp $T0 4 + =
STACK WIN 4 26d6b 11 0 0 4 4 0 0 1 $T2 $esp .cbLocals + .cbSavedRegs + = $T0 .raSearchStart = $eip $T0 ^ = $esp $T0 4 + =
STACK WIN 4 26d7d 60 1 0 8 0 0 0 1 $T2 $esp .cbLocals + .cbSavedRegs + = $T0 .raSearchStart = $eip $T0 ^ = $esp $T0 4 + =
STACK WIN 4 26d7e 5e 0 0 8 4 0 0 1 $T2 $esp .cbLocals + .cbSavedRegs + = $T0 .raSearchStart = $eip $T0 ^ = $esp $T0 4 + =
STACK WIN 4 26d99 40 0 0 8 8 0 0 1 $T2 $esp .cbLocals + .cbSavedRegs + = $T0 .raSearchStart = $eip $T0 ^ = $esp $T0 4 + =
STACK WIN 4 26ddd 58 2 0 8 0 0 0 1 $T2 $esp .cbLocals + .cbSavedRegs + = $T0 .raSearchStart = $eip $T0 ^ = $esp $T0 4 + =
STACK WIN 4 26dde 56 1 0 8 4 0 0 1 $T2 $esp .cbLocals + .cbSavedRegs + = $T0 .raSearchStart = $eip $T0 ^ = $esp $T0 4 + =
STACK WIN 4 26ddf 52 0 0 8 8 0 0 1 $T2 $esp .cbLocals + .cbSavedRegs + = $T0 .raSearchStart = $eip $T0 ^ = $esp $T0 4 + =
STACK WIN 4 26e35 4e 7 0 c 0 0 0 1 $T2 $esp .cbLocals + .cbSavedRegs + = $T0 .raSearchStart = $eip $T0 ^ = $esp $T0 4 + =
STACK WIN 4 26e36 4c 6 0 c 4 0 0 1 $T2 $esp .cbLocals + .cbSavedRegs + = $T0 .raSearchStart = $eip $T0 ^ = $esp $T0 4 + = $ebx $T0 4 - ^ =
STACK WIN 4 26e37 4a 5 0 c 8 0 0 1 $T2 $esp .cbLocals + .cbSavedRegs + = $T0 .raSearchStart = $eip $T0 ^ = $esp $T0 4 + = $ebx $T0 4 - ^ =
STACK WIN 4 26e3c 44 0 0 c c 0 0 1 $T2 $esp .cbLocals + .cbSavedRegs + = $T0 .raSearchStart = $eip $T0 ^ = $esp $T0 4 + = $ebx $T0 4 - ^ =
STACK WIN 4 26e83 29 0 0 8 0 0 0 1 $T2 $esp .cbLocals + .cbSavedRegs + = $T0 .raSearchStart = $eip $T0 ^ = $esp $T0 4 + =
STACK WIN 4 26eac cb 1 0 0 0 0 0 1 $T2 $esp .cbLocals + .cbSavedRegs + = $T0 .raSearchStart = $eip $T0 ^ = $esp $T0 4 + =
STACK WIN 4 26ead c9 0 0 0 4 0 0 1 $T2 $esp .cbLocals + .cbSavedRegs + = $T0 .raSearchStart = $eip $T0 ^ = $esp $T0 4 + =
STACK WIN 4 26f77 95 d 0 c 0 0 0 1 $T0 $ebp = $eip $T0 4 + ^ = $ebp $T0 ^ = $esp $T0 8 + = $L $T0 .cbSavedRegs - = $P $T0 8 + .cbParams + =
STACK WIN 4 26f7b 8f 9 0 c 4 0 0 1 $T0 $ebp = $eip $T0 4 + ^ = $ebp $T0 ^ = $esp $T0 8 + = $L $T0 .cbSavedRegs - = $P $T0 8 + .cbParams + =
STACK WIN 4 26f84 85 0 0 c 8 0 0 1 $T0 $ebp = $eip $T0 4 + ^ = $ebp $T0 ^ = $esp $T0 8 + = $L $T0 .cbSavedRegs - = $P $T0 8 + .cbParams + =
STACK WIN 4 2700c 56 6 0 c 0 0 0 1 $T2 $esp .cbLocals + .cbSavedRegs + = $T0 .raSearchStart = $eip $T0 ^ = $esp $T0 4 + =
STACK WIN 4 27011 50 1 0 c 4 0 0 1 $T2 $esp .cbLocals + .cbSavedRegs + = $T0 .raSearchStart = $eip $T0 ^ = $esp $T0 4 + =
STACK WIN 4 27012 4e 0 0 c 8 0 0 1 $T2 $esp .cbLocals + .cbSavedRegs + = $T0 .raSearchStart = $eip $T0 ^ = $esp $T0 4 + =
STACK WIN 4 27062 60 1 0 4 0 0 0 1 $T2 $esp .cbLocals + .cbSavedRegs + = $T0 .raSearchStart = $eip $T0 ^ = $esp $T0 4 + =
STACK WIN 4 27063 5e 0 0 4 4 0 0 1 $T2 $esp .cbLocals + .cbSavedRegs + = $T0 .raSearchStart = $eip $T0 ^ = $esp $T0 4 + =
STACK WIN 4 27074 4c 0 0 4 8 0 0 1 $T2 $esp .cbLocals + .cbSavedRegs + = $T0 .raSearchStart = $eip $T0 ^ = $esp $T0 4 + = $ebx $T0 8 - ^ =
STACK WIN 4 27075 4a 0 0 4 c 0 0 1 $T2 $esp .cbLocals + .cbSavedRegs + = $T0 .raSearchStart = $eip $T0 ^ = $esp $T0 4 + = $ebp $T0 12 - ^ = $ebx $T0 8 - ^ =
STACK WIN 4 27076 48 0 0 4 10 0 0 1 $T2 $esp .cbLocals + .cbSavedRegs + = $T0 .raSearchStart = $eip $T0 ^ = $esp $T0 4 + = $ebp $T0 12 - ^ = $ebx $T0 8 - ^ =
STACK WIN 4 270c2 35f 20 0 8 0 cc 0 1 $T0 $ebp 112 + = $eip $T0 4 + ^ = $ebp $T0 ^ = $esp $T0 8 + = $L $T0 .cbSavedRegs - = $P $T0 8 + .cbParams + =
STACK WIN 4 270d8 33f a 0 8 4 cc 0 1 $T0 $ebp 112 + = $eip $T0 4 + ^ = $ebp $T0 ^ = $esp $T0 8 + = $L $T0 .cbSavedRegs - = $P $T0 8 + .cbParams + = $ebx $T0 208 - ^ =
STACK WIN 4 270d9 33b 9 0 8 8 cc 0 1 $T0 $ebp 112 + = $eip $T0 4 + ^ = $ebp $T0 ^ = $esp $T0 8 + = $L $T0 .cbSavedRegs - = $P $T0 8 + .cbParams + = $ebx $T0 208 - ^ =
STACK WIN 4 270e2 331 0 0 8 c cc 0 1 $T0 $ebp 112 + = $eip $T0 4 + ^ = $ebp $T0 ^ = $esp $T0 8 + = $L $T0 .cbSavedRegs - = $P $T0 8 + .cbParams + = $ebx $T0 208 - ^ =
STACK WIN 4 27421 138 16 0 c 0 7c 0 1 $T0 $ebp = $eip $T0 4 + ^ = $ebp $T0 ^ = $esp $T0 8 + = $L $T0 .cbSavedRegs - = $P $T0 8 + .cbParams + =
STACK WIN 4 27432 120 5 0 c 4 7c 0 1 $T0 $ebp = $eip $T0 4 + ^ = $ebp $T0 ^ = $esp $T0 8 + = $L $T0 .cbSavedRegs - = $P $T0 8 + .cbParams + = $ebx $T0 128 - ^ =
STACK WIN 4 27433 11c 4 0 c 8 7c 0 1 $T0 $ebp = $eip $T0 4 + ^ = $ebp $T0 ^ = $esp $T0 8 + = $L $T0 .cbSavedRegs - = $P $T0 8 + .cbParams + = $ebx $T0 128 - ^ =
STACK WIN 4 27437 117 0 0 c c 7c 0 1 $T0 $ebp = $eip $T0 4 + ^ = $ebp $T0 ^ = $esp $T0 8 + = $L $T0 .cbSavedRegs - = $P $T0 8 + .cbParams + = $ebx $T0 128 - ^ =
STACK WIN 4 27559 f8 11 0 4 0 7c 0 1 $T0 $ebp = $eip $T0 4 + ^ = $ebp $T0 ^ = $esp $T0 8 + = $L $T0 .cbSavedRegs - = $P $T0 8 + .cbParams + =
STACK WIN 4 2756a e0 0 0 4 4 7c 0 1 $T0 $ebp = $eip $T0 4 + ^ = $ebp $T0 ^ = $esp $T0 8 + = $L $T0 .cbSavedRegs - = $P $T0 8 + .cbParams + =
STACK WIN 4 27651 f 1 0 4 0 0 0 1 $T2 $esp .cbLocals + .cbSavedRegs + = $T0 .raSearchStart = $eip $T0 ^ = $esp $T0 4 + =
STACK WIN 4 27652 d 0 0 4 4 0 0 1 $T2 $esp .cbLocals + .cbSavedRegs + = $T0 .raSearchStart = $eip $T0 ^ = $esp $T0 4 + =
STACK WIN 4 27660 28 1 0 4 0 0 0 1 $T2 $esp .cbLocals + .cbSavedRegs + = $T0 .raSearchStart = $eip $T0 ^ = $esp $T0 4 + =
STACK WIN 4 27661 26 0 0 4 4 0 0 1 $T2 $esp .cbLocals + .cbSavedRegs + = $T0 .raSearchStart = $eip $T0 ^ = $esp $T0 4 + =
STACK WIN 4 27670 13 0 0 4 8 0 0 1 $T2 $esp .cbLocals + .cbSavedRegs + = $T0 .raSearchStart = $eip $T0 ^ = $esp $T0 4 + =
STACK WIN 4 27688 c1 6 0 4 0 8 0 1 $T0 $ebp = $eip $T0 4 + ^ = $ebp $T0 ^ = $esp $T0 8 + = $L $T0 .cbSavedRegs - = $P $T0 8 + .cbParams + =
STACK WIN 4 2768e b9 0 0 4 4 8 0 1 $T0 $ebp = $eip $T0 4 + ^ = $ebp $T0 ^ = $esp $T0 8 + = $L $T0 .cbSavedRegs - = $P $T0 8 + .cbParams + =
STACK WIN 4 276b2 94 0 0 4 8 8 0 1 $T0 $ebp = $eip $T0 4 + ^ = $ebp $T0 ^ = $esp $T0 8 + = $L $T0 .cbSavedRegs - = $P $T0 8 + .cbParams + =
STACK WIN 4 276f1 48 0 0 4 c 8 0 1 $T0 $ebp = $eip $T0 4 + ^ = $ebp $T0 ^ = $esp $T0 8 + = $L $T0 .cbSavedRegs - = $P $T0 8 + .cbParams + = $ebx $T0 20 - ^ =
STACK WIN 4 27749 154 7 0 10 0 54 0 1 $T0 $ebp = $eip $T0 4 + ^ = $ebp $T0 ^ = $esp $T0 8 + = $L $T0 .cbSavedRegs - = $P $T0 8 + .cbParams + =
STACK WIN 4 27750 14b 0 0 10 4 54 0 1 $T0 $ebp = $eip $T0 4 + ^ = $ebp $T0 ^ = $esp $T0 8 + = $L $T0 .cbSavedRegs - = $P $T0 8 + .cbParams + = $ebx $T0 88 - ^ =
STACK WIN 4 27774 126 0 0 10 8 54 0 1 $T0 $ebp = $eip $T0 4 + ^ = $ebp $T0 ^ = $esp $T0 8 + = $L $T0 .cbSavedRegs - = $P $T0 8 + .cbParams + = $ebx $T0 88 - ^ =
STACK WIN 4 27775 124 0 0 10 c 54 0 1 $T0 $ebp = $eip $T0 4 + ^ = $ebp $T0 ^ = $esp $T0 8 + = $L $T0 .cbSavedRegs - = $P $T0 8 + .cbParams + = $ebx $T0 88 - ^ =
STACK WIN 4 2789d 16b e 0 c 0 c 0 1 $T0 $ebp = $eip $T0 4 + ^ = $ebp $T0 ^ = $esp $T0 8 + = $L $T0 .cbSavedRegs - = $P $T0 8 + .cbParams + =
STACK WIN 4 278a4 162 7 0 c 4 c 0 1 $T0 $ebp = $eip $T0 4 + ^ = $ebp $T0 ^ = $esp $T0 8 + = $L $T0 .cbSavedRegs - = $P $T0 8 + .cbParams + = $ebx $T0 16 - ^ =
STACK WIN 4 278a5 160 6 0 c 8 c 0 1 $T0 $ebp = $eip $T0 4 + ^ = $ebp $T0 ^ = $esp $T0 8 + = $L $T0 .cbSavedRegs - = $P $T0 8 + .cbParams + = $ebx $T0 16 - ^ =
STACK WIN 4 278ab 159 0 0 c c c 0 1 $T0 $ebp = $eip $T0 4 + ^ = $ebp $T0 ^ = $esp $T0 8 + = $L $T0 .cbSavedRegs - = $P $T0 8 + .cbParams + = $ebx $T0 16 - ^ =
STACK WIN 4 27a08 14 0 0 8 0 0 0 1 $T2 $esp .cbLocals + .cbSavedRegs + = $T0 .raSearchStart = $eip $T0 ^ = $esp $T0 4 + =
STACK WIN 4 27a1c e3 8 0 4 0 18 0 1 $T0 $ebp = $eip $T0 4 + ^ = $ebp $T0 ^ = $esp $T0 8 + = $L $T0 .cbSavedRegs - = $P $T0 8 + .cbParams + =
STACK WIN 4 27a23 da 1 0 4 4 18 0 1 $T0 $ebp = $eip $T0 4 + ^ = $ebp $T0 ^ = $esp $T0 8 + = $L $T0 .cbSavedRegs - = $P $T0 8 + .cbParams + =
STACK WIN 4 27a24 d8 0 0 4 8 18 0 1 $T0 $ebp = $eip $T0 4 + ^ = $ebp $T0 ^ = $esp $T0 8 + = $L $T0 .cbSavedRegs - = $P $T0 8 + .cbParams + =
STACK WIN 4 27a6d 82 0 0 4 c 18 0 1 $T0 $ebp = $eip $T0 4 + ^ = $ebp $T0 ^ = $esp $T0 8 + = $L $T0 .cbSavedRegs - = $P $T0 8 + .cbParams + = $ebx $T0 36 - ^ =
STACK WIN 4 27aff 6d 1 0 8 0 0 0 1 $T2 $esp .cbLocals + .cbSavedRegs + = $T0 .raSearchStart = $eip $T0 ^ = $esp $T0 4 + =
STACK WIN 4 27b00 6b 0 0 8 4 0 0 1 $T2 $esp .cbLocals + .cbSavedRegs + = $T0 .raSearchStart = $eip $T0 ^ = $esp $T0 4 + =
STACK WIN 4 27b25 45 0 0 8 8 0 0 1 $T2 $esp .cbLocals + .cbSavedRegs + = $T0 .raSearchStart = $eip $T0 ^ = $esp $T0 4 + = $ebx $T0 8 - ^ =
STACK WIN 4 27b26 41 0 0 8 c 0 0 1 $T2 $esp .cbLocals + .cbSavedRegs + = $T0 .raSearchStart = $eip $T0 ^ = $esp $T0 4 + = $ebx $T0 8 - ^ =
STACK WIN 4 27b6c 39 1 0 8 0 0 0 1 $T2 $esp .cbLocals + .cbSavedRegs + = $T0 .raSearchStart = $eip $T0 ^ = $esp $T0 4 + =
STACK WIN 4 27b6d 37 0 0 8 4 0 0 1 $T2 $esp .cbLocals + .cbSavedRegs + = $T0 .raSearchStart = $eip $T0 ^ = $esp $T0 4 + =
STACK WIN 4 27b87 1c 0 0 8 8 0 0 1 $T2 $esp .cbLocals + .cbSavedRegs + = $T0 .raSearchStart = $eip $T0 ^ = $esp $T0 4 + =
STACK WIN 4 27ba5 dc 19 0 8 0 28 0 1 $T0 $ebp = $eip $T0 4 + ^ = $ebp $T0 ^ = $esp $T0 8 + = $L $T0 .cbSavedRegs - = $P $T0 8 + .cbParams + =
STACK WIN 4 27bb9 c1 5 0 8 4 28 0 1 $T0 $ebp = $eip $T0 4 + ^ = $ebp $T0 ^ = $esp $T0 8 + = $L $T0 .cbSavedRegs - = $P $T0 8 + .cbParams + = $ebx $T0 44 - ^ =
STACK WIN 4 27bba bd 4 0 8 8 28 0 1 $T0 $ebp = $eip $T0 4 + ^ = $ebp $T0 ^ = $esp $T0 8 + = $L $T0 .cbSavedRegs - = $P $T0 8 + .cbParams + = $ebx $T0 44 - ^ =
STACK WIN 4 27bbe b8 0 0 8 c 28 0 1 $T0 $ebp = $eip $T0 4 + ^ = $ebp $T0 ^ = $esp $T0 8 + = $L $T0 .cbSavedRegs - = $P $T0 8 + .cbParams + = $ebx $T0 44 - ^ =
STACK WIN 4 27c81 bc a 0 14 0 8 0 1 $T0 $ebp = $eip $T0 4 + ^ = $ebp $T0 ^ = $esp $T0 8 + = $L $T0 .cbSavedRegs - = $P $T0 8 + .cbParams + =
STACK WIN 4 27c87 a6 4 0 14 4 8 0 1 $T0 $ebp = $eip $T0 4 + ^ = $ebp $T0 ^ = $esp $T0 8 + = $L $T0 .cbSavedRegs - = $P $T0 8 + .cbParams + =
STACK WIN 4 27c8b a1 0 0 14 8 8 0 1 $T0 $ebp = $eip $T0 4 + ^ = $ebp $T0 ^ = $esp $T0 8 + = $L $T0 .cbSavedRegs - = $P $T0 8 + .cbParams + =
STACK WIN 4 27cb6 75 0 0 14 c 8 0 1 $T0 $ebp = $eip $T0 4 + ^ = $ebp $T0 ^ = $esp $T0 8 + = $L $T0 .cbSavedRegs - = $P $T0 8 + .cbParams + = $ebx $T0 20 - ^ =
STACK WIN 4 27d3d 84 2 0 0 0 4 0 1 $T2 $esp .cbLocals + .cbSavedRegs + = $T0 .raSearchStart = $eip $T0 ^ = $esp $T0 4 + =
STACK WIN 4 27d3f 80 0 0 0 4 4 0 1 $T2 $esp .cbLocals + .cbSavedRegs + = $T0 .raSearchStart = $eip $T0 ^ = $esp $T0 4 + = $ebp $T0 8 - ^ =
STACK WIN 4 27d5f 5f 0 0 0 8 4 0 1 $T2 $esp .cbLocals + .cbSavedRegs + = $T0 .raSearchStart = $eip $T0 ^ = $esp $T0 4 + = $ebp $T0 8 - ^ =
STACK WIN 4 27d72 40 0 0 0 c 4 0 1 $T2 $esp .cbLocals + .cbSavedRegs + = $T0 .raSearchStart = $eip $T0 ^ = $esp $T0 4 + = $ebp $T0 8 - ^ = $ebx $T0 16 - ^ =
STACK WIN 4 27d73 3e 0 0 0 10 4 0 1 $T2 $esp .cbLocals + .cbSavedRegs + = $T0 .raSearchStart = $eip $T0 ^ = $esp $T0 4 + = $ebp $T0 8 - ^ = $ebx $T0 16 - ^ =
STACK WIN 4 27dc1 1a9 7 0 10 0 10 0 1 $T0 $ebp = $eip $T0 4 + ^ = $ebp $T0 ^ = $esp $T0 8 + = $L $T0 .cbSavedRegs - = $P $T0 8 + .cbParams + =
STACK WIN 4 27dc8 1a0 0 0 10 4 10 0 1 $T0 $ebp = $eip $T0 4 + ^ = $ebp $T0 ^ = $esp $T0 8 + = $L $T0 .cbSavedRegs - = $P $T0 8 + .cbParams + = $ebx $T0 20 - ^ =
STACK WIN 4 27def 178 0 0 10 8 10 0 1 $T0 $ebp = $eip $T0 4 + ^ = $ebp $T0 ^ = $esp $T0 8 + = $L $T0 .cbSavedRegs - = $P $T0 8 + .cbParams + = $ebx $T0 20 - ^ =
STACK WIN 4 27e38 e9 0 0 10 c 10 0 1 $T0 $ebp = $eip $T0 4 + ^ = $ebp $T0 ^ = $esp $T0 8 + = $L $T0 .cbSavedRegs - = $P $T0 8 + .cbParams + = $ebx $T0 20 - ^ =
STACK WIN 4 27f6a ca 5 0 4 0 8 0 1 $T0 $ebp = $eip $T0 4 + ^ = $ebp $T0 ^ = $esp $T0 8 + = $L $T0 .cbSavedRegs - = $P $T0 8 + .cbParams + =
STACK WIN 4 27fa3 78 0 0 4 4 8 0 1 $T0 $ebp = $eip $T0 4 + ^ = $ebp $T0 ^ = $esp $T0 8 + = $L $T0 .cbSavedRegs - = $P $T0 8 + .cbParams + =
STACK WIN 4 27fb8 55 0 0 4 8 8 0 1 $T0 $ebp = $eip $T0 4 + ^ = $ebp $T0 ^ = $esp $T0 8 + = $L $T0 .cbSavedRegs - = $P $T0 8 + .cbParams + = $ebx $T0 16 - ^ =
STACK WIN 4 27fb9 53 0 0 4 c 8 0 1 $T0 $ebp = $eip $T0 4 + ^ = $ebp $T0 ^ = $esp $T0 8 + = $L $T0 .cbSavedRegs - = $P $T0 8 + .cbParams + = $ebx $T0 16 - ^ =
STACK WIN 4 28034 19 0 0 0 0 0 0 1 $T2 $esp .cbLocals + .cbSavedRegs + = $T0 .raSearchStart = $eip $T0 ^ = $esp $T0 4 + =
STACK WIN 4 2804d 6 0 0 0 0 0 0 1 $T2 $esp .cbLocals + .cbSavedRegs + = $T0 .raSearchStart = $eip $T0 ^ = $esp $T0 4 + =
STACK WIN 4 28053 6 0 0 0 0 0 0 1 $T2 $esp .cbLocals + .cbSavedRegs + = $T0 .raSearchStart = $eip $T0 ^ = $esp $T0 4 + =
STACK WIN 4 28059 6 0 0 0 0 0 0 1 $T2 $esp .cbLocals + .cbSavedRegs + = $T0 .raSearchStart = $eip $T0 ^ = $esp $T0 4 + =
STACK WIN 4 2805f 6 0 0 0 0 0 0 1 $T2 $esp .cbLocals + .cbSavedRegs + = $T0 .raSearchStart = $eip $T0 ^ = $esp $T0 4 + =
STACK WIN 4 28065 6 0 0 0 0 0 0 1 $T2 $esp .cbLocals + .cbSavedRegs + = $T0 .raSearchStart = $eip $T0 ^ = $esp $T0 4 + =
STACK WIN 4 2806b 73 6 0 8 0 0 0 1 $T2 $esp .cbLocals + .cbSavedRegs + = $T0 .raSearchStart = $eip $T0 ^ = $esp $T0 4 + =
STACK WIN 4 28071 6c 0 0 8 4 0 0 1 $T2 $esp .cbLocals + .cbSavedRegs + = $T0 .raSearchStart = $eip $T0 ^ = $esp $T0 4 + =
STACK WIN 4 28087 46 0 0 8 8 0 0 1 $T2 $esp .cbLocals + .cbSavedRegs + = $T0 .raSearchStart = $eip $T0 ^ = $esp $T0 4 + =
STACK WIN 4 2809f 1f 0 0 8 c 0 0 1 $T2 $esp .cbLocals + .cbSavedRegs + = $T0 .raSearchStart = $eip $T0 ^ = $esp $T0 4 + = $ebx $T0 12 - ^ =
STACK WIN 4 280de 98 a 0 8 0 4 0 1 $T0 $ebp = $eip $T0 4 + ^ = $ebp $T0 ^ = $esp $T0 8 + = $L $T0 .cbSavedRegs - = $P $T0 8 + .cbParams + =
STACK WIN 4 280e8 8c 0 0 8 4 4 0 1 $T0 $ebp = $eip $T0 4 + ^ = $ebp $T0 ^ = $esp $T0 8 + = $L $T0 .cbSavedRegs - = $P $T0 8 + .cbParams + = $ebx $T0 8 - ^ =
STACK WIN 4 28101 62 0 0 8 8 4 0 1 $T0 $ebp = $eip $T0 4 + ^ = $ebp $T0 ^ = $esp $T0 8 + = $L $T0 .cbSavedRegs - = $P $T0 8 + .cbParams + = $ebx $T0 8 - ^ =
STACK WIN 4 28111 41 0 0 8 c 4 0 1 $T0 $ebp = $eip $T0 4 + ^ = $ebp $T0 ^ = $esp $T0 8 + = $L $T0 .cbSavedRegs - = $P $T0 8 + .cbParams + = $ebx $T0 8 - ^ =
STACK WIN 4 28176 34 0 0 8 0 0 0 1 $T2 $esp .cbLocals + .cbSavedRegs + = $T0 .raSearchStart = $eip $T0 ^ = $esp $T0 4 + =
STACK WIN 4 28186 23 0 0 8 4 0 0 1 $T2 $esp .cbLocals + .cbSavedRegs + = $T0 .raSearchStart = $eip $T0 ^ = $esp $T0 4 + =
STACK WIN 4 281aa 16 0 0 0 0 0 0 1 $T2 $esp .cbLocals + .cbSavedRegs + = $T0 .raSearchStart = $eip $T0 ^ = $esp $T0 4 + =
STACK WIN 4 281c0 14 0 0 4 0 0 0 1 $T2 $esp .cbLocals + .cbSavedRegs + = $T0 .raSearchStart = $eip $T0 ^ = $esp $T0 4 + =
STACK WIN 4 281d4 16 0 0 4 0 0 0 1 $T2 $esp .cbLocals + .cbSavedRegs + = $T0 .raSearchStart = $eip $T0 ^ = $esp $T0 4 + =
STACK WIN 4 281ea 4d 6 0 4 0 0 0 1 $T2 $esp .cbLocals + .cbSavedRegs + = $T0 .raSearchStart = $eip $T0 ^ = $esp $T0 4 + =
STACK WIN 4 281f0 46 0 0 4 4 0 0 1 $T2 $esp .cbLocals + .cbSavedRegs + = $T0 .raSearchStart = $eip $T0 ^ = $esp $T0 4 + =
STACK WIN 4 28237 14 0 0 0 0 0 0 1 $T2 $esp .cbLocals + .cbSavedRegs + = $T0 .raSearchStart = $eip $T0 ^ = $esp $T0 4 + =
STACK WIN 4 2824b 20 1 0 4 0 0 0 1 $T2 $esp .cbLocals + .cbSavedRegs + = $T0 .raSearchStart = $eip $T0 ^ = $esp $T0 4 + =
STACK WIN 4 2824c 1e 0 0 4 4 0 0 1 $T2 $esp .cbLocals + .cbSavedRegs + = $T0 .raSearchStart = $eip $T0 ^ = $esp $T0 4 + =
STACK WIN 4 2826b 6f 6 0 8 0 0 0 1 $T2 $esp .cbLocals + .cbSavedRegs + = $T0 .raSearchStart = $eip $T0 ^ = $esp $T0 4 + =
STACK WIN 4 2826c 6d 5 0 8 4 0 0 1 $T2 $esp .cbLocals + .cbSavedRegs + = $T0 .raSearchStart = $eip $T0 ^ = $esp $T0 4 + =
STACK WIN 4 28271 67 0 0 8 8 0 0 1 $T2 $esp .cbLocals + .cbSavedRegs + = $T0 .raSearchStart = $eip $T0 ^ = $esp $T0 4 + =
STACK WIN 4 282da c 0 0 0 0 0 0 1 $T2 $esp .cbLocals + .cbSavedRegs + = $T0 .raSearchStart = $eip $T0 ^ = $esp $T0 4 + =
STACK WIN 4 282e6 1ed 7 0 4 0 18 0 1 $T0 $ebp = $eip $T0 4 + ^ = $ebp $T0 ^ = $esp $T0 8 + = $L $T0 .cbSavedRegs - = $P $T0 8 + .cbParams + =
STACK WIN 4 282ed 19b 0 0 4 4 18 0 1 $T0 $ebp = $eip $T0 4 + ^ = $ebp $T0 ^ = $esp $T0 8 + = $L $T0 .cbSavedRegs - = $P $T0 8 + .cbParams + = $ebx $T0 28 - ^ =
STACK WIN 4 28314 173 0 0 4 8 18 0 1 $T0 $ebp = $eip $T0 4 + ^ = $ebp $T0 ^ = $esp $T0 8 + = $L $T0 .cbSavedRegs - = $P $T0 8 + .cbParams + = $ebx $T0 28 - ^ =
STACK WIN 4 28318 16e 0 0 4 c 18 0 1 $T0 $ebp = $eip $T0 4 + ^ = $ebp $T0 ^ = $esp $T0 8 + = $L $T0 .cbSavedRegs - = $P $T0 8 + .cbParams + = $ebx $T0 28 - ^ =
STACK WIN 4 284d3 16a 12 0 c 0 10 0 1 $T0 $ebp = $eip $T0 4 + ^ = $ebp $T0 ^ = $esp $T0 8 + = $L $T0 .cbSavedRegs - = $P $T0 8 + .cbParams + =
STACK WIN 4 284e5 156 0 0 c 4 10 0 1 $T0 $ebp = $eip $T0 4 + ^ = $ebp $T0 ^ = $esp $T0 8 + = $L $T0 .cbSavedRegs - = $P $T0 8 + .cbParams + =
STACK WIN 4 28502 138 0 0 c 8 10 0 1 $T0 $ebp = $eip $T0 4 + ^ = $ebp $T0 ^ = $esp $T0 8 + = $L $T0 .cbSavedRegs - = $P $T0 8 + .cbParams + = $ebx $T0 24 - ^ =
STACK WIN 4 28509 130 0 0 c c 10 0 1 $T0 $ebp = $eip $T0 4 + ^ = $ebp $T0 ^ = $esp $T0 8 + = $L $T0 .cbSavedRegs - = $P $T0 8 + .cbParams + = $ebx $T0 24 - ^ =
STACK WIN 4 2863d 113 8 0 c 0 8 0 1 $T0 $ebp = $eip $T0 4 + ^ = $ebp $T0 ^ = $esp $T0 8 + = $L $T0 .cbSavedRegs - = $P $T0 8 + .cbParams + =
STACK WIN 4 28643 10b 2 0 c 4 8 0 1 $T0 $ebp = $eip $T0 4 + ^ = $ebp $T0 ^ = $esp $T0 8 + = $L $T0 .cbSavedRegs - = $P $T0 8 + .cbParams + = $ebx $T0 12 - ^ =
STACK WIN 4 28644 109 1 0 c 8 8 0 1 $T0 $ebp = $eip $T0 4 + ^ = $ebp $T0 ^ = $esp $T0 8 + = $L $T0 .cbSavedRegs - = $P $T0 8 + .cbParams + = $ebx $T0 12 - ^ =
STACK WIN 4 28645 107 0 0 c c 8 0 1 $T0 $ebp = $eip $T0 4 + ^ = $ebp $T0 ^ = $esp $T0 8 + = $L $T0 .cbSavedRegs - = $P $T0 8 + .cbParams + = $ebx $T0 12 - ^ =
STACK WIN 4 28750 7d 8 0 4 0 0 0 1 $T0 $ebp = $eip $T0 4 + ^ = $ebp $T0 ^ = $esp $T0 8 + = $L $T0 .cbSavedRegs - = $P $T0 8 + .cbParams + =
STACK WIN 4 28754 77 4 0 4 4 0 0 1 $T0 $ebp = $eip $T0 4 + ^ = $ebp $T0 ^ = $esp $T0 8 + = $L $T0 .cbSavedRegs - = $P $T0 8 + .cbParams + =
STACK WIN 4 28758 72 0 0 4 8 0 0 1 $T0 $ebp = $eip $T0 4 + ^ = $ebp $T0 ^ = $esp $T0 8 + = $L $T0 .cbSavedRegs - = $P $T0 8 + .cbParams + =
STACK WIN 4 287cd 57 6 0 4 0 0 0 1 $T2 $esp .cbLocals + .cbSavedRegs + = $T0 .raSearchStart = $eip $T0 ^ = $esp $T0 4 + =
STACK WIN 4 287d3 50 0 0 4 4 0 0 1 $T2 $esp .cbLocals + .cbSavedRegs + = $T0 .raSearchStart = $eip $T0 ^ = $esp $T0 4 + =
STACK WIN 4 287ff 15 0 0 4 8 0 0 1 $T2 $esp .cbLocals + .cbSavedRegs + = $T0 .raSearchStart = $eip $T0 ^ = $esp $T0 4 + =
STACK WIN 4 28824 74 b 0 4 0 1c 0 1 $T0 $ebp = $eip $T0 4 + ^ = $ebp $T0 ^ = $esp $T0 8 + = $L $T0 .cbSavedRegs - = $P $T0 8 + .cbParams + =
STACK WIN 4 2882f 67 0 0 4 4 1c 0 1 $T0 $ebp = $eip $T0 4 + ^ = $ebp $T0 ^ = $esp $T0 8 + = $L $T0 .cbSavedRegs - = $P $T0 8 + .cbParams + =
STACK WIN 4 28898 45 6 0 4 0 0 0 1 $T2 $esp .cbLocals + .cbSavedRegs + = $T0 .raSearchStart = $eip $T0 ^ = $esp $T0 4 + =
STACK WIN 4 28899 43 5 0 4 4 0 0 1 $T2 $esp .cbLocals + .cbSavedRegs + = $T0 .raSearchStart = $eip $T0 ^ = $esp $T0 4 + =
STACK WIN 4 2889e 3d 0 0 4 8 0 0 1 $T2 $esp .cbLocals + .cbSavedRegs + = $T0 .raSearchStart = $eip $T0 ^ = $esp $T0 4 + =
STACK WIN 4 288dd 14b c 0 4 0 18 0 1 $T0 $ebp = $eip $T0 4 + ^ = $ebp $T0 ^ = $esp $T0 8 + = $L $T0 .cbSavedRegs - = $P $T0 8 + .cbParams + =
STACK WIN 4 288e9 13d 0 0 4 4 18 0 1 $T0 $ebp = $eip $T0 4 + ^ = $ebp $T0 ^ = $esp $T0 8 + = $L $T0 .cbSavedRegs - = $P $T0 8 + .cbParams + = $ebx $T0 28 - ^ =
STACK WIN 4 28920 e8 0 0 4 8 18 0 1 $T0 $ebp = $eip $T0 4 + ^ = $ebp $T0 ^ = $esp $T0 8 + = $L $T0 .cbSavedRegs - = $P $T0 8 + .cbParams + = $ebx $T0 28 - ^ =
STACK WIN 4 28921 e6 0 0 4 c 18 0 1 $T0 $ebp = $eip $T0 4 + ^ = $ebp $T0 ^ = $esp $T0 8 + = $L $T0 .cbSavedRegs - = $P $T0 8 + .cbParams + = $ebx $T0 28 - ^ =
STACK WIN 4 28a28 60 1 0 8 0 0 0 1 $T2 $esp .cbLocals + .cbSavedRegs + = $T0 .raSearchStart = $eip $T0 ^ = $esp $T0 4 + =
STACK WIN 4 28a29 5e 0 0 8 4 0 0 1 $T2 $esp .cbLocals + .cbSavedRegs + = $T0 .raSearchStart = $eip $T0 ^ = $esp $T0 4 + =
STACK WIN 4 28a88 2f 1 0 4 0 0 0 1 $T2 $esp .cbLocals + .cbSavedRegs + = $T0 .raSearchStart = $eip $T0 ^ = $esp $T0 4 + =
STACK WIN 4 28a89 2d 0 0 4 4 0 0 1 $T2 $esp .cbLocals + .cbSavedRegs + = $T0 .raSearchStart = $eip $T0 ^ = $esp $T0 4 + =
STACK WIN 4 28ab7 11 0 0 4 0 0 0 1 $T2 $esp .cbLocals + .cbSavedRegs + = $T0 .raSearchStart = $eip $T0 ^ = $esp $T0 4 + =
STACK WIN 4 28ac8 96 6 0 4 0 0 0 1 $T2 $esp .cbLocals + .cbSavedRegs + = $T0 .raSearchStart = $eip $T0 ^ = $esp $T0 4 + =
STACK WIN 4 28ace 8f 0 0 4 4 0 0 1 $T2 $esp .cbLocals + .cbSavedRegs + = $T0 .raSearchStart = $eip $T0 ^ = $esp $T0 4 + =
STACK WIN 4 28ae4 76 0 0 4 8 0 0 1 $T2 $esp .cbLocals + .cbSavedRegs + = $T0 .raSearchStart = $eip $T0 ^ = $esp $T0 4 + =
STACK WIN 4 28b5e 65 6 0 4 0 0 0 1 $T2 $esp .cbLocals + .cbSavedRegs + = $T0 .raSearchStart = $eip $T0 ^ = $esp $T0 4 + =
STACK WIN 4 28b64 5e 0 0 4 4 0 0 1 $T2 $esp .cbLocals + .cbSavedRegs + = $T0 .raSearchStart = $eip $T0 ^ = $esp $T0 4 + =
STACK WIN 4 28bc3 56 1 0 4 0 0 0 1 $T2 $esp .cbLocals + .cbSavedRegs + = $T0 .raSearchStart = $eip $T0 ^ = $esp $T0 4 + =
STACK WIN 4 28bc4 54 0 0 4 4 0 0 1 $T2 $esp .cbLocals + .cbSavedRegs + = $T0 .raSearchStart = $eip $T0 ^ = $esp $T0 4 + =
STACK WIN 4 28c19 82 6 0 4 0 0 0 1 $T2 $esp .cbLocals + .cbSavedRegs + = $T0 .raSearchStart = $eip $T0 ^ = $esp $T0 4 + =
STACK WIN 4 28c1a 80 5 0 4 4 0 0 1 $T2 $esp .cbLocals + .cbSavedRegs + = $T0 .raSearchStart = $eip $T0 ^ = $esp $T0 4 + =
STACK WIN 4 28c1f 7a 0 0 4 8 0 0 1 $T2 $esp .cbLocals + .cbSavedRegs + = $T0 .raSearchStart = $eip $T0 ^ = $esp $T0 4 + =
STACK WIN 4 28c5b 3d 0 0 4 c 0 0 1 $T2 $esp .cbLocals + .cbSavedRegs + = $T0 .raSearchStart = $eip $T0 ^ = $esp $T0 4 + = $ebx $T0 12 - ^ =
STACK WIN 4 28c9b 26 b 0 4 0 0 0 1 $T2 $esp .cbLocals + .cbSavedRegs + = $T0 .raSearchStart = $eip $T0 ^ = $esp $T0 4 + =
STACK WIN 4 28c9c 24 a 0 4 4 0 0 1 $T2 $esp .cbLocals + .cbSavedRegs + = $T0 .raSearchStart = $eip $T0 ^ = $esp $T0 4 + =
STACK WIN 4 28ca6 19 0 0 4 8 0 0 1 $T2 $esp .cbLocals + .cbSavedRegs + = $T0 .raSearchStart = $eip $T0 ^ = $esp $T0 4 + =
STACK WIN 4 28cc1 12 0 0 4 0 0 0 1 $T2 $esp .cbLocals + .cbSavedRegs + = $T0 .raSearchStart = $eip $T0 ^ = $esp $T0 4 + =
STACK WIN 4 28cd3 ac 6 0 0 0 0 0 1 $T2 $esp .cbLocals + .cbSavedRegs + = $T0 .raSearchStart = $eip $T0 ^ = $esp $T0 4 + =
STACK WIN 4 28cd9 92 0 0 0 4 0 0 1 $T2 $esp .cbLocals + .cbSavedRegs + = $T0 .raSearchStart = $eip $T0 ^ = $esp $T0 4 + =
STACK WIN 4 28d7f 51 8 0 4 0 0 0 1 $T2 $esp .cbLocals + .cbSavedRegs + = $T0 .raSearchStart = $eip $T0 ^ = $esp $T0 4 + =
STACK WIN 4 28d87 48 0 0 4 4 0 0 1 $T2 $esp .cbLocals + .cbSavedRegs + = $T0 .raSearchStart = $eip $T0 ^ = $esp $T0 4 + =
STACK WIN 4 28dd0 2e 1 0 8 0 0 0 1 $T2 $esp .cbLocals + .cbSavedRegs + = $T0 .raSearchStart = $eip $T0 ^ = $esp $T0 4 + =
STACK WIN 4 28dd1 2c 0 0 8 4 0 0 1 $T2 $esp .cbLocals + .cbSavedRegs + = $T0 .raSearchStart = $eip $T0 ^ = $esp $T0 4 + =
STACK WIN 4 28de4 18 0 0 8 8 0 0 1 $T2 $esp .cbLocals + .cbSavedRegs + = $T0 .raSearchStart = $eip $T0 ^ = $esp $T0 4 + =
STACK WIN 4 28dfe 12f f 0 10 0 8 0 1 $T0 $ebp = $eip $T0 4 + ^ = $ebp $T0 ^ = $esp $T0 8 + = $L $T0 .cbSavedRegs - = $P $T0 8 + .cbParams + =
STACK WIN 4 28e0d 11e 0 0 10 4 8 0 1 $T0 $ebp = $eip $T0 4 + ^ = $ebp $T0 ^ = $esp $T0 8 + = $L $T0 .cbSavedRegs - = $P $T0 8 + .cbParams + =
STACK WIN 4 28e27 103 0 0 10 8 8 0 1 $T0 $ebp = $eip $T0 4 + ^ = $ebp $T0 ^ = $esp $T0 8 + = $L $T0 .cbSavedRegs - = $P $T0 8 + .cbParams + = $ebx $T0 16 - ^ =
STACK WIN 4 28e2b fe 0 0 10 c 8 0 1 $T0 $ebp = $eip $T0 4 + ^ = $ebp $T0 ^ = $esp $T0 8 + = $L $T0 .cbSavedRegs - = $P $T0 8 + .cbParams + = $ebx $T0 16 - ^ =
STACK WIN 4 28f2d 15 0 0 8 0 0 0 1 $T2 $esp .cbLocals + .cbSavedRegs + = $T0 .raSearchStart = $eip $T0 ^ = $esp $T0 4 + =
STACK WIN 4 28f42 57 1 0 4 0 0 0 1 $T2 $esp .cbLocals + .cbSavedRegs + = $T0 .raSearchStart = $eip $T0 ^ = $esp $T0 4 + =
STACK WIN 4 28f43 55 0 0 4 4 0 0 1 $T2 $esp .cbLocals + .cbSavedRegs + = $T0 .raSearchStart = $eip $T0 ^ = $esp $T0 4 + =
STACK WIN 4 28f99 115 8 0 18 0 c 0 1 $T0 $ebp = $eip $T0 4 + ^ = $ebp $T0 ^ = $esp $T0 8 + = $L $T0 .cbSavedRegs - = $P $T0 8 + .cbParams + =
STACK WIN 4 28fa0 10c 1 0 18 4 c 0 1 $T0 $ebp = $eip $T0 4 + ^ = $ebp $T0 ^ = $esp $T0 8 + = $L $T0 .cbSavedRegs - = $P $T0 8 + .cbParams + = $ebx $T0 16 - ^ =
STACK WIN 4 28fa1 108 0 0 18 8 c 0 1 $T0 $ebp = $eip $T0 4 + ^ = $ebp $T0 ^ = $esp $T0 8 + = $L $T0 .cbSavedRegs - = $P $T0 8 + .cbParams + = $ebx $T0 16 - ^ =
STACK WIN 4 28fc9 df 0 0 18 c c 0 1 $T0 $ebp = $eip $T0 4 + ^ = $ebp $T0 ^ = $esp $T0 8 + = $L $T0 .cbSavedRegs - = $P $T0 8 + .cbParams + = $ebx $T0 16 - ^ =
STACK WIN 4 290ae 1d 0 0 10 0 0 0 1 $T2 $esp .cbLocals + .cbSavedRegs + = $T0 .raSearchStart = $eip $T0 ^ = $esp $T0 4 + =
STACK WIN 4 290cb 6c 8 0 0 0 4 0 1 $T2 $esp .cbLocals + .cbSavedRegs + = $T0 .raSearchStart = $eip $T0 ^ = $esp $T0 4 + =
STACK WIN 4 290d1 60 2 0 0 4 4 0 1 $T2 $esp .cbLocals + .cbSavedRegs + = $T0 .raSearchStart = $eip $T0 ^ = $esp $T0 4 + = $ebp $T0 8 - ^ =
STACK WIN 4 290d2 5e 1 0 0 8 4 0 1 $T2 $esp .cbLocals + .cbSavedRegs + = $T0 .raSearchStart = $eip $T0 ^ = $esp $T0 4 + = $ebp $T0 8 - ^ =
STACK WIN 4 290d3 5c 0 0 0 c 4 0 1 $T2 $esp .cbLocals + .cbSavedRegs + = $T0 .raSearchStart = $eip $T0 ^ = $esp $T0 4 + = $ebp $T0 8 - ^ =
STACK WIN 4 29137 c1 5 0 8 0 4 0 1 $T0 $ebp = $eip $T0 4 + ^ = $ebp $T0 ^ = $esp $T0 8 + = $L $T0 .cbSavedRegs - = $P $T0 8 + .cbParams + =
STACK WIN 4 2913c ba 0 0 8 4 4 0 1 $T0 $ebp = $eip $T0 4 + ^ = $ebp $T0 ^ = $esp $T0 8 + = $L $T0 .cbSavedRegs - = $P $T0 8 + .cbParams + = $ebx $T0 8 - ^ =
STACK WIN 4 2916b 8a 0 0 8 8 4 0 1 $T0 $ebp = $eip $T0 4 + ^ = $ebp $T0 ^ = $esp $T0 8 + = $L $T0 .cbSavedRegs - = $P $T0 8 + .cbParams + = $ebx $T0 8 - ^ =
STACK WIN 4 2918c 68 0 0 8 c 4 0 1 $T0 $ebp = $eip $T0 4 + ^ = $ebp $T0 ^ = $esp $T0 8 + = $L $T0 .cbSavedRegs - = $P $T0 8 + .cbParams + = $ebx $T0 8 - ^ =
STACK WIN 4 291f8 2e 0 0 4 0 0 0 1 $T2 $esp .cbLocals + .cbSavedRegs + = $T0 .raSearchStart = $eip $T0 ^ = $esp $T0 4 + =
STACK WIN 4 29226 1a1 6 0 4 0 4 0 1 $T2 $esp .cbLocals + .cbSavedRegs + = $T0 .raSearchStart = $eip $T0 ^ = $esp $T0 4 + =
STACK WIN 4 2922c 199 0 0 4 4 4 0 1 $T2 $esp .cbLocals + .cbSavedRegs + = $T0 .raSearchStart = $eip $T0 ^ = $esp $T0 4 + = $ebp $T0 8 - ^ =
STACK WIN 4 2925a 16a 0 0 4 8 4 0 1 $T2 $esp .cbLocals + .cbSavedRegs + = $T0 .raSearchStart = $eip $T0 ^ = $esp $T0 4 + = $ebp $T0 8 - ^ =
STACK WIN 4 2925b 168 0 0 4 c 4 0 1 $T2 $esp .cbLocals + .cbSavedRegs + = $T0 .raSearchStart = $eip $T0 ^ = $esp $T0 4 + = $ebp $T0 8 - ^ =
STACK WIN 4 292f5 53 0 0 4 10 4 0 1 $T2 $esp .cbLocals + .cbSavedRegs + = $T0 .raSearchStart = $eip $T0 ^ = $esp $T0 4 + = $ebp $T0 8 - ^ = $ebx $T0 36 - ^ =
STACK WIN 4 293c7 2c 0 0 4 0 0 0 1 $T2 $esp .cbLocals + .cbSavedRegs + = $T0 .raSearchStart = $eip $T0 ^ = $esp $T0 4 + =
STACK WIN 4 293f3 4f 0 0 0 0 0 0 1 $T2 $esp .cbLocals + .cbSavedRegs + = $T0 .raSearchStart = $eip $T0 ^ = $esp $T0 4 + =
STACK WIN 4 29442 1f 0 0 4 0 0 0 1 $T2 $esp .cbLocals + .cbSavedRegs + = $T0 .raSearchStart = $eip $T0 ^ = $esp $T0 4 + =
STACK WIN 4 29461 14d e 0 10 0 c 0 1 $T0 $ebp = $eip $T0 4 + ^ = $ebp $T0 ^ = $esp $T0 8 + = $L $T0 .cbSavedRegs - = $P $T0 8 + .cbParams + =
STACK WIN 4 2946c 140 3 0 10 4 c 0 1 $T0 $ebp = $eip $T0 4 + ^ = $ebp $T0 ^ = $esp $T0 8 + = $L $T0 .cbSavedRegs - = $P $T0 8 + .cbParams + = $ebx $T0 16 - ^ =
STACK WIN 4 29470 13b 0 0 10 8 c 0 1 $T0 $ebp = $eip $T0 4 + ^ = $ebp $T0 ^ = $esp $T0 8 + = $L $T0 .cbSavedRegs - = $P $T0 8 + .cbParams + = $ebx $T0 16 - ^ =
STACK WIN 4 2949f 10b 0 0 10 c c 0 1 $T0 $ebp = $eip $T0 4 + ^ = $ebp $T0 ^ = $esp $T0 8 + = $L $T0 .cbSavedRegs - = $P $T0 8 + .cbParams + = $ebx $T0 16 - ^ =
STACK WIN 4 295ae 74 c 0 4 0 0 0 1 $T2 $esp .cbLocals + .cbSavedRegs + = $T0 .raSearchStart = $eip $T0 ^ = $esp $T0 4 + =
STACK WIN 4 295b3 6e 7 0 4 4 0 0 1 $T2 $esp .cbLocals + .cbSavedRegs + = $T0 .raSearchStart = $eip $T0 ^ = $esp $T0 4 + = $ebx $T0 4 - ^ =
STACK WIN 4 295b8 68 2 0 4 8 0 0 1 $T2 $esp .cbLocals + .cbSavedRegs + = $T0 .raSearchStart = $eip $T0 ^ = $esp $T0 4 + = $ebx $T0 4 - ^ =
STACK WIN 4 29622 25b 2e 0 4 0 1d4 0 1 $T0 $ebp 344 + = $eip $T0 4 + ^ = $ebp $T0 ^ = $esp $T0 8 + = $L $T0 .cbSavedRegs - = $P $T0 8 + .cbParams + =
STACK WIN 4 2964c bb 4 0 4 4 1d4 0 1 $T0 $ebp 344 + = $eip $T0 4 + ^ = $ebp $T0 ^ = $esp $T0 8 + = $L $T0 .cbSavedRegs - = $P $T0 8 + .cbParams + = $ebx $T0 472 - ^ =
STACK WIN 4 2964d b7 3 0 4 8 1d4 0 1 $T0 $ebp 344 + = $eip $T0 4 + ^ = $ebp $T0 ^ = $esp $T0 8 + = $L $T0 .cbSavedRegs - = $P $T0 8 + .cbParams + = $ebx $T0 472 - ^ =
STACK WIN 4 29650 b3 0 0 4 c 1d4 0 1 $T0 $ebp 344 + = $eip $T0 4 + ^ = $ebp $T0 ^ = $esp $T0 8 + = $L $T0 .cbSavedRegs - = $P $T0 8 + .cbParams + = $ebx $T0 472 - ^ =
STACK WIN 4 2987d ca d 0 4 0 8 0 1 $T0 $ebp = $eip $T0 4 + ^ = $ebp $T0 ^ = $esp $T0 8 + = $L $T0 .cbSavedRegs - = $P $T0 8 + .cbParams + =
STACK WIN 4 29883 c2 7 0 4 4 8 0 1 $T0 $ebp = $eip $T0 4 + ^ = $ebp $T0 ^ = $esp $T0 8 + = $L $T0 .cbSavedRegs - = $P $T0 8 + .cbParams + = $ebx $T0 12 - ^ =
STACK WIN 4 29884 c0 6 0 4 8 8 0 1 $T0 $ebp = $eip $T0 4 + ^ = $ebp $T0 ^ = $esp $T0 8 + = $L $T0 .cbSavedRegs - = $P $T0 8 + .cbParams + = $ebx $T0 12 - ^ =
STACK WIN 4 29885 be 5 0 4 c 8 0 1 $T0 $ebp = $eip $T0 4 + ^ = $ebp $T0 ^ = $esp $T0 8 + = $L $T0 .cbSavedRegs - = $P $T0 8 + .cbParams + = $ebx $T0 12 - ^ =
STACK WIN 4 29947 16 0 0 4 0 0 0 1 $T2 $esp .cbLocals + .cbSavedRegs + = $T0 .raSearchStart = $eip $T0 ^ = $esp $T0 4 + =
STACK WIN 4 2995d 97 b 0 4 0 c 0 1 $T0 $ebp = $eip $T0 4 + ^ = $ebp $T0 ^ = $esp $T0 8 + = $L $T0 .cbSavedRegs - = $P $T0 8 + .cbParams + =
STACK WIN 4 29964 8e 4 0 4 4 c 0 1 $T0 $ebp = $eip $T0 4 + ^ = $ebp $T0 ^ = $esp $T0 8 + = $L $T0 .cbSavedRegs - = $P $T0 8 + .cbParams + = $ebx $T0 16 - ^ =
STACK WIN 4 29968 89 0 0 4 8 c 0 1 $T0 $ebp = $eip $T0 4 + ^ = $ebp $T0 ^ = $esp $T0 8 + = $L $T0 .cbSavedRegs - = $P $T0 8 + .cbParams + = $ebx $T0 16 - ^ =
STACK WIN 4 299f4 109 9 0 4 0 c 0 1 $T0 $ebp = $eip $T0 4 + ^ = $ebp $T0 ^ = $esp $T0 8 + = $L $T0 .cbSavedRegs - = $P $T0 8 + .cbParams + =
STACK WIN 4 29a11 d8 0 0 4 4 c 0 1 $T0 $ebp = $eip $T0 4 + ^ = $ebp $T0 ^ = $esp $T0 8 + = $L $T0 .cbSavedRegs - = $P $T0 8 + .cbParams + =
STACK WIN 4 29afd d7 13 0 c 0 4 0 1 $T0 $ebp = $eip $T0 4 + ^ = $ebp $T0 ^ = $esp $T0 8 + = $L $T0 .cbSavedRegs - = $P $T0 8 + .cbParams + =
STACK WIN 4 29b02 d0 e 0 c 4 4 0 1 $T0 $ebp = $eip $T0 4 + ^ = $ebp $T0 ^ = $esp $T0 8 + = $L $T0 .cbSavedRegs - = $P $T0 8 + .cbParams + = $ebx $T0 8 - ^ =
STACK WIN 4 29b06 cb a 0 c 8 4 0 1 $T0 $ebp = $eip $T0 4 + ^ = $ebp $T0 ^ = $esp $T0 8 + = $L $T0 .cbSavedRegs - = $P $T0 8 + .cbParams + = $ebx $T0 8 - ^ =
STACK WIN 4 29b07 c9 9 0 c c 4 0 1 $T0 $ebp = $eip $T0 4 + ^ = $ebp $T0 ^ = $esp $T0 8 + = $L $T0 .cbSavedRegs - = $P $T0 8 + .cbParams + = $ebx $T0 8 - ^ =
STACK WIN 4 29bd4 25 4 0 10 0 4 0 1 $T0 $ebp = $eip $T0 4 + ^ = $ebp $T0 ^ = $esp $T0 8 + = $L $T0 .cbSavedRegs - = $P $T0 8 + .cbParams + =
STACK WIN 4 29bf9 305 c 0 4 0 c 0 1 $T2 $esp .cbLocals + .cbSavedRegs + = $T0 .raSearchStart = $eip $T0 ^ = $esp $T0 4 + =
STACK WIN 4 29c04 2f6 1 0 4 4 c 0 1 $T2 $esp .cbLocals + .cbSavedRegs + = $T0 .raSearchStart = $eip $T0 ^ = $esp $T0 4 + = $ebx $T0 16 - ^ =
STACK WIN 4 29c05 2f4 0 0 4 8 c 0 1 $T2 $esp .cbLocals + .cbSavedRegs + = $T0 .raSearchStart = $eip $T0 ^ = $esp $T0 4 + = $ebx $T0 16 - ^ =
STACK WIN 4 29c31 2c7 0 0 4 c c 0 1 $T2 $esp .cbLocals + .cbSavedRegs + = $T0 .raSearchStart = $eip $T0 ^ = $esp $T0 4 + = $ebx $T0 16 - ^ =
STACK WIN 4 29c6f 286 0 0 4 10 c 0 1 $T2 $esp .cbLocals + .cbSavedRegs + = $T0 .raSearchStart = $eip $T0 ^ = $esp $T0 4 + = $ebp $T0 28 - ^ = $ebx $T0 16 - ^ =
STACK WIN 4 29efe 82 8 0 0 0 4 0 1 $T0 $ebp = $eip $T0 4 + ^ = $ebp $T0 ^ = $esp $T0 8 + = $L $T0 .cbSavedRegs - = $P $T0 8 + .cbParams + =
STACK WIN 4 29f06 78 0 0 0 4 4 0 1 $T0 $ebp = $eip $T0 4 + ^ = $ebp $T0 ^ = $esp $T0 8 + = $L $T0 .cbSavedRegs - = $P $T0 8 + .cbParams + =
STACK WIN 4 29f3a 39 0 0 0 8 4 0 1 $T0 $ebp = $eip $T0 4 + ^ = $ebp $T0 ^ = $esp $T0 8 + = $L $T0 .cbSavedRegs - = $P $T0 8 + .cbParams + = $ebx $T0 12 - ^ =
STACK WIN 4 29f80 360 24 0 8 0 640 0 1 $T0 $ebp 1472 + = $eip $T0 4 + ^ = $ebp $T0 ^ = $esp $T0 8 + = $L $T0 .cbSavedRegs - = $P $T0 8 + .cbParams + =
STACK WIN 4 29fa2 331 2 0 8 4 640 0 1 $T0 $ebp 1472 + = $eip $T0 4 + ^ = $ebp $T0 ^ = $esp $T0 8 + = $L $T0 .cbSavedRegs - = $P $T0 8 + .cbParams + = $ebx $T0 1604 - ^ =
STACK WIN 4 29fa3 32d 1 0 8 8 640 0 1 $T0 $ebp 1472 + = $eip $T0 4 + ^ = $ebp $T0 ^ = $esp $T0 8 + = $L $T0 .cbSavedRegs - = $P $T0 8 + .cbParams + = $ebx $T0 1604 - ^ =
STACK WIN 4 29fa4 32b 0 0 8 c 640 0 1 $T0 $ebp 1472 + = $eip $T0 4 + ^ = $ebp $T0 ^ = $esp $T0 8 + = $L $T0 .cbSavedRegs - = $P $T0 8 + .cbParams + = $ebx $T0 1604 - ^ =
STACK WIN 4 2a2e0 b9 e 0 8 0 14 0 1 $T0 $ebp = $eip $T0 4 + ^ = $ebp $T0 ^ = $esp $T0 8 + = $L $T0 .cbSavedRegs - = $P $T0 8 + .cbParams + =
STACK WIN 4 2a2ea ad 4 0 8 4 14 0 1 $T0 $ebp = $eip $T0 4 + ^ = $ebp $T0 ^ = $esp $T0 8 + = $L $T0 .cbSavedRegs - = $P $T0 8 + .cbParams + = $ebx $T0 24 - ^ =
STACK WIN 4 2a2ee a8 0 0 8 8 14 0 1 $T0 $ebp = $eip $T0 4 + ^ = $ebp $T0 ^ = $esp $T0 8 + = $L $T0 .cbSavedRegs - = $P $T0 8 + .cbParams + = $ebx $T0 24 - ^ =
STACK WIN 4 2a319 7c 0 0 8 c 14 0 1 $T0 $ebp = $eip $T0 4 + ^ = $ebp $T0 ^ = $esp $T0 8 + = $L $T0 .cbSavedRegs - = $P $T0 8 + .cbParams + = $ebx $T0 24 - ^ =
STACK WIN 4 2a399 e 0 0 4 0 0 0 1 $T2 $esp .cbLocals + .cbSavedRegs + = $T0 .raSearchStart = $eip $T0 ^ = $esp $T0 4 + =
STACK WIN 4 2a3a7 51 7 0 4 0 8 0 1 $T0 $ebp = $eip $T0 4 + ^ = $ebp $T0 ^ = $esp $T0 8 + = $L $T0 .cbSavedRegs - = $P $T0 8 + .cbParams + =
STACK WIN 4 2a3ad 49 1 0 4 4 8 0 1 $T0 $ebp = $eip $T0 4 + ^ = $ebp $T0 ^ = $esp $T0 8 + = $L $T0 .cbSavedRegs - = $P $T0 8 + .cbParams + =
STACK WIN 4 2a3ae 47 0 0 4 8 8 0 1 $T0 $ebp = $eip $T0 4 + ^ = $ebp $T0 ^ = $esp $T0 8 + = $L $T0 .cbSavedRegs - = $P $T0 8 + .cbParams + =
STACK WIN 4 2a3f8 7d 4 0 4 0 0 0 1 $T2 $esp .cbLocals + .cbSavedRegs + = $T0 .raSearchStart = $eip $T0 ^ = $esp $T0 4 + =
STACK WIN 4 2a3fc 78 0 0 4 4 0 0 1 $T2 $esp .cbLocals + .cbSavedRegs + = $T0 .raSearchStart = $eip $T0 ^ = $esp $T0 4 + =
STACK WIN 4 2a40c 67 0 0 4 8 0 0 1 $T2 $esp .cbLocals + .cbSavedRegs + = $T0 .raSearchStart = $eip $T0 ^ = $esp $T0 4 + = $ebx $T0 8 - ^ =
STACK WIN 4 2a410 60 0 0 4 c 0 0 1 $T2 $esp .cbLocals + .cbSavedRegs + = $T0 .raSearchStart = $eip $T0 ^ = $esp $T0 4 + = $ebx $T0 8 - ^ =
STACK WIN 4 2a475 53 2 0 8 0 0 0 1 $T2 $esp .cbLocals + .cbSavedRegs + = $T0 .raSearchStart = $eip $T0 ^ = $esp $T0 4 + =
STACK WIN 4 2a476 51 1 0 8 4 0 0 1 $T2 $esp .cbLocals + .cbSavedRegs + = $T0 .raSearchStart = $eip $T0 ^ = $esp $T0 4 + = $ebx $T0 4 - ^ =
STACK WIN 4 2a477 4f 0 0 8 8 0 0 1 $T2 $esp .cbLocals + .cbSavedRegs + = $T0 .raSearchStart = $eip $T0 ^ = $esp $T0 4 + = $ebx $T0 4 - ^ =
STACK WIN 4 2a481 32 0 0 8 c 0 0 1 $T2 $esp .cbLocals + .cbSavedRegs + = $T0 .raSearchStart = $eip $T0 ^ = $esp $T0 4 + = $ebx $T0 4 - ^ =
STACK WIN 4 2a4c8 6e 8 0 8 0 8 0 1 $T0 $ebp = $eip $T0 4 + ^ = $ebp $T0 ^ = $esp $T0 8 + = $L $T0 .cbSavedRegs - = $P $T0 8 + .cbParams + =
STACK WIN 4 2a4ce 66 2 0 8 4 8 0 1 $T0 $ebp = $eip $T0 4 + ^ = $ebp $T0 ^ = $esp $T0 8 + = $L $T0 .cbSavedRegs - = $P $T0 8 + .cbParams + = $ebx $T0 12 - ^ =
STACK WIN 4 2a4e1 50 0 0 8 8 8 0 1 $T0 $ebp = $eip $T0 4 + ^ = $ebp $T0 ^ = $esp $T0 8 + = $L $T0 .cbSavedRegs - = $P $T0 8 + .cbParams + = $ebx $T0 12 - ^ =
STACK WIN 4 2a4fb 25 0 0 8 c 8 0 1 $T0 $ebp = $eip $T0 4 + ^ = $ebp $T0 ^ = $esp $T0 8 + = $L $T0 .cbSavedRegs - = $P $T0 8 + .cbParams + = $ebx $T0 12 - ^ =
STACK WIN 4 2a536 ab 7 0 8 0 4 0 1 $T0 $ebp = $eip $T0 4 + ^ = $ebp $T0 ^ = $esp $T0 8 + = $L $T0 .cbSavedRegs - = $P $T0 8 + .cbParams + =
STACK WIN 4 2a53b a4 2 0 8 4 4 0 1 $T0 $ebp = $eip $T0 4 + ^ = $ebp $T0 ^ = $esp $T0 8 + = $L $T0 .cbSavedRegs - = $P $T0 8 + .cbParams + =
STACK WIN 4 2a55c 80 0 0 8 8 4 0 1 $T0 $ebp = $eip $T0 4 + ^ = $ebp $T0 ^ = $esp $T0 8 + = $L $T0 .cbSavedRegs - = $P $T0 8 + .cbParams + =
STACK WIN 4 2a56d 6e 0 0 8 c 4 0 1 $T0 $ebp = $eip $T0 4 + ^ = $ebp $T0 ^ = $esp $T0 8 + = $L $T0 .cbSavedRegs - = $P $T0 8 + .cbParams + = $ebx $T0 16 - ^ =
STACK WIN 4 2a5e1 176 6 0 4 0 1c 0 1 $T0 $ebp = $eip $T0 4 + ^ = $ebp $T0 ^ = $esp $T0 8 + = $L $T0 .cbSavedRegs - = $P $T0 8 + .cbParams + =
STACK WIN 4 2a600 155 0 0 4 4 1c 0 1 $T0 $ebp = $eip $T0 4 + ^ = $ebp $T0 ^ = $esp $T0 8 + = $L $T0 .cbSavedRegs - = $P $T0 8 + .cbParams + = $ebx $T0 32 - ^ =
STACK WIN 4 2a609 14b 0 0 4 8 1c 0 1 $T0 $ebp = $eip $T0 4 + ^ = $ebp $T0 ^ = $esp $T0 8 + = $L $T0 .cbSavedRegs - = $P $T0 8 + .cbParams + = $ebx $T0 32 - ^ =
STACK WIN 4 2a60a 147 0 0 4 c 1c 0 1 $T0 $ebp = $eip $T0 4 + ^ = $ebp $T0 ^ = $esp $T0 8 + = $L $T0 .cbSavedRegs - = $P $T0 8 + .cbParams + = $ebx $T0 32 - ^ =
STACK WIN 4 2a757 1a 0 0 4 0 0 0 1 $T2 $esp .cbLocals + .cbSavedRegs + = $T0 .raSearchStart = $eip $T0 ^ = $esp $T0 4 + =
STACK WIN 4 2a771 2d 6 0 8 0 0 0 1 $T2 $esp .cbLocals + .cbSavedRegs + = $T0 .raSearchStart = $eip $T0 ^ = $esp $T0 4 + =
STACK WIN 4 2a777 26 0 0 8 4 0 0 1 $T2 $esp .cbLocals + .cbSavedRegs + = $T0 .raSearchStart = $eip $T0 ^ = $esp $T0 4 + =
STACK WIN 4 2a79e 40 6 0 4 0 0 0 1 $T2 $esp .cbLocals + .cbSavedRegs + = $T0 .raSearchStart = $eip $T0 ^ = $esp $T0 4 + =
STACK WIN 4 2a7a3 3a 1 0 4 4 0 0 1 $T2 $esp .cbLocals + .cbSavedRegs + = $T0 .raSearchStart = $eip $T0 ^ = $esp $T0 4 + =
STACK WIN 4 2a7a4 38 0 0 4 8 0 0 1 $T2 $esp .cbLocals + .cbSavedRegs + = $T0 .raSearchStart = $eip $T0 ^ = $esp $T0 4 + =
STACK WIN 4 2a7de 54 6 0 4 0 0 0 1 $T2 $esp .cbLocals + .cbSavedRegs + = $T0 .raSearchStart = $eip $T0 ^ = $esp $T0 4 + =
STACK WIN 4 2a7e3 4e 1 0 4 4 0 0 1 $T2 $esp .cbLocals + .cbSavedRegs + = $T0 .raSearchStart = $eip $T0 ^ = $esp $T0 4 + = $ebp $T0 4 - ^ =
STACK WIN 4 2a7e4 4c 0 0 4 8 0 0 1 $T2 $esp .cbLocals + .cbSavedRegs + = $T0 .raSearchStart = $eip $T0 ^ = $esp $T0 4 + = $ebp $T0 4 - ^ =
STACK WIN 4 2a7ee 31 0 0 4 c 0 0 1 $T2 $esp .cbLocals + .cbSavedRegs + = $T0 .raSearchStart = $eip $T0 ^ = $esp $T0 4 + = $ebp $T0 4 - ^ = $ebx $T0 12 - ^ =
STACK WIN 4 2a7ef 2f 0 0 4 10 0 0 1 $T2 $esp .cbLocals + .cbSavedRegs + = $T0 .raSearchStart = $eip $T0 ^ = $esp $T0 4 + = $ebp $T0 4 - ^ = $ebx $T0 12 - ^ =
STACK WIN 4 2a832 10 0 0 4 0 0 0 1 $T2 $esp .cbLocals + .cbSavedRegs + = $T0 .raSearchStart = $eip $T0 ^ = $esp $T0 4 + =
STACK WIN 4 2a842 10 0 0 4 0 0 0 1 $T2 $esp .cbLocals + .cbSavedRegs + = $T0 .raSearchStart = $eip $T0 ^ = $esp $T0 4 + =
STACK WIN 4 2a852 10 0 0 4 0 0 0 1 $T2 $esp .cbLocals + .cbSavedRegs + = $T0 .raSearchStart = $eip $T0 ^ = $esp $T0 4 + =
STACK WIN 4 2a862 10 0 0 4 0 0 0 1 $T2 $esp .cbLocals + .cbSavedRegs + = $T0 .raSearchStart = $eip $T0 ^ = $esp $T0 4 + =
STACK WIN 4 2a872 10 0 0 4 0 0 0 1 $T2 $esp .cbLocals + .cbSavedRegs + = $T0 .raSearchStart = $eip $T0 ^ = $esp $T0 4 + =
STACK WIN 4 2a882 10 0 0 4 0 0 0 1 $T2 $esp .cbLocals + .cbSavedRegs + = $T0 .raSearchStart = $eip $T0 ^ = $esp $T0 4 + =
STACK WIN 4 2a892 10 0 0 4 0 0 0 1 $T2 $esp .cbLocals + .cbSavedRegs + = $T0 .raSearchStart = $eip $T0 ^ = $esp $T0 4 + =
STACK WIN 4 2a8a2 6 0 0 8 0 0 0 1 $T2 $esp .cbLocals + .cbSavedRegs + = $T0 .raSearchStart = $eip $T0 ^ = $esp $T0 4 + =
STACK WIN 4 2a8a8 6 0 0 8 0 0 0 1 $T2 $esp .cbLocals + .cbSavedRegs + = $T0 .raSearchStart = $eip $T0 ^ = $esp $T0 4 + =
STACK WIN 4 2a8ae 6 0 0 8 0 0 0 1 $T2 $esp .cbLocals + .cbSavedRegs + = $T0 .raSearchStart = $eip $T0 ^ = $esp $T0 4 + =
STACK WIN 4 2a8b4 6 0 0 8 0 0 0 1 $T2 $esp .cbLocals + .cbSavedRegs + = $T0 .raSearchStart = $eip $T0 ^ = $esp $T0 4 + =
STACK WIN 4 2a8ba 65 e 0 10 0 0 0 1 $T2 $esp .cbLocals + .cbSavedRegs + = $T0 .raSearchStart = $eip $T0 ^ = $esp $T0 4 + =
STACK WIN 4 2a8bb 63 d 0 10 4 0 0 1 $T2 $esp .cbLocals + .cbSavedRegs + = $T0 .raSearchStart = $eip $T0 ^ = $esp $T0 4 + = $ebx $T0 4 - ^ =
STACK WIN 4 2a8c0 5d 8 0 10 8 0 0 1 $T2 $esp .cbLocals + .cbSavedRegs + = $T0 .raSearchStart = $eip $T0 ^ = $esp $T0 4 + = $ebx $T0 4 - ^ =
STACK WIN 4 2a8c8 54 0 0 10 c 0 0 1 $T2 $esp .cbLocals + .cbSavedRegs + = $T0 .raSearchStart = $eip $T0 ^ = $esp $T0 4 + = $ebx $T0 4 - ^ =
STACK WIN 4 2a91f a9 7 0 8 0 30 0 1 $T0 $ebp = $eip $T0 4 + ^ = $ebp $T0 ^ = $esp $T0 8 + = $L $T0 .cbSavedRegs - = $P $T0 8 + .cbParams + =
STACK WIN 4 2a926 a0 0 0 8 4 30 0 1 $T0 $ebp = $eip $T0 4 + ^ = $ebp $T0 ^ = $esp $T0 8 + = $L $T0 .cbSavedRegs - = $P $T0 8 + .cbParams + = $ebx $T0 52 - ^ =
STACK WIN 4 2a940 85 0 0 8 8 30 0 1 $T0 $ebp = $eip $T0 4 + ^ = $ebp $T0 ^ = $esp $T0 8 + = $L $T0 .cbSavedRegs - = $P $T0 8 + .cbParams + = $ebx $T0 52 - ^ =
STACK WIN 4 2a941 83 0 0 8 c 30 0 1 $T0 $ebp = $eip $T0 4 + ^ = $ebp $T0 ^ = $esp $T0 8 + = $L $T0 .cbSavedRegs - = $P $T0 8 + .cbParams + = $ebx $T0 52 - ^ =
STACK WIN 4 2a9c8 a9 7 0 8 0 30 0 1 $T0 $ebp = $eip $T0 4 + ^ = $ebp $T0 ^ = $esp $T0 8 + = $L $T0 .cbSavedRegs - = $P $T0 8 + .cbParams + =
STACK WIN 4 2a9cf a0 0 0 8 4 30 0 1 $T0 $ebp = $eip $T0 4 + ^ = $ebp $T0 ^ = $esp $T0 8 + = $L $T0 .cbSavedRegs - = $P $T0 8 + .cbParams + = $ebx $T0 52 - ^ =
STACK WIN 4 2a9e9 85 0 0 8 8 30 0 1 $T0 $ebp = $eip $T0 4 + ^ = $ebp $T0 ^ = $esp $T0 8 + = $L $T0 .cbSavedRegs - = $P $T0 8 + .cbParams + = $ebx $T0 52 - ^ =
STACK WIN 4 2a9ea 83 0 0 8 c 30 0 1 $T0 $ebp = $eip $T0 4 + ^ = $ebp $T0 ^ = $esp $T0 8 + = $L $T0 .cbSavedRegs - = $P $T0 8 + .cbParams + = $ebx $T0 52 - ^ =
STACK WIN 4 2aa71 7a 6 0 0 0 c 0 1 $T0 $ebp = $eip $T0 4 + ^ = $ebp $T0 ^ = $esp $T0 8 + = $L $T0 .cbSavedRegs - = $P $T0 8 + .cbParams + =
STACK WIN 4 2aaeb 31 1 0 4 0 0 0 1 $T2 $esp .cbLocals + .cbSavedRegs + = $T0 .raSearchStart = $eip $T0 ^ = $esp $T0 4 + =
STACK WIN 4 2aaec 2f 0 0 4 4 0 0 1 $T2 $esp .cbLocals + .cbSavedRegs + = $T0 .raSearchStart = $eip $T0 ^ = $esp $T0 4 + =
STACK WIN 4 2aaf4 24 0 0 4 8 0 0 1 $T2 $esp .cbLocals + .cbSavedRegs + = $T0 .raSearchStart = $eip $T0 ^ = $esp $T0 4 + =
STACK WIN 4 2ab1c ab 7 0 4 0 c 0 1 $T0 $ebp = $eip $T0 4 + ^ = $ebp $T0 ^ = $esp $T0 8 + = $L $T0 .cbSavedRegs - = $P $T0 8 + .cbParams + =
STACK WIN 4 2ab23 9e 0 0 4 4 c 0 1 $T0 $ebp = $eip $T0 4 + ^ = $ebp $T0 ^ = $esp $T0 8 + = $L $T0 .cbSavedRegs - = $P $T0 8 + .cbParams + =
STACK WIN 4 2abc7 da 9 0 0 0 c 0 1 $T0 $ebp = $eip $T0 4 + ^ = $ebp $T0 ^ = $esp $T0 8 + = $L $T0 .cbSavedRegs - = $P $T0 8 + .cbParams + =
STACK WIN 4 2abce d1 2 0 0 4 c 0 1 $T0 $ebp = $eip $T0 4 + ^ = $ebp $T0 ^ = $esp $T0 8 + = $L $T0 .cbSavedRegs - = $P $T0 8 + .cbParams + =
STACK WIN 4 2ac26 1f 0 0 0 8 c 0 1 $T0 $ebp = $eip $T0 4 + ^ = $ebp $T0 ^ = $esp $T0 8 + = $L $T0 .cbSavedRegs - = $P $T0 8 + .cbParams + =
STACK WIN 4 2aca1 6 0 0 0 0 0 0 1 $T2 $esp .cbLocals + .cbSavedRegs + = $T0 .raSearchStart = $eip $T0 ^ = $esp $T0 4 + =
STACK WIN 4 2aca7 14 0 0 4 0 0 0 1 $T2 $esp .cbLocals + .cbSavedRegs + = $T0 .raSearchStart = $eip $T0 ^ = $esp $T0 4 + =
STACK WIN 4 2acbb 54 4 0 c 0 0 0 1 $T0 $ebp = $eip $T0 4 + ^ = $ebp $T0 ^ = $esp $T0 8 + = $L $T0 .cbSavedRegs - = $P $T0 8 + .cbParams + =
STACK WIN 4 2acbf 4e 0 0 c 4 0 0 1 $T0 $ebp = $eip $T0 4 + ^ = $ebp $T0 ^ = $esp $T0 8 + = $L $T0 .cbSavedRegs - = $P $T0 8 + .cbParams + =
STACK WIN 4 2ad0f 9f 9 0 10 0 10 0 1 $T0 $ebp = $eip $T0 4 + ^ = $ebp $T0 ^ = $esp $T0 8 + = $L $T0 .cbSavedRegs - = $P $T0 8 + .cbParams + =
STACK WIN 4 2ad5f 4d 0 0 10 4 10 0 1 $T0 $ebp = $eip $T0 4 + ^ = $ebp $T0 ^ = $esp $T0 8 + = $L $T0 .cbSavedRegs - = $P $T0 8 + .cbParams + =
STACK WIN 4 2adae 46 1 0 c 0 0 0 1 $T2 $esp .cbLocals + .cbSavedRegs + = $T0 .raSearchStart = $eip $T0 ^ = $esp $T0 4 + =
STACK WIN 4 2adaf 44 0 0 c 4 0 0 1 $T2 $esp .cbLocals + .cbSavedRegs + = $T0 .raSearchStart = $eip $T0 ^ = $esp $T0 4 + =
STACK WIN 4 2adf4 4f 6 0 8 0 20 0 1 $T0 $ebp = $eip $T0 4 + ^ = $ebp $T0 ^ = $esp $T0 8 + = $L $T0 .cbSavedRegs - = $P $T0 8 + .cbParams + =
STACK WIN 4 2ae43 f0 3 0 10 0 0 0 1 $T0 $ebp = $eip $T0 4 + ^ = $ebp $T0 ^ = $esp $T0 8 + = $L $T0 .cbSavedRegs - = $P $T0 8 + .cbParams + =
STACK WIN 4 2af33 96 1 0 8 0 0 0 1 $T2 $esp .cbLocals + .cbSavedRegs + = $T0 .raSearchStart = $eip $T0 ^ = $esp $T0 4 + =
STACK WIN 4 2af34 5e 0 0 8 4 0 0 1 $T2 $esp .cbLocals + .cbSavedRegs + = $T0 .raSearchStart = $eip $T0 ^ = $esp $T0 4 + =
STACK WIN 4 2af4d 44 0 0 8 8 0 0 1 $T2 $esp .cbLocals + .cbSavedRegs + = $T0 .raSearchStart = $eip $T0 ^ = $esp $T0 4 + =
STACK WIN 4 2afc9 1b 1 0 4 0 0 0 1 $T2 $esp .cbLocals + .cbSavedRegs + = $T0 .raSearchStart = $eip $T0 ^ = $esp $T0 4 + =
STACK WIN 4 2afca 19 0 0 4 4 0 0 1 $T2 $esp .cbLocals + .cbSavedRegs + = $T0 .raSearchStart = $eip $T0 ^ = $esp $T0 4 + =
STACK WIN 4 2afe4 a 0 0 4 0 0 0 1 $T2 $esp .cbLocals + .cbSavedRegs + = $T0 .raSearchStart = $eip $T0 ^ = $esp $T0 4 + =
STACK WIN 4 2afee 6 0 0 0 0 0 0 1 $T2 $esp .cbLocals + .cbSavedRegs + = $T0 .raSearchStart = $eip $T0 ^ = $esp $T0 4 + =
STACK WIN 4 2aff4 76 9 0 8 0 0 0 1 $T2 $esp .cbLocals + .cbSavedRegs + = $T0 .raSearchStart = $eip $T0 ^ = $esp $T0 4 + =
STACK WIN 4 2aff5 74 8 0 8 4 0 0 1 $T2 $esp .cbLocals + .cbSavedRegs + = $T0 .raSearchStart = $eip $T0 ^ = $esp $T0 4 + = $ebx $T0 4 - ^ =
STACK WIN 4 2aff6 72 7 0 8 8 0 0 1 $T2 $esp .cbLocals + .cbSavedRegs + = $T0 .raSearchStart = $eip $T0 ^ = $esp $T0 4 + = $ebp $T0 8 - ^ = $ebx $T0 4 - ^ =
STACK WIN 4 2affd 6a 0 0 8 c 0 0 1 $T2 $esp .cbLocals + .cbSavedRegs + = $T0 .raSearchStart = $eip $T0 ^ = $esp $T0 4 + = $ebp $T0 8 - ^ = $ebx $T0 4 - ^ =
STACK WIN 4 2b022 34 0 0 8 10 0 0 1 $T2 $esp .cbLocals + .cbSavedRegs + = $T0 .raSearchStart = $eip $T0 ^ = $esp $T0 4 + = $ebp $T0 8 - ^ = $ebx $T0 4 - ^ =
STACK WIN 4 2b06a 107 4 0 8 0 4 0 1 $T0 $ebp = $eip $T0 4 + ^ = $ebp $T0 ^ = $esp $T0 8 + = $L $T0 .cbSavedRegs - = $P $T0 8 + .cbParams + =
STACK WIN 4 2b091 de 0 0 8 4 4 0 1 $T0 $ebp = $eip $T0 4 + ^ = $ebp $T0 ^ = $esp $T0 8 + = $L $T0 .cbSavedRegs - = $P $T0 8 + .cbParams + = $ebx $T0 8 - ^ =
STACK WIN 4 2b092 dc 0 0 8 8 4 0 1 $T0 $ebp = $eip $T0 4 + ^ = $ebp $T0 ^ = $esp $T0 8 + = $L $T0 .cbSavedRegs - = $P $T0 8 + .cbParams + = $ebx $T0 8 - ^ =
STACK WIN 4 2b093 da 0 0 8 c 4 0 1 $T0 $ebp = $eip $T0 4 + ^ = $ebp $T0 ^ = $esp $T0 8 + = $L $T0 .cbSavedRegs - = $P $T0 8 + .cbParams + = $ebx $T0 8 - ^ =
STACK WIN 4 2b171 251 1b 0 8 0 e0 0 1 $T0 $ebp 112 + = $eip $T0 4 + ^ = $ebp $T0 ^ = $esp $T0 8 + = $L $T0 .cbSavedRegs - = $P $T0 8 + .cbParams + =
STACK WIN 4 2b187 231 5 0 8 4 e0 0 1 $T0 $ebp 112 + = $eip $T0 4 + ^ = $ebp $T0 ^ = $esp $T0 8 + = $L $T0 .cbSavedRegs - = $P $T0 8 + .cbParams + = $ebx $T0 228 - ^ =
STACK WIN 4 2b188 22d 4 0 8 8 e0 0 1 $T0 $ebp 112 + = $eip $T0 4 + ^ = $ebp $T0 ^ = $esp $T0 8 + = $L $T0 .cbSavedRegs - = $P $T0 8 + .cbParams + = $ebx $T0 228 - ^ =
STACK WIN 4 2b18c 228 0 0 8 c e0 0 1 $T0 $ebp 112 + = $eip $T0 4 + ^ = $ebp $T0 ^ = $esp $T0 8 + = $L $T0 .cbSavedRegs - = $P $T0 8 + .cbParams + = $ebx $T0 228 - ^ =
STACK WIN 4 2b3c2 51 6 0 8 0 c 0 1 $T0 $ebp = $eip $T0 4 + ^ = $ebp $T0 ^ = $esp $T0 8 + = $L $T0 .cbSavedRegs - = $P $T0 8 + .cbParams + =
STACK WIN 4 2b3ee 1f 0 0 8 4 c 0 1 $T0 $ebp = $eip $T0 4 + ^ = $ebp $T0 ^ = $esp $T0 8 + = $L $T0 .cbSavedRegs - = $P $T0 8 + .cbParams + =
STACK WIN 4 2b413 2f 6 0 4 0 0 0 1 $T2 $esp .cbLocals + .cbSavedRegs + = $T0 .raSearchStart = $eip $T0 ^ = $esp $T0 4 + =
STACK WIN 4 2b414 2d 5 0 4 4 0 0 1 $T2 $esp .cbLocals + .cbSavedRegs + = $T0 .raSearchStart = $eip $T0 ^ = $esp $T0 4 + =
STACK WIN 4 2b419 27 0 0 4 8 0 0 1 $T2 $esp .cbLocals + .cbSavedRegs + = $T0 .raSearchStart = $eip $T0 ^ = $esp $T0 4 + =
STACK WIN 4 2b442 132 16 0 c 0 5c 0 1 $T0 $ebp = $eip $T0 4 + ^ = $ebp $T0 ^ = $esp $T0 8 + = $L $T0 .cbSavedRegs - = $P $T0 8 + .cbParams + =
STACK WIN 4 2b453 bd 5 0 c 4 5c 0 1 $T0 $ebp = $eip $T0 4 + ^ = $ebp $T0 ^ = $esp $T0 8 + = $L $T0 .cbSavedRegs - = $P $T0 8 + .cbParams + = $ebx $T0 96 - ^ =
STACK WIN 4 2b454 b9 4 0 c 8 5c 0 1 $T0 $ebp = $eip $T0 4 + ^ = $ebp $T0 ^ = $esp $T0 8 + = $L $T0 .cbSavedRegs - = $P $T0 8 + .cbParams + = $ebx $T0 96 - ^ =
STACK WIN 4 2b458 b4 0 0 c c 5c 0 1 $T0 $ebp = $eip $T0 4 + ^ = $ebp $T0 ^ = $esp $T0 8 + = $L $T0 .cbSavedRegs - = $P $T0 8 + .cbParams + = $ebx $T0 96 - ^ =
STACK WIN 4 2b574 d4 2 0 4 0 0 0 1 $T2 $esp .cbLocals + .cbSavedRegs + = $T0 .raSearchStart = $eip $T0 ^ = $esp $T0 4 + =
STACK WIN 4 2b575 80 1 0 4 4 0 0 1 $T2 $esp .cbLocals + .cbSavedRegs + = $T0 .raSearchStart = $eip $T0 ^ = $esp $T0 4 + = $ebp $T0 4 - ^ =
STACK WIN 4 2b576 7e 0 0 4 8 0 0 1 $T2 $esp .cbLocals + .cbSavedRegs + = $T0 .raSearchStart = $eip $T0 ^ = $esp $T0 4 + = $ebp $T0 4 - ^ =
STACK WIN 4 2b58e 65 0 0 4 c 0 0 1 $T2 $esp .cbLocals + .cbSavedRegs + = $T0 .raSearchStart = $eip $T0 ^ = $esp $T0 4 + = $ebp $T0 4 - ^ =
STACK WIN 4 2b5ac 46 0 0 4 10 0 0 1 $T2 $esp .cbLocals + .cbSavedRegs + = $T0 .raSearchStart = $eip $T0 ^ = $esp $T0 4 + = $ebp $T0 4 - ^ = $ebx $T0 16 - ^ =
STACK WIN 4 2b648 f3 18 0 8 0 24 0 1 $T0 $ebp = $eip $T0 4 + ^ = $ebp $T0 ^ = $esp $T0 8 + = $L $T0 .cbSavedRegs - = $P $T0 8 + .cbParams + =
STACK WIN 4 2b659 db 7 0 8 4 24 0 1 $T0 $ebp = $eip $T0 4 + ^ = $ebp $T0 ^ = $esp $T0 8 + = $L $T0 .cbSavedRegs - = $P $T0 8 + .cbParams + = $ebx $T0 40 - ^ =
STACK WIN 4 2b65f d2 1 0 8 8 24 0 1 $T0 $ebp = $eip $T0 4 + ^ = $ebp $T0 ^ = $esp $T0 8 + = $L $T0 .cbSavedRegs - = $P $T0 8 + .cbParams + = $ebx $T0 40 - ^ =
STACK WIN 4 2b660 d0 0 0 8 c 24 0 1 $T0 $ebp = $eip $T0 4 + ^ = $ebp $T0 ^ = $esp $T0 8 + = $L $T0 .cbSavedRegs - = $P $T0 8 + .cbParams + = $ebx $T0 40 - ^ =
STACK WIN 4 2b73b 1d 0 0 8 0 0 0 1 $T2 $esp .cbLocals + .cbSavedRegs + = $T0 .raSearchStart = $eip $T0 ^ = $esp $T0 4 + =
STACK WIN 4 2b758 7a 9 0 8 0 0 0 1 $T2 $esp .cbLocals + .cbSavedRegs + = $T0 .raSearchStart = $eip $T0 ^ = $esp $T0 4 + =
STACK WIN 4 2b759 78 8 0 8 4 0 0 1 $T2 $esp .cbLocals + .cbSavedRegs + = $T0 .raSearchStart = $eip $T0 ^ = $esp $T0 4 + = $ebx $T0 4 - ^ =
STACK WIN 4 2b760 70 1 0 8 8 0 0 1 $T2 $esp .cbLocals + .cbSavedRegs + = $T0 .raSearchStart = $eip $T0 ^ = $esp $T0 4 + = $ebx $T0 4 - ^ =
STACK WIN 4 2b761 6e 0 0 8 c 0 0 1 $T2 $esp .cbLocals + .cbSavedRegs + = $T0 .raSearchStart = $eip $T0 ^ = $esp $T0 4 + = $ebx $T0 4 - ^ =
STACK WIN 4 2b7d2 103 9 0 4 0 4 0 1 $T2 $esp .cbLocals + .cbSavedRegs + = $T0 .raSearchStart = $eip $T0 ^ = $esp $T0 4 + =
STACK WIN 4 2b7d4 ff 7 0 4 4 4 0 1 $T2 $esp .cbLocals + .cbSavedRegs + = $T0 .raSearchStart = $eip $T0 ^ = $esp $T0 4 + = $ebx $T0 8 - ^ =
STACK WIN 4 2b7d5 fb 6 0 4 8 4 0 1 $T2 $esp .cbLocals + .cbSavedRegs + = $T0 .raSearchStart = $eip $T0 ^ = $esp $T0 4 + = $ebp $T0 12 - ^ = $ebx $T0 8 - ^ =
STACK WIN 4 2b7d6 f9 5 0 4 c 4 0 1 $T2 $esp .cbLocals + .cbSavedRegs + = $T0 .raSearchStart = $eip $T0 ^ = $esp $T0 4 + = $ebp $T0 12 - ^ = $ebx $T0 8 - ^ =
STACK WIN 4 2b7db f3 0 0 4 10 4 0 1 $T2 $esp .cbLocals + .cbSavedRegs + = $T0 .raSearchStart = $eip $T0 ^ = $esp $T0 4 + = $ebp $T0 12 - ^ = $ebx $T0 8 - ^ =
STACK WIN 4 2b8d5 5 0 0 4 0 0 0 1 $T2 $esp .cbLocals + .cbSavedRegs + = $T0 .raSearchStart = $eip $T0 ^ = $esp $T0 4 + =
STACK WIN 4 2b8da c6 14 0 8 0 8 0 1 $T0 $ebp = $eip $T0 4 + ^ = $ebp $T0 ^ = $esp $T0 8 + = $L $T0 .cbSavedRegs - = $P $T0 8 + .cbParams + =
STACK WIN 4 2b8e0 be e 0 8 4 8 0 1 $T0 $ebp = $eip $T0 4 + ^ = $ebp $T0 ^ = $esp $T0 8 + = $L $T0 .cbSavedRegs - = $P $T0 8 + .cbParams + = $ebx $T0 12 - ^ =
STACK WIN 4 2b8e1 bc d 0 8 8 8 0 1 $T0 $ebp = $eip $T0 4 + ^ = $ebp $T0 ^ = $esp $T0 8 + = $L $T0 .cbSavedRegs - = $P $T0 8 + .cbParams + = $ebx $T0 12 - ^ =
STACK WIN 4 2b8ee ae 0 0 8 c 8 0 1 $T0 $ebp = $eip $T0 4 + ^ = $ebp $T0 ^ = $esp $T0 8 + = $L $T0 .cbSavedRegs - = $P $T0 8 + .cbParams + = $ebx $T0 12 - ^ =
STACK WIN 4 2b9a0 ec 8 0 8 0 20 0 1 $T0 $ebp = $eip $T0 4 + ^ = $ebp $T0 ^ = $esp $T0 8 + = $L $T0 .cbSavedRegs - = $P $T0 8 + .cbParams + =
STACK WIN 4 2b9a7 e3 1 0 8 4 20 0 1 $T0 $ebp = $eip $T0 4 + ^ = $ebp $T0 ^ = $esp $T0 8 + = $L $T0 .cbSavedRegs - = $P $T0 8 + .cbParams + =
STACK WIN 4 2b9a8 e1 0 0 8 8 20 0 1 $T0 $ebp = $eip $T0 4 + ^ = $ebp $T0 ^ = $esp $T0 8 + = $L $T0 .cbSavedRegs - = $P $T0 8 + .cbParams + =
STACK WIN 4 2ba8c ae 6 0 8 0 20 0 1 $T0 $ebp = $eip $T0 4 + ^ = $ebp $T0 ^ = $esp $T0 8 + = $L $T0 .cbSavedRegs - = $P $T0 8 + .cbParams + =
