MODULE windows x86 FD68675564444B43977FEC2A65C322412 testtxmgr.pdb
FUNC 1000 6 4 operator delete(void *)
FUNC 1006 2c 4 fail(char const *,...)
FUNC 1032 19 c ScopedXPCOM::QueryInterface(nsID const &,void * *)
FUNC 104b 6 4 ScopedXPCOM::AddRef()
FUNC 1051 6 4 ScopedXPCOM::Release()
FUNC 1057 d 4 TestTransaction::AddRef()
FUNC 1064 1d 4 TestTransaction::Release()
FUNC 1081 19 c TestTransaction::QueryInterface(nsID const &,void * *)
FUNC 109a 30 0 reset_globals()
FUNC 10ca 1e 0 TestTransaction::`scalar deleting destructor'(unsigned int)
FUNC 10e8 19 4 nsCOMPtr<nsIDirectoryServiceProvider>::nsCOMPtr<nsIDirectoryServiceProvider>(nsIDirectoryServiceProvider *)
FUNC 1101 25 4 SimpleTransaction::SimpleTransaction(int)
FUNC 1126 4d 0 SimpleTransaction::~SimpleTransaction()
FUNC 1173 51 4 SimpleTransaction::DoTransaction()
FUNC 11c4 51 4 SimpleTransaction::UndoTransaction()
FUNC 1215 51 4 SimpleTransaction::RedoTransaction()
FUNC 1266 1c 8 SimpleTransaction::GetIsTransient(bool *)
FUNC 1282 1c c SimpleTransaction::Merge(nsITransaction *,bool *)
FUNC 129e 1d 0 SimpleTransaction::`vector deleting destructor'(unsigned int)
FUNC 12bb 1f 8 SimpleTransactionFactory::create(nsITransactionManager *,int)
FUNC 12da 46 10 AggregateTransaction::AggregateTransaction(nsITransactionManager *,int,int,int)
FUNC 1320 23 0 AggregateTransaction::`vector deleting destructor'(unsigned int)
FUNC 1343 49 18 AggregateTransaction::AggregateTransaction(nsITransactionManager *,int,int,int,int,int)
FUNC 138c 187 4 AggregateTransaction::DoTransaction()
FUNC 1513 31 8 AggregateTransactionFactory::create(nsITransactionManager *,int)
FUNC 1544 78 0 ScopedXPCOM::~ScopedXPCOM()
FUNC 15bc 15 4 nsCOMPtr_base::assign_assuming_AddRef(nsISupports *)
FUNC 15d1 1b 4 nsCOMPtr<nsIFile>::nsCOMPtr<nsIFile>(nsCOMPtr<nsIFile> const &)
FUNC 15ec 1a 4 nsCOMPtr<nsIDirectoryServiceProvider2>::nsCOMPtr<nsIDirectoryServiceProvider2>(nsQueryInterface)
FUNC 1606 54 8 NS_GetSpecialDirectory(char const *,nsIFile * *)
FUNC 165a ce 0 ScopedXPCOM::GetProfileDirectory()
FUNC 1728 de 10 ScopedXPCOM::GetFile(char const *,bool *,nsIFile * *)
FUNC 1806 41 c ScopedXPCOM::GetFiles(char const *,nsISimpleEnumerator * *)
FUNC 1847 1880 4 quick_test(TestTransactionFactory *)
FUNC 30c7 66 0 simple_test()
FUNC 312d 7a 0 aggregation_test()
FUNC 31aa 13de 4 quick_batch_test(TestTransactionFactory *)
FUNC 4588 66 0 simple_batch_test()
FUNC 45ee 7d 0 aggregation_batch_test()
FUNC 466b 24b 8 stress_test(TestTransactionFactory *,int)
FUNC 48b6 45 0 simple_stress_test()
FUNC 48fb 59 0 aggregation_stress_test()
FUNC 4954 5c 0 aggregation_batch_stress_test()
FUNC 49b0 5c 8 ScopedXPCOM::ScopedXPCOM(char const *,nsIDirectoryServiceProvider *)
FUNC 4a0c 78 8 main
FUNC 4a84 16 0 nsCOMPtr<nsIServiceManager>::StartAssignment()
FUNC 4a9a 40 c CallGetService(char const *,nsID const &,void * *)
FUNC 4ada 43 10 CallCreateInstance(char const *,nsISupports *,nsID const &,void * *)
FUNC 4b1d 2d 4 nsCreateInstanceByContractID::operator()(nsID const &,void * *)
FUNC 4b4a 29 4 nsGetServiceByContractIDWithError::operator()(nsID const &,void * *)
FUNC 4b73 1a 4 nsQueryInterface::operator()(nsID const &,void * *)
FUNC 4b8d d 0 nsCOMPtr_base::~nsCOMPtr_base()
FUNC 4b9a 1b 0 nsCOMPtr_base::assign_with_AddRef(nsISupports *)
FUNC 4bb5 2a 4 nsCOMPtr_base::assign_from_qi(nsQueryInterface,nsID const &)
FUNC 4bdf 2d 4 nsCOMPtr_base::assign_from_gs_contractid_with_error(nsGetServiceByContractIDWithError const &,nsID const &)
FUNC 4c0c 2e 4 nsCOMPtr_base::assign_from_helper(nsCOMPtr_helper const &,nsID const &)
FUNC 4c3a 2c 4 nsID::Equals(nsID const &)
FUNC 4c66 45 8 NS_TableDrivenQI(void *,QITableEntry const *,nsID const &,void * *)
FUNC 4cab 49 0 type_info::`vector deleting destructor'(unsigned int)
FUNC 4d00 4b 0 pre_cpp_init
FUNC 4d4b 176 0 __tmainCRTStartup
FUNC 4ec1 e2 0 pre_c_init
FUNC 4fa3 a 0 mainCRTStartup
FUNC 4fad 5e 10 __ArrayUnwind(void *,unsigned int,int,void (*)(void *))
FUNC 500b 63 10 `eh vector destructor iterator'(void *,unsigned int,int,void (*)(void *))
FUNC 506e 3d 4 __CxxUnhandledExceptionFilter(_EXCEPTION_POINTERS *)
FUNC 50ab e 0 __CxxSetUnhandledExceptionFilter
FUNC 50c0 a5 4 _onexit
FUNC 5165 12 4 atexit
FUNC 5177 24 0 _RTC_Initialize
FUNC 519b 24 0 _RTC_Terminate
FUNC 51d0 29 4 _ValidateImageBase
FUNC 5200 42 8 _FindPESection
FUNC 5250 bb 4 _IsNonwritableInCurrentImage
FUNC 5318 45 0 _SEH_prolog4
FUNC 535d 14 0 _SEH_epilog4
FUNC 5371 23 10 _except_handler4
FUNC 5394 29 0 _setdefaultprecision
FUNC 53bd 3 4 _matherr
FUNC 53c0 94 0 __security_init_cookie
FUNC 5472 f 0 __security_check_cookie
FUNC 5494 104 0 __report_gsfailure
STACK WIN 4 1000 6 0 0 4 0 0 0 1 $T2 $esp .cbLocals + .cbSavedRegs + = $T0 .raSearchStart = $eip $T0 ^ = $esp $T0 4 + =
STACK WIN 4 1006 2c 0 0 4 0 0 0 1 $T2 $esp .cbLocals + .cbSavedRegs + = $T0 .raSearchStart = $eip $T0 ^ = $esp $T0 4 + =
STACK WIN 4 1032 19 0 0 c 0 0 0 1 $T2 $esp .cbLocals + .cbSavedRegs + = $T0 .raSearchStart = $eip $T0 ^ = $esp $T0 4 + =
STACK WIN 4 104b 6 0 0 4 0 0 0 1 $T2 $esp .cbLocals + .cbSavedRegs + = $T0 .raSearchStart = $eip $T0 ^ = $esp $T0 4 + =
STACK WIN 4 1051 6 0 0 4 0 0 0 1 $T2 $esp .cbLocals + .cbSavedRegs + = $T0 .raSearchStart = $eip $T0 ^ = $esp $T0 4 + =
STACK WIN 4 1057 d 0 0 4 0 0 0 1 $T2 $esp .cbLocals + .cbSavedRegs + = $T0 .raSearchStart = $eip $T0 ^ = $esp $T0 4 + =
STACK WIN 4 1064 1d 0 0 4 0 0 0 1 $T2 $esp .cbLocals + .cbSavedRegs + = $T0 .raSearchStart = $eip $T0 ^ = $esp $T0 4 + =
STACK WIN 4 1081 19 0 0 c 0 0 0 1 $T2 $esp .cbLocals + .cbSavedRegs + = $T0 .raSearchStart = $eip $T0 ^ = $esp $T0 4 + =
STACK WIN 4 109a 30 0 0 0 0 0 0 1 $T2 $esp .cbLocals + .cbSavedRegs + = $T0 .raSearchStart = $eip $T0 ^ = $esp $T0 4 + =
STACK WIN 4 10ca 1e 8 0 4 0 0 0 1 $T2 $esp .cbLocals + .cbSavedRegs + = $T0 .raSearchStart = $eip $T0 ^ = $esp $T0 4 + =
STACK WIN 4 10d0 15 2 0 4 4 0 0 1 $T2 $esp .cbLocals + .cbSavedRegs + = $T0 .raSearchStart = $eip $T0 ^ = $esp $T0 4 + =
STACK WIN 4 10e8 19 9 0 4 0 0 0 1 $T2 $esp .cbLocals + .cbSavedRegs + = $T0 .raSearchStart = $eip $T0 ^ = $esp $T0 4 + =
STACK WIN 4 10ef f 2 0 4 4 0 0 1 $T2 $esp .cbLocals + .cbSavedRegs + = $T0 .raSearchStart = $eip $T0 ^ = $esp $T0 4 + =
STACK WIN 4 1101 25 2 0 4 0 0 0 1 $T2 $esp .cbLocals + .cbSavedRegs + = $T0 .raSearchStart = $eip $T0 ^ = $esp $T0 4 + =
STACK WIN 4 1126 4d 0 0 0 0 0 0 1 $T2 $esp .cbLocals + .cbSavedRegs + = $T0 .raSearchStart = $eip $T0 ^ = $esp $T0 4 + =
STACK WIN 4 1139 c 0 0 0 4 0 0 1 $T2 $esp .cbLocals + .cbSavedRegs + = $T0 .raSearchStart = $eip $T0 ^ = $esp $T0 4 + =
STACK WIN 4 1173 51 0 0 4 0 0 0 1 $T2 $esp .cbLocals + .cbSavedRegs + = $T0 .raSearchStart = $eip $T0 ^ = $esp $T0 4 + =
STACK WIN 4 1184 c 0 0 4 4 0 0 1 $T2 $esp .cbLocals + .cbSavedRegs + = $T0 .raSearchStart = $eip $T0 ^ = $esp $T0 4 + =
STACK WIN 4 11c4 51 0 0 4 0 0 0 1 $T2 $esp .cbLocals + .cbSavedRegs + = $T0 .raSearchStart = $eip $T0 ^ = $esp $T0 4 + =
STACK WIN 4 11d5 c 0 0 4 4 0 0 1 $T2 $esp .cbLocals + .cbSavedRegs + = $T0 .raSearchStart = $eip $T0 ^ = $esp $T0 4 + =
STACK WIN 4 1215 51 0 0 4 0 0 0 1 $T2 $esp .cbLocals + .cbSavedRegs + = $T0 .raSearchStart = $eip $T0 ^ = $esp $T0 4 + =
STACK WIN 4 1226 c 0 0 4 4 0 0 1 $T2 $esp .cbLocals + .cbSavedRegs + = $T0 .raSearchStart = $eip $T0 ^ = $esp $T0 4 + =
STACK WIN 4 1266 1c 0 0 8 0 0 0 1 $T2 $esp .cbLocals + .cbSavedRegs + = $T0 .raSearchStart = $eip $T0 ^ = $esp $T0 4 + =
STACK WIN 4 1282 1c 0 0 c 0 0 0 1 $T2 $esp .cbLocals + .cbSavedRegs + = $T0 .raSearchStart = $eip $T0 ^ = $esp $T0 4 + =
STACK WIN 4 129e 1d 3 0 4 0 0 0 1 $T2 $esp .cbLocals + .cbSavedRegs + = $T0 .raSearchStart = $eip $T0 ^ = $esp $T0 4 + =
STACK WIN 4 129f 19 2 0 4 4 0 0 1 $T2 $esp .cbLocals + .cbSavedRegs + = $T0 .raSearchStart = $eip $T0 ^ = $esp $T0 4 + =
STACK WIN 4 12bb 1f 0 0 8 0 0 0 1 $T2 $esp .cbLocals + .cbSavedRegs + = $T0 .raSearchStart = $eip $T0 ^ = $esp $T0 4 + =
STACK WIN 4 12da 46 5 0 10 0 0 0 1 $T2 $esp .cbLocals + .cbSavedRegs + = $T0 .raSearchStart = $eip $T0 ^ = $esp $T0 4 + =
STACK WIN 4 12db 42 4 0 10 4 0 0 1 $T2 $esp .cbLocals + .cbSavedRegs + = $T0 .raSearchStart = $eip $T0 ^ = $esp $T0 4 + =
STACK WIN 4 1320 23 3 0 4 0 0 0 1 $T2 $esp .cbLocals + .cbSavedRegs + = $T0 .raSearchStart = $eip $T0 ^ = $esp $T0 4 + =
STACK WIN 4 1321 1f 2 0 4 4 0 0 1 $T2 $esp .cbLocals + .cbSavedRegs + = $T0 .raSearchStart = $eip $T0 ^ = $esp $T0 4 + =
STACK WIN 4 1343 49 8 0 18 0 0 0 1 $T0 $ebp = $eip $T0 4 + ^ = $ebp $T0 ^ = $esp $T0 8 + = $L $T0 .cbSavedRegs - = $P $T0 8 + .cbParams + =
STACK WIN 4 1347 41 4 0 18 4 0 0 1 $T0 $ebp = $eip $T0 4 + ^ = $ebp $T0 ^ = $esp $T0 8 + = $L $T0 .cbSavedRegs - = $P $T0 8 + .cbParams + =
STACK WIN 4 138c 187 8 0 4 0 c 0 1 $T0 $ebp = $eip $T0 4 + ^ = $ebp $T0 ^ = $esp $T0 8 + = $L $T0 .cbSavedRegs - = $P $T0 8 + .cbParams + =
STACK WIN 4 1393 17c 1 0 4 4 c 0 1 $T0 $ebp = $eip $T0 4 + ^ = $ebp $T0 ^ = $esp $T0 8 + = $L $T0 .cbSavedRegs - = $P $T0 8 + .cbParams + = $ebx $T0 16 - ^ =
STACK WIN 4 1394 17a 0 0 4 8 c 0 1 $T0 $ebp = $eip $T0 4 + ^ = $ebp $T0 ^ = $esp $T0 8 + = $L $T0 .cbSavedRegs - = $P $T0 8 + .cbParams + = $ebx $T0 16 - ^ =
STACK WIN 4 13f2 11b 0 0 4 c c 0 1 $T0 $ebp = $eip $T0 4 + ^ = $ebp $T0 ^ = $esp $T0 8 + = $L $T0 .cbSavedRegs - = $P $T0 8 + .cbParams + = $ebx $T0 16 - ^ =
STACK WIN 4 1513 31 5 0 8 0 0 0 1 $T2 $esp .cbLocals + .cbSavedRegs + = $T0 .raSearchStart = $eip $T0 ^ = $esp $T0 4 + =
STACK WIN 4 1514 2d 4 0 8 4 0 0 1 $T2 $esp .cbLocals + .cbSavedRegs + = $T0 .raSearchStart = $eip $T0 ^ = $esp $T0 4 + =
STACK WIN 4 1544 78 3 0 0 0 0 0 1 $T2 $esp .cbLocals + .cbSavedRegs + = $T0 .raSearchStart = $eip $T0 ^ = $esp $T0 4 + =
STACK WIN 4 1545 72 2 0 0 4 0 0 1 $T2 $esp .cbLocals + .cbSavedRegs + = $T0 .raSearchStart = $eip $T0 ^ = $esp $T0 4 + =
STACK WIN 4 1548 6b 0 0 0 8 0 0 1 $T2 $esp .cbLocals + .cbSavedRegs + = $T0 .raSearchStart = $eip $T0 ^ = $esp $T0 4 + =
STACK WIN 4 15bc 15 0 0 4 0 0 0 1 $T2 $esp .cbLocals + .cbSavedRegs + = $T0 .raSearchStart = $eip $T0 ^ = $esp $T0 4 + =
STACK WIN 4 15d1 1b b 0 4 0 0 0 1 $T2 $esp .cbLocals + .cbSavedRegs + = $T0 .raSearchStart = $eip $T0 ^ = $esp $T0 4 + =
STACK WIN 4 15da f 2 0 4 4 0 0 1 $T2 $esp .cbLocals + .cbSavedRegs + = $T0 .raSearchStart = $eip $T0 ^ = $esp $T0 4 + =
STACK WIN 4 15ec 1a 7 0 4 0 0 0 1 $T2 $esp .cbLocals + .cbSavedRegs + = $T0 .raSearchStart = $eip $T0 ^ = $esp $T0 4 + =
STACK WIN 4 15ed 16 6 0 4 4 0 0 1 $T2 $esp .cbLocals + .cbSavedRegs + = $T0 .raSearchStart = $eip $T0 ^ = $esp $T0 4 + =
STACK WIN 4 1606 54 b 0 8 0 10 0 1 $T0 $ebp = $eip $T0 4 + ^ = $ebp $T0 ^ = $esp $T0 8 + = $L $T0 .cbSavedRegs - = $P $T0 8 + .cbParams + =
STACK WIN 4 1611 2f 0 0 8 4 10 0 1 $T0 $ebp = $eip $T0 4 + ^ = $ebp $T0 ^ = $esp $T0 8 + = $L $T0 .cbSavedRegs - = $P $T0 8 + .cbParams + =
STACK WIN 4 165a ce 9 0 4 0 14 0 1 $T0 $ebp = $eip $T0 4 + ^ = $ebp $T0 ^ = $esp $T0 8 + = $L $T0 .cbSavedRegs - = $P $T0 8 + .cbParams + =
STACK WIN 4 1661 c3 2 0 4 4 14 0 1 $T0 $ebp = $eip $T0 4 + ^ = $ebp $T0 ^ = $esp $T0 8 + = $L $T0 .cbSavedRegs - = $P $T0 8 + .cbParams + = $ebx $T0 24 - ^ =
STACK WIN 4 1662 c1 1 0 4 8 14 0 1 $T0 $ebp = $eip $T0 4 + ^ = $ebp $T0 ^ = $esp $T0 8 + = $L $T0 .cbSavedRegs - = $P $T0 8 + .cbParams + = $ebx $T0 24 - ^ =
STACK WIN 4 1663 bd 0 0 4 c 14 0 1 $T0 $ebp = $eip $T0 4 + ^ = $ebp $T0 ^ = $esp $T0 8 + = $L $T0 .cbSavedRegs - = $P $T0 8 + .cbParams + = $ebx $T0 24 - ^ =
STACK WIN 4 1728 de a 0 10 0 4 0 1 $T0 $ebp = $eip $T0 4 + ^ = $ebp $T0 ^ = $esp $T0 8 + = $L $T0 .cbSavedRegs - = $P $T0 8 + .cbParams + =
STACK WIN 4 172d d5 5 0 10 4 4 0 1 $T0 $ebp = $eip $T0 4 + ^ = $ebp $T0 ^ = $esp $T0 8 + = $L $T0 .cbSavedRegs - = $P $T0 8 + .cbParams + = $ebx $T0 8 - ^ =
STACK WIN 4 1731 d0 1 0 10 8 4 0 1 $T0 $ebp = $eip $T0 4 + ^ = $ebp $T0 ^ = $esp $T0 8 + = $L $T0 .cbSavedRegs - = $P $T0 8 + .cbParams + = $ebx $T0 8 - ^ =
STACK WIN 4 1732 ce 0 0 10 c 4 0 1 $T0 $ebp = $eip $T0 4 + ^ = $ebp $T0 ^ = $esp $T0 8 + = $L $T0 .cbSavedRegs - = $P $T0 8 + .cbParams + = $ebx $T0 8 - ^ =
STACK WIN 4 1806 41 7 0 c 0 0 0 1 $T0 $ebp = $eip $T0 4 + ^ = $ebp $T0 ^ = $esp $T0 8 + = $L $T0 .cbSavedRegs - = $P $T0 8 + .cbParams + =
STACK WIN 4 180d 2f 0 0 c 4 0 0 1 $T0 $ebp = $eip $T0 4 + ^ = $ebp $T0 ^ = $esp $T0 8 + = $L $T0 .cbSavedRegs - = $P $T0 8 + .cbParams + =
STACK WIN 4 1847 1880 f 0 4 0 34 0 1 $T0 $ebp = $eip $T0 4 + ^ = $ebp $T0 ^ = $esp $T0 8 + = $L $T0 .cbSavedRegs - = $P $T0 8 + .cbParams + =
STACK WIN 4 184e 1877 8 0 4 4 34 0 1 $T0 $ebp = $eip $T0 4 + ^ = $ebp $T0 ^ = $esp $T0 8 + = $L $T0 .cbSavedRegs - = $P $T0 8 + .cbParams + = $ebx $T0 56 - ^ =
STACK WIN 4 184f 1875 7 0 4 8 34 0 1 $T0 $ebp = $eip $T0 4 + ^ = $ebp $T0 ^ = $esp $T0 8 + = $L $T0 .cbSavedRegs - = $P $T0 8 + .cbParams + = $ebx $T0 56 - ^ =
STACK WIN 4 1856 186d 0 0 4 c 34 0 1 $T0 $ebp = $eip $T0 4 + ^ = $ebp $T0 ^ = $esp $T0 8 + = $L $T0 .cbSavedRegs - = $P $T0 8 + .cbParams + = $ebx $T0 56 - ^ =
STACK WIN 4 30c7 66 5 0 0 0 4 0 1 $T0 $ebp = $eip $T0 4 + ^ = $ebp $T0 ^ = $esp $T0 8 + = $L $T0 .cbSavedRegs - = $P $T0 8 + .cbParams + =
STACK WIN 4 30cc 5f 0 0 0 4 4 0 1 $T0 $ebp = $eip $T0 4 + ^ = $ebp $T0 ^ = $esp $T0 8 + = $L $T0 .cbSavedRegs - = $P $T0 8 + .cbParams + =
STACK WIN 4 312d 7a 7 0 0 0 10 0 1 $T0 $ebp = $eip $T0 4 + ^ = $ebp $T0 ^ = $esp $T0 8 + = $L $T0 .cbSavedRegs - = $P $T0 8 + .cbParams + =
STACK WIN 4 3134 71 0 0 0 4 10 0 1 $T0 $ebp = $eip $T0 4 + ^ = $ebp $T0 ^ = $esp $T0 8 + = $L $T0 .cbSavedRegs - = $P $T0 8 + .cbParams + =
STACK WIN 4 31aa 13de f 0 4 0 34 0 1 $T0 $ebp = $eip $T0 4 + ^ = $ebp $T0 ^ = $esp $T0 8 + = $L $T0 .cbSavedRegs - = $P $T0 8 + .cbParams + =
STACK WIN 4 31b1 13d5 8 0 4 4 34 0 1 $T0 $ebp = $eip $T0 4 + ^ = $ebp $T0 ^ = $esp $T0 8 + = $L $T0 .cbSavedRegs - = $P $T0 8 + .cbParams + = $ebx $T0 56 - ^ =
STACK WIN 4 31b2 13d3 7 0 4 8 34 0 1 $T0 $ebp = $eip $T0 4 + ^ = $ebp $T0 ^ = $esp $T0 8 + = $L $T0 .cbSavedRegs - = $P $T0 8 + .cbParams + = $ebx $T0 56 - ^ =
STACK WIN 4 31b9 13cb 0 0 4 c 34 0 1 $T0 $ebp = $eip $T0 4 + ^ = $ebp $T0 ^ = $esp $T0 8 + = $L $T0 .cbSavedRegs - = $P $T0 8 + .cbParams + = $ebx $T0 56 - ^ =
STACK WIN 4 4588 66 5 0 0 0 4 0 1 $T0 $ebp = $eip $T0 4 + ^ = $ebp $T0 ^ = $esp $T0 8 + = $L $T0 .cbSavedRegs - = $P $T0 8 + .cbParams + =
STACK WIN 4 458d 5f 0 0 0 4 4 0 1 $T0 $ebp = $eip $T0 4 + ^ = $ebp $T0 ^ = $esp $T0 8 + = $L $T0 .cbSavedRegs - = $P $T0 8 + .cbParams + =
STACK WIN 4 45ee 7d 7 0 0 0 10 0 1 $T0 $ebp = $eip $T0 4 + ^ = $ebp $T0 ^ = $esp $T0 8 + = $L $T0 .cbSavedRegs - = $P $T0 8 + .cbParams + =
STACK WIN 4 45f5 74 0 0 0 4 10 0 1 $T0 $ebp = $eip $T0 4 + ^ = $ebp $T0 ^ = $esp $T0 8 + = $L $T0 .cbSavedRegs - = $P $T0 8 + .cbParams + =
STACK WIN 4 466b 24b f 0 8 0 20 0 1 $T0 $ebp = $eip $T0 4 + ^ = $ebp $T0 ^ = $esp $T0 8 + = $L $T0 .cbSavedRegs - = $P $T0 8 + .cbParams + =
STACK WIN 4 4672 242 8 0 8 4 20 0 1 $T0 $ebp = $eip $T0 4 + ^ = $ebp $T0 ^ = $esp $T0 8 + = $L $T0 .cbSavedRegs - = $P $T0 8 + .cbParams + = $ebx $T0 36 - ^ =
STACK WIN 4 4673 240 7 0 8 8 20 0 1 $T0 $ebp = $eip $T0 4 + ^ = $ebp $T0 ^ = $esp $T0 8 + = $L $T0 .cbSavedRegs - = $P $T0 8 + .cbParams + = $ebx $T0 36 - ^ =
STACK WIN 4 467a 238 0 0 8 c 20 0 1 $T0 $ebp = $eip $T0 4 + ^ = $ebp $T0 ^ = $esp $T0 8 + = $L $T0 .cbSavedRegs - = $P $T0 8 + .cbParams + = $ebx $T0 36 - ^ =
STACK WIN 4 48b6 45 5 0 0 0 4 0 1 $T0 $ebp = $eip $T0 4 + ^ = $ebp $T0 ^ = $esp $T0 8 + = $L $T0 .cbSavedRegs - = $P $T0 8 + .cbParams + =
STACK WIN 4 48bb 3e 0 0 0 4 4 0 1 $T0 $ebp = $eip $T0 4 + ^ = $ebp $T0 ^ = $esp $T0 8 + = $L $T0 .cbSavedRegs - = $P $T0 8 + .cbParams + =
STACK WIN 4 48fb 59 7 0 0 0 10 0 1 $T0 $ebp = $eip $T0 4 + ^ = $ebp $T0 ^ = $esp $T0 8 + = $L $T0 .cbSavedRegs - = $P $T0 8 + .cbParams + =
STACK WIN 4 4902 50 0 0 0 4 10 0 1 $T0 $ebp = $eip $T0 4 + ^ = $ebp $T0 ^ = $esp $T0 8 + = $L $T0 .cbSavedRegs - = $P $T0 8 + .cbParams + =
STACK WIN 4 4954 5c 7 0 0 0 10 0 1 $T0 $ebp = $eip $T0 4 + ^ = $ebp $T0 ^ = $esp $T0 8 + = $L $T0 .cbSavedRegs - = $P $T0 8 + .cbParams + =
STACK WIN 4 495b 53 0 0 0 4 10 0 1 $T0 $ebp = $eip $T0 4 + ^ = $ebp $T0 ^ = $esp $T0 8 + = $L $T0 .cbSavedRegs - = $P $T0 8 + .cbParams + =
STACK WIN 4 49b0 5c 3 0 8 0 0 0 1 $T2 $esp .cbLocals + .cbSavedRegs + = $T0 .raSearchStart = $eip $T0 ^ = $esp $T0 4 + =
STACK WIN 4 49b1 58 2 0 8 4 0 0 1 $T2 $esp .cbLocals + .cbSavedRegs + = $T0 .raSearchStart = $eip $T0 ^ = $esp $T0 4 + =
STACK WIN 4 49b4 52 0 0 8 8 0 0 1 $T2 $esp .cbLocals + .cbSavedRegs + = $T0 .raSearchStart = $eip $T0 ^ = $esp $T0 4 + =
STACK WIN 4 4a0c 78 7 0 8 0 18 0 1 $T0 $ebp = $eip $T0 4 + ^ = $ebp $T0 ^ = $esp $T0 8 + = $L $T0 .cbSavedRegs - = $P $T0 8 + .cbParams + =
STACK WIN 4 4a13 23 0 0 8 4 18 0 1 $T0 $ebp = $eip $T0 4 + ^ = $ebp $T0 ^ = $esp $T0 8 + = $L $T0 .cbSavedRegs - = $P $T0 8 + .cbParams + =
STACK WIN 4 4a84 16 3 0 0 0 0 0 1 $T2 $esp .cbLocals + .cbSavedRegs + = $T0 .raSearchStart = $eip $T0 ^ = $esp $T0 4 + =
STACK WIN 4 4a85 14 2 0 0 4 0 0 1 $T2 $esp .cbLocals + .cbSavedRegs + = $T0 .raSearchStart = $eip $T0 ^ = $esp $T0 4 + =
STACK WIN 4 4a9a 40 9 0 c 0 4 0 1 $T0 $ebp = $eip $T0 4 + ^ = $ebp $T0 ^ = $esp $T0 8 + = $L $T0 .cbSavedRegs - = $P $T0 8 + .cbParams + =
STACK WIN 4 4aa3 35 0 0 c 4 4 0 1 $T0 $ebp = $eip $T0 4 + ^ = $ebp $T0 ^ = $esp $T0 8 + = $L $T0 .cbSavedRegs - = $P $T0 8 + .cbParams + =
STACK WIN 4 4ada 43 9 0 10 0 4 0 1 $T0 $ebp = $eip $T0 4 + ^ = $ebp $T0 ^ = $esp $T0 8 + = $L $T0 .cbSavedRegs - = $P $T0 8 + .cbParams + =
STACK WIN 4 4ae3 38 0 0 10 4 4 0 1 $T0 $ebp = $eip $T0 4 + ^ = $ebp $T0 ^ = $esp $T0 8 + = $L $T0 .cbSavedRegs - = $P $T0 8 + .cbParams + =
STACK WIN 4 4b1d 2d 9 0 4 0 0 0 1 $T2 $esp .cbLocals + .cbSavedRegs + = $T0 .raSearchStart = $eip $T0 ^ = $esp $T0 4 + =
STACK WIN 4 4b1e 29 8 0 4 4 0 0 1 $T2 $esp .cbLocals + .cbSavedRegs + = $T0 .raSearchStart = $eip $T0 ^ = $esp $T0 4 + =
STACK WIN 4 4b1f 27 7 0 4 8 0 0 1 $T2 $esp .cbLocals + .cbSavedRegs + = $T0 .raSearchStart = $eip $T0 ^ = $esp $T0 4 + =
STACK WIN 4 4b4a 29 9 0 4 0 0 0 1 $T2 $esp .cbLocals + .cbSavedRegs + = $T0 .raSearchStart = $eip $T0 ^ = $esp $T0 4 + =
STACK WIN 4 4b4b 25 8 0 4 4 0 0 1 $T2 $esp .cbLocals + .cbSavedRegs + = $T0 .raSearchStart = $eip $T0 ^ = $esp $T0 4 + =
STACK WIN 4 4b4c 23 7 0 4 8 0 0 1 $T2 $esp .cbLocals + .cbSavedRegs + = $T0 .raSearchStart = $eip $T0 ^ = $esp $T0 4 + =
STACK WIN 4 4b73 1a 0 0 4 0 0 0 1 $T2 $esp .cbLocals + .cbSavedRegs + = $T0 .raSearchStart = $eip $T0 ^ = $esp $T0 4 + =
STACK WIN 4 4b8d d 0 0 0 0 0 0 1 $T2 $esp .cbLocals + .cbSavedRegs + = $T0 .raSearchStart = $eip $T0 ^ = $esp $T0 4 + =
STACK WIN 4 4b9a 1b 8 0 0 0 0 0 1 $T2 $esp .cbLocals + .cbSavedRegs + = $T0 .raSearchStart = $eip $T0 ^ = $esp $T0 4 + =
STACK WIN 4 4b9b 19 7 0 0 4 0 0 1 $T2 $esp .cbLocals + .cbSavedRegs + = $T0 .raSearchStart = $eip $T0 ^ = $esp $T0 4 + =
STACK WIN 4 4ba0 13 2 0 0 8 0 0 1 $T2 $esp .cbLocals + .cbSavedRegs + = $T0 .raSearchStart = $eip $T0 ^ = $esp $T0 4 + =
STACK WIN 4 4bb5 2a a 0 4 0 4 0 1 $T0 $ebp = $eip $T0 4 + ^ = $ebp $T0 ^ = $esp $T0 8 + = $L $T0 .cbSavedRegs - = $P $T0 8 + .cbParams + =
STACK WIN 4 4bba 21 5 0 4 4 4 0 1 $T0 $ebp = $eip $T0 4 + ^ = $ebp $T0 ^ = $esp $T0 8 + = $L $T0 .cbSavedRegs - = $P $T0 8 + .cbParams + =
STACK WIN 4 4bdf 2d 6 0 4 0 0 0 1 $T0 $ebp = $eip $T0 4 + ^ = $ebp $T0 ^ = $esp $T0 8 + = $L $T0 .cbSavedRegs - = $P $T0 8 + .cbParams + =
STACK WIN 4 4be3 25 2 0 4 4 0 0 1 $T0 $ebp = $eip $T0 4 + ^ = $ebp $T0 ^ = $esp $T0 8 + = $L $T0 .cbSavedRegs - = $P $T0 8 + .cbParams + =
STACK WIN 4 4c0c 2e 6 0 4 0 0 0 1 $T0 $ebp = $eip $T0 4 + ^ = $ebp $T0 ^ = $esp $T0 8 + = $L $T0 .cbSavedRegs - = $P $T0 8 + .cbParams + =
STACK WIN 4 4c10 26 2 0 4 4 0 0 1 $T0 $ebp = $eip $T0 4 + ^ = $ebp $T0 ^ = $esp $T0 8 + = $L $T0 .cbSavedRegs - = $P $T0 8 + .cbParams + =
STACK WIN 4 4c13 22 0 0 4 8 0 0 1 $T0 $ebp = $eip $T0 4 + ^ = $ebp $T0 ^ = $esp $T0 8 + = $L $T0 .cbSavedRegs - = $P $T0 8 + .cbParams + =
STACK WIN 4 4c3a 2c 0 0 4 0 0 0 1 $T2 $esp .cbLocals + .cbSavedRegs + = $T0 .raSearchStart = $eip $T0 ^ = $esp $T0 4 + =
STACK WIN 4 4c66 45 6 0 8 0 0 0 1 $T2 $esp .cbLocals + .cbSavedRegs + = $T0 .raSearchStart = $eip $T0 ^ = $esp $T0 4 + =
STACK WIN 4 4c67 2c 5 0 8 4 0 0 1 $T2 $esp .cbLocals + .cbSavedRegs + = $T0 .raSearchStart = $eip $T0 ^ = $esp $T0 4 + =
STACK WIN 4 4c68 2a 4 0 8 8 0 0 1 $T2 $esp .cbLocals + .cbSavedRegs + = $T0 .raSearchStart = $eip $T0 ^ = $esp $T0 4 + =
STACK WIN 4 4cab 49 b 0 4 0 0 0 1 $T2 $esp .cbLocals + .cbSavedRegs + = $T0 .raSearchStart = $eip $T0 ^ = $esp $T0 4 + =
STACK WIN 4 4cac 45 a 0 4 4 0 0 1 $T2 $esp .cbLocals + .cbSavedRegs + = $T0 .raSearchStart = $eip $T0 ^ = $esp $T0 4 + = $ebx $T0 4 - ^ =
STACK WIN 4 4cb4 3c 2 0 4 8 0 0 1 $T2 $esp .cbLocals + .cbSavedRegs + = $T0 .raSearchStart = $eip $T0 ^ = $esp $T0 4 + = $ebx $T0 4 - ^ =
STACK WIN 4 4cb9 21 0 0 4 c 0 0 1 $T2 $esp .cbLocals + .cbSavedRegs + = $T0 .raSearchStart = $eip $T0 ^ = $esp $T0 4 + = $ebx $T0 4 - ^ =
STACK WIN 4 4d00 4b 0 0 0 0 0 0 1 $T2 $esp .cbLocals + .cbSavedRegs + = $T0 .raSearchStart = $eip $T0 ^ = $esp $T0 4 + =
STACK WIN 4 4d4b 176 c 0 0 c 20 0 1 $T0 $ebp = $eip $T0 4 + ^ = $ebp $T0 ^ = $esp $T0 8 + = $L $T0 .cbSavedRegs - = $P $T0 8 + .cbParams + =
STACK WIN 4 4e71 14 0 0 0 c 20 0 1 $T0 $ebp = $T2 $esp = $T1 .raSearchStart = $eip $T1 ^ = $ebp $T0 = $esp $T1 4 + = $L $T0 .cbSavedRegs - = $P $T1 4 + .cbParams + =
STACK WIN 4 4ec1 e2 0 0 0 0 0 0 1 $T2 $esp .cbLocals + .cbSavedRegs + = $T0 .raSearchStart = $eip $T0 ^ = $esp $T0 4 + =
STACK WIN 4 4fa3 a 0 0 0 0 0 0 1 $T2 $esp .cbLocals + .cbSavedRegs + = $T0 .raSearchStart = $eip $T0 ^ = $esp $T0 4 + =
STACK WIN 4 4fad 5e c 0 10 c 24 0 1 $T0 $ebp = $eip $T0 4 + ^ = $ebp $T0 ^ = $esp $T0 8 + = $L $T0 .cbSavedRegs - = $P $T0 8 + .cbParams + =
STACK WIN 4 4fd0 23 0 0 10 c 24 0 1 $T0 $ebp = $T2 $esp = $T1 .raSearchStart = $eip $T1 ^ = $ebp $T0 = $esp $T1 4 + = $L $T0 .cbSavedRegs - = $P $T1 4 + .cbParams + =
STACK WIN 4 500b 63 c 0 10 c 1c 0 1 $T0 $ebp = $eip $T0 4 + ^ = $ebp $T0 ^ = $esp $T0 8 + = $L $T0 .cbSavedRegs - = $P $T0 8 + .cbParams + =
STACK WIN 4 5056 17 0 0 10 c 1c 0 1 $T0 $ebp = $T2 $esp = $T1 .raSearchStart = $eip $T1 ^ = $ebp $T0 = $esp $T1 4 + = $L $T0 .cbSavedRegs - = $P $T1 4 + .cbParams + =
STACK WIN 4 506e 3d 0 0 4 0 0 0 1 $T2 $esp .cbLocals + .cbSavedRegs + = $T0 .raSearchStart = $eip $T0 ^ = $esp $T0 4 + =
STACK WIN 4 50ab e 0 0 0 0 0 0 1 $T2 $esp .cbLocals + .cbSavedRegs + = $T0 .raSearchStart = $eip $T0 ^ = $esp $T0 4 + =
STACK WIN 4 50c0 a5 c 0 4 c 24 0 1 $T0 $ebp = $eip $T0 4 + ^ = $ebp $T0 ^ = $esp $T0 8 + = $L $T0 .cbSavedRegs - = $P $T0 8 + .cbParams + =
STACK WIN 4 515c 8 0 0 4 c 24 0 1 $T0 $ebp = $T2 $esp = $T1 .raSearchStart = $eip $T1 ^ = $ebp $T0 = $esp $T1 4 + = $L $T0 .cbSavedRegs - = $P $T1 4 + .cbParams + =
STACK WIN 4 5165 12 0 0 4 0 0 0 1 $T2 $esp .cbLocals + .cbSavedRegs + = $T0 .raSearchStart = $eip $T0 ^ = $esp $T0 4 + =
STACK WIN 4 5177 24 2 0 0 0 0 0 1 $T2 $esp .cbLocals + .cbSavedRegs + = $T0 .raSearchStart = $eip $T0 ^ = $esp $T0 4 + =
STACK WIN 4 5178 22 1 0 0 4 0 0 1 $T2 $esp .cbLocals + .cbSavedRegs + = $T0 .raSearchStart = $eip $T0 ^ = $esp $T0 4 + =
STACK WIN 4 5179 20 0 0 0 8 0 0 1 $T2 $esp .cbLocals + .cbSavedRegs + = $T0 .raSearchStart = $eip $T0 ^ = $esp $T0 4 + =
STACK WIN 4 519b 24 2 0 0 0 0 0 1 $T2 $esp .cbLocals + .cbSavedRegs + = $T0 .raSearchStart = $eip $T0 ^ = $esp $T0 4 + =
STACK WIN 4 519c 22 1 0 0 4 0 0 1 $T2 $esp .cbLocals + .cbSavedRegs + = $T0 .raSearchStart = $eip $T0 ^ = $esp $T0 4 + =
STACK WIN 4 519d 20 0 0 0 8 0 0 1 $T2 $esp .cbLocals + .cbSavedRegs + = $T0 .raSearchStart = $eip $T0 ^ = $esp $T0 4 + =
STACK WIN 4 51d0 29 0 0 4 0 0 0 1 $T2 $esp .cbLocals + .cbSavedRegs + = $T0 .raSearchStart = $eip $T0 ^ = $esp $T0 4 + =
STACK WIN 4 5200 42 18 0 8 0 0 0 1 $T2 $esp .cbLocals + .cbSavedRegs + = $T0 .raSearchStart = $eip $T0 ^ = $esp $T0 4 + =
STACK WIN 4 520e 33 a 0 8 4 0 0 1 $T2 $esp .cbLocals + .cbSavedRegs + = $T0 .raSearchStart = $eip $T0 ^ = $esp $T0 4 + = $ebx $T0 4 - ^ =
STACK WIN 4 520f 31 9 0 8 8 0 0 1 $T2 $esp .cbLocals + .cbSavedRegs + = $T0 .raSearchStart = $eip $T0 ^ = $esp $T0 4 + = $ebx $T0 4 - ^ =
STACK WIN 4 5218 27 0 0 8 c 0 0 1 $T2 $esp .cbLocals + .cbSavedRegs + = $T0 .raSearchStart = $eip $T0 ^ = $esp $T0 4 + = $ebx $T0 4 - ^ =
STACK WIN 4 5250 bb 33 0 4 c 18 0 1 $T0 $ebp = $eip $T0 4 + ^ = $ebp $T0 ^ = $esp $T0 8 + = $L $T0 .cbSavedRegs - = $P $T0 8 + .cbParams + =
STACK WIN 4 526a a1 19 0 4 10 18 0 1 $T0 $ebp = $eip $T0 4 + ^ = $ebp $T0 ^ = $esp $T0 8 + = $L $T0 .cbSavedRegs - = $P $T0 8 + .cbParams + = $ebx $T0 28 - ^ =
STACK WIN 4 52d9 14 0 0 4 c 18 0 1 $T0 $ebp = $T2 $esp = $T1 .raSearchStart = $eip $T1 ^ = $ebp $T0 = $esp $T1 4 + = $L $T0 .cbSavedRegs - = $P $T1 4 + .cbParams + = $ebx $T0 28 - ^ =
STACK WIN 4 5371 23 0 0 10 0 0 0 1 $T2 $esp .cbLocals + .cbSavedRegs + = $T0 .raSearchStart = $eip $T0 ^ = $esp $T0 4 + =
STACK WIN 4 5394 29 1 0 0 0 0 0 1 $T2 $esp .cbLocals + .cbSavedRegs + = $T0 .raSearchStart = $eip $T0 ^ = $esp $T0 4 + =
STACK WIN 4 5395 27 0 0 0 4 0 0 1 $T2 $esp .cbLocals + .cbSavedRegs + = $T0 .raSearchStart = $eip $T0 ^ = $esp $T0 4 + =
STACK WIN 4 53bd 3 0 0 4 0 0 0 1 $T2 $esp .cbLocals + .cbSavedRegs + = $T0 .raSearchStart = $eip $T0 ^ = $esp $T0 4 + =
STACK WIN 4 53c0 94 15 0 0 0 10 0 1 $T0 $ebp = $eip $T0 4 + ^ = $ebp $T0 ^ = $esp $T0 8 + = $L $T0 .cbSavedRegs - = $P $T0 8 + .cbParams + =
STACK WIN 4 53d4 7e 1 0 0 4 10 0 1 $T0 $ebp = $eip $T0 4 + ^ = $ebp $T0 ^ = $esp $T0 8 + = $L $T0 .cbSavedRegs - = $P $T0 8 + .cbParams + = $ebx $T0 20 - ^ =
STACK WIN 4 53d5 7c 0 0 0 8 10 0 1 $T0 $ebp = $eip $T0 4 + ^ = $ebp $T0 ^ = $esp $T0 8 + = $L $T0 .cbSavedRegs - = $P $T0 8 + .cbParams + = $ebx $T0 20 - ^ =
STACK WIN 4 53f1 5f 0 0 0 c 10 0 1 $T0 $ebp = $eip $T0 4 + ^ = $ebp $T0 ^ = $esp $T0 8 + = $L $T0 .cbSavedRegs - = $P $T0 8 + .cbParams + = $ebx $T0 20 - ^ =
STACK WIN 4 5472 f 0 0 0 0 0 0 1 $T2 $esp .cbLocals + .cbSavedRegs + = $T0 .raSearchStart = $eip $T0 ^ = $esp $T0 4 + =
STACK WIN 4 5494 104 9 0 0 0 328 0 1 $T0 $ebp = $eip $T0 4 + ^ = $ebp $T0 ^ = $esp $T0 8 + = $L $T0 .cbSavedRegs - = $P $T0 8 + .cbParams + =
STACK WIN 0 4e71 14 0 0 0 0 0 0 0 0
STACK WIN 0 4fd0 24 0 0 0 0 0 0 0 0
STACK WIN 0 5056 18 0 0 0 0 0 0 0 0
STACK WIN 0 515c 9 0 0 0 0 0 0 0 0
STACK WIN 0 52d9 14 0 0 0 0 0 0 0 0
