MODULE windows x86 D8A8745F5CB94EB095D2FDD0E7136F631 mozutils.pdb
FUNC 1000 50 10 wrtmessage
FUNC 1050 15 4 malloc_mutex_init
FUNC 1065 25 0 pow2_ceil
FUNC 108a 23 0 base_node_dealloc
FUNC 10ad 41 4 extent_tree_ad_search
FUNC 10ee 14a 8 extent_tree_ad_insert
FUNC 1238 5ba 8 extent_tree_ad_remove
FUNC 17f2 16 8 pages_map
FUNC 1808 3f 4 pages_unmap
FUNC 1847 70 0 malloc_rtree_get
FUNC 18b7 9f 0 chunk_alloc_mmap
FUNC 1956 13f 8 arena_chunk_tree_dirty_insert
FUNC 1a95 5af 8 arena_chunk_tree_dirty_remove
FUNC 2044 12e 8 arena_run_tree_insert
FUNC 2172 560 8 arena_run_tree_remove
FUNC 26d2 4b 8 arena_avail_comp
FUNC 271d 130 8 arena_avail_tree_insert
FUNC 284d 52d 8 arena_avail_tree_remove
FUNC 2d7a 87 0 arena_run_reg_alloc
FUNC 2e01 73 0 arena_run_reg_dalloc
FUNC 2e74 1d5 14 arena_run_split
FUNC 3049 c9 0 arena_chunk_init
FUNC 3112 109 0 arena_purge
FUNC 321b 100 4 arena_bin_run_size_calc
FUNC 331b 30 0 arena_salloc
FUNC 334b 94 4 isalloc_validate
FUNC 33df 50 0 isalloc
FUNC 342f b3 8 arena_ralloc_large_grow
FUNC 34e2 19f 0 arena_new
FUNC 3681 45 4 je_malloc_usable_size_in_advance
FUNC 36c6 5 4 je_malloc_usable_size
FUNC 36cb 11e 4 jemalloc_stats
FUNC 37e9 1 4 je_dumb_free_thunk
FUNC 37ea 6a 0 base_pages_alloc_mmap
FUNC 3854 8d 0 base_alloc
FUNC 38e1 23 4 base_calloc
FUNC 3904 3e 0 base_node_alloc
FUNC 3942 9a 4 malloc_rtree_new
FUNC 39dc aa 4 malloc_rtree_set
FUNC 3a86 27 4 chunk_dealloc
FUNC 3aad 75 0 arena_chunk_dealloc
FUNC 3b22 21b 8 arena_run_dalloc
FUNC 3d3d 4b 8 arena_run_trim_head
FUNC 3d88 4d 10 arena_run_trim_tail
FUNC 3dd5 e6 8 arena_dalloc_small
FUNC 3ebb 52 4 arena_dalloc_large
FUNC 3f0d 58 4 arena_dalloc
FUNC 3f65 74 8 arena_ralloc_large
FUNC 3fd9 75 4 arenas_extend
FUNC 404e 77 4 huge_dalloc
FUNC 40c5 4dd 0 malloc_init_hard
FUNC 45a2 21 4 je_free
FUNC 45c3 1c c DllMain
FUNC 45df 5e 0 chunk_alloc
FUNC 463d 68 0 choose_arena_hard
FUNC 46a5 110 10 arena_run_alloc
FUNC 47b5 b6 4 arena_bin_nonfull_run_get
FUNC 486b 127 4 arena_malloc_small
FUNC 4992 4c 4 arena_malloc_large
FUNC 49de ad 8 arena_palloc
FUNC 4a8b a5 0 huge_malloc
FUNC 4b30 ef 8 huge_palloc
FUNC 4c1f 118 4 huge_ralloc
FUNC 4d37 16 0 choose_arena
FUNC 4d4d 34 0 imalloc
FUNC 4d81 ba 0 ipalloc
FUNC 4e3b 122 4 arena_ralloc
FUNC 4f5d 25 4 je_malloc
FUNC 4f82 1a 8 je_memalign
FUNC 4f9c 31 c je_posix_memalign
FUNC 4fcd 12 4 je_valloc
FUNC 4fe1 7a 8 je_calloc
FUNC 505b 5a 8 je_realloc
FUNC 50b5 4a c _recalloc
FUNC 50ff 35 4 je_wcsdup
FUNC 5134 28 8 je_strndup
FUNC 515c 17 4 je_strdup
FUNC 5180 95 0 _aulldvrm
FUNC 521c f 0 __security_check_cookie
FUNC 5230 2b 0 _chkstk
FUNC 5268 4d 0 pre_c_init
FUNC 52b5 1c3 c _CRT_INIT
FUNC 5478 116 4 __DllMainCRTStartup
FUNC 558e 21 c _DllMainCRTStartup
FUNC 55af 104 0 __report_gsfailure
FUNC 56b3 c 0 __clean_type_info_names
FUNC 56bf a5 4 _onexit
FUNC 5764 12 4 atexit
FUNC 5776 24 0 _RTC_Initialize
FUNC 579a 24 0 _RTC_Terminate
FUNC 57c0 29 4 _ValidateImageBase
FUNC 57f0 42 8 _FindPESection
FUNC 5840 bb 4 _IsNonwritableInCurrentImage
FUNC 5914 45 0 _SEH_prolog4
FUNC 5959 14 0 _SEH_epilog4
FUNC 596d 23 10 _except_handler4
FUNC 5990 94 0 __security_init_cookie
STACK WIN 4 1000 50 4 0 10 0 0 0 1 $T0 $ebp = $eip $T0 4 + ^ = $ebp $T0 ^ = $esp $T0 8 + = $L $T0 .cbSavedRegs - = $P $T0 8 + .cbParams + =
STACK WIN 4 1004 4a 0 0 10 4 0 0 1 $T0 $ebp = $eip $T0 4 + ^ = $ebp $T0 ^ = $esp $T0 8 + = $L $T0 .cbSavedRegs - = $P $T0 8 + .cbParams + =
STACK WIN 4 1050 15 0 0 4 0 0 0 1 $T2 $esp .cbLocals + .cbSavedRegs + = $T0 .raSearchStart = $eip $T0 ^ = $esp $T0 4 + =
STACK WIN 4 1065 25 0 0 0 0 0 0 1 $T2 $esp .cbLocals + .cbSavedRegs + = $T0 .raSearchStart = $eip $T0 ^ = $esp $T0 4 + =
STACK WIN 4 108a 23 1 0 0 0 0 0 1 $T2 $esp .cbLocals + .cbSavedRegs + = $T0 .raSearchStart = $eip $T0 ^ = $esp $T0 4 + =
STACK WIN 4 108b 21 0 0 0 4 0 0 1 $T2 $esp .cbLocals + .cbSavedRegs + = $T0 .raSearchStart = $eip $T0 ^ = $esp $T0 4 + =
STACK WIN 4 10ad 41 3 0 4 0 0 0 1 $T2 $esp .cbLocals + .cbSavedRegs + = $T0 .raSearchStart = $eip $T0 ^ = $esp $T0 4 + =
STACK WIN 4 10b0 39 0 0 4 4 0 0 1 $T2 $esp .cbLocals + .cbSavedRegs + = $T0 .raSearchStart = $eip $T0 ^ = $esp $T0 4 + =
STACK WIN 4 10bc 2a 0 0 4 8 0 0 1 $T2 $esp .cbLocals + .cbSavedRegs + = $T0 .raSearchStart = $eip $T0 ^ = $esp $T0 4 + =
STACK WIN 4 10ee 14a a 0 8 0 1c 0 1 $T0 $ebp = $eip $T0 4 + ^ = $ebp $T0 ^ = $esp $T0 8 + = $L $T0 .cbSavedRegs - = $P $T0 8 + .cbParams + =
STACK WIN 4 10f5 141 3 0 8 4 1c 0 1 $T0 $ebp = $eip $T0 4 + ^ = $ebp $T0 ^ = $esp $T0 8 + = $L $T0 .cbSavedRegs - = $P $T0 8 + .cbParams + = $ebx $T0 32 - ^ =
STACK WIN 4 10fd 138 0 0 8 8 1c 0 1 $T0 $ebp = $eip $T0 4 + ^ = $ebp $T0 ^ = $esp $T0 8 + = $L $T0 .cbSavedRegs - = $P $T0 8 + .cbParams + = $ebx $T0 32 - ^ =
STACK WIN 4 110d 121 0 0 8 c 1c 0 1 $T0 $ebp = $eip $T0 4 + ^ = $ebp $T0 ^ = $esp $T0 8 + = $L $T0 .cbSavedRegs - = $P $T0 8 + .cbParams + = $ebx $T0 32 - ^ =
STACK WIN 4 1238 5ba 9 0 8 0 2c 0 1 $T0 $ebp = $eip $T0 4 + ^ = $ebp $T0 ^ = $esp $T0 8 + = $L $T0 .cbSavedRegs - = $P $T0 8 + .cbParams + =
STACK WIN 4 123f 5b1 2 0 8 4 2c 0 1 $T0 $ebp = $eip $T0 4 + ^ = $ebp $T0 ^ = $esp $T0 8 + = $L $T0 .cbSavedRegs - = $P $T0 8 + .cbParams + = $ebx $T0 48 - ^ =
STACK WIN 4 1240 5ad 1 0 8 8 2c 0 1 $T0 $ebp = $eip $T0 4 + ^ = $ebp $T0 ^ = $esp $T0 8 + = $L $T0 .cbSavedRegs - = $P $T0 8 + .cbParams + = $ebx $T0 48 - ^ =
STACK WIN 4 1241 5ab 0 0 8 c 2c 0 1 $T0 $ebp = $eip $T0 4 + ^ = $ebp $T0 ^ = $esp $T0 8 + = $L $T0 .cbSavedRegs - = $P $T0 8 + .cbParams + = $ebx $T0 48 - ^ =
STACK WIN 4 17f2 16 0 0 8 0 0 0 1 $T2 $esp .cbLocals + .cbSavedRegs + = $T0 .raSearchStart = $eip $T0 ^ = $esp $T0 4 + =
STACK WIN 4 1808 3f 0 0 4 0 0 0 1 $T2 $esp .cbLocals + .cbSavedRegs + = $T0 .raSearchStart = $eip $T0 ^ = $esp $T0 4 + =
STACK WIN 4 1847 70 12 0 0 0 10 0 1 $T0 $ebp = $eip $T0 4 + ^ = $ebp $T0 ^ = $esp $T0 8 + = $L $T0 .cbSavedRegs - = $P $T0 8 + .cbParams + =
STACK WIN 4 1851 60 8 0 0 4 10 0 1 $T0 $ebp = $eip $T0 4 + ^ = $ebp $T0 ^ = $esp $T0 8 + = $L $T0 .cbSavedRegs - = $P $T0 8 + .cbParams + = $ebx $T0 20 - ^ =
STACK WIN 4 1857 59 2 0 0 8 10 0 1 $T0 $ebp = $eip $T0 4 + ^ = $ebp $T0 ^ = $esp $T0 8 + = $L $T0 .cbSavedRegs - = $P $T0 8 + .cbParams + = $ebx $T0 20 - ^ =
STACK WIN 4 185d 52 0 0 0 c 10 0 1 $T0 $ebp = $eip $T0 4 + ^ = $ebp $T0 ^ = $esp $T0 8 + = $L $T0 .cbSavedRegs - = $P $T0 8 + .cbParams + = $ebx $T0 20 - ^ =
STACK WIN 4 18b7 9f 1 0 0 0 0 0 1 $T2 $esp .cbLocals + .cbSavedRegs + = $T0 .raSearchStart = $eip $T0 ^ = $esp $T0 4 + =
STACK WIN 4 18b8 9d 0 0 0 4 0 0 1 $T2 $esp .cbLocals + .cbSavedRegs + = $T0 .raSearchStart = $eip $T0 ^ = $esp $T0 4 + =
STACK WIN 4 18cd 85 0 0 0 8 0 0 1 $T2 $esp .cbLocals + .cbSavedRegs + = $T0 .raSearchStart = $eip $T0 ^ = $esp $T0 4 + =
STACK WIN 4 1956 13f 1f 0 8 0 1c 0 1 $T0 $ebp = $eip $T0 4 + ^ = $ebp $T0 ^ = $esp $T0 8 + = $L $T0 .cbSavedRegs - = $P $T0 8 + .cbParams + =
STACK WIN 4 195d 136 18 0 8 4 1c 0 1 $T0 $ebp = $eip $T0 4 + ^ = $ebp $T0 ^ = $esp $T0 8 + = $L $T0 .cbSavedRegs - = $P $T0 8 + .cbParams + = $ebx $T0 32 - ^ =
STACK WIN 4 195e 134 17 0 8 8 1c 0 1 $T0 $ebp = $eip $T0 4 + ^ = $ebp $T0 ^ = $esp $T0 8 + = $L $T0 .cbSavedRegs - = $P $T0 8 + .cbParams + = $ebx $T0 32 - ^ =
STACK WIN 4 1975 116 0 0 8 c 1c 0 1 $T0 $ebp = $eip $T0 4 + ^ = $ebp $T0 ^ = $esp $T0 8 + = $L $T0 .cbSavedRegs - = $P $T0 8 + .cbParams + = $ebx $T0 32 - ^ =
STACK WIN 4 1a95 5af 11 0 8 0 30 0 1 $T0 $ebp = $eip $T0 4 + ^ = $ebp $T0 ^ = $esp $T0 8 + = $L $T0 .cbSavedRegs - = $P $T0 8 + .cbParams + =
STACK WIN 4 1aa1 5a1 5 0 8 4 30 0 1 $T0 $ebp = $eip $T0 4 + ^ = $ebp $T0 ^ = $esp $T0 8 + = $L $T0 .cbSavedRegs - = $P $T0 8 + .cbParams + = $ebx $T0 52 - ^ =
STACK WIN 4 1aa2 59d 4 0 8 8 30 0 1 $T0 $ebp = $eip $T0 4 + ^ = $ebp $T0 ^ = $esp $T0 8 + = $L $T0 .cbSavedRegs - = $P $T0 8 + .cbParams + = $ebx $T0 52 - ^ =
STACK WIN 4 1aa6 598 0 0 8 c 30 0 1 $T0 $ebp = $eip $T0 4 + ^ = $ebp $T0 ^ = $esp $T0 8 + = $L $T0 .cbSavedRegs - = $P $T0 8 + .cbParams + = $ebx $T0 52 - ^ =
STACK WIN 4 2044 12e 1f 0 8 0 c 0 1 $T0 $ebp = $eip $T0 4 + ^ = $ebp $T0 ^ = $esp $T0 8 + = $L $T0 .cbSavedRegs - = $P $T0 8 + .cbParams + =
STACK WIN 4 204b 125 18 0 8 4 c 0 1 $T0 $ebp = $eip $T0 4 + ^ = $ebp $T0 ^ = $esp $T0 8 + = $L $T0 .cbSavedRegs - = $P $T0 8 + .cbParams + = $ebx $T0 16 - ^ =
STACK WIN 4 204c 123 17 0 8 8 c 0 1 $T0 $ebp = $eip $T0 4 + ^ = $ebp $T0 ^ = $esp $T0 8 + = $L $T0 .cbSavedRegs - = $P $T0 8 + .cbParams + = $ebx $T0 16 - ^ =
STACK WIN 4 2063 105 0 0 8 c c 0 1 $T0 $ebp = $eip $T0 4 + ^ = $ebp $T0 ^ = $esp $T0 8 + = $L $T0 .cbSavedRegs - = $P $T0 8 + .cbParams + = $ebx $T0 16 - ^ =
STACK WIN 4 2172 560 11 0 8 0 20 0 1 $T0 $ebp = $eip $T0 4 + ^ = $ebp $T0 ^ = $esp $T0 8 + = $L $T0 .cbSavedRegs - = $P $T0 8 + .cbParams + =
STACK WIN 4 217e 552 5 0 8 4 20 0 1 $T0 $ebp = $eip $T0 4 + ^ = $ebp $T0 ^ = $esp $T0 8 + = $L $T0 .cbSavedRegs - = $P $T0 8 + .cbParams + = $ebx $T0 36 - ^ =
STACK WIN 4 217f 54e 4 0 8 8 20 0 1 $T0 $ebp = $eip $T0 4 + ^ = $ebp $T0 ^ = $esp $T0 8 + = $L $T0 .cbSavedRegs - = $P $T0 8 + .cbParams + = $ebx $T0 36 - ^ =
STACK WIN 4 2183 549 0 0 8 c 20 0 1 $T0 $ebp = $eip $T0 4 + ^ = $ebp $T0 ^ = $esp $T0 8 + = $L $T0 .cbSavedRegs - = $P $T0 8 + .cbParams + = $ebx $T0 36 - ^ =
STACK WIN 4 26d2 4b 11 0 8 0 0 0 1 $T2 $esp .cbLocals + .cbSavedRegs + = $T0 .raSearchStart = $eip $T0 ^ = $esp $T0 4 + =
STACK WIN 4 26d8 44 b 0 8 4 0 0 1 $T2 $esp .cbLocals + .cbSavedRegs + = $T0 .raSearchStart = $eip $T0 ^ = $esp $T0 4 + = $ebx $T0 4 - ^ =
STACK WIN 4 26e0 3b 3 0 8 8 0 0 1 $T2 $esp .cbLocals + .cbSavedRegs + = $T0 .raSearchStart = $eip $T0 ^ = $esp $T0 4 + = $ebx $T0 4 - ^ =
STACK WIN 4 26e3 37 0 0 8 c 0 0 1 $T2 $esp .cbLocals + .cbSavedRegs + = $T0 .raSearchStart = $eip $T0 ^ = $esp $T0 4 + = $ebx $T0 4 - ^ =
STACK WIN 4 271d 130 19 0 8 0 10 0 1 $T0 $ebp = $eip $T0 4 + ^ = $ebp $T0 ^ = $esp $T0 8 + = $L $T0 .cbSavedRegs - = $P $T0 8 + .cbParams + =
STACK WIN 4 2727 124 f 0 8 4 10 0 1 $T0 $ebp = $eip $T0 4 + ^ = $ebp $T0 ^ = $esp $T0 8 + = $L $T0 .cbSavedRegs - = $P $T0 8 + .cbParams + = $ebx $T0 20 - ^ =
STACK WIN 4 2728 11c e 0 8 8 10 0 1 $T0 $ebp = $eip $T0 4 + ^ = $ebp $T0 ^ = $esp $T0 8 + = $L $T0 .cbSavedRegs - = $P $T0 8 + .cbParams + = $ebx $T0 20 - ^ =
STACK WIN 4 2736 10d 0 0 8 c 10 0 1 $T0 $ebp = $eip $T0 4 + ^ = $ebp $T0 ^ = $esp $T0 8 + = $L $T0 .cbSavedRegs - = $P $T0 8 + .cbParams + = $ebx $T0 20 - ^ =
STACK WIN 4 284d 52d e 0 8 0 1c 0 1 $T0 $ebp = $eip $T0 4 + ^ = $ebp $T0 ^ = $esp $T0 8 + = $L $T0 .cbSavedRegs - = $P $T0 8 + .cbParams + =
STACK WIN 4 2857 521 4 0 8 4 1c 0 1 $T0 $ebp = $eip $T0 4 + ^ = $ebp $T0 ^ = $esp $T0 8 + = $L $T0 .cbSavedRegs - = $P $T0 8 + .cbParams + = $ebx $T0 32 - ^ =
STACK WIN 4 2858 51d 3 0 8 8 1c 0 1 $T0 $ebp = $eip $T0 4 + ^ = $ebp $T0 ^ = $esp $T0 8 + = $L $T0 .cbSavedRegs - = $P $T0 8 + .cbParams + = $ebx $T0 32 - ^ =
STACK WIN 4 285b 519 0 0 8 c 1c 0 1 $T0 $ebp = $eip $T0 4 + ^ = $ebp $T0 ^ = $esp $T0 8 + = $L $T0 .cbSavedRegs - = $P $T0 8 + .cbParams + = $ebx $T0 32 - ^ =
STACK WIN 4 2d7a 87 4 0 0 0 0 0 1 $T2 $esp .cbLocals + .cbSavedRegs + = $T0 .raSearchStart = $eip $T0 ^ = $esp $T0 4 + =
STACK WIN 4 2d7b 58 3 0 0 4 0 0 1 $T2 $esp .cbLocals + .cbSavedRegs + = $T0 .raSearchStart = $eip $T0 ^ = $esp $T0 4 + = $ebx $T0 4 - ^ =
STACK WIN 4 2d7c 56 2 0 0 8 0 0 1 $T2 $esp .cbLocals + .cbSavedRegs + = $T0 .raSearchStart = $eip $T0 ^ = $esp $T0 4 + = $ebx $T0 4 - ^ =
STACK WIN 4 2d82 4f 0 0 0 c 0 0 1 $T2 $esp .cbLocals + .cbSavedRegs + = $T0 .raSearchStart = $eip $T0 ^ = $esp $T0 4 + = $ebx $T0 4 - ^ =
STACK WIN 4 2e01 73 0 0 0 0 0 0 1 $T2 $esp .cbLocals + .cbSavedRegs + = $T0 .raSearchStart = $eip $T0 ^ = $esp $T0 4 + =
STACK WIN 4 2e74 1d5 25 0 14 0 18 0 1 $T0 $ebp = $eip $T0 4 + ^ = $ebp $T0 ^ = $esp $T0 8 + = $L $T0 .cbSavedRegs - = $P $T0 8 + .cbParams + =
STACK WIN 4 2e7e 1c9 1b 0 14 4 18 0 1 $T0 $ebp = $eip $T0 4 + ^ = $ebp $T0 ^ = $esp $T0 8 + = $L $T0 .cbSavedRegs - = $P $T0 8 + .cbParams + = $ebx $T0 28 - ^ =
STACK WIN 4 2e7f 1c7 1a 0 14 8 18 0 1 $T0 $ebp = $eip $T0 4 + ^ = $ebp $T0 ^ = $esp $T0 8 + = $L $T0 .cbSavedRegs - = $P $T0 8 + .cbParams + = $ebx $T0 28 - ^ =
STACK WIN 4 2e99 1ac 0 0 14 c 18 0 1 $T0 $ebp = $eip $T0 4 + ^ = $ebp $T0 ^ = $esp $T0 8 + = $L $T0 .cbSavedRegs - = $P $T0 8 + .cbParams + = $ebx $T0 28 - ^ =
STACK WIN 4 3049 c9 c 0 0 0 4 0 1 $T2 $esp .cbLocals + .cbSavedRegs + = $T0 .raSearchStart = $eip $T0 ^ = $esp $T0 4 + =
STACK WIN 4 3051 bf 4 0 0 4 4 0 1 $T2 $esp .cbLocals + .cbSavedRegs + = $T0 .raSearchStart = $eip $T0 ^ = $esp $T0 4 + = $ebx $T0 8 - ^ =
STACK WIN 4 3052 bd 3 0 0 8 4 0 1 $T2 $esp .cbLocals + .cbSavedRegs + = $T0 .raSearchStart = $eip $T0 ^ = $esp $T0 4 + = $ebp $T0 12 - ^ = $ebx $T0 8 - ^ =
STACK WIN 4 3053 bb 2 0 0 c 4 0 1 $T2 $esp .cbLocals + .cbSavedRegs + = $T0 .raSearchStart = $eip $T0 ^ = $esp $T0 4 + = $ebp $T0 12 - ^ = $ebx $T0 8 - ^ =
STACK WIN 4 3112 109 0 0 0 0 0 0 1 $T2 $esp .cbLocals + .cbSavedRegs + = $T0 .raSearchStart = $eip $T0 ^ = $esp $T0 4 + =
STACK WIN 4 312e ec 0 0 0 4 0 0 1 $T2 $esp .cbLocals + .cbSavedRegs + = $T0 .raSearchStart = $eip $T0 ^ = $esp $T0 4 + = $ebx $T0 4 - ^ =
STACK WIN 4 312f ea 0 0 0 8 0 0 1 $T2 $esp .cbLocals + .cbSavedRegs + = $T0 .raSearchStart = $eip $T0 ^ = $esp $T0 4 + = $ebp $T0 8 - ^ = $ebx $T0 4 - ^ =
STACK WIN 4 3130 e8 0 0 0 c 0 0 1 $T2 $esp .cbLocals + .cbSavedRegs + = $T0 .raSearchStart = $eip $T0 ^ = $esp $T0 4 + = $ebp $T0 8 - ^ = $ebx $T0 4 - ^ =
STACK WIN 4 321b 100 9 0 4 0 1c 0 1 $T0 $ebp = $eip $T0 4 + ^ = $ebp $T0 ^ = $esp $T0 8 + = $L $T0 .cbSavedRegs - = $P $T0 8 + .cbParams + =
STACK WIN 4 3222 f7 2 0 4 4 1c 0 1 $T0 $ebp = $eip $T0 4 + ^ = $ebp $T0 ^ = $esp $T0 8 + = $L $T0 .cbSavedRegs - = $P $T0 8 + .cbParams + = $ebx $T0 32 - ^ =
STACK WIN 4 3228 ea 0 0 4 8 1c 0 1 $T0 $ebp = $eip $T0 4 + ^ = $ebp $T0 ^ = $esp $T0 8 + = $L $T0 .cbSavedRegs - = $P $T0 8 + .cbParams + = $ebx $T0 32 - ^ =
STACK WIN 4 3229 e2 0 0 4 c 1c 0 1 $T0 $ebp = $eip $T0 4 + ^ = $ebp $T0 ^ = $esp $T0 8 + = $L $T0 .cbSavedRegs - = $P $T0 8 + .cbParams + = $ebx $T0 32 - ^ =
STACK WIN 4 331b 30 0 0 0 0 0 0 1 $T2 $esp .cbLocals + .cbSavedRegs + = $T0 .raSearchStart = $eip $T0 ^ = $esp $T0 4 + =
STACK WIN 4 334b 94 7 0 4 0 18 0 1 $T0 $ebp = $eip $T0 4 + ^ = $ebp $T0 ^ = $esp $T0 8 + = $L $T0 .cbSavedRegs - = $P $T0 8 + .cbParams + =
STACK WIN 4 3352 8b 0 0 4 4 18 0 1 $T0 $ebp = $eip $T0 4 + ^ = $ebp $T0 ^ = $esp $T0 8 + = $L $T0 .cbSavedRegs - = $P $T0 8 + .cbParams + =
STACK WIN 4 33a9 33 0 0 4 8 18 0 1 $T0 $ebp = $eip $T0 4 + ^ = $ebp $T0 ^ = $esp $T0 8 + = $L $T0 .cbSavedRegs - = $P $T0 8 + .cbParams + =
STACK WIN 4 33df 50 9 0 0 0 18 0 1 $T0 $ebp = $eip $T0 4 + ^ = $ebp $T0 ^ = $esp $T0 8 + = $L $T0 .cbSavedRegs - = $P $T0 8 + .cbParams + =
STACK WIN 4 33e6 47 2 0 0 4 18 0 1 $T0 $ebp = $eip $T0 4 + ^ = $ebp $T0 ^ = $esp $T0 8 + = $L $T0 .cbSavedRegs - = $P $T0 8 + .cbParams + =
STACK WIN 4 3401 29 0 0 0 8 18 0 1 $T0 $ebp = $eip $T0 4 + ^ = $ebp $T0 ^ = $esp $T0 8 + = $L $T0 .cbSavedRegs - = $P $T0 8 + .cbParams + =
STACK WIN 4 342f b3 c 0 8 0 c 0 1 $T0 $ebp = $eip $T0 4 + ^ = $ebp $T0 ^ = $esp $T0 8 + = $L $T0 .cbSavedRegs - = $P $T0 8 + .cbParams + =
STACK WIN 4 3439 a2 2 0 8 4 c 0 1 $T0 $ebp = $eip $T0 4 + ^ = $ebp $T0 ^ = $esp $T0 8 + = $L $T0 .cbSavedRegs - = $P $T0 8 + .cbParams + =
STACK WIN 4 3444 94 0 0 8 8 c 0 1 $T0 $ebp = $eip $T0 4 + ^ = $ebp $T0 ^ = $esp $T0 8 + = $L $T0 .cbSavedRegs - = $P $T0 8 + .cbParams + =
STACK WIN 4 34e2 19f 0 0 0 0 0 0 1 $T2 $esp .cbLocals + .cbSavedRegs + = $T0 .raSearchStart = $eip $T0 ^ = $esp $T0 4 + =
STACK WIN 4 34f5 18b 0 0 0 4 0 0 1 $T2 $esp .cbLocals + .cbSavedRegs + = $T0 .raSearchStart = $eip $T0 ^ = $esp $T0 4 + = $ebp $T0 4 - ^ =
STACK WIN 4 34f6 181 0 0 0 8 0 0 1 $T2 $esp .cbLocals + .cbSavedRegs + = $T0 .raSearchStart = $eip $T0 ^ = $esp $T0 4 + = $ebp $T0 4 - ^ =
STACK WIN 4 34f7 17f 0 0 0 c 0 0 1 $T2 $esp .cbLocals + .cbSavedRegs + = $T0 .raSearchStart = $eip $T0 ^ = $esp $T0 4 + = $ebp $T0 4 - ^ =
STACK WIN 4 3681 45 0 0 4 0 0 0 1 $T2 $esp .cbLocals + .cbSavedRegs + = $T0 .raSearchStart = $eip $T0 ^ = $esp $T0 4 + =
STACK WIN 4 36c6 5 0 0 4 0 0 0 1 $T2 $esp .cbLocals + .cbSavedRegs + = $T0 .raSearchStart = $eip $T0 ^ = $esp $T0 4 + =
STACK WIN 4 36cb 11e 47 0 4 0 4 0 1 $T2 $esp .cbLocals + .cbSavedRegs + = $T0 .raSearchStart = $eip $T0 ^ = $esp $T0 4 + =
STACK WIN 4 36d2 115 40 0 4 4 4 0 1 $T2 $esp .cbLocals + .cbSavedRegs + = $T0 .raSearchStart = $eip $T0 ^ = $esp $T0 4 + = $ebx $T0 8 - ^ =
STACK WIN 4 36d3 113 3f 0 4 8 4 0 1 $T2 $esp .cbLocals + .cbSavedRegs + = $T0 .raSearchStart = $eip $T0 ^ = $esp $T0 4 + = $ebp $T0 12 - ^ = $ebx $T0 8 - ^ =
STACK WIN 4 36da 10b 38 0 4 c 4 0 1 $T2 $esp .cbLocals + .cbSavedRegs + = $T0 .raSearchStart = $eip $T0 ^ = $esp $T0 4 + = $ebp $T0 12 - ^ = $ebx $T0 8 - ^ =
STACK WIN 4 3712 d2 0 0 4 10 4 0 1 $T2 $esp .cbLocals + .cbSavedRegs + = $T0 .raSearchStart = $eip $T0 ^ = $esp $T0 4 + = $ebp $T0 12 - ^ = $ebx $T0 8 - ^ =
STACK WIN 4 37e9 1 0 0 4 0 0 0 1 $T2 $esp .cbLocals + .cbSavedRegs + = $T0 .raSearchStart = $eip $T0 ^ = $esp $T0 4 + =
STACK WIN 4 37ea 6a 3 0 0 0 0 0 1 $T2 $esp .cbLocals + .cbSavedRegs + = $T0 .raSearchStart = $eip $T0 ^ = $esp $T0 4 + =
STACK WIN 4 37eb 68 2 0 0 4 0 0 1 $T2 $esp .cbLocals + .cbSavedRegs + = $T0 .raSearchStart = $eip $T0 ^ = $esp $T0 4 + =
STACK WIN 4 37f3 5d 0 0 0 8 0 0 1 $T2 $esp .cbLocals + .cbSavedRegs + = $T0 .raSearchStart = $eip $T0 ^ = $esp $T0 4 + =
STACK WIN 4 3854 8d 2 0 0 0 0 0 1 $T2 $esp .cbLocals + .cbSavedRegs + = $T0 .raSearchStart = $eip $T0 ^ = $esp $T0 4 + =
STACK WIN 4 3855 3d 1 0 0 4 0 0 1 $T2 $esp .cbLocals + .cbSavedRegs + = $T0 .raSearchStart = $eip $T0 ^ = $esp $T0 4 + =
STACK WIN 4 3856 39 0 0 0 8 0 0 1 $T2 $esp .cbLocals + .cbSavedRegs + = $T0 .raSearchStart = $eip $T0 ^ = $esp $T0 4 + =
STACK WIN 4 389f 40 0 0 0 c 0 0 1 $T2 $esp .cbLocals + .cbSavedRegs + = $T0 .raSearchStart = $eip $T0 ^ = $esp $T0 4 + = $ebx $T0 12 - ^ =
STACK WIN 4 38e1 23 9 0 4 0 0 0 1 $T2 $esp .cbLocals + .cbSavedRegs + = $T0 .raSearchStart = $eip $T0 ^ = $esp $T0 4 + =
STACK WIN 4 38e2 21 8 0 4 4 0 0 1 $T2 $esp .cbLocals + .cbSavedRegs + = $T0 .raSearchStart = $eip $T0 ^ = $esp $T0 4 + =
STACK WIN 4 38ea 18 0 0 4 8 0 0 1 $T2 $esp .cbLocals + .cbSavedRegs + = $T0 .raSearchStart = $eip $T0 ^ = $esp $T0 4 + =
STACK WIN 4 3904 3e 2 0 0 0 0 0 1 $T2 $esp .cbLocals + .cbSavedRegs + = $T0 .raSearchStart = $eip $T0 ^ = $esp $T0 4 + =
STACK WIN 4 3905 3c 1 0 0 4 0 0 1 $T2 $esp .cbLocals + .cbSavedRegs + = $T0 .raSearchStart = $eip $T0 ^ = $esp $T0 4 + =
STACK WIN 4 3906 3a 0 0 0 8 0 0 1 $T2 $esp .cbLocals + .cbSavedRegs + = $T0 .raSearchStart = $eip $T0 ^ = $esp $T0 4 + =
STACK WIN 4 3942 9a 7 0 4 0 4 0 1 $T0 $ebp = $eip $T0 4 + ^ = $ebp $T0 ^ = $esp $T0 8 + = $L $T0 .cbSavedRegs - = $P $T0 8 + .cbParams + =
STACK WIN 4 3947 93 2 0 4 4 4 0 1 $T0 $ebp = $eip $T0 4 + ^ = $ebp $T0 ^ = $esp $T0 8 + = $L $T0 .cbSavedRegs - = $P $T0 8 + .cbParams + = $ebx $T0 8 - ^ =
STACK WIN 4 3948 91 1 0 4 8 4 0 1 $T0 $ebp = $eip $T0 4 + ^ = $ebp $T0 ^ = $esp $T0 8 + = $L $T0 .cbSavedRegs - = $P $T0 8 + .cbParams + = $ebx $T0 8 - ^ =
STACK WIN 4 3949 8f 0 0 4 c 4 0 1 $T0 $ebp = $eip $T0 4 + ^ = $ebp $T0 ^ = $esp $T0 8 + = $L $T0 .cbSavedRegs - = $P $T0 8 + .cbParams + = $ebx $T0 8 - ^ =
STACK WIN 4 39dc aa b 0 4 0 14 0 1 $T0 $ebp = $eip $T0 4 + ^ = $ebp $T0 ^ = $esp $T0 8 + = $L $T0 .cbSavedRegs - = $P $T0 8 + .cbParams + =
STACK WIN 4 39e3 a1 4 0 4 4 14 0 1 $T0 $ebp = $eip $T0 4 + ^ = $ebp $T0 ^ = $esp $T0 8 + = $L $T0 .cbSavedRegs - = $P $T0 8 + .cbParams + = $ebx $T0 24 - ^ =
STACK WIN 4 39e4 9f 3 0 4 8 14 0 1 $T0 $ebp = $eip $T0 4 + ^ = $ebp $T0 ^ = $esp $T0 8 + = $L $T0 .cbSavedRegs - = $P $T0 8 + .cbParams + = $ebx $T0 24 - ^ =
STACK WIN 4 3a86 27 9 0 4 0 0 0 1 $T2 $esp .cbLocals + .cbSavedRegs + = $T0 .raSearchStart = $eip $T0 ^ = $esp $T0 4 + =
STACK WIN 4 3a8f 19 0 0 4 4 0 0 1 $T2 $esp .cbLocals + .cbSavedRegs + = $T0 .raSearchStart = $eip $T0 ^ = $esp $T0 4 + =
STACK WIN 4 3aad 75 0 0 0 0 0 0 1 $T2 $esp .cbLocals + .cbSavedRegs + = $T0 .raSearchStart = $eip $T0 ^ = $esp $T0 4 + =
STACK WIN 4 3b22 21b f 0 8 0 10 0 1 $T0 $ebp = $eip $T0 4 + ^ = $ebp $T0 ^ = $esp $T0 8 + = $L $T0 .cbSavedRegs - = $P $T0 8 + .cbParams + =
STACK WIN 4 3b2f 20c 2 0 8 4 10 0 1 $T0 $ebp = $eip $T0 4 + ^ = $ebp $T0 ^ = $esp $T0 8 + = $L $T0 .cbSavedRegs - = $P $T0 8 + .cbParams + = $ebx $T0 20 - ^ =
STACK WIN 4 3b30 20a 1 0 8 8 10 0 1 $T0 $ebp = $eip $T0 4 + ^ = $ebp $T0 ^ = $esp $T0 8 + = $L $T0 .cbSavedRegs - = $P $T0 8 + .cbParams + = $ebx $T0 20 - ^ =
STACK WIN 4 3b31 208 0 0 8 c 10 0 1 $T0 $ebp = $eip $T0 4 + ^ = $ebp $T0 ^ = $esp $T0 8 + = $L $T0 .cbSavedRegs - = $P $T0 8 + .cbParams + = $ebx $T0 20 - ^ =
STACK WIN 4 3d3d 4b a 0 8 0 0 0 1 $T2 $esp .cbLocals + .cbSavedRegs + = $T0 .raSearchStart = $eip $T0 ^ = $esp $T0 4 + =
STACK WIN 4 3d44 43 3 0 8 4 0 0 1 $T2 $esp .cbLocals + .cbSavedRegs + = $T0 .raSearchStart = $eip $T0 ^ = $esp $T0 4 + = $ebx $T0 4 - ^ =
STACK WIN 4 3d45 41 2 0 8 8 0 0 1 $T2 $esp .cbLocals + .cbSavedRegs + = $T0 .raSearchStart = $eip $T0 ^ = $esp $T0 4 + = $ebx $T0 4 - ^ =
STACK WIN 4 3d88 4d 12 0 10 0 0 0 1 $T0 $ebp = $eip $T0 4 + ^ = $ebp $T0 ^ = $esp $T0 8 + = $L $T0 .cbSavedRegs - = $P $T0 8 + .cbParams + =
STACK WIN 4 3d99 3a 1 0 10 4 0 0 1 $T0 $ebp = $eip $T0 4 + ^ = $ebp $T0 ^ = $esp $T0 8 + = $L $T0 .cbSavedRegs - = $P $T0 8 + .cbParams + = $ebx $T0 4 - ^ =
STACK WIN 4 3d9a 38 0 0 10 8 0 0 1 $T0 $ebp = $eip $T0 4 + ^ = $ebp $T0 ^ = $esp $T0 8 + = $L $T0 .cbSavedRegs - = $P $T0 8 + .cbParams + = $ebx $T0 4 - ^ =
STACK WIN 4 3dd5 e6 15 0 8 0 4 0 1 $T0 $ebp = $eip $T0 4 + ^ = $ebp $T0 ^ = $esp $T0 8 + = $L $T0 .cbSavedRegs - = $P $T0 8 + .cbParams + =
STACK WIN 4 3ddf d6 b 0 8 4 4 0 1 $T0 $ebp = $eip $T0 4 + ^ = $ebp $T0 ^ = $esp $T0 8 + = $L $T0 .cbSavedRegs - = $P $T0 8 + .cbParams + =
STACK WIN 4 3dea ca 0 0 8 8 4 0 1 $T0 $ebp = $eip $T0 4 + ^ = $ebp $T0 ^ = $esp $T0 8 + = $L $T0 .cbSavedRegs - = $P $T0 8 + .cbParams + =
STACK WIN 4 3ebb 52 1 0 4 0 0 0 1 $T2 $esp .cbLocals + .cbSavedRegs + = $T0 .raSearchStart = $eip $T0 ^ = $esp $T0 4 + =
STACK WIN 4 3ebc 50 0 0 4 4 0 0 1 $T2 $esp .cbLocals + .cbSavedRegs + = $T0 .raSearchStart = $eip $T0 ^ = $esp $T0 4 + =
STACK WIN 4 3f0d 58 16 0 4 0 4 0 1 $T0 $ebp = $eip $T0 4 + ^ = $ebp $T0 ^ = $esp $T0 8 + = $L $T0 .cbSavedRegs - = $P $T0 8 + .cbParams + =
STACK WIN 4 3f18 4b b 0 4 4 4 0 1 $T0 $ebp = $eip $T0 4 + ^ = $ebp $T0 ^ = $esp $T0 8 + = $L $T0 .cbSavedRegs - = $P $T0 8 + .cbParams + = $ebx $T0 8 - ^ =
STACK WIN 4 3f20 42 3 0 4 8 4 0 1 $T0 $ebp = $eip $T0 4 + ^ = $ebp $T0 ^ = $esp $T0 8 + = $L $T0 .cbSavedRegs - = $P $T0 8 + .cbParams + = $ebx $T0 8 - ^ =
STACK WIN 4 3f23 3e 0 0 4 c 4 0 1 $T0 $ebp = $eip $T0 4 + ^ = $ebp $T0 ^ = $esp $T0 8 + = $L $T0 .cbSavedRegs - = $P $T0 8 + .cbParams + = $ebx $T0 8 - ^ =
STACK WIN 4 3f65 74 a 0 8 0 4 0 1 $T0 $ebp = $eip $T0 4 + ^ = $ebp $T0 ^ = $esp $T0 8 + = $L $T0 .cbSavedRegs - = $P $T0 8 + .cbParams + =
STACK WIN 4 3f6f 68 0 0 8 4 4 0 1 $T0 $ebp = $eip $T0 4 + ^ = $ebp $T0 ^ = $esp $T0 8 + = $L $T0 .cbSavedRegs - = $P $T0 8 + .cbParams + =
STACK WIN 4 3f83 53 0 0 8 8 4 0 1 $T0 $ebp = $eip $T0 4 + ^ = $ebp $T0 ^ = $esp $T0 8 + = $L $T0 .cbSavedRegs - = $P $T0 8 + .cbParams + = $ebx $T0 12 - ^ =
STACK WIN 4 3f84 51 0 0 8 c 4 0 1 $T0 $ebp = $eip $T0 4 + ^ = $ebp $T0 ^ = $esp $T0 8 + = $L $T0 .cbSavedRegs - = $P $T0 8 + .cbParams + = $ebx $T0 12 - ^ =
STACK WIN 4 3fd9 75 1a 0 4 0 0 0 1 $T2 $esp .cbLocals + .cbSavedRegs + = $T0 .raSearchStart = $eip $T0 ^ = $esp $T0 4 + =
STACK WIN 4 3ff3 5a 0 0 4 4 0 0 1 $T2 $esp .cbLocals + .cbSavedRegs + = $T0 .raSearchStart = $eip $T0 ^ = $esp $T0 4 + = $ebx $T0 4 - ^ =
STACK WIN 4 404e 77 9 0 4 0 18 0 1 $T0 $ebp = $eip $T0 4 + ^ = $ebp $T0 ^ = $esp $T0 8 + = $L $T0 .cbSavedRegs - = $P $T0 8 + .cbParams + =
STACK WIN 4 4055 6e 2 0 4 4 18 0 1 $T0 $ebp = $eip $T0 4 + ^ = $ebp $T0 ^ = $esp $T0 8 + = $L $T0 .cbSavedRegs - = $P $T0 8 + .cbParams + = $ebx $T0 28 - ^ =
STACK WIN 4 4056 6c 1 0 4 8 18 0 1 $T0 $ebp = $eip $T0 4 + ^ = $ebp $T0 ^ = $esp $T0 8 + = $L $T0 .cbSavedRegs - = $P $T0 8 + .cbParams + = $ebx $T0 28 - ^ =
STACK WIN 4 4057 6a 0 0 4 c 18 0 1 $T0 $ebp = $eip $T0 4 + ^ = $ebp $T0 ^ = $esp $T0 8 + = $L $T0 .cbSavedRegs - = $P $T0 8 + .cbParams + = $ebx $T0 28 - ^ =
STACK WIN 4 40c5 4dd 15 0 0 0 140 0 1 $T2 $esp .cbLocals + .cbSavedRegs + = $T0 .raSearchStart = $eip $T0 ^ = $esp $T0 4 + =
STACK WIN 4 40da 4ba 0 0 0 4 140 0 1 $T2 $esp .cbLocals + .cbSavedRegs + = $T0 .raSearchStart = $eip $T0 ^ = $esp $T0 4 + = $ebx $T0 324 - ^ =
STACK WIN 4 411e 46e 0 0 0 8 140 0 1 $T2 $esp .cbLocals + .cbSavedRegs + = $T0 .raSearchStart = $eip $T0 ^ = $esp $T0 4 + = $ebp $T0 328 - ^ = $ebx $T0 324 - ^ =
STACK WIN 4 4125 466 0 0 0 c 140 0 1 $T2 $esp .cbLocals + .cbSavedRegs + = $T0 .raSearchStart = $eip $T0 ^ = $esp $T0 4 + = $ebp $T0 328 - ^ = $ebx $T0 324 - ^ =
STACK WIN 4 4133 399 0 0 0 10 140 0 1 $T2 $esp .cbLocals + .cbSavedRegs + = $T0 .raSearchStart = $eip $T0 ^ = $esp $T0 4 + = $ebp $T0 328 - ^ = $ebx $T0 324 - ^ =
STACK WIN 4 45a2 21 0 0 4 0 0 0 1 $T2 $esp .cbLocals + .cbSavedRegs + = $T0 .raSearchStart = $eip $T0 ^ = $esp $T0 4 + =
STACK WIN 4 45c3 1c 0 0 c 0 0 0 1 $T2 $esp .cbLocals + .cbSavedRegs + = $T0 .raSearchStart = $eip $T0 ^ = $esp $T0 4 + =
STACK WIN 4 45df 5e 4 0 0 0 0 0 1 $T2 $esp .cbLocals + .cbSavedRegs + = $T0 .raSearchStart = $eip $T0 ^ = $esp $T0 4 + =
STACK WIN 4 45e0 5c 3 0 0 4 0 0 1 $T2 $esp .cbLocals + .cbSavedRegs + = $T0 .raSearchStart = $eip $T0 ^ = $esp $T0 4 + = $ebx $T0 4 - ^ =
STACK WIN 4 45e1 5a 2 0 0 8 0 0 1 $T2 $esp .cbLocals + .cbSavedRegs + = $T0 .raSearchStart = $eip $T0 ^ = $esp $T0 4 + = $ebx $T0 4 - ^ =
STACK WIN 4 4617 12 0 0 0 c 0 0 1 $T2 $esp .cbLocals + .cbSavedRegs + = $T0 .raSearchStart = $eip $T0 ^ = $esp $T0 4 + = $ebx $T0 4 - ^ =
STACK WIN 4 463d 68 8 0 0 0 0 0 1 $T2 $esp .cbLocals + .cbSavedRegs + = $T0 .raSearchStart = $eip $T0 ^ = $esp $T0 4 + =
STACK WIN 4 4645 5f 0 0 0 4 0 0 1 $T2 $esp .cbLocals + .cbSavedRegs + = $T0 .raSearchStart = $eip $T0 ^ = $esp $T0 4 + =
STACK WIN 4 4648 43 0 0 0 8 0 0 1 $T2 $esp .cbLocals + .cbSavedRegs + = $T0 .raSearchStart = $eip $T0 ^ = $esp $T0 4 + =
STACK WIN 4 46a5 110 12 0 c 0 10 0 1 $T0 $ebp = $eip $T0 4 + ^ = $ebp $T0 ^ = $esp $T0 8 + = $L $T0 .cbSavedRegs - = $P $T0 8 + .cbParams + =
STACK WIN 4 46b3 100 4 0 c 4 10 0 1 $T0 $ebp = $eip $T0 4 + ^ = $ebp $T0 ^ = $esp $T0 8 + = $L $T0 .cbSavedRegs - = $P $T0 8 + .cbParams + =
STACK WIN 4 46b7 fb 0 0 c 8 10 0 1 $T0 $ebp = $eip $T0 4 + ^ = $ebp $T0 ^ = $esp $T0 8 + = $L $T0 .cbSavedRegs - = $P $T0 8 + .cbParams + =
STACK WIN 4 47b5 b6 7 0 4 0 0 0 1 $T2 $esp .cbLocals + .cbSavedRegs + = $T0 .raSearchStart = $eip $T0 ^ = $esp $T0 4 + =
STACK WIN 4 47b6 b4 6 0 4 4 0 0 1 $T2 $esp .cbLocals + .cbSavedRegs + = $T0 .raSearchStart = $eip $T0 ^ = $esp $T0 4 + = $ebx $T0 4 - ^ =
STACK WIN 4 47bc ad 0 0 4 8 0 0 1 $T2 $esp .cbLocals + .cbSavedRegs + = $T0 .raSearchStart = $eip $T0 ^ = $esp $T0 4 + = $ebx $T0 4 - ^ =
STACK WIN 4 486b 127 d 0 4 0 8 0 1 $T0 $ebp = $eip $T0 4 + ^ = $ebp $T0 ^ = $esp $T0 8 + = $L $T0 .cbSavedRegs - = $P $T0 8 + .cbParams + =
STACK WIN 4 4877 119 1 0 4 4 8 0 1 $T0 $ebp = $eip $T0 4 + ^ = $ebp $T0 ^ = $esp $T0 8 + = $L $T0 .cbSavedRegs - = $P $T0 8 + .cbParams + = $ebx $T0 12 - ^ =
STACK WIN 4 4878 117 0 0 4 8 8 0 1 $T0 $ebp = $eip $T0 4 + ^ = $ebp $T0 ^ = $esp $T0 8 + = $L $T0 .cbSavedRegs - = $P $T0 8 + .cbParams + = $ebx $T0 12 - ^ =
STACK WIN 4 4992 4c 4 0 4 0 0 0 1 $T2 $esp .cbLocals + .cbSavedRegs + = $T0 .raSearchStart = $eip $T0 ^ = $esp $T0 4 + =
STACK WIN 4 4993 3b 3 0 4 4 0 0 1 $T2 $esp .cbLocals + .cbSavedRegs + = $T0 .raSearchStart = $eip $T0 ^ = $esp $T0 4 + = $ebx $T0 4 - ^ =
STACK WIN 4 4994 39 2 0 4 8 0 0 1 $T2 $esp .cbLocals + .cbSavedRegs + = $T0 .raSearchStart = $eip $T0 ^ = $esp $T0 4 + = $ebx $T0 4 - ^ =
STACK WIN 4 499c 2e 0 0 4 c 0 0 1 $T2 $esp .cbLocals + .cbSavedRegs + = $T0 .raSearchStart = $eip $T0 ^ = $esp $T0 4 + = $ebx $T0 4 - ^ =
STACK WIN 4 49de ad a 0 8 0 c 0 1 $T0 $ebp = $eip $T0 4 + ^ = $ebp $T0 ^ = $esp $T0 8 + = $L $T0 .cbSavedRegs - = $P $T0 8 + .cbParams + =
STACK WIN 4 49e5 37 3 0 8 4 c 0 1 $T0 $ebp = $eip $T0 4 + ^ = $ebp $T0 ^ = $esp $T0 8 + = $L $T0 .cbSavedRegs - = $P $T0 8 + .cbParams + = $ebx $T0 16 - ^ =
STACK WIN 4 49e6 35 2 0 8 8 c 0 1 $T0 $ebp = $eip $T0 4 + ^ = $ebp $T0 ^ = $esp $T0 8 + = $L $T0 .cbSavedRegs - = $P $T0 8 + .cbParams + = $ebx $T0 16 - ^ =
STACK WIN 4 4a22 67 0 0 8 c c 0 1 $T0 $ebp = $eip $T0 4 + ^ = $ebp $T0 ^ = $esp $T0 8 + = $L $T0 .cbSavedRegs - = $P $T0 8 + .cbParams + = $ebx $T0 16 - ^ =
STACK WIN 4 4a8b a5 5 0 0 0 4 0 1 $T2 $esp .cbLocals + .cbSavedRegs + = $T0 .raSearchStart = $eip $T0 ^ = $esp $T0 4 + =
STACK WIN 4 4a8d a1 3 0 0 4 4 0 1 $T2 $esp .cbLocals + .cbSavedRegs + = $T0 .raSearchStart = $eip $T0 ^ = $esp $T0 4 + = $ebx $T0 8 - ^ =
STACK WIN 4 4a8e 9f 2 0 0 8 4 0 1 $T2 $esp .cbLocals + .cbSavedRegs + = $T0 .raSearchStart = $eip $T0 ^ = $esp $T0 4 + = $ebx $T0 8 - ^ =
STACK WIN 4 4aaa 82 0 0 0 c 4 0 1 $T2 $esp .cbLocals + .cbSavedRegs + = $T0 .raSearchStart = $eip $T0 ^ = $esp $T0 4 + = $ebx $T0 8 - ^ =
STACK WIN 4 4ab6 75 0 0 0 10 4 0 1 $T2 $esp .cbLocals + .cbSavedRegs + = $T0 .raSearchStart = $eip $T0 ^ = $esp $T0 4 + = $ebp $T0 20 - ^ = $ebx $T0 8 - ^ =
STACK WIN 4 4b30 ef 1c 0 8 0 8 0 1 $T0 $ebp = $eip $T0 4 + ^ = $ebp $T0 ^ = $esp $T0 8 + = $L $T0 .cbSavedRegs - = $P $T0 8 + .cbParams + =
STACK WIN 4 4b3e d4 e 0 8 4 8 0 1 $T0 $ebp = $eip $T0 4 + ^ = $ebp $T0 ^ = $esp $T0 8 + = $L $T0 .cbSavedRegs - = $P $T0 8 + .cbParams + = $ebx $T0 12 - ^ =
STACK WIN 4 4b4b c6 1 0 8 8 8 0 1 $T0 $ebp = $eip $T0 4 + ^ = $ebp $T0 ^ = $esp $T0 8 + = $L $T0 .cbSavedRegs - = $P $T0 8 + .cbParams + = $ebx $T0 12 - ^ =
STACK WIN 4 4b4c c4 0 0 8 c 8 0 1 $T0 $ebp = $eip $T0 4 + ^ = $ebp $T0 ^ = $esp $T0 8 + = $L $T0 .cbSavedRegs - = $P $T0 8 + .cbParams + = $ebx $T0 12 - ^ =
STACK WIN 4 4c1f 118 f 0 4 0 18 0 1 $T2 $esp .cbLocals + .cbSavedRegs + = $T0 .raSearchStart = $eip $T0 ^ = $esp $T0 4 + =
STACK WIN 4 4c29 10a 5 0 4 4 18 0 1 $T2 $esp .cbLocals + .cbSavedRegs + = $T0 .raSearchStart = $eip $T0 ^ = $esp $T0 4 + = $ebx $T0 28 - ^ =
STACK WIN 4 4c2a 108 4 0 4 8 18 0 1 $T2 $esp .cbLocals + .cbSavedRegs + = $T0 .raSearchStart = $eip $T0 ^ = $esp $T0 4 + = $ebp $T0 32 - ^ = $ebx $T0 28 - ^ =
STACK WIN 4 4c2f 102 0 0 4 c 18 0 1 $T2 $esp .cbLocals + .cbSavedRegs + = $T0 .raSearchStart = $eip $T0 ^ = $esp $T0 4 + = $ebp $T0 32 - ^ = $ebx $T0 28 - ^ =
STACK WIN 4 4d37 16 0 0 0 0 0 0 1 $T2 $esp .cbLocals + .cbSavedRegs + = $T0 .raSearchStart = $eip $T0 ^ = $esp $T0 4 + =
STACK WIN 4 4d4d 34 0 0 0 0 0 0 1 $T2 $esp .cbLocals + .cbSavedRegs + = $T0 .raSearchStart = $eip $T0 ^ = $esp $T0 4 + =
STACK WIN 4 4d65 b 0 0 0 4 0 0 1 $T2 $esp .cbLocals + .cbSavedRegs + = $T0 .raSearchStart = $eip $T0 ^ = $esp $T0 4 + =
STACK WIN 4 4d81 ba 4 0 0 0 0 0 1 $T2 $esp .cbLocals + .cbSavedRegs + = $T0 .raSearchStart = $eip $T0 ^ = $esp $T0 4 + =
STACK WIN 4 4d82 b8 3 0 0 4 0 0 1 $T2 $esp .cbLocals + .cbSavedRegs + = $T0 .raSearchStart = $eip $T0 ^ = $esp $T0 4 + =
STACK WIN 4 4d83 b6 2 0 0 8 0 0 1 $T2 $esp .cbLocals + .cbSavedRegs + = $T0 .raSearchStart = $eip $T0 ^ = $esp $T0 4 + =
STACK WIN 4 4d9b 9d 0 0 0 c 0 0 1 $T2 $esp .cbLocals + .cbSavedRegs + = $T0 .raSearchStart = $eip $T0 ^ = $esp $T0 4 + = $ebx $T0 12 - ^ =
STACK WIN 4 4da4 93 0 0 0 10 0 0 1 $T2 $esp .cbLocals + .cbSavedRegs + = $T0 .raSearchStart = $eip $T0 ^ = $esp $T0 4 + = $ebp $T0 16 - ^ = $ebx $T0 12 - ^ =
STACK WIN 4 4e3b 122 3 0 4 0 0 0 1 $T2 $esp .cbLocals + .cbSavedRegs + = $T0 .raSearchStart = $eip $T0 ^ = $esp $T0 4 + =
STACK WIN 4 4e3c 120 2 0 4 4 0 0 1 $T2 $esp .cbLocals + .cbSavedRegs + = $T0 .raSearchStart = $eip $T0 ^ = $esp $T0 4 + =
STACK WIN 4 4e46 115 0 0 4 8 0 0 1 $T2 $esp .cbLocals + .cbSavedRegs + = $T0 .raSearchStart = $eip $T0 ^ = $esp $T0 4 + =
STACK WIN 4 4f5d 25 1 0 4 0 0 0 1 $T2 $esp .cbLocals + .cbSavedRegs + = $T0 .raSearchStart = $eip $T0 ^ = $esp $T0 4 + =
STACK WIN 4 4f5e 23 0 0 4 4 0 0 1 $T2 $esp .cbLocals + .cbSavedRegs + = $T0 .raSearchStart = $eip $T0 ^ = $esp $T0 4 + =
STACK WIN 4 4f82 1a 0 0 8 0 0 0 1 $T2 $esp .cbLocals + .cbSavedRegs + = $T0 .raSearchStart = $eip $T0 ^ = $esp $T0 4 + =
STACK WIN 4 4f9c 31 0 0 c 0 0 0 1 $T2 $esp .cbLocals + .cbSavedRegs + = $T0 .raSearchStart = $eip $T0 ^ = $esp $T0 4 + =
STACK WIN 4 4fcd 12 0 0 4 0 0 0 1 $T2 $esp .cbLocals + .cbSavedRegs + = $T0 .raSearchStart = $eip $T0 ^ = $esp $T0 4 + =
STACK WIN 4 4fe1 7a 4 0 8 0 0 0 1 $T0 $ebp = $eip $T0 4 + ^ = $ebp $T0 ^ = $esp $T0 8 + = $L $T0 .cbSavedRegs - = $P $T0 8 + .cbParams + =
STACK WIN 4 4fe5 74 0 0 8 4 0 0 1 $T0 $ebp = $eip $T0 4 + ^ = $ebp $T0 ^ = $esp $T0 8 + = $L $T0 .cbSavedRegs - = $P $T0 8 + .cbParams + =
STACK WIN 4 5009 b 0 0 8 8 0 0 1 $T0 $ebp = $eip $T0 4 + ^ = $ebp $T0 ^ = $esp $T0 8 + = $L $T0 .cbSavedRegs - = $P $T0 8 + .cbParams + =
STACK WIN 4 505b 5a 8 0 8 0 0 0 1 $T2 $esp .cbLocals + .cbSavedRegs + = $T0 .raSearchStart = $eip $T0 ^ = $esp $T0 4 + =
STACK WIN 4 505c 58 7 0 8 4 0 0 1 $T2 $esp .cbLocals + .cbSavedRegs + = $T0 .raSearchStart = $eip $T0 ^ = $esp $T0 4 + =
STACK WIN 4 5063 4e 0 0 8 8 0 0 1 $T2 $esp .cbLocals + .cbSavedRegs + = $T0 .raSearchStart = $eip $T0 ^ = $esp $T0 4 + =
STACK WIN 4 507e c 0 0 8 c 0 0 1 $T2 $esp .cbLocals + .cbSavedRegs + = $T0 .raSearchStart = $eip $T0 ^ = $esp $T0 4 + = $ebx $T0 12 - ^ =
STACK WIN 4 50b5 4a b 0 c 0 0 0 1 $T0 $ebp = $eip $T0 4 + ^ = $ebp $T0 ^ = $esp $T0 8 + = $L $T0 .cbSavedRegs - = $P $T0 8 + .cbParams + =
STACK WIN 4 50b9 44 7 0 c 4 0 0 1 $T0 $ebp = $eip $T0 4 + ^ = $ebp $T0 ^ = $esp $T0 8 + = $L $T0 .cbSavedRegs - = $P $T0 8 + .cbParams + = $ebx $T0 4 - ^ =
STACK WIN 4 50bf 3d 1 0 c 8 0 0 1 $T0 $ebp = $eip $T0 4 + ^ = $ebp $T0 ^ = $esp $T0 8 + = $L $T0 .cbSavedRegs - = $P $T0 8 + .cbParams + = $ebx $T0 4 - ^ =
STACK WIN 4 50c0 3b 0 0 c c 0 0 1 $T0 $ebp = $eip $T0 4 + ^ = $ebp $T0 ^ = $esp $T0 8 + = $L $T0 .cbSavedRegs - = $P $T0 8 + .cbParams + = $ebx $T0 4 - ^ =
STACK WIN 4 50ff 35 2 0 4 0 0 0 1 $T2 $esp .cbLocals + .cbSavedRegs + = $T0 .raSearchStart = $eip $T0 ^ = $esp $T0 4 + =
STACK WIN 4 5100 33 1 0 4 4 0 0 1 $T2 $esp .cbLocals + .cbSavedRegs + = $T0 .raSearchStart = $eip $T0 ^ = $esp $T0 4 + =
STACK WIN 4 5101 31 0 0 4 8 0 0 1 $T2 $esp .cbLocals + .cbSavedRegs + = $T0 .raSearchStart = $eip $T0 ^ = $esp $T0 4 + =
STACK WIN 4 5134 28 6 0 8 0 0 0 1 $T2 $esp .cbLocals + .cbSavedRegs + = $T0 .raSearchStart = $eip $T0 ^ = $esp $T0 4 + =
STACK WIN 4 5135 26 5 0 8 4 0 0 1 $T2 $esp .cbLocals + .cbSavedRegs + = $T0 .raSearchStart = $eip $T0 ^ = $esp $T0 4 + =
STACK WIN 4 513a 20 0 0 8 8 0 0 1 $T2 $esp .cbLocals + .cbSavedRegs + = $T0 .raSearchStart = $eip $T0 ^ = $esp $T0 4 + =
STACK WIN 4 515c 17 0 0 4 0 0 0 1 $T2 $esp .cbLocals + .cbSavedRegs + = $T0 .raSearchStart = $eip $T0 ^ = $esp $T0 4 + =
STACK WIN 4 521c f 0 0 0 0 0 0 1 $T2 $esp .cbLocals + .cbSavedRegs + = $T0 .raSearchStart = $eip $T0 ^ = $esp $T0 4 + =
STACK WIN 4 5268 4d 1 0 0 0 0 0 1 $T2 $esp .cbLocals + .cbSavedRegs + = $T0 .raSearchStart = $eip $T0 ^ = $esp $T0 4 + =
STACK WIN 4 5269 4b 0 0 0 4 0 0 1 $T2 $esp .cbLocals + .cbSavedRegs + = $T0 .raSearchStart = $eip $T0 ^ = $esp $T0 4 + =
STACK WIN 4 52b5 1c3 5 0 c 0 0 0 1 $T2 $esp .cbLocals + .cbSavedRegs + = $T0 .raSearchStart = $eip $T0 ^ = $esp $T0 4 + =
STACK WIN 4 52ba 1bb 0 0 c 4 0 0 1 $T2 $esp .cbLocals + .cbSavedRegs + = $T0 .raSearchStart = $eip $T0 ^ = $esp $T0 4 + = $ebp $T0 4 - ^ =
STACK WIN 4 52da 19a 0 0 c 8 0 0 1 $T2 $esp .cbLocals + .cbSavedRegs + = $T0 .raSearchStart = $eip $T0 ^ = $esp $T0 4 + = $ebp $T0 4 - ^ = $ebx $T0 8 - ^ =
STACK WIN 4 52db 198 0 0 c c 0 0 1 $T2 $esp .cbLocals + .cbSavedRegs + = $T0 .raSearchStart = $eip $T0 ^ = $esp $T0 4 + = $ebp $T0 4 - ^ = $ebx $T0 8 - ^ =
STACK WIN 4 52dc 196 0 0 c 10 0 0 1 $T2 $esp .cbLocals + .cbSavedRegs + = $T0 .raSearchStart = $eip $T0 ^ = $esp $T0 4 + = $ebp $T0 4 - ^ = $ebx $T0 8 - ^ =
STACK WIN 4 5478 116 13 0 4 c 20 0 1 $T0 $ebp = $eip $T0 4 + ^ = $ebp $T0 ^ = $esp $T0 8 + = $L $T0 .cbSavedRegs - = $P $T0 8 + .cbParams + =
STACK WIN 4 554f 14 0 0 4 c 20 0 1 $T0 $ebp = $T2 $esp = $T1 .raSearchStart = $eip $T1 ^ = $ebp $T0 = $esp $T1 4 + = $L $T0 .cbSavedRegs - = $P $T1 4 + .cbParams + =
STACK WIN 4 5583 a 0 0 4 c 20 0 1 $T0 $ebp = $T2 $esp = $T1 .raSearchStart = $eip $T1 ^ = $ebp $T0 = $esp $T1 4 + = $L $T0 .cbSavedRegs - = $P $T1 4 + .cbParams + =
STACK WIN 4 558e 21 0 0 c 0 0 0 1 $T2 $esp .cbLocals + .cbSavedRegs + = $T0 .raSearchStart = $eip $T0 ^ = $esp $T0 4 + =
STACK WIN 4 55af 104 9 0 0 0 328 0 1 $T0 $ebp = $eip $T0 4 + ^ = $ebp $T0 ^ = $esp $T0 8 + = $L $T0 .cbSavedRegs - = $P $T0 8 + .cbParams + =
STACK WIN 4 56b3 c 0 0 0 0 0 0 1 $T2 $esp .cbLocals + .cbSavedRegs + = $T0 .raSearchStart = $eip $T0 ^ = $esp $T0 4 + =
STACK WIN 4 56bf a5 c 0 4 c 24 0 1 $T0 $ebp = $eip $T0 4 + ^ = $ebp $T0 ^ = $esp $T0 8 + = $L $T0 .cbSavedRegs - = $P $T0 8 + .cbParams + =
STACK WIN 4 575b 8 0 0 4 c 24 0 1 $T0 $ebp = $T2 $esp = $T1 .raSearchStart = $eip $T1 ^ = $ebp $T0 = $esp $T1 4 + = $L $T0 .cbSavedRegs - = $P $T1 4 + .cbParams + =
STACK WIN 4 5764 12 0 0 4 0 0 0 1 $T2 $esp .cbLocals + .cbSavedRegs + = $T0 .raSearchStart = $eip $T0 ^ = $esp $T0 4 + =
STACK WIN 4 5776 24 2 0 0 0 0 0 1 $T2 $esp .cbLocals + .cbSavedRegs + = $T0 .raSearchStart = $eip $T0 ^ = $esp $T0 4 + =
STACK WIN 4 5777 22 1 0 0 4 0 0 1 $T2 $esp .cbLocals + .cbSavedRegs + = $T0 .raSearchStart = $eip $T0 ^ = $esp $T0 4 + =
STACK WIN 4 5778 20 0 0 0 8 0 0 1 $T2 $esp .cbLocals + .cbSavedRegs + = $T0 .raSearchStart = $eip $T0 ^ = $esp $T0 4 + =
STACK WIN 4 579a 24 2 0 0 0 0 0 1 $T2 $esp .cbLocals + .cbSavedRegs + = $T0 .raSearchStart = $eip $T0 ^ = $esp $T0 4 + =
STACK WIN 4 579b 22 1 0 0 4 0 0 1 $T2 $esp .cbLocals + .cbSavedRegs + = $T0 .raSearchStart = $eip $T0 ^ = $esp $T0 4 + =
STACK WIN 4 579c 20 0 0 0 8 0 0 1 $T2 $esp .cbLocals + .cbSavedRegs + = $T0 .raSearchStart = $eip $T0 ^ = $esp $T0 4 + =
STACK WIN 4 57c0 29 0 0 4 0 0 0 1 $T2 $esp .cbLocals + .cbSavedRegs + = $T0 .raSearchStart = $eip $T0 ^ = $esp $T0 4 + =
STACK WIN 4 57f0 42 18 0 8 0 0 0 1 $T2 $esp .cbLocals + .cbSavedRegs + = $T0 .raSearchStart = $eip $T0 ^ = $esp $T0 4 + =
STACK WIN 4 57fe 33 a 0 8 4 0 0 1 $T2 $esp .cbLocals + .cbSavedRegs + = $T0 .raSearchStart = $eip $T0 ^ = $esp $T0 4 + = $ebx $T0 4 - ^ =
STACK WIN 4 57ff 31 9 0 8 8 0 0 1 $T2 $esp .cbLocals + .cbSavedRegs + = $T0 .raSearchStart = $eip $T0 ^ = $esp $T0 4 + = $ebx $T0 4 - ^ =
STACK WIN 4 5808 27 0 0 8 c 0 0 1 $T2 $esp .cbLocals + .cbSavedRegs + = $T0 .raSearchStart = $eip $T0 ^ = $esp $T0 4 + = $ebx $T0 4 - ^ =
STACK WIN 4 5840 bb 33 0 4 c 18 0 1 $T0 $ebp = $eip $T0 4 + ^ = $ebp $T0 ^ = $esp $T0 8 + = $L $T0 .cbSavedRegs - = $P $T0 8 + .cbParams + =
STACK WIN 4 585a a1 19 0 4 10 18 0 1 $T0 $ebp = $eip $T0 4 + ^ = $ebp $T0 ^ = $esp $T0 8 + = $L $T0 .cbSavedRegs - = $P $T0 8 + .cbParams + = $ebx $T0 28 - ^ =
STACK WIN 4 58c9 14 0 0 4 c 18 0 1 $T0 $ebp = $T2 $esp = $T1 .raSearchStart = $eip $T1 ^ = $ebp $T0 = $esp $T1 4 + = $L $T0 .cbSavedRegs - = $P $T1 4 + .cbParams + = $ebx $T0 28 - ^ =
STACK WIN 4 596d 23 0 0 10 0 0 0 1 $T2 $esp .cbLocals + .cbSavedRegs + = $T0 .raSearchStart = $eip $T0 ^ = $esp $T0 4 + =
STACK WIN 4 5990 94 15 0 0 0 10 0 1 $T0 $ebp = $eip $T0 4 + ^ = $ebp $T0 ^ = $esp $T0 8 + = $L $T0 .cbSavedRegs - = $P $T0 8 + .cbParams + =
STACK WIN 4 59a4 7e 1 0 0 4 10 0 1 $T0 $ebp = $eip $T0 4 + ^ = $ebp $T0 ^ = $esp $T0 8 + = $L $T0 .cbSavedRegs - = $P $T0 8 + .cbParams + = $ebx $T0 20 - ^ =
STACK WIN 4 59a5 7c 0 0 0 8 10 0 1 $T0 $ebp = $eip $T0 4 + ^ = $ebp $T0 ^ = $esp $T0 8 + = $L $T0 .cbSavedRegs - = $P $T0 8 + .cbParams + = $ebx $T0 20 - ^ =
STACK WIN 4 59c1 5f 0 0 0 c 10 0 1 $T0 $ebp = $eip $T0 4 + ^ = $ebp $T0 ^ = $esp $T0 8 + = $L $T0 .cbSavedRegs - = $P $T0 8 + .cbParams + = $ebx $T0 20 - ^ =
STACK WIN 0 554f 14 0 0 0 0 0 0 0 0
STACK WIN 0 5583 b 0 0 0 0 0 0 0 0
STACK WIN 0 575b 9 0 0 0 0 0 0 0 0
STACK WIN 0 58c9 14 0 0 0 0 0 0 0 0
