MODULE windows x86 3D5AE3E44219467A83EA873937B279FF1 libGLESv2.pdb
FUNC 1000 61 4 AddString
FUNC 1061 44 0 InitHashTable
FUNC 10a5 1f 8 Match
FUNC 10c4 94 0 GrowAtomTable
FUNC 1158 27 0 lReverse
FUNC 117f 3a 0 AllocateAtom
FUNC 11b9 45 8 GetAtomString
FUNC 11fe 1b 8 GetReversedAtom
FUNC 1219 6a 4 AddAtomFixed
FUNC 1283 11 8 GetStringOfAtom
FUNC 1294 5b 4 FreeAtomTable
FUNC 12ef 190 0 FindHashLoc
FUNC 147f 6b 4 IncreaseHashTableSize
FUNC 14ea 49 8 LookUpAddStringHash
FUNC 1533 3f 8 LookUpAddString
FUNC 1572 10a 8 InitAtomTable
FUNC 167c 1d 0 FreeCPP
FUNC 1699 27c 0 CPPdefine
FUNC 1915 6b 0 CPPundef
FUNC 1980 12 8 op_logor
FUNC 1992 10 8 op_logand
FUNC 19a2 9 8 op_or
FUNC 19ab 9 8 op_xor
FUNC 19b4 9 8 op_and
FUNC 19bd e 8 op_eq
FUNC 19cb e 8 op_ne
FUNC 19d9 e 8 op_ge
FUNC 19e7 e 8 op_le
FUNC 19f5 e 8 op_gt
FUNC 1a03 e 8 op_lt
FUNC 1a11 b 8 op_shl
FUNC 1a1c b 8 op_shr
FUNC 1a27 b 8 op_add
FUNC 1a32 9 8 op_sub
FUNC 1a3b a 8 op_mul
FUNC 1a45 a 8 op_div
FUNC 1a4f c 8 op_mod
FUNC 1a5b 5 4 op_pos
FUNC 1a60 7 4 op_neg
FUNC 1a67 7 4 op_cmpl
FUNC 1a6e a 4 op_not
FUNC 1a78 a4 0 CPPline
FUNC 1b1c 9c 0 CPPerror
FUNC 1bb8 17c 4 CPPpragma
FUNC 1d34 9e 0 CPPversion
FUNC 1dd2 117 0 CPPextension
FUNC 1ee9 cb 8 PredefineIntMacro
FUNC 1fb4 4 8 eof_scan
FUNC 1fb8 3e 0 PushEofSrc
FUNC 1ff6 db 4 PrescanMacroArg
FUNC 20d1 c0 8 macro_scan
FUNC 2191 2c7 8 MacroExpand
FUNC 2458 25 0 ChkCorrectElseNesting
FUNC 247d 27b 0 InitCPP
FUNC 26f8 1f0 4 CPPelse
FUNC 28e8 25b 14 eval
FUNC 2b43 ed 4 CPPif
FUNC 2c30 118 4 CPPifdef
FUNC 2d48 283 4 readCPPline
FUNC 2fcb 71 0 ResetPreprocessor
FUNC 303c 20 0 FreeCPPStruct
FUNC 305c 19 0 FinalizePreprocessor
FUNC 3075 3c 0 InitCPPStruct
FUNC 30b1 49 0 InitPreprocessor
FUNC 30fa 5b 8 mem_CreatePool
FUNC 3155 2d 4 mem_FreePool
FUNC 3182 7b 8 mem_Alloc
FUNC 31fd 3e c mem_AddCleanup
FUNC 323b 35 4 InitScanner
FUNC 3270 5 0 FreeScanner
FUNC 3275 b0 4 str_getch
FUNC 3325 38 c str_ungetch
FUNC 335d 194 0 lFloatConst
FUNC 34f1 9ca 8 byte_scan
FUNC 3ebb 33 4 check_EOF
FUNC 3eee 50 4 ScanFromString
FUNC 3f3e 186 8 yylex_CPP
FUNC 40c4 22 4 unlinkScope
FUNC 40e6 56 4 NewScopeInPool
FUNC 413c 41 10 NewSymbol
FUNC 417d 8b 10 AddSymbol
FUNC 4208 51 8 LookUpLocalSymbol
FUNC 4259 2c 8 LookUpSymbol
FUNC 4285 4a 4 lNewBlock
FUNC 42cf 24 0 lAddByte
FUNC 42f3 34 0 lReadByte
FUNC 4327 96 8 NewTokenStream
FUNC 43bd 37 4 DeleteTokenStream
FUNC 43f4 a7 c RecordToken
FUNC 449b 13 4 RewindTokenStream
FUNC 44ae 1da 8 ReadToken
FUNC 4688 8a 8 scan_token
FUNC 4712 56 c ReadFromTokenStream
FUNC 4768 2f 8 reget_token
FUNC 4797 69 8 UngetToken
FUNC 4800 c 0 std::bad_alloc::~bad_alloc()
FUNC 480c 23 0 std::bad_alloc::`scalar deleting destructor'(unsigned int)
FUNC 482f 22 4 std::logic_error::logic_error(std::basic_string<char,std::char_traits<char>,std::allocator<char> > const &)
FUNC 4851 1b 0 std::logic_error::~logic_error()
FUNC 486c e 0 std::logic_error::what()
FUNC 487a 1c 0 std::logic_error::`scalar deleting destructor'(unsigned int)
FUNC 4896 b 0 std::length_error::~length_error()
FUNC 48a1 22 0 std::length_error::`vector deleting destructor'(unsigned int)
FUNC 48c3 b 0 std::out_of_range::~out_of_range()
FUNC 48ce 22 0 std::out_of_range::`scalar deleting destructor'(unsigned int)
FUNC 48f0 27 8 `anonymous namespace'::TScopedPoolAllocator::TScopedPoolAllocator(TPoolAllocator *,bool)
FUNC 4917 1b 0 `anonymous namespace'::TScopedPoolAllocator::~TScopedPoolAllocator()
FUNC 4932 2e 0 TShHandleBase::TShHandleBase()
FUNC 4960 23 0 TShHandleBase::~TShHandleBase()
FUNC 4983 5e 4 TCompiler::detectRecursion(TIntermNode *)
FUNC 49e1 2b 4 TCompiler::collectAttribsUniforms(TIntermNode *)
FUNC 4a0c 24 4 TCompiler::mapLongVariableNames(TIntermNode *)
FUNC 4a30 16 0 std::vector<std::map<TBasicType,TPrecision,std::less<TBasicType>,std::allocator<std::pair<TBasicType const ,TPrecision> > >,std::allocator<std::map<TBasicType,TPrecision,std::less<TBasicType>,std::allocator<std::pair<TBasicType const ,TPrecision> > > > >::size()
FUNC 4a46 16 0 std::vector<std::map<TBasicType,TPrecision,std::less<TBasicType>,std::allocator<std::pair<TBasicType const ,TPrecision> > >,std::allocator<std::map<TBasicType,TPrecision,std::less<TBasicType>,std::allocator<std::pair<TBasicType const ,TPrecision> > > > >::capacity()
FUNC 4a5c 29 4 std::logic_error::logic_error(std::logic_error const &)
FUNC 4a85 18 4 std::length_error::length_error(std::length_error const &)
FUNC 4a9d 44 4 std::_Tree<std::_Tmap_traits<_D3DFORMAT,bool *,std::less<_D3DFORMAT>,std::allocator<std::pair<_D3DFORMAT const ,bool *> >,0> >::_Rrotate(std::_Tree_nod<std::_Tmap_traits<_D3DFORMAT,bool *,std::less<_D3DFORMAT>,std::allocator<std::pair<_D3DFORMAT const ,bool *> >,0> >::_Node *)
FUNC 4ae1 44 4 std::_Tree<std::_Tmap_traits<std::basic_string<char,std::char_traits<char>,pool_allocator<char> >,std::basic_string<char,std::char_traits<char>,pool_allocator<char> >,std::less<std::basic_string<char,std::char_traits<char>,pool_allocator<char> > >,pool_allocator<std::pair<std::basic_string<char,std::char_traits<char>,pool_allocator<char> > const ,std::basic_string<char,std::char_traits<char>,pool_allocator<char> > > >,0> >::_Rrotate(std::_Tree_nod<std::_Tmap_traits<std::basic_string<char,std::char_traits<char>,pool_allocator<char> >,std::basic_string<char,std::char_traits<char>,pool_allocator<char> >,std::less<std::basic_string<char,std::char_traits<char>,pool_allocator<char> > >,pool_allocator<std::pair<std::basic_string<char,std::char_traits<char>,pool_allocator<char> > const ,std::basic_string<char,std::char_traits<char>,pool_allocator<char> > > >,0> >::_Node *)
FUNC 4b25 36 0 std::_Tree<std::_Tmap_traits<TBasicType,TPrecision,std::less<TBasicType>,std::allocator<std::pair<TBasicType const ,TPrecision> >,0> >::const_iterator::_Inc()
FUNC 4b5b 42 4 std::_Tree<std::_Tmap_traits<std::basic_string<char,std::char_traits<char>,std::allocator<char> >,std::basic_string<char,std::char_traits<char>,std::allocator<char> >,std::less<std::basic_string<char,std::char_traits<char>,std::allocator<char> > >,std::allocator<std::pair<std::basic_string<char,std::char_traits<char>,std::allocator<char> > const ,std::basic_string<char,std::char_traits<char>,std::allocator<char> > > >,0> >::_Lrotate(std::_Tree_nod<std::_Tmap_traits<std::basic_string<char,std::char_traits<char>,std::allocator<char> >,std::basic_string<char,std::char_traits<char>,std::allocator<char> >,std::less<std::basic_string<char,std::char_traits<char>,std::allocator<char> > >,std::allocator<std::pair<std::basic_string<char,std::char_traits<char>,std::allocator<char> > const ,std::basic_string<char,std::char_traits<char>,std::allocator<char> > > >,0> >::_Node *)
FUNC 4b9d 44 4 std::_Tree<std::_Tmap_traits<std::basic_string<char,std::char_traits<char>,std::allocator<char> >,std::basic_string<char,std::char_traits<char>,std::allocator<char> >,std::less<std::basic_string<char,std::char_traits<char>,std::allocator<char> > >,std::allocator<std::pair<std::basic_string<char,std::char_traits<char>,std::allocator<char> > const ,std::basic_string<char,std::char_traits<char>,std::allocator<char> > > >,0> >::_Rrotate(std::_Tree_nod<std::_Tmap_traits<std::basic_string<char,std::char_traits<char>,std::allocator<char> >,std::basic_string<char,std::char_traits<char>,std::allocator<char> >,std::less<std::basic_string<char,std::char_traits<char>,std::allocator<char> > >,std::allocator<std::pair<std::basic_string<char,std::char_traits<char>,std::allocator<char> > const ,std::basic_string<char,std::char_traits<char>,std::allocator<char> > > >,0> >::_Node *)
FUNC 4be1 32 14 std::_Tree_nod<std::_Tmap_traits<_D3DFORMAT,bool *,std::less<_D3DFORMAT>,std::allocator<std::pair<_D3DFORMAT const ,bool *> >,0> >::_Node::_Node(std::_Tree_nod<std::_Tmap_traits<_D3DFORMAT,bool *,std::less<_D3DFORMAT>,std::allocator<std::pair<_D3DFORMAT const ,bool *> >,0> >::_Node *,std::_Tree_nod<std::_Tmap_traits<_D3DFORMAT,bool *,std::less<_D3DFORMAT>,std::allocator<std::pair<_D3DFORMAT const ,bool *> >,0> >::_Node *,std::_Tree_nod<std::_Tmap_traits<_D3DFORMAT,bool *,std::less<_D3DFORMAT>,std::allocator<std::pair<_D3DFORMAT const ,bool *> >,0> >::_Node *,std::pair<_D3DFORMAT const ,bool *> const &,char)
FUNC 4c13 36 0 std::_Tree<std::_Tmap_traits<std::basic_string<char,std::char_traits<char>,pool_allocator<char> >,TSymbol *,std::less<std::basic_string<char,std::char_traits<char>,pool_allocator<char> > >,pool_allocator<std::pair<std::basic_string<char,std::char_traits<char>,pool_allocator<char> > const ,TSymbol *> >,0> >::const_iterator::_Inc()
FUNC 4c49 36 0 std::_Tree<std::_Tmap_traits<std::basic_string<char,std::char_traits<char>,std::allocator<char> >,std::basic_string<char,std::char_traits<char>,std::allocator<char> >,std::less<std::basic_string<char,std::char_traits<char>,std::allocator<char> > >,std::allocator<std::pair<std::basic_string<char,std::char_traits<char>,std::allocator<char> > const ,std::basic_string<char,std::char_traits<char>,std::allocator<char> > > >,0> >::const_iterator::_Inc()
FUNC 4c7f 4e 8 std::_Allocate<std::map<TBasicType,TPrecision,std::less<TBasicType>,std::allocator<std::pair<TBasicType const ,TPrecision> > > >(unsigned int,std::map<TBasicType,TPrecision,std::less<TBasicType>,std::allocator<std::pair<TBasicType const ,TPrecision> > > *)
FUNC 4ccd 4e 8 std::_Allocate<TVariableInfo>(unsigned int,TVariableInfo *)
FUNC 4d1b 4e 8 std::_Allocate<std::_Tree_nod<std::_Tmap_traits<std::basic_string<char,std::char_traits<char>,std::allocator<char> >,std::basic_string<char,std::char_traits<char>,std::allocator<char> >,std::less<std::basic_string<char,std::char_traits<char>,std::allocator<char> > >,std::allocator<std::pair<std::basic_string<char,std::char_traits<char>,std::allocator<char> > const ,std::basic_string<char,std::char_traits<char>,std::allocator<char> > > >,0> >::_Node>(unsigned int,std::_Tree_nod<std::_Tmap_traits<std::basic_string<char,std::char_traits<char>,std::allocator<char> >,std::basic_string<char,std::char_traits<char>,std::allocator<char> >,std::less<std::basic_string<char,std::char_traits<char>,std::allocator<char> > >,std::allocator<std::pair<std::basic_string<char,std::char_traits<char>,std::allocator<char> > const ,std::basic_string<char,std::char_traits<char>,std::allocator<char> > > >,0> >::_Node *)
FUNC 4d69 19 4 std::bad_alloc::bad_alloc(std::bad_alloc const &)
FUNC 4d82 15 0 TVariableInfo::~TVariableInfo()
FUNC 4d97 1d 14 std::_Traits_helper::copy_s<std::char_traits<char> >(char *,unsigned int,char const *,unsigned int,std::_Secure_char_traits_tag)
FUNC 4db4 2f 4 TVariableInfo::operator=(TVariableInfo const &)
FUNC 4de3 1c 0 TShHandleBase::`scalar deleting destructor'(unsigned int)
FUNC 4dff 1f 0 TInfoSink::TInfoSink()
FUNC 4e1e 1e 0 TInfoSink::~TInfoSink()
FUNC 4e3c e 0 std::basic_string<char,std::char_traits<char>,pool_allocator<char> >::c_str()
FUNC 4e4a 1c 4 std::basic_string<char,std::char_traits<char>,pool_allocator<char> >::_Eos(unsigned int)
FUNC 4e66 42 4 std::_Tree<std::_Tmap_traits<std::basic_string<char,std::char_traits<char>,pool_allocator<char> >,TBehavior,std::less<std::basic_string<char,std::char_traits<char>,pool_allocator<char> > >,pool_allocator<std::pair<std::basic_string<char,std::char_traits<char>,pool_allocator<char> > const ,TBehavior> >,0> >::_Lrotate(std::_Tree_nod<std::_Tmap_traits<std::basic_string<char,std::char_traits<char>,pool_allocator<char> >,TBehavior,std::less<std::basic_string<char,std::char_traits<char>,pool_allocator<char> > >,pool_allocator<std::pair<std::basic_string<char,std::char_traits<char>,pool_allocator<char> > const ,TBehavior> >,0> >::_Node *)
FUNC 4ea8 44 4 std::_Tree<std::_Tmap_traits<std::basic_string<char,std::char_traits<char>,pool_allocator<char> >,TBehavior,std::less<std::basic_string<char,std::char_traits<char>,pool_allocator<char> > >,pool_allocator<std::pair<std::basic_string<char,std::char_traits<char>,pool_allocator<char> > const ,TBehavior> >,0> >::_Rrotate(std::_Tree_nod<std::_Tmap_traits<std::basic_string<char,std::char_traits<char>,pool_allocator<char> >,TBehavior,std::less<std::basic_string<char,std::char_traits<char>,pool_allocator<char> > >,pool_allocator<std::pair<std::basic_string<char,std::char_traits<char>,pool_allocator<char> > const ,TBehavior> >,0> >::_Node *)
FUNC 4eec 42 4 std::_Tree<std::_Tmap_traits<std::basic_string<char,std::char_traits<char>,pool_allocator<char> >,std::basic_string<char,std::char_traits<char>,pool_allocator<char> >,std::less<std::basic_string<char,std::char_traits<char>,pool_allocator<char> > >,pool_allocator<std::pair<std::basic_string<char,std::char_traits<char>,pool_allocator<char> > const ,std::basic_string<char,std::char_traits<char>,pool_allocator<char> > > >,0> >::_Lrotate(std::_Tree_nod<std::_Tmap_traits<std::basic_string<char,std::char_traits<char>,pool_allocator<char> >,std::basic_string<char,std::char_traits<char>,pool_allocator<char> >,std::less<std::basic_string<char,std::char_traits<char>,pool_allocator<char> > >,pool_allocator<std::pair<std::basic_string<char,std::char_traits<char>,pool_allocator<char> > const ,std::basic_string<char,std::char_traits<char>,pool_allocator<char> > > >,0> >::_Node *)
FUNC 4f2e 4e 0 std::_Tree<std::_Tmap_traits<std::basic_string<char,std::char_traits<char>,pool_allocator<char> >,TSymbol *,std::less<std::basic_string<char,std::char_traits<char>,pool_allocator<char> > >,pool_allocator<std::pair<std::basic_string<char,std::char_traits<char>,pool_allocator<char> > const ,TSymbol *> >,0> >::_Buynode()
FUNC 4f7c 1d 10 std::_Traits_helper::copy_s<std::char_traits<char> >(char *,unsigned int,char const *,unsigned int)
FUNC 4f99 24 18 std::_Copy_opt<TVariableInfo *,TVariableInfo *,std::random_access_iterator_tag>(TVariableInfo *,TVariableInfo *,TVariableInfo *,std::random_access_iterator_tag,std::_Nonscalar_ptr_iterator_tag,std::_Range_checked_iterator_tag)
FUNC 4fbd 22 14 std::_Fill_n<gl::Uniform * *,unsigned int,gl::Uniform *,std::random_access_iterator_tag>(gl::Uniform * *,unsigned int,gl::Uniform * const &,std::random_access_iterator_tag,std::_Range_checked_iterator_tag)
FUNC 4fdf 41 8 std::basic_string<char,std::char_traits<char>,pool_allocator<char> >::_Tidy(bool,unsigned int)
FUNC 5020 25 0 std::_Tree<std::_Tmap_traits<std::basic_string<char,std::char_traits<char>,pool_allocator<char> >,TSymbol *,std::less<std::basic_string<char,std::char_traits<char>,pool_allocator<char> > >,pool_allocator<std::pair<std::basic_string<char,std::char_traits<char>,pool_allocator<char> > const ,TSymbol *> >,0> >::_Init()
FUNC 5045 18 4 std::out_of_range::out_of_range(std::out_of_range const &)
FUNC 505d 5a 0 std::_Tree<std::_Tmap_traits<TBasicType,TPrecision,std::less<TBasicType>,std::allocator<std::pair<TBasicType const ,TPrecision> >,0> >::_Buynode()
FUNC 50b7 5b 14 std::_Tree<std::_Tmap_traits<TBasicType,TPrecision,std::less<TBasicType>,std::allocator<std::pair<TBasicType const ,TPrecision> >,0> >::_Buynode(std::_Tree_nod<std::_Tmap_traits<TBasicType,TPrecision,std::less<TBasicType>,std::allocator<std::pair<TBasicType const ,TPrecision> >,0> >::_Node *,std::_Tree_nod<std::_Tmap_traits<TBasicType,TPrecision,std::less<TBasicType>,std::allocator<std::pair<TBasicType const ,TPrecision> >,0> >::_Node *,std::_Tree_nod<std::_Tmap_traits<TBasicType,TPrecision,std::less<TBasicType>,std::allocator<std::pair<TBasicType const ,TPrecision> >,0> >::_Node *,std::pair<TBasicType const ,TPrecision> const &,char)
FUNC 5112 5a 0 std::_Tree<std::_Tmap_traits<std::basic_string<char,std::char_traits<char>,std::allocator<char> >,std::basic_string<char,std::char_traits<char>,std::allocator<char> >,std::less<std::basic_string<char,std::char_traits<char>,std::allocator<char> > >,std::allocator<std::pair<std::basic_string<char,std::char_traits<char>,std::allocator<char> > const ,std::basic_string<char,std::char_traits<char>,std::allocator<char> > > >,0> >::_Buynode()
FUNC 516c 4e 0 std::_Tree<std::_Tmap_traits<std::basic_string<char,std::char_traits<char>,pool_allocator<char> >,std::basic_string<char,std::char_traits<char>,pool_allocator<char> >,std::less<std::basic_string<char,std::char_traits<char>,pool_allocator<char> > >,pool_allocator<std::pair<std::basic_string<char,std::char_traits<char>,pool_allocator<char> > const ,std::basic_string<char,std::char_traits<char>,pool_allocator<char> > > >,0> >::_Buynode()
FUNC 51ba 4e 0 std::_Tree<std::_Tmap_traits<std::basic_string<char,std::char_traits<char>,pool_allocator<char> >,TBehavior,std::less<std::basic_string<char,std::char_traits<char>,pool_allocator<char> > >,pool_allocator<std::pair<std::basic_string<char,std::char_traits<char>,pool_allocator<char> > const ,TBehavior> >,0> >::_Buynode()
FUNC 5208 85 8 std::_Tree<std::_Tmap_traits<TBasicType,TPrecision,std::less<TBasicType>,std::allocator<std::pair<TBasicType const ,TPrecision> >,0> >::_Copy(std::_Tree_nod<std::_Tmap_traits<TBasicType,TPrecision,std::less<TBasicType>,std::allocator<std::pair<TBasicType const ,TPrecision> >,0> >::_Node *,std::_Tree_nod<std::_Tmap_traits<TBasicType,TPrecision,std::less<TBasicType>,std::allocator<std::pair<TBasicType const ,TPrecision> >,0> >::_Node *)
FUNC 528d 28 c stdext::unchecked_copy<TVariableInfo *,TVariableInfo *>(TVariableInfo *,TVariableInfo *,TVariableInfo *)
FUNC 52b5 1f 0 std::_Tree_nod<std::_Tmap_traits<std::basic_string<char,std::char_traits<char>,std::allocator<char> >,std::basic_string<char,std::char_traits<char>,std::allocator<char> >,std::less<std::basic_string<char,std::char_traits<char>,std::allocator<char> > >,std::allocator<std::pair<std::basic_string<char,std::char_traits<char>,std::allocator<char> > const ,std::basic_string<char,std::char_traits<char>,std::allocator<char> > > >,0> >::_Node::`scalar deleting destructor'(unsigned int)
FUNC 52d4 25 c stdext::unchecked_fill_n<gl::Uniform * *,unsigned int,gl::Uniform *>(gl::Uniform * *,unsigned int,gl::Uniform * const &)
FUNC 52f9 1e 0 std::basic_string<char,std::char_traits<char>,pool_allocator<char> >::basic_string<char,std::char_traits<char>,pool_allocator<char> >()
FUNC 5317 25 0 std::_Tree<std::_Tmap_traits<TBasicType,TPrecision,std::less<TBasicType>,std::allocator<std::pair<TBasicType const ,TPrecision> >,0> >::_Init()
FUNC 533c 25 0 std::_Tree<std::_Tmap_traits<std::basic_string<char,std::char_traits<char>,std::allocator<char> >,std::basic_string<char,std::char_traits<char>,std::allocator<char> >,std::less<std::basic_string<char,std::char_traits<char>,std::allocator<char> > >,std::allocator<std::pair<std::basic_string<char,std::char_traits<char>,std::allocator<char> > const ,std::basic_string<char,std::char_traits<char>,std::allocator<char> > > >,0> >::_Init()
FUNC 5361 25 0 std::_Tree<std::_Tmap_traits<std::basic_string<char,std::char_traits<char>,pool_allocator<char> >,std::basic_string<char,std::char_traits<char>,pool_allocator<char> >,std::less<std::basic_string<char,std::char_traits<char>,pool_allocator<char> > >,pool_allocator<std::pair<std::basic_string<char,std::char_traits<char>,pool_allocator<char> > const ,std::basic_string<char,std::char_traits<char>,pool_allocator<char> > > >,0> >::_Init()
FUNC 5386 25 0 std::_Tree<std::_Tmap_traits<std::basic_string<char,std::char_traits<char>,pool_allocator<char> >,TBehavior,std::less<std::basic_string<char,std::char_traits<char>,pool_allocator<char> > >,pool_allocator<std::pair<std::basic_string<char,std::char_traits<char>,pool_allocator<char> > const ,TBehavior> >,0> >::_Init()
FUNC 53ab 60 4 std::_Tree<std::_Tmap_traits<TBasicType,TPrecision,std::less<TBasicType>,std::allocator<std::pair<TBasicType const ,TPrecision> >,0> >::_Copy(std::_Tree<std::_Tmap_traits<TBasicType,TPrecision,std::less<TBasicType>,std::allocator<std::pair<TBasicType const ,TPrecision> >,0> > const &)
FUNC 540b 1c 0 std::pair<std::basic_string<char,std::char_traits<char>,pool_allocator<char> > const ,std::basic_string<char,std::char_traits<char>,pool_allocator<char> > >::~pair<std::basic_string<char,std::char_traits<char>,pool_allocator<char> > const ,std::basic_string<char,std::char_traits<char>,pool_allocator<char> > >()
FUNC 5427 19 10 std::_Destroy_range<TVariableInfo,std::allocator<TVariableInfo> >(TVariableInfo *,TVariableInfo *,std::allocator<TVariableInfo> &,std::_Nonscalar_ptr_iterator_tag)
FUNC 5440 1d 10 std::_Destroy_range<std::basic_string<char,std::char_traits<char>,pool_allocator<char> >,pool_allocator<std::basic_string<char,std::char_traits<char>,pool_allocator<char> > > >(std::basic_string<char,std::char_traits<char>,pool_allocator<char> > *,std::basic_string<char,std::char_traits<char>,pool_allocator<char> > *,pool_allocator<std::basic_string<char,std::char_traits<char>,pool_allocator<char> > > &,std::_Nonscalar_ptr_iterator_tag)
FUNC 545d 2f 4 std::_Tree<std::_Tmap_traits<TBasicType,TPrecision,std::less<TBasicType>,std::allocator<std::pair<TBasicType const ,TPrecision> >,0> >::operator=(std::_Tree<std::_Tmap_traits<TBasicType,TPrecision,std::less<TBasicType>,std::allocator<std::pair<TBasicType const ,TPrecision> >,0> > const &)
FUNC 548c 20 c std::vector<TIntermNode *,pool_allocator<TIntermNode *> >::_Ufill(TIntermNode * *,unsigned int,TIntermNode * const &)
FUNC 54ac 1d 8 std::_Tree<std::_Tmap_traits<std::basic_string<char,std::char_traits<char>,pool_allocator<char> >,std::basic_string<char,std::char_traits<char>,pool_allocator<char> >,std::less<std::basic_string<char,std::char_traits<char>,pool_allocator<char> > >,pool_allocator<std::pair<std::basic_string<char,std::char_traits<char>,pool_allocator<char> > const ,std::basic_string<char,std::char_traits<char>,pool_allocator<char> > > >,0> >::_Tree<std::_Tmap_traits<std::basic_string<char,std::char_traits<char>,pool_allocator<char> >,std::basic_string<char,std::char_traits<char>,pool_allocator<char> >,std::less<std::basic_string<char,std::char_traits<char>,pool_allocator<char> > >,pool_allocator<std::pair<std::basic_string<char,std::char_traits<char>,pool_allocator<char> > const ,std::basic_string<char,std::char_traits<char>,pool_allocator<char> > > >,0> >(std::less<std::basic_string<char,std::char_traits<char>,pool_allocator<char> > > const &,pool_allocator<std::pair<std::basic_string<char,std::char_traits<char>,pool_allocator<char> > const ,std::basic_string<char,std::char_traits<char>,pool_allocator<char> > > > const &)
FUNC 54c9 1d 8 std::_Tree<std::_Tmap_traits<std::basic_string<char,std::char_traits<char>,pool_allocator<char> >,TSymbol *,std::less<std::basic_string<char,std::char_traits<char>,pool_allocator<char> > >,pool_allocator<std::pair<std::basic_string<char,std::char_traits<char>,pool_allocator<char> > const ,TSymbol *> >,0> >::_Tree<std::_Tmap_traits<std::basic_string<char,std::char_traits<char>,pool_allocator<char> >,TSymbol *,std::less<std::basic_string<char,std::char_traits<char>,pool_allocator<char> > >,pool_allocator<std::pair<std::basic_string<char,std::char_traits<char>,pool_allocator<char> > const ,TSymbol *> >,0> >(std::less<std::basic_string<char,std::char_traits<char>,pool_allocator<char> > > const &,pool_allocator<std::pair<std::basic_string<char,std::char_traits<char>,pool_allocator<char> > const ,TSymbol *> > const &)
FUNC 54e6 1a7 c std::vector<TSymbolTableLevel *,std::allocator<TSymbolTableLevel *> >::_Insert_n(std::_Vector_iterator<TSymbolTableLevel *,std::allocator<TSymbolTableLevel *> >,unsigned int,TSymbolTableLevel * const &)
FUNC 568d 1d 8 std::_Tree<std::_Tmap_traits<std::basic_string<char,std::char_traits<char>,pool_allocator<char> >,TBehavior,std::less<std::basic_string<char,std::char_traits<char>,pool_allocator<char> > >,pool_allocator<std::pair<std::basic_string<char,std::char_traits<char>,pool_allocator<char> > const ,TBehavior> >,0> >::_Tree<std::_Tmap_traits<std::basic_string<char,std::char_traits<char>,pool_allocator<char> >,TBehavior,std::less<std::basic_string<char,std::char_traits<char>,pool_allocator<char> > >,pool_allocator<std::pair<std::basic_string<char,std::char_traits<char>,pool_allocator<char> > const ,TBehavior> >,0> >(std::less<std::basic_string<char,std::char_traits<char>,pool_allocator<char> > > const &,pool_allocator<std::pair<std::basic_string<char,std::char_traits<char>,pool_allocator<char> > const ,TBehavior> > const &)
FUNC 56aa 44 4 std::_Tree<std::_Tmap_traits<TBasicType,TPrecision,std::less<TBasicType>,std::allocator<std::pair<TBasicType const ,TPrecision> >,0> >::_Tree<std::_Tmap_traits<TBasicType,TPrecision,std::less<TBasicType>,std::allocator<std::pair<TBasicType const ,TPrecision> >,0> >(std::_Tree<std::_Tmap_traits<TBasicType,TPrecision,std::less<TBasicType>,std::allocator<std::pair<TBasicType const ,TPrecision> >,0> > const &)
FUNC 56ee 27a 4 std::_Tree<std::_Tmap_traits<std::basic_string<char,std::char_traits<char>,std::allocator<char> >,std::basic_string<char,std::char_traits<char>,std::allocator<char> >,std::less<std::basic_string<char,std::char_traits<char>,std::allocator<char> > >,std::allocator<std::pair<std::basic_string<char,std::char_traits<char>,std::allocator<char> > const ,std::basic_string<char,std::char_traits<char>,std::allocator<char> > > >,0> >::erase(std::_Tree<std::_Tmap_traits<std::basic_string<char,std::char_traits<char>,std::allocator<char> >,std::basic_string<char,std::char_traits<char>,std::allocator<char> >,std::less<std::basic_string<char,std::char_traits<char>,std::allocator<char> > >,std::allocator<std::pair<std::basic_string<char,std::char_traits<char>,std::allocator<char> > const ,std::basic_string<char,std::char_traits<char>,std::allocator<char> > > >,0> >::iterator)
FUNC 5968 3b 4 std::_Tree<std::_Tmap_traits<std::basic_string<char,std::char_traits<char>,std::allocator<char> >,std::basic_string<char,std::char_traits<char>,std::allocator<char> >,std::less<std::basic_string<char,std::char_traits<char>,std::allocator<char> > >,std::allocator<std::pair<std::basic_string<char,std::char_traits<char>,std::allocator<char> > const ,std::basic_string<char,std::char_traits<char>,std::allocator<char> > > >,0> >::_Erase(std::_Tree_nod<std::_Tmap_traits<std::basic_string<char,std::char_traits<char>,std::allocator<char> >,std::basic_string<char,std::char_traits<char>,std::allocator<char> >,std::less<std::basic_string<char,std::char_traits<char>,std::allocator<char> > >,std::allocator<std::pair<std::basic_string<char,std::char_traits<char>,std::allocator<char> > const ,std::basic_string<char,std::char_traits<char>,std::allocator<char> > > >,0> >::_Node *)
FUNC 59a3 1a c std::_Destroy_range<TVariableInfo,std::allocator<TVariableInfo> >(TVariableInfo *,TVariableInfo *,std::allocator<TVariableInfo> &)
FUNC 59bd 1a c std::_Destroy_range<std::basic_string<char,std::char_traits<char>,pool_allocator<char> >,pool_allocator<std::basic_string<char,std::char_traits<char>,pool_allocator<char> > > >(std::basic_string<char,std::char_traits<char>,pool_allocator<char> > *,std::basic_string<char,std::char_traits<char>,pool_allocator<char> > *,pool_allocator<std::basic_string<char,std::char_traits<char>,pool_allocator<char> > > &)
FUNC 59d7 3d 8 std::vector<TSymbolTableLevel *,std::allocator<TSymbolTableLevel *> >::insert(std::_Vector_iterator<TSymbolTableLevel *,std::allocator<TSymbolTableLevel *> >,TSymbolTableLevel * const &)
FUNC 5a14 272 4 std::_Tree<std::_Tmap_traits<std::basic_string<char,std::char_traits<char>,pool_allocator<char> >,std::basic_string<char,std::char_traits<char>,pool_allocator<char> >,std::less<std::basic_string<char,std::char_traits<char>,pool_allocator<char> > >,pool_allocator<std::pair<std::basic_string<char,std::char_traits<char>,pool_allocator<char> > const ,std::basic_string<char,std::char_traits<char>,pool_allocator<char> > > >,0> >::erase(std::_Tree<std::_Tmap_traits<std::basic_string<char,std::char_traits<char>,pool_allocator<char> >,std::basic_string<char,std::char_traits<char>,pool_allocator<char> >,std::less<std::basic_string<char,std::char_traits<char>,pool_allocator<char> > >,pool_allocator<std::pair<std::basic_string<char,std::char_traits<char>,pool_allocator<char> > const ,std::basic_string<char,std::char_traits<char>,pool_allocator<char> > > >,0> >::iterator)
FUNC 5c86 276 4 std::_Tree<std::_Tmap_traits<std::basic_string<char,std::char_traits<char>,pool_allocator<char> >,TBehavior,std::less<std::basic_string<char,std::char_traits<char>,pool_allocator<char> > >,pool_allocator<std::pair<std::basic_string<char,std::char_traits<char>,pool_allocator<char> > const ,TBehavior> >,0> >::erase(std::_Tree<std::_Tmap_traits<std::basic_string<char,std::char_traits<char>,pool_allocator<char> >,TBehavior,std::less<std::basic_string<char,std::char_traits<char>,pool_allocator<char> > >,pool_allocator<std::pair<std::basic_string<char,std::char_traits<char>,pool_allocator<char> > const ,TBehavior> >,0> >::iterator)
FUNC 5efc 26 0 std::_Tree<std::_Tmap_traits<std::basic_string<char,std::char_traits<char>,std::allocator<char> >,std::basic_string<char,std::char_traits<char>,std::allocator<char> >,std::less<std::basic_string<char,std::char_traits<char>,std::allocator<char> > >,std::allocator<std::pair<std::basic_string<char,std::char_traits<char>,std::allocator<char> > const ,std::basic_string<char,std::char_traits<char>,std::allocator<char> > > >,0> >::clear()
FUNC 5f22 33 4 std::_Tree<std::_Tmap_traits<std::basic_string<char,std::char_traits<char>,pool_allocator<char> >,std::basic_string<char,std::char_traits<char>,pool_allocator<char> >,std::less<std::basic_string<char,std::char_traits<char>,pool_allocator<char> > >,pool_allocator<std::pair<std::basic_string<char,std::char_traits<char>,pool_allocator<char> > const ,std::basic_string<char,std::char_traits<char>,pool_allocator<char> > > >,0> >::_Erase(std::_Tree_nod<std::_Tmap_traits<std::basic_string<char,std::char_traits<char>,pool_allocator<char> >,std::basic_string<char,std::char_traits<char>,pool_allocator<char> >,std::less<std::basic_string<char,std::char_traits<char>,pool_allocator<char> > >,pool_allocator<std::pair<std::basic_string<char,std::char_traits<char>,pool_allocator<char> > const ,std::basic_string<char,std::char_traits<char>,pool_allocator<char> > > >,0> >::_Node *)
FUNC 5f55 37 4 std::_Tree<std::_Tmap_traits<std::basic_string<char,std::char_traits<char>,pool_allocator<char> >,TBehavior,std::less<std::basic_string<char,std::char_traits<char>,pool_allocator<char> > >,pool_allocator<std::pair<std::basic_string<char,std::char_traits<char>,pool_allocator<char> > const ,TBehavior> >,0> >::_Erase(std::_Tree_nod<std::_Tmap_traits<std::basic_string<char,std::char_traits<char>,pool_allocator<char> >,TBehavior,std::less<std::basic_string<char,std::char_traits<char>,pool_allocator<char> > >,pool_allocator<std::pair<std::basic_string<char,std::char_traits<char>,pool_allocator<char> > const ,TBehavior> >,0> >::_Node *)
FUNC 5f8c 1d c std::_Fill<std::map<TBasicType,TPrecision,std::less<TBasicType>,std::allocator<std::pair<TBasicType const ,TPrecision> > > *,std::map<TBasicType,TPrecision,std::less<TBasicType>,std::allocator<std::pair<TBasicType const ,TPrecision> > > >(std::map<TBasicType,TPrecision,std::less<TBasicType>,std::allocator<std::pair<TBasicType const ,TPrecision> > > *,std::map<TBasicType,TPrecision,std::less<TBasicType>,std::allocator<std::pair<TBasicType const ,TPrecision> > > *,std::map<TBasicType,TPrecision,std::less<TBasicType>,std::allocator<std::pair<TBasicType const ,TPrecision> > > const &)
FUNC 5fa9 21 4 std::_Tree<std::_Tmap_traits<TBasicType,TPrecision,std::less<TBasicType>,std::allocator<std::pair<TBasicType const ,TPrecision> >,0> >::swap(std::_Tree<std::_Tmap_traits<TBasicType,TPrecision,std::less<TBasicType>,std::allocator<std::pair<TBasicType const ,TPrecision> >,0> > &)
FUNC 5fca 40 4 std::vector<TSymbolTableLevel *,std::allocator<TSymbolTableLevel *> >::push_back(TSymbolTableLevel * const &)
FUNC 600a 3a 8 std::vector<TVariableInfo,std::allocator<TVariableInfo> >::erase(std::_Vector_iterator<TVariableInfo,std::allocator<TVariableInfo> >,std::_Vector_iterator<TVariableInfo,std::allocator<TVariableInfo> >)
FUNC 6044 2d 0 std::vector<TVariableInfo,std::allocator<TVariableInfo> >::_Tidy()
FUNC 6071 25 0 std::vector<std::basic_string<char,std::char_traits<char>,pool_allocator<char> >,pool_allocator<std::basic_string<char,std::char_traits<char>,pool_allocator<char> > > >::_Tidy()
FUNC 6096 53 8 std::_Tree<std::_Tmap_traits<std::basic_string<char,std::char_traits<char>,std::allocator<char> >,std::basic_string<char,std::char_traits<char>,std::allocator<char> >,std::less<std::basic_string<char,std::char_traits<char>,std::allocator<char> > >,std::allocator<std::pair<std::basic_string<char,std::char_traits<char>,std::allocator<char> > const ,std::basic_string<char,std::char_traits<char>,std::allocator<char> > > >,0> >::erase(std::_Tree<std::_Tmap_traits<std::basic_string<char,std::char_traits<char>,std::allocator<char> >,std::basic_string<char,std::char_traits<char>,std::allocator<char> >,std::less<std::basic_string<char,std::char_traits<char>,std::allocator<char> > >,std::allocator<std::pair<std::basic_string<char,std::char_traits<char>,std::allocator<char> > const ,std::basic_string<char,std::char_traits<char>,std::allocator<char> > > >,0> >::iterator,std::_Tree<std::_Tmap_traits<std::basic_string<char,std::char_traits<char>,std::allocator<char> >,std::basic_string<char,std::char_traits<char>,std::allocator<char> >,std::less<std::basic_string<char,std::char_traits<char>,std::allocator<char> > >,std::allocator<std::pair<std::basic_string<char,std::char_traits<char>,std::allocator<char> > const ,std::basic_string<char,std::char_traits<char>,std::allocator<char> > > >,0> >::iterator)
FUNC 60e9 26 0 std::_Tree<std::_Tmap_traits<std::basic_string<char,std::char_traits<char>,pool_allocator<char> >,std::basic_string<char,std::char_traits<char>,pool_allocator<char> >,std::less<std::basic_string<char,std::char_traits<char>,pool_allocator<char> > >,pool_allocator<std::pair<std::basic_string<char,std::char_traits<char>,pool_allocator<char> > const ,std::basic_string<char,std::char_traits<char>,pool_allocator<char> > > >,0> >::clear()
FUNC 610f 26 0 std::_Tree<std::_Tmap_traits<std::basic_string<char,std::char_traits<char>,pool_allocator<char> >,TSymbol *,std::less<std::basic_string<char,std::char_traits<char>,pool_allocator<char> > >,pool_allocator<std::pair<std::basic_string<char,std::char_traits<char>,pool_allocator<char> > const ,TSymbol *> >,0> >::clear()
FUNC 6135 14 8 std::allocator<std::map<TBasicType,TPrecision,std::less<TBasicType>,std::allocator<std::pair<TBasicType const ,TPrecision> > > >::construct(std::map<TBasicType,TPrecision,std::less<TBasicType>,std::allocator<std::pair<TBasicType const ,TPrecision> > > *,std::map<TBasicType,TPrecision,std::less<TBasicType>,std::allocator<std::pair<TBasicType const ,TPrecision> > > const &)
FUNC 6149 2e 4 TCompiler::validateLimitations(TIntermNode *)
FUNC 6177 15 0 std::vector<TVariableInfo,std::allocator<TVariableInfo> >::clear()
FUNC 618c 2b 0 std::_Tree<std::_Tmap_traits<std::basic_string<char,std::char_traits<char>,std::allocator<char> >,std::basic_string<char,std::char_traits<char>,std::allocator<char> >,std::less<std::basic_string<char,std::char_traits<char>,std::allocator<char> > >,std::allocator<std::pair<std::basic_string<char,std::char_traits<char>,std::allocator<char> > const ,std::basic_string<char,std::char_traits<char>,std::allocator<char> > > >,0> >::_Tidy()
FUNC 61b7 53 8 std::_Tree<std::_Tmap_traits<std::basic_string<char,std::char_traits<char>,pool_allocator<char> >,std::basic_string<char,std::char_traits<char>,pool_allocator<char> >,std::less<std::basic_string<char,std::char_traits<char>,pool_allocator<char> > >,pool_allocator<std::pair<std::basic_string<char,std::char_traits<char>,pool_allocator<char> > const ,std::basic_string<char,std::char_traits<char>,pool_allocator<char> > > >,0> >::erase(std::_Tree<std::_Tmap_traits<std::basic_string<char,std::char_traits<char>,pool_allocator<char> >,std::basic_string<char,std::char_traits<char>,pool_allocator<char> >,std::less<std::basic_string<char,std::char_traits<char>,pool_allocator<char> > >,pool_allocator<std::pair<std::basic_string<char,std::char_traits<char>,pool_allocator<char> > const ,std::basic_string<char,std::char_traits<char>,pool_allocator<char> > > >,0> >::iterator,std::_Tree<std::_Tmap_traits<std::basic_string<char,std::char_traits<char>,pool_allocator<char> >,std::basic_string<char,std::char_traits<char>,pool_allocator<char> >,std::less<std::basic_string<char,std::char_traits<char>,pool_allocator<char> > >,pool_allocator<std::pair<std::basic_string<char,std::char_traits<char>,pool_allocator<char> > const ,std::basic_string<char,std::char_traits<char>,pool_allocator<char> > > >,0> >::iterator)
FUNC 620a 53 8 std::_Tree<std::_Tmap_traits<std::basic_string<char,std::char_traits<char>,pool_allocator<char> >,TBehavior,std::less<std::basic_string<char,std::char_traits<char>,pool_allocator<char> > >,pool_allocator<std::pair<std::basic_string<char,std::char_traits<char>,pool_allocator<char> > const ,TBehavior> >,0> >::erase(std::_Tree<std::_Tmap_traits<std::basic_string<char,std::char_traits<char>,pool_allocator<char> >,TBehavior,std::less<std::basic_string<char,std::char_traits<char>,pool_allocator<char> > >,pool_allocator<std::pair<std::basic_string<char,std::char_traits<char>,pool_allocator<char> > const ,TBehavior> >,0> >::iterator,std::_Tree<std::_Tmap_traits<std::basic_string<char,std::char_traits<char>,pool_allocator<char> >,TBehavior,std::less<std::basic_string<char,std::char_traits<char>,pool_allocator<char> > >,pool_allocator<std::pair<std::basic_string<char,std::char_traits<char>,pool_allocator<char> > const ,TBehavior> >,0> >::iterator)
FUNC 625d 27 18 std::_Move_backward_opt<std::map<TBasicType,TPrecision,std::less<TBasicType>,std::allocator<std::pair<TBasicType const ,TPrecision> > > *,std::map<TBasicType,TPrecision,std::less<TBasicType>,std::allocator<std::pair<TBasicType const ,TPrecision> > > *,std::random_access_iterator_tag>(std::map<TBasicType,TPrecision,std::less<TBasicType>,std::allocator<std::pair<TBasicType const ,TPrecision> > > *,std::map<TBasicType,TPrecision,std::less<TBasicType>,std::allocator<std::pair<TBasicType const ,TPrecision> > > *,std::map<TBasicType,TPrecision,std::less<TBasicType>,std::allocator<std::pair<TBasicType const ,TPrecision> > > *,std::random_access_iterator_tag,std::_Swap_move_tag,std::_Range_checked_iterator_tag)
FUNC 6284 46 0 TCompiler::clearResults()
FUNC 62ca 22 0 std::_Tree<std::_Tmap_traits<std::basic_string<char,std::char_traits<char>,pool_allocator<char> >,std::basic_string<char,std::char_traits<char>,pool_allocator<char> >,std::less<std::basic_string<char,std::char_traits<char>,pool_allocator<char> > >,pool_allocator<std::pair<std::basic_string<char,std::char_traits<char>,pool_allocator<char> > const ,std::basic_string<char,std::char_traits<char>,pool_allocator<char> > > >,0> >::_Tidy()
FUNC 62ec 22 0 std::_Tree<std::_Tmap_traits<std::basic_string<char,std::char_traits<char>,pool_allocator<char> >,TBehavior,std::less<std::basic_string<char,std::char_traits<char>,pool_allocator<char> > >,pool_allocator<std::pair<std::basic_string<char,std::char_traits<char>,pool_allocator<char> > const ,TBehavior> >,0> >::_Tidy()
FUNC 630e 28 c stdext::_Unchecked_move_backward<std::map<TBasicType,TPrecision,std::less<TBasicType>,std::allocator<std::pair<TBasicType const ,TPrecision> > > *,std::map<TBasicType,TPrecision,std::less<TBasicType>,std::allocator<std::pair<TBasicType const ,TPrecision> > > *>(std::map<TBasicType,TPrecision,std::less<TBasicType>,std::allocator<std::pair<TBasicType const ,TPrecision> > > *,std::map<TBasicType,TPrecision,std::less<TBasicType>,std::allocator<std::pair<TBasicType const ,TPrecision> > > *,std::map<TBasicType,TPrecision,std::less<TBasicType>,std::allocator<std::pair<TBasicType const ,TPrecision> > > *)
FUNC 6336 7d 18 std::_Uninit_move<std::map<TBasicType,TPrecision,std::less<TBasicType>,std::allocator<std::pair<TBasicType const ,TPrecision> > > *,std::map<TBasicType,TPrecision,std::less<TBasicType>,std::allocator<std::pair<TBasicType const ,TPrecision> > > *,std::allocator<std::map<TBasicType,TPrecision,std::less<TBasicType>,std::allocator<std::pair<TBasicType const ,TPrecision> > > > >(std::map<TBasicType,TPrecision,std::less<TBasicType>,std::allocator<std::pair<TBasicType const ,TPrecision> > > *,std::map<TBasicType,TPrecision,std::less<TBasicType>,std::allocator<std::pair<TBasicType const ,TPrecision> > > *,std::map<TBasicType,TPrecision,std::less<TBasicType>,std::allocator<std::pair<TBasicType const ,TPrecision> > > *,std::allocator<std::map<TBasicType,TPrecision,std::less<TBasicType>,std::allocator<std::pair<TBasicType const ,TPrecision> > > > &,std::_Swap_move_tag,std::_Range_checked_iterator_tag)
FUNC 63b3 24 0 std::map<std::basic_string<char,std::char_traits<char>,pool_allocator<char> >,std::basic_string<char,std::char_traits<char>,pool_allocator<char> >,std::less<std::basic_string<char,std::char_traits<char>,pool_allocator<char> > >,pool_allocator<std::pair<std::basic_string<char,std::char_traits<char>,pool_allocator<char> > const ,std::basic_string<char,std::char_traits<char>,pool_allocator<char> > > > >::map<std::basic_string<char,std::char_traits<char>,pool_allocator<char> >,std::basic_string<char,std::char_traits<char>,pool_allocator<char> >,std::less<std::basic_string<char,std::char_traits<char>,pool_allocator<char> > >,pool_allocator<std::pair<std::basic_string<char,std::char_traits<char>,pool_allocator<char> > const ,std::basic_string<char,std::char_traits<char>,pool_allocator<char> > > > >()
FUNC 63d7 24 0 std::map<std::basic_string<char,std::char_traits<char>,pool_allocator<char> >,TSymbol *,std::less<std::basic_string<char,std::char_traits<char>,pool_allocator<char> > >,pool_allocator<std::pair<std::basic_string<char,std::char_traits<char>,pool_allocator<char> > const ,TSymbol *> > >::map<std::basic_string<char,std::char_traits<char>,pool_allocator<char> >,TSymbol *,std::less<std::basic_string<char,std::char_traits<char>,pool_allocator<char> > >,pool_allocator<std::pair<std::basic_string<char,std::char_traits<char>,pool_allocator<char> > const ,TSymbol *> > >()
FUNC 63fb 24 0 std::map<std::basic_string<char,std::char_traits<char>,pool_allocator<char> >,TBehavior,std::less<std::basic_string<char,std::char_traits<char>,pool_allocator<char> > >,pool_allocator<std::pair<std::basic_string<char,std::char_traits<char>,pool_allocator<char> > const ,TBehavior> > >::map<std::basic_string<char,std::char_traits<char>,pool_allocator<char> >,TBehavior,std::less<std::basic_string<char,std::char_traits<char>,pool_allocator<char> > >,pool_allocator<std::pair<std::basic_string<char,std::char_traits<char>,pool_allocator<char> > const ,TBehavior> > >()
FUNC 641f 19 10 std::_Destroy_range<std::map<TBasicType,TPrecision,std::less<TBasicType>,std::allocator<std::pair<TBasicType const ,TPrecision> > >,std::allocator<std::map<TBasicType,TPrecision,std::less<TBasicType>,std::allocator<std::pair<TBasicType const ,TPrecision> > > > >(std::map<TBasicType,TPrecision,std::less<TBasicType>,std::allocator<std::pair<TBasicType const ,TPrecision> > > *,std::map<TBasicType,TPrecision,std::less<TBasicType>,std::allocator<std::pair<TBasicType const ,TPrecision> > > *,std::allocator<std::map<TBasicType,TPrecision,std::less<TBasicType>,std::allocator<std::pair<TBasicType const ,TPrecision> > > > &,std::_Nonscalar_ptr_iterator_tag)
FUNC 6438 5b 18 std::_Uninit_fill_n<std::map<TBasicType,TPrecision,std::less<TBasicType>,std::allocator<std::pair<TBasicType const ,TPrecision> > > *,unsigned int,std::map<TBasicType,TPrecision,std::less<TBasicType>,std::allocator<std::pair<TBasicType const ,TPrecision> > >,std::allocator<std::map<TBasicType,TPrecision,std::less<TBasicType>,std::allocator<std::pair<TBasicType const ,TPrecision> > > > >(std::map<TBasicType,TPrecision,std::less<TBasicType>,std::allocator<std::pair<TBasicType const ,TPrecision> > > *,unsigned int,std::map<TBasicType,TPrecision,std::less<TBasicType>,std::allocator<std::pair<TBasicType const ,TPrecision> > > const &,std::allocator<std::map<TBasicType,TPrecision,std::less<TBasicType>,std::allocator<std::pair<TBasicType const ,TPrecision> > > > &,std::_Nonscalar_ptr_iterator_tag,std::_Range_checked_iterator_tag)
FUNC 6493 28 10 stdext::_Unchecked_uninitialized_move<std::map<TBasicType,TPrecision,std::less<TBasicType>,std::allocator<std::pair<TBasicType const ,TPrecision> > > *,std::map<TBasicType,TPrecision,std::less<TBasicType>,std::allocator<std::pair<TBasicType const ,TPrecision> > > *,std::allocator<std::map<TBasicType,TPrecision,std::less<TBasicType>,std::allocator<std::pair<TBasicType const ,TPrecision> > > > >(std::map<TBasicType,TPrecision,std::less<TBasicType>,std::allocator<std::pair<TBasicType const ,TPrecision> > > *,std::map<TBasicType,TPrecision,std::less<TBasicType>,std::allocator<std::pair<TBasicType const ,TPrecision> > > *,std::map<TBasicType,TPrecision,std::less<TBasicType>,std::allocator<std::pair<TBasicType const ,TPrecision> > > *,std::allocator<std::map<TBasicType,TPrecision,std::less<TBasicType>,std::allocator<std::pair<TBasicType const ,TPrecision> > > > &)
FUNC 64bb 1a c std::_Destroy_range<std::map<TBasicType,TPrecision,std::less<TBasicType>,std::allocator<std::pair<TBasicType const ,TPrecision> > >,std::allocator<std::map<TBasicType,TPrecision,std::less<TBasicType>,std::allocator<std::pair<TBasicType const ,TPrecision> > > > >(std::map<TBasicType,TPrecision,std::less<TBasicType>,std::allocator<std::pair<TBasicType const ,TPrecision> > > *,std::map<TBasicType,TPrecision,std::less<TBasicType>,std::allocator<std::pair<TBasicType const ,TPrecision> > > *,std::allocator<std::map<TBasicType,TPrecision,std::less<TBasicType>,std::allocator<std::pair<TBasicType const ,TPrecision> > > > &)
FUNC 64d5 28 10 stdext::unchecked_uninitialized_fill_n<std::map<TBasicType,TPrecision,std::less<TBasicType>,std::allocator<std::pair<TBasicType const ,TPrecision> > > *,unsigned int,std::map<TBasicType,TPrecision,std::less<TBasicType>,std::allocator<std::pair<TBasicType const ,TPrecision> > >,std::allocator<std::map<TBasicType,TPrecision,std::less<TBasicType>,std::allocator<std::pair<TBasicType const ,TPrecision> > > > >(std::map<TBasicType,TPrecision,std::less<TBasicType>,std::allocator<std::pair<TBasicType const ,TPrecision> > > *,unsigned int,std::map<TBasicType,TPrecision,std::less<TBasicType>,std::allocator<std::pair<TBasicType const ,TPrecision> > > const &,std::allocator<std::map<TBasicType,TPrecision,std::less<TBasicType>,std::allocator<std::pair<TBasicType const ,TPrecision> > > > &)
FUNC 64fd 18 c std::vector<std::map<TBasicType,TPrecision,std::less<TBasicType>,std::allocator<std::pair<TBasicType const ,TPrecision> > >,std::allocator<std::map<TBasicType,TPrecision,std::less<TBasicType>,std::allocator<std::pair<TBasicType const ,TPrecision> > > > >::_Umove<std::map<TBasicType,TPrecision,std::less<TBasicType>,std::allocator<std::pair<TBasicType const ,TPrecision> > > *>(std::map<TBasicType,TPrecision,std::less<TBasicType>,std::allocator<std::pair<TBasicType const ,TPrecision> > > *,std::map<TBasicType,TPrecision,std::less<TBasicType>,std::allocator<std::pair<TBasicType const ,TPrecision> > > *,std::map<TBasicType,TPrecision,std::less<TBasicType>,std::allocator<std::pair<TBasicType const ,TPrecision> > > *)
FUNC 6515 1e 8 TPragma::TPragma(bool,bool)
FUNC 6533 18 0 TParseContext::~TParseContext()
FUNC 654b 2d 0 std::vector<std::map<TBasicType,TPrecision,std::less<TBasicType>,std::allocator<std::pair<TBasicType const ,TPrecision> > >,std::allocator<std::map<TBasicType,TPrecision,std::less<TBasicType>,std::allocator<std::pair<TBasicType const ,TPrecision> > > > >::_Tidy()
FUNC 6578 22 c std::vector<std::map<TBasicType,TPrecision,std::less<TBasicType>,std::allocator<std::pair<TBasicType const ,TPrecision> > >,std::allocator<std::map<TBasicType,TPrecision,std::less<TBasicType>,std::allocator<std::pair<TBasicType const ,TPrecision> > > > >::_Ufill(std::map<TBasicType,TPrecision,std::less<TBasicType>,std::allocator<std::pair<TBasicType const ,TPrecision> > > *,unsigned int,std::map<TBasicType,TPrecision,std::less<TBasicType>,std::allocator<std::pair<TBasicType const ,TPrecision> > > const &)
FUNC 659a 206 c std::vector<std::map<TBasicType,TPrecision,std::less<TBasicType>,std::allocator<std::pair<TBasicType const ,TPrecision> > >,std::allocator<std::map<TBasicType,TPrecision,std::less<TBasicType>,std::allocator<std::pair<TBasicType const ,TPrecision> > > > >::_Insert_n(std::_Vector_iterator<std::map<TBasicType,TPrecision,std::less<TBasicType>,std::allocator<std::pair<TBasicType const ,TPrecision> > >,std::allocator<std::map<TBasicType,TPrecision,std::less<TBasicType>,std::allocator<std::pair<TBasicType const ,TPrecision> > > > >,unsigned int,std::map<TBasicType,TPrecision,std::less<TBasicType>,std::allocator<std::pair<TBasicType const ,TPrecision> > > const &)
FUNC 67a0 74 24 TParseContext::TParseContext(TSymbolTable &,TMap<std::basic_string<char,std::char_traits<char>,pool_allocator<char> >,TBehavior,std::less<std::basic_string<char,std::char_traits<char>,pool_allocator<char> > > > &,TIntermediate &,ShShaderType,ShShaderSpec,int,bool,char const *,TInfoSink &)
FUNC 6814 23 0 std::vector<std::map<TBasicType,TPrecision,std::less<TBasicType>,std::allocator<std::pair<TBasicType const ,TPrecision> > >,std::allocator<std::map<TBasicType,TPrecision,std::less<TBasicType>,std::allocator<std::pair<TBasicType const ,TPrecision> > > > >::pop_back()
FUNC 6837 42 8 std::vector<std::map<TBasicType,TPrecision,std::less<TBasicType>,std::allocator<std::pair<TBasicType const ,TPrecision> > >,std::allocator<std::map<TBasicType,TPrecision,std::less<TBasicType>,std::allocator<std::pair<TBasicType const ,TPrecision> > > > >::insert(std::_Vector_iterator<std::map<TBasicType,TPrecision,std::less<TBasicType>,std::allocator<std::pair<TBasicType const ,TPrecision> > >,std::allocator<std::map<TBasicType,TPrecision,std::less<TBasicType>,std::allocator<std::pair<TBasicType const ,TPrecision> > > > >,std::map<TBasicType,TPrecision,std::less<TBasicType>,std::allocator<std::pair<TBasicType const ,TPrecision> > > const &)
FUNC 6879 32 0 TSymbolTable::pop()
FUNC 68ab 40 4 std::vector<std::map<TBasicType,TPrecision,std::less<TBasicType>,std::allocator<std::pair<TBasicType const ,TPrecision> > >,std::allocator<std::map<TBasicType,TPrecision,std::less<TBasicType>,std::allocator<std::pair<TBasicType const ,TPrecision> > > > >::push_back(std::map<TBasicType,TPrecision,std::less<TBasicType>,std::allocator<std::pair<TBasicType const ,TPrecision> > > const &)
FUNC 68eb 28 0 TSymbolTable::~TSymbolTable()
FUNC 6913 59 0 TSymbolTable::push()
FUNC 696c ff 18 `anonymous namespace'::InitializeSymbolTable(TVector<std::basic_string<char,std::char_traits<char>,pool_allocator<char> > > const &,ShShaderType,ShShaderSpec,ShBuiltInResources const &,TInfoSink &,TSymbolTable &)
FUNC 6a6b 82 8 TCompiler::TCompiler(ShShaderType,ShShaderSpec)
FUNC 6aed 55 0 TCompiler::~TCompiler()
FUNC 6b42 1b3 c TCompiler::compile(char const * const * const,int,int)
FUNC 6cf5 55 4 TCompiler::InitBuiltInSymbolTable(ShBuiltInResources const &)
FUNC 6d4a 1c 0 TCompiler::`scalar deleting destructor'(unsigned int)
FUNC 6d66 4b 4 TCompiler::Init(ShBuiltInResources const &)
FUNC 6db1 5 8 TIntermTraverser::visitBinary(Visit,TIntermBinary *)
FUNC 6db6 34 4 std::basic_string<char,std::char_traits<char>,pool_allocator<char> >::_Inside(char const *)
FUNC 6dea 68 10 std::basic_string<char,std::char_traits<char>,pool_allocator<char> >::compare(unsigned int,unsigned int,char const *,unsigned int)
FUNC 6e52 1d 14 std::_Traits_helper::move_s<std::char_traits<char> >(char *,unsigned int,char const *,unsigned int,std::_Secure_char_traits_tag)
FUNC 6e6f 2f 18 std::_Copy_backward_opt<int *,int *,std::random_access_iterator_tag>(int *,int *,int *,std::random_access_iterator_tag,std::_Scalar_ptr_iterator_tag,std::_Range_checked_iterator_tag)
FUNC 6e9e 21 10 std::_Fill_n<gl::Uniform * *,unsigned int,gl::Uniform *>(gl::Uniform * *,unsigned int,gl::Uniform * const &,std::_Range_checked_iterator_tag)
FUNC 6ebf 57 0 DetectRecursion::FunctionNode::detectRecursion()
FUNC 6f16 1d 10 std::_Traits_helper::move_s<std::char_traits<char> >(char *,unsigned int,char const *,unsigned int)
FUNC 6f33 24 4 std::basic_string<char,std::char_traits<char>,pool_allocator<char> >::compare(std::basic_string<char,std::char_traits<char>,pool_allocator<char> > const &)
FUNC 6f57 28 18 std::_Move_backward_opt<DetectRecursion::FunctionNode * *,DetectRecursion::FunctionNode * *,std::random_access_iterator_tag,std::_Undefined_move_tag>(DetectRecursion::FunctionNode * *,DetectRecursion::FunctionNode * *,DetectRecursion::FunctionNode * *,std::random_access_iterator_tag,std::_Undefined_move_tag,std::_Range_checked_iterator_tag)
FUNC 6f7f 70 8 std::basic_string<char,std::char_traits<char>,pool_allocator<char> >::erase(unsigned int,unsigned int)
FUNC 6fef ef 8 std::basic_string<char,std::char_traits<char>,pool_allocator<char> >::_Copy(unsigned int,unsigned int)
FUNC 70de 44 4 DetectRecursion::findFunctionByName(std::basic_string<char,std::char_traits<char>,pool_allocator<char> > const &)
FUNC 7122 5f 8 std::basic_string<char,std::char_traits<char>,pool_allocator<char> >::_Grow(unsigned int,bool)
FUNC 7181 93 c std::basic_string<char,std::char_traits<char>,pool_allocator<char> >::assign(std::basic_string<char,std::char_traits<char>,pool_allocator<char> > const &,unsigned int,unsigned int)
FUNC 7214 72 8 std::basic_string<char,std::char_traits<char>,pool_allocator<char> >::assign(char const *,unsigned int)
FUNC 7286 14 0 DetectRecursion::FunctionNode::~FunctionNode()
FUNC 729a 2d 4 std::basic_string<char,std::char_traits<char>,pool_allocator<char> >::basic_string<char,std::char_traits<char>,pool_allocator<char> >(std::basic_string<char,std::char_traits<char>,pool_allocator<char> > const &)
FUNC 72c7 1e 4 std::basic_string<char,std::char_traits<char>,pool_allocator<char> >::assign(char const *)
FUNC 72e5 192 c std::vector<DetectRecursion::FunctionNode *,pool_allocator<DetectRecursion::FunctionNode *> >::_Insert_n(std::_Vector_iterator<DetectRecursion::FunctionNode *,pool_allocator<DetectRecursion::FunctionNode *> >,unsigned int,DetectRecursion::FunctionNode * const &)
FUNC 7477 1e 4 DetectRecursion::FunctionNode::FunctionNode(std::basic_string<char,std::char_traits<char>,pool_allocator<char> > const &)
FUNC 7495 2c 0 DetectRecursion::DetectRecursion()
FUNC 74c1 2b 4 std::basic_string<char,std::char_traits<char>,pool_allocator<char> >::basic_string<char,std::char_traits<char>,pool_allocator<char> >(char const *)
FUNC 74ec 3d 8 std::vector<DetectRecursion::FunctionNode *,pool_allocator<DetectRecursion::FunctionNode *> >::insert(std::_Vector_iterator<DetectRecursion::FunctionNode *,pool_allocator<DetectRecursion::FunctionNode *> >,DetectRecursion::FunctionNode * const &)
FUNC 7529 50 0 DetectRecursion::~DetectRecursion()
FUNC 7579 47 0 DetectRecursion::detectRecursion()
FUNC 75c0 40 4 std::vector<DetectRecursion::FunctionNode *,pool_allocator<DetectRecursion::FunctionNode *> >::push_back(DetectRecursion::FunctionNode * const &)
FUNC 7600 41 4 DetectRecursion::FunctionNode::addCallee(DetectRecursion::FunctionNode *)
FUNC 7641 b0 8 DetectRecursion::visitAggregate(Visit,TIntermAggregate *)
FUNC 76f1 23 c DecodeSourceLoc(int,int *,int *)
FUNC 7714 49 4 TInfoSinkBase::prefix(TPrefixType)
FUNC 775d 29 8 TInfoSinkBase::message(TPrefixType,char const *)
FUNC 7786 25 4 std::basic_ostream<char,std::char_traits<char> >::_Sentry_base::_Sentry_base(std::basic_ostream<char,std::char_traits<char> > &)
FUNC 77ab 19 0 std::basic_ostream<char,std::char_traits<char> >::_Sentry_base::~_Sentry_base()
FUNC 77c4 41 4 std::basic_ostream<char,std::char_traits<char> >::sentry::sentry(std::basic_ostream<char,std::char_traits<char> > &)
FUNC 7805 1d 0 std::basic_ostream<char,std::char_traits<char> >::sentry::~sentry()
FUNC 7822 140 8 std::operator<<<std::char_traits<char> >(std::basic_ostream<char,std::char_traits<char> > &,char const *)
FUNC 7962 b8 4 TInfoSinkBase::location(int)
FUNC 7a1a 34 c TInfoSinkBase::message(TPrefixType,char const *,int)
FUNC 7a4e 6a 18 TType::TType(TBasicType,TPrecision,TQualifier,int,bool,bool)
FUNC 7ab8 3 0 TSymbol::isVariable()
FUNC 7abb b 0 TVariable::`vector deleting destructor'(unsigned int)
FUNC 7ac6 31 c TVariable::TVariable(std::basic_string<char,std::char_traits<char>,pool_allocator<char> > const *,TType const &,bool)
FUNC 7af7 3 0 TVariable::isVariable()
FUNC 7afa 16 0 std::vector<std::basic_string<char,std::char_traits<char>,pool_allocator<char> >,pool_allocator<std::basic_string<char,std::char_traits<char>,pool_allocator<char> > > >::capacity()
FUNC 7b10 16 0 std::vector<std::basic_string<char,std::char_traits<char>,pool_allocator<char> >,pool_allocator<std::basic_string<char,std::char_traits<char>,pool_allocator<char> > > >::size()
FUNC 7b26 28 0 std::basic_stringbuf<char,std::char_traits<char>,pool_allocator<char> >::_Tidy()
FUNC 7b4e 29 4 std::basic_stringbuf<char,std::char_traits<char>,pool_allocator<char> >::_Getstate(int)
FUNC 7b77 17 0 std::basic_stringbuf<char,std::char_traits<char>,pool_allocator<char> >::~basic_stringbuf<char,std::char_traits<char>,pool_allocator<char> >()
FUNC 7b8e 48 4 std::basic_stringbuf<char,std::char_traits<char>,pool_allocator<char> >::pbackfail(int)
FUNC 7bd6 5d 0 std::basic_stringbuf<char,std::char_traits<char>,pool_allocator<char> >::underflow()
FUNC 7c33 13a c std::basic_stringbuf<char,std::char_traits<char>,pool_allocator<char> >::seekoff(long,int,int)
FUNC 7d6d cc 1c std::basic_stringbuf<char,std::char_traits<char>,pool_allocator<char> >::seekpos(std::fpos<int>,int)
FUNC 7e39 1c 0 std::basic_stringbuf<char,std::char_traits<char>,pool_allocator<char> >::`vector deleting destructor'(unsigned int)
FUNC 7e55 41 0 std::_Tree<std::_Tmap_traits<std::basic_string<char,std::char_traits<char>,pool_allocator<char> >,TSymbol *,std::less<std::basic_string<char,std::char_traits<char>,pool_allocator<char> > >,pool_allocator<std::pair<std::basic_string<char,std::char_traits<char>,pool_allocator<char> > const ,TSymbol *> >,0> >::const_iterator::_Dec()
FUNC 7e96 2b 0 std::basic_ostringstream<char,std::char_traits<char>,pool_allocator<char> >::~basic_ostringstream<char,std::char_traits<char>,pool_allocator<char> >()
FUNC 7ec1 188 4 std::basic_stringbuf<char,std::char_traits<char>,pool_allocator<char> >::overflow(int)
FUNC 8049 17 8 std::operator<<char,std::char_traits<char>,pool_allocator<char> >(std::basic_string<char,std::char_traits<char>,pool_allocator<char> > const &,std::basic_string<char,std::char_traits<char>,pool_allocator<char> > const &)
FUNC 8060 23 0 std::basic_ostringstream<char,std::char_traits<char>,pool_allocator<char> >::`vbase destructor'()
FUNC 8083 1f 0 std::basic_ostringstream<char,std::char_traits<char>,pool_allocator<char> >::`vector deleting destructor'(unsigned int)
FUNC 80a2 2f 4 std::basic_stringbuf<char,std::char_traits<char>,pool_allocator<char> >::basic_stringbuf<char,std::char_traits<char>,pool_allocator<char> >(int)
FUNC 80d1 35 4 std::_Tree<std::_Tmap_traits<std::basic_string<char,std::char_traits<char>,pool_allocator<char> >,TBehavior,std::less<std::basic_string<char,std::char_traits<char>,pool_allocator<char> > >,pool_allocator<std::pair<std::basic_string<char,std::char_traits<char>,pool_allocator<char> > const ,TBehavior> >,0> >::_Lbound(std::basic_string<char,std::char_traits<char>,pool_allocator<char> > const &)
FUNC 8106 5a 4 std::basic_ostringstream<char,std::char_traits<char>,pool_allocator<char> >::basic_ostringstream<char,std::char_traits<char>,pool_allocator<char> >(int)
FUNC 8160 a9 c std::basic_string<char,std::char_traits<char>,pool_allocator<char> >::append(std::basic_string<char,std::char_traits<char>,pool_allocator<char> > const &,unsigned int,unsigned int)
FUNC 8209 2f 8 std::basic_string<char,std::char_traits<char>,pool_allocator<char> >::basic_string<char,std::char_traits<char>,pool_allocator<char> >(char const *,unsigned int)
FUNC 8238 94 0 std::basic_stringbuf<char,std::char_traits<char>,pool_allocator<char> >::str()
FUNC 82cc 1b 4 std::pair<std::basic_string<char,std::char_traits<char>,pool_allocator<char> > const ,TBehavior>::pair<std::basic_string<char,std::char_traits<char>,pool_allocator<char> > const ,TBehavior>(std::pair<std::basic_string<char,std::char_traits<char>,pool_allocator<char> > const ,TBehavior> const &)
FUNC 82e7 21 4 NewPoolTString(char const *)
FUNC 8308 1fba 0 BuiltInFunctionsCommon
FUNC a2c2 198 4 BuiltInFunctionsVertex
FUNC a45a 33c 4 BuiltInFunctionsFragment
FUNC a796 e6 0 StandardUniforms
FUNC a87c 5b 0 DefaultPrecisionVertex
FUNC a8d7 33 14 std::_Tree_nod<std::_Tmap_traits<std::basic_string<char,std::char_traits<char>,pool_allocator<char> >,TBehavior,std::less<std::basic_string<char,std::char_traits<char>,pool_allocator<char> > >,pool_allocator<std::pair<std::basic_string<char,std::char_traits<char>,pool_allocator<char> > const ,TBehavior> >,0> >::_Node::_Node(std::_Tree_nod<std::_Tmap_traits<std::basic_string<char,std::char_traits<char>,pool_allocator<char> >,TBehavior,std::less<std::basic_string<char,std::char_traits<char>,pool_allocator<char> > >,pool_allocator<std::pair<std::basic_string<char,std::char_traits<char>,pool_allocator<char> > const ,TBehavior> >,0> >::_Node *,std::_Tree_nod<std::_Tmap_traits<std::basic_string<char,std::char_traits<char>,pool_allocator<char> >,TBehavior,std::less<std::basic_string<char,std::char_traits<char>,pool_allocator<char> > >,pool_allocator<std::pair<std::basic_string<char,std::char_traits<char>,pool_allocator<char> > const ,TBehavior> >,0> >::_Node *,std::_Tree_nod<std::_Tmap_traits<std::basic_string<char,std::char_traits<char>,pool_allocator<char> >,TBehavior,std::less<std::basic_string<char,std::char_traits<char>,pool_allocator<char> > >,pool_allocator<std::pair<std::basic_string<char,std::char_traits<char>,pool_allocator<char> > const ,TBehavior> >,0> >::_Node *,std::pair<std::basic_string<char,std::char_traits<char>,pool_allocator<char> > const ,TBehavior> const &,char)
FUNC a90a 5d 18 std::_Uninit_fill_n<std::basic_string<char,std::char_traits<char>,pool_allocator<char> > *,unsigned int,std::basic_string<char,std::char_traits<char>,pool_allocator<char> >,pool_allocator<std::basic_string<char,std::char_traits<char>,pool_allocator<char> > > >(std::basic_string<char,std::char_traits<char>,pool_allocator<char> > *,unsigned int,std::basic_string<char,std::char_traits<char>,pool_allocator<char> > const &,pool_allocator<std::basic_string<char,std::char_traits<char>,pool_allocator<char> > > &,std::_Nonscalar_ptr_iterator_tag,std::_Range_checked_iterator_tag)
FUNC a967 21 c std::_Fill<std::basic_string<char,std::char_traits<char>,pool_allocator<char> > *,std::basic_string<char,std::char_traits<char>,pool_allocator<char> > >(std::basic_string<char,std::char_traits<char>,pool_allocator<char> > *,std::basic_string<char,std::char_traits<char>,pool_allocator<char> > *,std::basic_string<char,std::char_traits<char>,pool_allocator<char> > const &)
FUNC a988 9c 4 std::basic_string<char,std::char_traits<char>,pool_allocator<char> >::swap(std::basic_string<char,std::char_traits<char>,pool_allocator<char> > &)
FUNC aa24 153 0 BuiltInConstants
FUNC ab77 4e 14 std::_Tree<std::_Tmap_traits<std::basic_string<char,std::char_traits<char>,pool_allocator<char> >,TSymbol *,std::less<std::basic_string<char,std::char_traits<char>,pool_allocator<char> > >,pool_allocator<std::pair<std::basic_string<char,std::char_traits<char>,pool_allocator<char> > const ,TSymbol *> >,0> >::_Buynode(std::_Tree_nod<std::_Tmap_traits<std::basic_string<char,std::char_traits<char>,pool_allocator<char> >,TSymbol *,std::less<std::basic_string<char,std::char_traits<char>,pool_allocator<char> > >,pool_allocator<std::pair<std::basic_string<char,std::char_traits<char>,pool_allocator<char> > const ,TSymbol *> >,0> >::_Node *,std::_Tree_nod<std::_Tmap_traits<std::basic_string<char,std::char_traits<char>,pool_allocator<char> >,TSymbol *,std::less<std::basic_string<char,std::char_traits<char>,pool_allocator<char> > >,pool_allocator<std::pair<std::basic_string<char,std::char_traits<char>,pool_allocator<char> > const ,TSymbol *> >,0> >::_Node *,std::_Tree_nod<std::_Tmap_traits<std::basic_string<char,std::char_traits<char>,pool_allocator<char> >,TSymbol *,std::less<std::basic_string<char,std::char_traits<char>,pool_allocator<char> > >,pool_allocator<std::pair<std::basic_string<char,std::char_traits<char>,pool_allocator<char> > const ,TSymbol *> >,0> >::_Node *,std::pair<std::basic_string<char,std::char_traits<char>,pool_allocator<char> > const ,TSymbol *> const &,char)
FUNC abc5 4e 14 std::_Tree<std::_Tmap_traits<std::basic_string<char,std::char_traits<char>,pool_allocator<char> >,TBehavior,std::less<std::basic_string<char,std::char_traits<char>,pool_allocator<char> > >,pool_allocator<std::pair<std::basic_string<char,std::char_traits<char>,pool_allocator<char> > const ,TBehavior> >,0> >::_Buynode(std::_Tree_nod<std::_Tmap_traits<std::basic_string<char,std::char_traits<char>,pool_allocator<char> >,TBehavior,std::less<std::basic_string<char,std::char_traits<char>,pool_allocator<char> > >,pool_allocator<std::pair<std::basic_string<char,std::char_traits<char>,pool_allocator<char> > const ,TBehavior> >,0> >::_Node *,std::_Tree_nod<std::_Tmap_traits<std::basic_string<char,std::char_traits<char>,pool_allocator<char> >,TBehavior,std::less<std::basic_string<char,std::char_traits<char>,pool_allocator<char> > >,pool_allocator<std::pair<std::basic_string<char,std::char_traits<char>,pool_allocator<char> > const ,TBehavior> >,0> >::_Node *,std::_Tree_nod<std::_Tmap_traits<std::basic_string<char,std::char_traits<char>,pool_allocator<char> >,TBehavior,std::less<std::basic_string<char,std::char_traits<char>,pool_allocator<char> > >,pool_allocator<std::pair<std::basic_string<char,std::char_traits<char>,pool_allocator<char> > const ,TBehavior> >,0> >::_Node *,std::pair<std::basic_string<char,std::char_traits<char>,pool_allocator<char> > const ,TBehavior> const &,char)
FUNC ac13 28 10 stdext::unchecked_uninitialized_fill_n<std::basic_string<char,std::char_traits<char>,pool_allocator<char> > *,unsigned int,std::basic_string<char,std::char_traits<char>,pool_allocator<char> >,pool_allocator<std::basic_string<char,std::char_traits<char>,pool_allocator<char> > > >(std::basic_string<char,std::char_traits<char>,pool_allocator<char> > *,unsigned int,std::basic_string<char,std::char_traits<char>,pool_allocator<char> > const &,pool_allocator<std::basic_string<char,std::char_traits<char>,pool_allocator<char> > > &)
FUNC ac3b 14c c std::_Tree<std::_Tmap_traits<std::basic_string<char,std::char_traits<char>,pool_allocator<char> >,TSymbol *,std::less<std::basic_string<char,std::char_traits<char>,pool_allocator<char> > >,pool_allocator<std::pair<std::basic_string<char,std::char_traits<char>,pool_allocator<char> > const ,TSymbol *> >,0> >::_Insert(bool,std::_Tree_nod<std::_Tmap_traits<std::basic_string<char,std::char_traits<char>,pool_allocator<char> >,TSymbol *,std::less<std::basic_string<char,std::char_traits<char>,pool_allocator<char> > >,pool_allocator<std::pair<std::basic_string<char,std::char_traits<char>,pool_allocator<char> > const ,TSymbol *> >,0> >::_Node *,std::pair<std::basic_string<char,std::char_traits<char>,pool_allocator<char> > const ,TSymbol *> const &)
FUNC ad87 22 c std::vector<std::basic_string<char,std::char_traits<char>,pool_allocator<char> >,pool_allocator<std::basic_string<char,std::char_traits<char>,pool_allocator<char> > > >::_Ufill(std::basic_string<char,std::char_traits<char>,pool_allocator<char> > *,unsigned int,std::basic_string<char,std::char_traits<char>,pool_allocator<char> > const &)
FUNC ada9 14c c std::_Tree<std::_Tmap_traits<std::basic_string<char,std::char_traits<char>,pool_allocator<char> >,TBehavior,std::less<std::basic_string<char,std::char_traits<char>,pool_allocator<char> > >,pool_allocator<std::pair<std::basic_string<char,std::char_traits<char>,pool_allocator<char> > const ,TBehavior> >,0> >::_Insert(bool,std::_Tree_nod<std::_Tmap_traits<std::basic_string<char,std::char_traits<char>,pool_allocator<char> >,TBehavior,std::less<std::basic_string<char,std::char_traits<char>,pool_allocator<char> > >,pool_allocator<std::pair<std::basic_string<char,std::char_traits<char>,pool_allocator<char> > const ,TBehavior> >,0> >::_Node *,std::pair<std::basic_string<char,std::char_traits<char>,pool_allocator<char> > const ,TBehavior> const &)
FUNC aef5 27 18 std::_Move_backward_opt<std::basic_string<char,std::char_traits<char>,pool_allocator<char> > *,std::basic_string<char,std::char_traits<char>,pool_allocator<char> > *,std::random_access_iterator_tag>(std::basic_string<char,std::char_traits<char>,pool_allocator<char> > *,std::basic_string<char,std::char_traits<char>,pool_allocator<char> > *,std::basic_string<char,std::char_traits<char>,pool_allocator<char> > *,std::random_access_iterator_tag,std::_Swap_move_tag,std::_Range_checked_iterator_tag)
FUNC af1c 86 18 std::_Uninit_move<std::basic_string<char,std::char_traits<char>,pool_allocator<char> > *,std::basic_string<char,std::char_traits<char>,pool_allocator<char> > *,pool_allocator<std::basic_string<char,std::char_traits<char>,pool_allocator<char> > > >(std::basic_string<char,std::char_traits<char>,pool_allocator<char> > *,std::basic_string<char,std::char_traits<char>,pool_allocator<char> > *,std::basic_string<char,std::char_traits<char>,pool_allocator<char> > *,pool_allocator<std::basic_string<char,std::char_traits<char>,pool_allocator<char> > > &,std::_Swap_move_tag,std::_Range_checked_iterator_tag)
FUNC afa2 a1 4 std::_Tree<std::_Tmap_traits<std::basic_string<char,std::char_traits<char>,pool_allocator<char> >,TSymbol *,std::less<std::basic_string<char,std::char_traits<char>,pool_allocator<char> > >,pool_allocator<std::pair<std::basic_string<char,std::char_traits<char>,pool_allocator<char> > const ,TSymbol *> >,0> >::insert(std::pair<std::basic_string<char,std::char_traits<char>,pool_allocator<char> > const ,TSymbol *> const &)
FUNC b043 a1 4 std::_Tree<std::_Tmap_traits<std::basic_string<char,std::char_traits<char>,pool_allocator<char> >,TBehavior,std::less<std::basic_string<char,std::char_traits<char>,pool_allocator<char> > >,pool_allocator<std::pair<std::basic_string<char,std::char_traits<char>,pool_allocator<char> > const ,TBehavior> >,0> >::insert(std::pair<std::basic_string<char,std::char_traits<char>,pool_allocator<char> > const ,TBehavior> const &)
FUNC b0e4 28 c stdext::_Unchecked_move_backward<std::basic_string<char,std::char_traits<char>,pool_allocator<char> > *,std::basic_string<char,std::char_traits<char>,pool_allocator<char> > *>(std::basic_string<char,std::char_traits<char>,pool_allocator<char> > *,std::basic_string<char,std::char_traits<char>,pool_allocator<char> > *,std::basic_string<char,std::char_traits<char>,pool_allocator<char> > *)
FUNC b10c 28 10 stdext::_Unchecked_uninitialized_move<std::basic_string<char,std::char_traits<char>,pool_allocator<char> > *,std::basic_string<char,std::char_traits<char>,pool_allocator<char> > *,pool_allocator<std::basic_string<char,std::char_traits<char>,pool_allocator<char> > > >(std::basic_string<char,std::char_traits<char>,pool_allocator<char> > *,std::basic_string<char,std::char_traits<char>,pool_allocator<char> > *,std::basic_string<char,std::char_traits<char>,pool_allocator<char> > *,pool_allocator<std::basic_string<char,std::char_traits<char>,pool_allocator<char> > > &)
FUNC b134 4d 4 TSymbolTableLevel::insert(TSymbol &)
FUNC b181 2a 4 TSymbolTable::insert(TSymbol &)
FUNC b1ab 637 10 IdentifyBuiltIns(ShShaderType,ShShaderSpec,ShBuiltInResources const &,TSymbolTable &)
FUNC b7e2 131 8 std::_Tree<std::_Tmap_traits<std::basic_string<char,std::char_traits<char>,pool_allocator<char> >,TBehavior,std::less<std::basic_string<char,std::char_traits<char>,pool_allocator<char> > >,pool_allocator<std::pair<std::basic_string<char,std::char_traits<char>,pool_allocator<char> > const ,TBehavior> >,0> >::insert(std::_Tree<std::_Tmap_traits<std::basic_string<char,std::char_traits<char>,pool_allocator<char> >,TBehavior,std::less<std::basic_string<char,std::char_traits<char>,pool_allocator<char> > >,pool_allocator<std::pair<std::basic_string<char,std::char_traits<char>,pool_allocator<char> > const ,TBehavior> >,0> >::iterator,std::pair<std::basic_string<char,std::char_traits<char>,pool_allocator<char> > const ,TBehavior> const &)
FUNC b913 18 c std::vector<std::basic_string<char,std::char_traits<char>,pool_allocator<char> >,pool_allocator<std::basic_string<char,std::char_traits<char>,pool_allocator<char> > > >::_Umove<std::basic_string<char,std::char_traits<char>,pool_allocator<char> > *>(std::basic_string<char,std::char_traits<char>,pool_allocator<char> > *,std::basic_string<char,std::char_traits<char>,pool_allocator<char> > *,std::basic_string<char,std::char_traits<char>,pool_allocator<char> > *)
FUNC b92b 61 4 std::map<std::basic_string<char,std::char_traits<char>,pool_allocator<char> >,TBehavior,std::less<std::basic_string<char,std::char_traits<char>,pool_allocator<char> > >,pool_allocator<std::pair<std::basic_string<char,std::char_traits<char>,pool_allocator<char> > const ,TBehavior> > >::operator[](std::basic_string<char,std::char_traits<char>,pool_allocator<char> > const &)
FUNC b98c 1f6 c std::vector<std::basic_string<char,std::char_traits<char>,pool_allocator<char> >,pool_allocator<std::basic_string<char,std::char_traits<char>,pool_allocator<char> > > >::_Insert_n(std::_Vector_iterator<std::basic_string<char,std::char_traits<char>,pool_allocator<char> >,pool_allocator<std::basic_string<char,std::char_traits<char>,pool_allocator<char> > > >,unsigned int,std::basic_string<char,std::char_traits<char>,pool_allocator<char> > const &)
FUNC bb82 6c 8 InitExtensionBehavior(ShBuiltInResources const &,TMap<std::basic_string<char,std::char_traits<char>,pool_allocator<char> >,TBehavior,std::less<std::basic_string<char,std::char_traits<char>,pool_allocator<char> > > > &)
FUNC bbee 42 8 std::vector<std::basic_string<char,std::char_traits<char>,pool_allocator<char> >,pool_allocator<std::basic_string<char,std::char_traits<char>,pool_allocator<char> > > >::insert(std::_Vector_iterator<std::basic_string<char,std::char_traits<char>,pool_allocator<char> >,pool_allocator<std::basic_string<char,std::char_traits<char>,pool_allocator<char> > > >,std::basic_string<char,std::char_traits<char>,pool_allocator<char> > const &)
FUNC bc30 40 4 std::vector<std::basic_string<char,std::char_traits<char>,pool_allocator<char> >,pool_allocator<std::basic_string<char,std::char_traits<char>,pool_allocator<char> > > >::push_back(std::basic_string<char,std::char_traits<char>,pool_allocator<char> > const &)
FUNC bc70 15f c TBuiltIns::initialize(ShShaderType,ShShaderSpec,ShBuiltInResources const &)
FUNC bdcf 3e 0 InitThread()
FUNC be0d 45 0 DetachThread()
FUNC be52 35 0 InitProcess()
FUNC be87 3b 0 DetachProcess()
FUNC bec2 1f 0 TType::isVector()
FUNC bee1 58 4 TType::operator==(TType const &)
FUNC bf39 19 4 ConstantUnion::operator==(float)
FUNC bf52 45 4 ConstantUnion::operator==(ConstantUnion const &)
FUNC bf97 39 4 ConstantUnion::operator>(ConstantUnion const &)
FUNC bfd0 39 4 ConstantUnion::operator<(ConstantUnion const &)
FUNC c009 34 4 ConstantUnion::operator+(ConstantUnion const &)
FUNC c03d 34 4 ConstantUnion::operator-(ConstantUnion const &)
FUNC c071 35 4 ConstantUnion::operator*(ConstantUnion const &)
FUNC c0a6 28 4 ConstantUnion::operator&&(ConstantUnion const &)
FUNC c0ce 28 4 ConstantUnion::operator||(ConstantUnion const &)
FUNC c0f6 1f 4 TIntermTyped::TIntermTyped(TType const &)
FUNC c115 35 14 TIntermLoop::TIntermLoop(TLoopType,TIntermNode *,TIntermTyped *,TIntermTyped *,TIntermNode *)
FUNC c14a 1f 8 TIntermConstantUnion::TIntermConstantUnion(ConstantUnion *,TType const &)
FUNC c169 3 0 TIntermSymbol::getAsSymbolNode()
FUNC c16c 36 4 TIntermOperator::TIntermOperator(TOperator)
FUNC c1a2 1f 8 TIntermOperator::TIntermOperator(TOperator,TType &)
FUNC c1c1 18 4 TIntermBinary::TIntermBinary(TOperator)
FUNC c1d9 24 8 TIntermUnary::TIntermUnary(TOperator,TType &)
FUNC c1fd 20 4 TIntermUnary::TIntermUnary(TOperator)
FUNC c21d 41 c TIntermSelection::TIntermSelection(TIntermTyped *,TIntermNode *,TIntermNode *)
FUNC c25e 2d 10 TIntermSelection::TIntermSelection(TIntermTyped *,TIntermNode *,TIntermNode *,TType const &)
FUNC c28b 2ac 4 getOperatorString(TOperator)
FUNC c537 40 10 TIntermediate::addIndex(TOperator,TIntermTyped *,TIntermTyped *,int)
FUNC c577 73 10 TIntermediate::addSelection(TIntermTyped *,TIntermNodePair,int)
FUNC c5ea 2f c TIntermediate::addConstantUnion(ConstantUnion *,TType const &,int)
FUNC c619 39 18 TIntermediate::addLoop(TLoopType,TIntermNode *,TIntermTyped *,TIntermTyped *,TIntermNode *,int)
FUNC c652 38 c TIntermediate::addBranch(TOperator,TIntermTyped *,int)
FUNC c68a 23 4 TIntermediate::postProcess(TIntermNode *)
FUNC c6ad 14 4 TIntermediate::remove(TIntermNode *)
FUNC c6c1 20 0 TIntermOperator::modifiesState()
FUNC c6e1 10 0 TIntermOperator::isConstructor()
FUNC c6f1 64 4 TIntermUnary::promote(TInfoSink &)
FUNC c755 13 0 std::vector<TPoolAllocator::tAllocState,std::allocator<TPoolAllocator::tAllocState> >::size()
FUNC c768 13 0 std::vector<std::list<std::pair<unsigned int const ,gl::Texture *>,std::allocator<std::pair<unsigned int const ,gl::Texture *> > >::_Iterator<0>,std::allocator<std::list<std::pair<unsigned int const ,gl::Texture *>,std::allocator<std::pair<unsigned int const ,gl::Texture *> > >::_Iterator<0> > >::capacity()
FUNC c77b 55 0 TType::getObjectSize()
FUNC c7d0 b 0 TIntermLoop::`scalar deleting destructor'(unsigned int)
FUNC c7db 12 8 TIntermediate::addBranch(TOperator,int)
FUNC c7ed 44c 4 TIntermBinary::promote(TInfoSink &)
FUNC cc39 b7 c CompareStruct(TType const &,ConstantUnion *,ConstantUnion *)
FUNC ccf0 7b c CompareStructure(TType const &,ConstantUnion *,ConstantUnion *)
FUNC cd6b aa8 c TIntermConstantUnion::fold(TOperator,TIntermTyped *,TInfoSink &)
FUNC d813 1b4 8 TIntermediate::promoteConstantUnion(TBasicType,TIntermConstantUnion *)
FUNC d9c7 17e c TIntermediate::addConversion(TOperator,TType const &,TIntermTyped *)
FUNC db45 a6 10 TIntermediate::addSelection(TIntermTyped *,TIntermTyped *,TIntermTyped *,int)
FUNC dbeb 183 14 TIntermediate::addBinaryMath(TOperator,TIntermTyped *,TIntermTyped *,int,TSymbolTable &)
FUNC dd6e 6b 10 TIntermediate::addAssign(TOperator,TIntermTyped *,TIntermTyped *,int)
FUNC ddd9 17a 10 TIntermediate::addUnaryMath(TOperator,TIntermNode *,int,TSymbolTable &)
FUNC df53 192 c std::vector<TIntermNode *,pool_allocator<TIntermNode *> >::_Insert_n(std::_Vector_iterator<TIntermNode *,pool_allocator<TIntermNode *> >,unsigned int,TIntermNode * const &)
FUNC e0e5 21 4 std::pair<std::basic_string<char,std::char_traits<char>,pool_allocator<char> > const ,std::basic_string<char,std::char_traits<char>,pool_allocator<char> > >::pair<std::basic_string<char,std::char_traits<char>,pool_allocator<char> > const ,std::basic_string<char,std::char_traits<char>,pool_allocator<char> > >(std::pair<std::basic_string<char,std::char_traits<char>,pool_allocator<char> > const ,std::basic_string<char,std::char_traits<char>,pool_allocator<char> > > const &)
FUNC e106 33 0 TIntermAggregate::TIntermAggregate()
FUNC e139 30 4 TIntermAggregate::TIntermAggregate(TOperator)
FUNC e169 3d 8 std::vector<TIntermNode *,pool_allocator<TIntermNode *> >::insert(std::_Vector_iterator<TIntermNode *,pool_allocator<TIntermNode *> >,TIntermNode * const &)
FUNC e1a6 33 14 std::_Tree_nod<std::_Tmap_traits<std::basic_string<char,std::char_traits<char>,pool_allocator<char> >,std::basic_string<char,std::char_traits<char>,pool_allocator<char> >,std::less<std::basic_string<char,std::char_traits<char>,pool_allocator<char> > >,pool_allocator<std::pair<std::basic_string<char,std::char_traits<char>,pool_allocator<char> > const ,std::basic_string<char,std::char_traits<char>,pool_allocator<char> > > >,0> >::_Node::_Node(std::_Tree_nod<std::_Tmap_traits<std::basic_string<char,std::char_traits<char>,pool_allocator<char> >,std::basic_string<char,std::char_traits<char>,pool_allocator<char> >,std::less<std::basic_string<char,std::char_traits<char>,pool_allocator<char> > >,pool_allocator<std::pair<std::basic_string<char,std::char_traits<char>,pool_allocator<char> > const ,std::basic_string<char,std::char_traits<char>,pool_allocator<char> > > >,0> >::_Node *,std::_Tree_nod<std::_Tmap_traits<std::basic_string<char,std::char_traits<char>,pool_allocator<char> >,std::basic_string<char,std::char_traits<char>,pool_allocator<char> >,std::less<std::basic_string<char,std::char_traits<char>,pool_allocator<char> > >,pool_allocator<std::pair<std::basic_string<char,std::char_traits<char>,pool_allocator<char> > const ,std::basic_string<char,std::char_traits<char>,pool_allocator<char> > > >,0> >::_Node *,std::_Tree_nod<std::_Tmap_traits<std::basic_string<char,std::char_traits<char>,pool_allocator<char> >,std::basic_string<char,std::char_traits<char>,pool_allocator<char> >,std::less<std::basic_string<char,std::char_traits<char>,pool_allocator<char> > >,pool_allocator<std::pair<std::basic_string<char,std::char_traits<char>,pool_allocator<char> > const ,std::basic_string<char,std::char_traits<char>,pool_allocator<char> > > >,0> >::_Node *,std::pair<std::basic_string<char,std::char_traits<char>,pool_allocator<char> > const ,std::basic_string<char,std::char_traits<char>,pool_allocator<char> > > const &,char)
FUNC e1d9 55 c TIntermSymbol::TIntermSymbol(int,std::basic_string<char,std::char_traits<char>,pool_allocator<char> > const &,TType const &)
FUNC e22e 23 0 TIntermSymbol::~TIntermSymbol()
FUNC e251 e 0 TIntermSymbol::`scalar deleting destructor'(unsigned int)
FUNC e25f 33 10 TIntermediate::addSymbol(int,std::basic_string<char,std::char_traits<char>,pool_allocator<char> > const &,TType const &,int)
FUNC e292 40 4 std::vector<TIntermNode *,pool_allocator<TIntermNode *> >::push_back(TIntermNode * const &)
FUNC e2d2 4e 14 std::_Tree<std::_Tmap_traits<std::basic_string<char,std::char_traits<char>,pool_allocator<char> >,std::basic_string<char,std::char_traits<char>,pool_allocator<char> >,std::less<std::basic_string<char,std::char_traits<char>,pool_allocator<char> > >,pool_allocator<std::pair<std::basic_string<char,std::char_traits<char>,pool_allocator<char> > const ,std::basic_string<char,std::char_traits<char>,pool_allocator<char> > > >,0> >::_Buynode(std::_Tree_nod<std::_Tmap_traits<std::basic_string<char,std::char_traits<char>,pool_allocator<char> >,std::basic_string<char,std::char_traits<char>,pool_allocator<char> >,std::less<std::basic_string<char,std::char_traits<char>,pool_allocator<char> > >,pool_allocator<std::pair<std::basic_string<char,std::char_traits<char>,pool_allocator<char> > const ,std::basic_string<char,std::char_traits<char>,pool_allocator<char> > > >,0> >::_Node *,std::_Tree_nod<std::_Tmap_traits<std::basic_string<char,std::char_traits<char>,pool_allocator<char> >,std::basic_string<char,std::char_traits<char>,pool_allocator<char> >,std::less<std::basic_string<char,std::char_traits<char>,pool_allocator<char> > >,pool_allocator<std::pair<std::basic_string<char,std::char_traits<char>,pool_allocator<char> > const ,std::basic_string<char,std::char_traits<char>,pool_allocator<char> > > >,0> >::_Node *,std::_Tree_nod<std::_Tmap_traits<std::basic_string<char,std::char_traits<char>,pool_allocator<char> >,std::basic_string<char,std::char_traits<char>,pool_allocator<char> >,std::less<std::basic_string<char,std::char_traits<char>,pool_allocator<char> > >,pool_allocator<std::pair<std::basic_string<char,std::char_traits<char>,pool_allocator<char> > const ,std::basic_string<char,std::char_traits<char>,pool_allocator<char> > > >,0> >::_Node *,std::pair<std::basic_string<char,std::char_traits<char>,pool_allocator<char> > const ,std::basic_string<char,std::char_traits<char>,pool_allocator<char> > > const &,char)
FUNC e320 8f c TIntermediate::setAggregateOperator(TIntermNode *,TOperator,int)
FUNC e3af 7b c TIntermediate::growAggregate(TIntermNode *,TIntermNode *,int)
FUNC e42a 4f 8 TIntermediate::makeAggregate(TIntermNode *,int)
FUNC e479 59 c TIntermediate::addComma(TIntermTyped *,TIntermTyped *,int)
FUNC e4d2 9d 8 TIntermediate::addSwizzle(TVectorFields &,int)
FUNC e56f 85 8 std::_Tree<std::_Tmap_traits<std::basic_string<char,std::char_traits<char>,pool_allocator<char> >,std::basic_string<char,std::char_traits<char>,pool_allocator<char> >,std::less<std::basic_string<char,std::char_traits<char>,pool_allocator<char> > >,pool_allocator<std::pair<std::basic_string<char,std::char_traits<char>,pool_allocator<char> > const ,std::basic_string<char,std::char_traits<char>,pool_allocator<char> > > >,0> >::_Copy(std::_Tree_nod<std::_Tmap_traits<std::basic_string<char,std::char_traits<char>,pool_allocator<char> >,std::basic_string<char,std::char_traits<char>,pool_allocator<char> >,std::less<std::basic_string<char,std::char_traits<char>,pool_allocator<char> > >,pool_allocator<std::pair<std::basic_string<char,std::char_traits<char>,pool_allocator<char> > const ,std::basic_string<char,std::char_traits<char>,pool_allocator<char> > > >,0> >::_Node *,std::_Tree_nod<std::_Tmap_traits<std::basic_string<char,std::char_traits<char>,pool_allocator<char> >,std::basic_string<char,std::char_traits<char>,pool_allocator<char> >,std::less<std::basic_string<char,std::char_traits<char>,pool_allocator<char> > >,pool_allocator<std::pair<std::basic_string<char,std::char_traits<char>,pool_allocator<char> > const ,std::basic_string<char,std::char_traits<char>,pool_allocator<char> > > >,0> >::_Node *)
FUNC e5f4 60 4 std::_Tree<std::_Tmap_traits<std::basic_string<char,std::char_traits<char>,pool_allocator<char> >,std::basic_string<char,std::char_traits<char>,pool_allocator<char> >,std::less<std::basic_string<char,std::char_traits<char>,pool_allocator<char> > >,pool_allocator<std::pair<std::basic_string<char,std::char_traits<char>,pool_allocator<char> > const ,std::basic_string<char,std::char_traits<char>,pool_allocator<char> > > >,0> >::_Copy(std::_Tree<std::_Tmap_traits<std::basic_string<char,std::char_traits<char>,pool_allocator<char> >,std::basic_string<char,std::char_traits<char>,pool_allocator<char> >,std::less<std::basic_string<char,std::char_traits<char>,pool_allocator<char> > >,pool_allocator<std::pair<std::basic_string<char,std::char_traits<char>,pool_allocator<char> > const ,std::basic_string<char,std::char_traits<char>,pool_allocator<char> > > >,0> > const &)
FUNC e654 2f 4 std::_Tree<std::_Tmap_traits<std::basic_string<char,std::char_traits<char>,pool_allocator<char> >,std::basic_string<char,std::char_traits<char>,pool_allocator<char> >,std::less<std::basic_string<char,std::char_traits<char>,pool_allocator<char> > >,pool_allocator<std::pair<std::basic_string<char,std::char_traits<char>,pool_allocator<char> > const ,std::basic_string<char,std::char_traits<char>,pool_allocator<char> > > >,0> >::operator=(std::_Tree<std::_Tmap_traits<std::basic_string<char,std::char_traits<char>,pool_allocator<char> >,std::basic_string<char,std::char_traits<char>,pool_allocator<char> >,std::less<std::basic_string<char,std::char_traits<char>,pool_allocator<char> > >,pool_allocator<std::pair<std::basic_string<char,std::char_traits<char>,pool_allocator<char> > const ,std::basic_string<char,std::char_traits<char>,pool_allocator<char> > > >,0> > const &)
FUNC e683 40 0 TIntermAggregate::~TIntermAggregate()
FUNC e6c3 e 0 TIntermAggregate::`scalar deleting destructor'(unsigned int)
FUNC e6d1 29 4 TIntermAggregate::addToPragmaTable(TMap<std::basic_string<char,std::char_traits<char>,pool_allocator<char> >,std::basic_string<char,std::char_traits<char>,pool_allocator<char> >,std::less<std::basic_string<char,std::char_traits<char>,pool_allocator<char> > > > const &)
FUNC e6fa 17 4 std::fixed(std::ios_base &)
FUNC e711 9 4 std::showpoint(std::ios_base &)
FUNC e71a 1f 4 getPrecisionString(TPrecision)
FUNC e739 70 4 getBasicString(TBasicType)
FUNC e7a9 dc 4 getQualifierString(TQualifier)
FUNC e885 2a 8 modff
FUNC e8af 18 4 fractionalPart(float)
FUNC e8c7 cc 4 TInfoSinkBase::operator<<(float)
FUNC e993 24 4 TOutputTraverser::TOutputTraverser(TInfoSinkBase &)
FUNC e9b7 2d c OutputTreeText(TInfoSinkBase &,TIntermNode *,int)
FUNC e9e4 ec 8 TOutputTraverser::visitLoop(Visit,TIntermLoop *)
FUNC ead0 8b 8 TOutputTraverser::visitBranch(Visit,TIntermBranch *)
FUNC eb5b 27 4 TIntermediate::outputTree(TIntermNode *)
FUNC eb82 62 4 TInfoSinkBase::operator<<<int>(int const &)
FUNC ebe4 e8 4 TOutputTraverser::visitConstantUnion(TIntermConstantUnion *)
FUNC eccc 22 4 TInfoSinkBase::operator<<(std::basic_string<char,std::char_traits<char>,pool_allocator<char> > const &)
FUNC ecee 107 0 TType::getCompleteString()
FUNC edf5 8c 4 TOutputTraverser::visitSymbol(TIntermSymbol *)
FUNC ee84 264 8 TOutputTraverser::visitBinary(Visit,TIntermBinary *)
FUNC f0e8 294 8 TOutputTraverser::visitUnary(Visit,TIntermUnary *)
FUNC f37c 354 8 TOutputTraverser::visitAggregate(Visit,TIntermAggregate *)
FUNC f6d0 fc 8 TOutputTraverser::visitSelection(Visit,TIntermSelection *)
FUNC f7cc e 4 TIntermSymbol::traverse(TIntermTraverser *)
FUNC f7da f 4 TIntermConstantUnion::traverse(TIntermTraverser *)
FUNC f7e9 ac 4 TIntermBinary::traverse(TIntermTraverser *)
FUNC f895 3f 4 TIntermUnary::traverse(TIntermTraverser *)
FUNC f8d4 7e 4 TIntermSelection::traverse(TIntermTraverser *)
FUNC f952 88 4 TIntermLoop::traverse(TIntermTraverser *)
FUNC f9da 45 4 TIntermBranch::traverse(TIntermTraverser *)
FUNC fa1f c5 4 TIntermAggregate::traverse(TIntermTraverser *)
FUNC fae4 5d 18 TConstTraverser::TConstTraverser(ConstantUnion *,bool,TOperator,TInfoSink &,TSymbolTable &,TType &)
FUNC fb41 19 4 TConstTraverser::visitSymbol(TIntermSymbol *)
FUNC fb5a 23 8 TConstTraverser::visitSelection(Visit,TIntermSelection *)
FUNC fb7d 23 8 TConstTraverser::visitLoop(Visit,TIntermLoop *)
FUNC fba0 23 8 TConstTraverser::visitBranch(Visit,TIntermBranch *)
FUNC fbc3 42 48 TIntermediate::parseConstTree(int,TIntermNode *,ConstantUnion *,TOperator,TSymbolTable &,TType,bool)
FUNC fc05 152 4 TConstTraverser::visitConstantUnion(TIntermConstantUnion *)
FUNC fd57 9d 8 std::basic_string<char,std::char_traits<char>,pool_allocator<char> >::append(char const *,unsigned int)
FUNC fdf4 1e 4 std::basic_string<char,std::char_traits<char>,pool_allocator<char> >::append(char const *)
FUNC fe12 ab 8 TConstTraverser::visitBinary(Visit,TIntermBinary *)
FUNC febd 8e 8 TConstTraverser::visitUnary(Visit,TIntermUnary *)
FUNC ff4b 14c 8 TConstTraverser::visitAggregate(Visit,TIntermAggregate *)
FUNC 10097 3a 4 TType::sameElementType(TType const &)
FUNC 100d1 6e 14 ReportInfo
FUNC 1013f 1 0 TParseContext::recover()
FUNC 10140 63 14 TParseContext::error(int,char const *,char const *,char const *,...)
FUNC 101a3 60 14 TParseContext::warning(int,char const *,char const *,char const *,...)
FUNC 10203 4d c TParseContext::precisionErrorCheck(int,TPrecision,TBasicType)
FUNC 10250 2e 4 TParseContext::constErrorCheck(TIntermTyped *)
FUNC 1027e 43 8 TParseContext::integerErrorCheck(TIntermTyped *,char const *)
FUNC 102c1 2b c TParseContext::globalErrorCheck(int,bool,char const *)
FUNC 102ec 50 8 TParseContext::boolErrorCheck(int,TIntermTyped const *)
FUNC 1033c 3d 8 TParseContext::boolErrorCheck(int,TPublicType const &)
FUNC 10379 53 c TParseContext::parameterSamplerErrorCheck(int,TQualifier,TType const &)
FUNC 103cc 6f c TParseContext::arraySizeErrorCheck(int,TIntermTyped *,int &)
FUNC 1043b 7d 10 TParseContext::paramErrorCheck(int,TQualifier,TQualifier,TType *)
FUNC 104b8 bf 14 TParseContext::constructBuiltIn(TType const *,TOperator,TIntermNode *,int,bool)
FUNC 10577 96 14 TParseContext::constructStruct(TIntermNode *,TType *,int,int,bool)
FUNC 1060d 8a c TParseContext::addConstMatrixNode(int,TIntermTyped *,int)
FUNC 10697 2d 8 TParseContext::enterStructDeclaration(int,std::basic_string<char,std::char_traits<char>,pool_allocator<char> > const &)
FUNC 106c4 4 0 TParseContext::exitStructDeclaration()
FUNC 106c8 1d 0 InitializeParseContextIndex()
FUNC 106e5 1c 0 FreeParseContextIndex()
FUNC 10701 47 0 InitializeGlobalParseContext()
FUNC 10748 22 0 FreeParseContext()
FUNC 1076a d 0 GetGlobalParseContext()
FUNC 10777 34 0 TVariable::getConstPointer()
FUNC 107ab 268 14 TParseContext::constructorErrorCheck(int,TIntermNode *,TFunction &,TOperator,TType *)
FUNC 10a13 5d 4 TParseContext::containsSampler(TType &)
FUNC 10a70 102 c TParseContext::addConstVectorNode(TVectorFields &,TIntermTyped *,int)
FUNC 10b72 aa c TParseContext::addConstArrayNode(int,TIntermTyped *,int)
FUNC 10c1c 17 4 std::basic_string<char,std::char_traits<char>,pool_allocator<char> >::operator[](std::basic_string<char,std::char_traits<char>,pool_allocator<char> >::_Size_type_nosscl)
FUNC 10c33 b7 c std::basic_string<char,std::char_traits<char>,pool_allocator<char> >::find(char const *,unsigned int,unsigned int)
FUNC 10cea 23 4 std::basic_string<char,std::char_traits<char>,pool_allocator<char> >::compare(char const *)
FUNC 10d0d 1e5 10 TParseContext::parseVectorFields(std::basic_string<char,std::char_traits<char>,pool_allocator<char> > const &,int,TVectorFields &,int)
FUNC 10ef2 1aa 10 TParseContext::parseMatrixFields(std::basic_string<char,std::char_traits<char>,pool_allocator<char> > const &,int,TMatrixFields &,int)
FUNC 1109c 3c c TParseContext::voidErrorCheck(int,std::basic_string<char,std::char_traits<char>,pool_allocator<char> > const &,TPublicType const &)
FUNC 110d8 56 c TParseContext::samplerErrorCheck(int,TPublicType const &,char const *)
FUNC 1112e 61 8 TParseContext::structQualifierErrorCheck(int,TPublicType const &)
FUNC 1118f 41 c TParseContext::nonInitConstErrorCheck(int,std::basic_string<char,std::char_traits<char>,pool_allocator<char> > &,TPublicType &)
FUNC 111d0 56 8 TParseContext::structNestingErrorCheck(int,TType const &)
FUNC 11226 22 8 std::basic_string<char,std::char_traits<char>,pool_allocator<char> >::find(char const *,unsigned int)
FUNC 11248 26 c std::basic_string<char,std::char_traits<char>,pool_allocator<char> >::compare(unsigned int,unsigned int,char const *)
FUNC 1126e 13 8 std::operator==<char,std::char_traits<char>,pool_allocator<char> >(std::basic_string<char,std::char_traits<char>,pool_allocator<char> > const &,char const *)
FUNC 11281 3a 0 DefineExtensionMacros
FUNC 112bb 1ce c TParseContext::lValueErrorCheck(int,char const *,TIntermTyped *)
FUNC 11489 ae 8 TParseContext::reservedErrorCheck(int,std::basic_string<char,std::char_traits<char>,pool_allocator<char> > const &)
FUNC 11537 3b 4 TParseContext::areAllChildConst(TIntermAggregate *)
FUNC 11572 c9 8 TParseContext::foldConstConstructor(TIntermAggregate *,TType const &)
FUNC 1163b aa c TParseContext::addConstStruct(std::basic_string<char,std::char_traits<char>,pool_allocator<char> > &,TIntermTyped *,int)
FUNC 116e5 69 10 PaParseStrings(int,char const * const * const,int const * const,TParseContext *)
FUNC 1174e 57 40 TParseContext::assignError(int,char const *,std::basic_string<char,std::char_traits<char>,pool_allocator<char> >,std::basic_string<char,std::char_traits<char>,pool_allocator<char> >)
FUNC 117a5 3d 24 TParseContext::unaryOpError(int,char const *,std::basic_string<char,std::char_traits<char>,pool_allocator<char> >)
FUNC 117e2 58 40 TParseContext::binaryOpError(int,char const *,std::basic_string<char,std::char_traits<char>,pool_allocator<char> >,std::basic_string<char,std::char_traits<char>,pool_allocator<char> >)
FUNC 1183a 183 14 TParseContext::addConstructor(TIntermNode *,TType const *,TOperator,TFunction *,int)
FUNC 119bd 43 4 std::_Tree<std::_Tmap_traits<std::basic_string<char,std::char_traits<char>,pool_allocator<char> >,TBehavior,std::less<std::basic_string<char,std::char_traits<char>,pool_allocator<char> > >,pool_allocator<std::pair<std::basic_string<char,std::char_traits<char>,pool_allocator<char> > const ,TBehavior> >,0> >::find(std::basic_string<char,std::char_traits<char>,pool_allocator<char> > const &)
FUNC 11a00 26 4 TSymbolTableLevel::find(std::basic_string<char,std::char_traits<char>,pool_allocator<char> > const &)
FUNC 11a26 5c c TSymbolTable::find(std::basic_string<char,std::char_traits<char>,pool_allocator<char> > const &,bool *,bool *)
FUNC 11a82 9a c TParseContext::findFunction(int,TFunction *,bool *)
FUNC 11b1c 39 8 std::operator+<char,std::char_traits<char>,pool_allocator<char> >(char const *,std::basic_string<char,std::char_traits<char>,pool_allocator<char> > const &)
FUNC 11b55 35 8 std::operator+<char,std::char_traits<char>,pool_allocator<char> >(std::basic_string<char,std::char_traits<char>,pool_allocator<char> > const &,char const *)
FUNC 11b8a b9 4 TType::TType(TPublicType const &)
FUNC 11c43 68 24 TParseContext::arrayQualifierErrorCheck(int,TPublicType)
FUNC 11cab 66 24 TParseContext::arrayTypeErrorCheck(int,TPublicType)
FUNC 11d11 119 14 TParseContext::arraySetMaxSize(TIntermSymbol *,TType *,int,bool,int)
FUNC 11e2a e6 8 TParseContext::extensionErrorCheck(int,std::basic_string<char,std::char_traits<char>,pool_allocator<char> > const &)
FUNC 11f10 46 4 TParseContext::supportsExtension(char const *)
FUNC 11f59 1f2 2c TParseContext::arrayErrorCheck(int,std::basic_string<char,std::char_traits<char>,pool_allocator<char> > &,TPublicType,TVariable * &)
FUNC 1214b af 10 TParseContext::nonInitErrorCheck(int,std::basic_string<char,std::char_traits<char>,pool_allocator<char> > &,TPublicType &,TVariable * &)
FUNC 121fa 2b5 18 TParseContext::executeInitializer(int,std::basic_string<char,std::char_traits<char>,pool_allocator<char> > &,TPublicType &,TIntermTyped *,TIntermNode * &,TVariable *)
FUNC 124af 39 0 InitializeGlobalPools()
FUNC 124e8 18 0 FreeGlobalPools()
FUNC 12500 11 0 InitializePoolIndex()
FUNC 12511 d 0 FreePoolIndex()
FUNC 1251e f 0 GetGlobalPoolAllocator()
FUNC 1252d 13 4 SetGlobalPoolAllocator(TPoolAllocator *)
FUNC 12540 50 8 std::_Allocate<TPoolAllocator::tAllocState>(unsigned int,TPoolAllocator::tAllocState *)
FUNC 12590 b0 4 TPoolAllocator::allocate(unsigned int)
FUNC 12640 44 18 std::_Uninit_copy<TPoolAllocator::tAllocState *,TPoolAllocator::tAllocState *,std::allocator<TPoolAllocator::tAllocState> >(TPoolAllocator::tAllocState *,TPoolAllocator::tAllocState *,TPoolAllocator::tAllocState *,std::allocator<TPoolAllocator::tAllocState> &,std::_Nonscalar_ptr_iterator_tag,std::_Range_checked_iterator_tag)
FUNC 12684 40 18 std::_Uninit_fill_n<TPoolAllocator::tAllocState *,unsigned int,TPoolAllocator::tAllocState,std::allocator<TPoolAllocator::tAllocState> >(TPoolAllocator::tAllocState *,unsigned int,TPoolAllocator::tAllocState const &,std::allocator<TPoolAllocator::tAllocState> &,std::_Nonscalar_ptr_iterator_tag,std::_Range_checked_iterator_tag)
FUNC 126c4 28 10 stdext::unchecked_uninitialized_copy<TPoolAllocator::tAllocState *,TPoolAllocator::tAllocState *,std::allocator<TPoolAllocator::tAllocState> >(TPoolAllocator::tAllocState *,TPoolAllocator::tAllocState *,TPoolAllocator::tAllocState *,std::allocator<TPoolAllocator::tAllocState> &)
FUNC 126ec 28 10 stdext::unchecked_uninitialized_fill_n<TPoolAllocator::tAllocState *,unsigned int,TPoolAllocator::tAllocState,std::allocator<TPoolAllocator::tAllocState> >(TPoolAllocator::tAllocState *,unsigned int,TPoolAllocator::tAllocState const &,std::allocator<TPoolAllocator::tAllocState> &)
FUNC 12714 21 c std::vector<TPoolAllocator::tAllocState,std::allocator<TPoolAllocator::tAllocState> >::_Ufill(TPoolAllocator::tAllocState *,unsigned int,TPoolAllocator::tAllocState const &)
FUNC 12735 18 c std::vector<TPoolAllocator::tAllocState,std::allocator<TPoolAllocator::tAllocState> >::_Umove<TPoolAllocator::tAllocState *>(TPoolAllocator::tAllocState *,TPoolAllocator::tAllocState *,TPoolAllocator::tAllocState *)
FUNC 1274d 6c 8 TPoolAllocator::TPoolAllocator(int,int)
FUNC 127b9 42 0 TPoolAllocator::~TPoolAllocator()
FUNC 127fb 60 0 TPoolAllocator::pop()
FUNC 1285b 1e 0 TPoolAllocator::popAll()
FUNC 12879 1ba c std::vector<TPoolAllocator::tAllocState,std::allocator<TPoolAllocator::tAllocState> >::_Insert_n(std::_Vector_iterator<TPoolAllocator::tAllocState,std::allocator<TPoolAllocator::tAllocState> >,unsigned int,TPoolAllocator::tAllocState const &)
FUNC 12a33 3d 8 std::vector<TPoolAllocator::tAllocState,std::allocator<TPoolAllocator::tAllocState> >::insert(std::_Vector_iterator<TPoolAllocator::tAllocState,std::allocator<TPoolAllocator::tAllocState> >,TPoolAllocator::tAllocState const &)
FUNC 12a70 40 4 std::vector<TPoolAllocator::tAllocState,std::allocator<TPoolAllocator::tAllocState> >::push_back(TPoolAllocator::tAllocState const &)
FUNC 12ab0 28 0 TPoolAllocator::push()
FUNC 12ad8 14 8 RemoveTree::visitBinary(Visit,TIntermBinary *)
FUNC 12aec 12 4 RemoveTree::visitConstantUnion(TIntermConstantUnion *)
FUNC 12afe 2c 4 RemoveAllTreeNodes(TIntermNode *)
FUNC 12b2a c 0 ShInitialize
FUNC 12b36 c 0 ShFinalize
FUNC 12b42 33 4 ShInitBuiltInResources
FUNC 12b75 24 4 ShDestruct
FUNC 12b99 37 10 ShCompile
FUNC 12bd0 38 8 ShGetInfoLog
FUNC 12c08 38 8 ShGetObjectCode
FUNC 12c40 13 0 std::vector<TVariableInfo,std::allocator<TVariableInfo> >::size()
FUNC 12c53 4c 10 ShConstructCompiler
FUNC 12c9f 69 c ShGetInfo
FUNC 12d08 11 4 TSymbol::operator new(unsigned int)
FUNC 12d19 27 4 TType::clone(TMap<TVector<TTypeLine> *,TVector<TTypeLine> *,std::less<TVector<TTypeLine> *> > &)
FUNC 12d40 13 0 std::vector<TLoopInfo,pool_allocator<TLoopInfo> >::capacity()
FUNC 12d53 22 c std::_Fill<TTypeLine *,TTypeLine>(TTypeLine *,TTypeLine *,TTypeLine const &)
FUNC 12d75 19 8 pool_allocator<TLoopInfo>::construct(TLoopInfo *,TLoopInfo const &)
FUNC 12d8e 45 18 std::_Uninit_copy<TTypeLine *,TTypeLine *,pool_allocator<TTypeLine> >(TTypeLine *,TTypeLine *,TTypeLine *,pool_allocator<TTypeLine> &,std::_Nonscalar_ptr_iterator_tag,std::_Range_checked_iterator_tag)
FUNC 12dd3 45 18 std::_Uninit_copy<TParameter *,TParameter *,pool_allocator<TParameter> >(TParameter *,TParameter *,TParameter *,pool_allocator<TParameter> &,std::_Nonscalar_ptr_iterator_tag,std::_Range_checked_iterator_tag)
FUNC 12e18 49 c std::basic_string<char,std::char_traits<char>,pool_allocator<char> >::_Chassign(unsigned int,unsigned int,char)
FUNC 12e61 29 4 std::_Tree<std::_Tmap_traits<TVector<TTypeLine> *,TVector<TTypeLine> *,std::less<TVector<TTypeLine> *>,pool_allocator<std::pair<TVector<TTypeLine> * const,TVector<TTypeLine> *> >,0> >::_Lbound(TVector<TTypeLine> * const &)
FUNC 12e8a 41 18 std::_Uninit_fill_n<TTypeLine *,unsigned int,TTypeLine,pool_allocator<TTypeLine> >(TTypeLine *,unsigned int,TTypeLine const &,pool_allocator<TTypeLine> &,std::_Nonscalar_ptr_iterator_tag,std::_Range_checked_iterator_tag)
FUNC 12ecb 41 18 std::_Uninit_fill_n<TParameter *,unsigned int,TParameter,pool_allocator<TParameter> >(TParameter *,unsigned int,TParameter const &,pool_allocator<TParameter> &,std::_Nonscalar_ptr_iterator_tag,std::_Range_checked_iterator_tag)
FUNC 12f0c 28 18 std::_Move_backward_opt<TPoolAllocator::tAllocState *,TPoolAllocator::tAllocState *,std::random_access_iterator_tag,std::_Undefined_move_tag>(TPoolAllocator::tAllocState *,TPoolAllocator::tAllocState *,TPoolAllocator::tAllocState *,std::random_access_iterator_tag,std::_Undefined_move_tag,std::_Range_checked_iterator_tag)
FUNC 12f34 28 10 stdext::unchecked_uninitialized_copy<TTypeLine *,TTypeLine *,pool_allocator<TTypeLine> >(TTypeLine *,TTypeLine *,TTypeLine *,pool_allocator<TTypeLine> &)
FUNC 12f5c 28 10 stdext::unchecked_uninitialized_copy<TParameter *,TParameter *,pool_allocator<TParameter> >(TParameter *,TParameter *,TParameter *,pool_allocator<TParameter> &)
FUNC 12f87 c3 4 TVariable::dump(TInfoSink &)
FUNC 1304a 8a 4 TFunction::dump(TInfoSink &)
FUNC 130d4 28 10 stdext::unchecked_uninitialized_fill_n<TTypeLine *,unsigned int,TTypeLine,pool_allocator<TTypeLine> >(TTypeLine *,unsigned int,TTypeLine const &,pool_allocator<TTypeLine> &)
FUNC 130fc 28 10 stdext::unchecked_uninitialized_fill_n<TParameter *,unsigned int,TParameter,pool_allocator<TParameter> >(TParameter *,unsigned int,TParameter const &,pool_allocator<TParameter> &)
FUNC 13124 28 c stdext::_Unchecked_move_backward<TParameter *,TParameter *>(TParameter *,TParameter *,TParameter *)
FUNC 1314c 33 0 TType::getStructSize()
FUNC 1317f 44 0 TType::computeDeepestStructNesting()
FUNC 131c3 3a 4 std::_Tree<std::_Tmap_traits<TVector<TTypeLine> *,TVector<TTypeLine> *,std::less<TVector<TTypeLine> *>,pool_allocator<std::pair<TVector<TTypeLine> * const,TVector<TTypeLine> *> >,0> >::find(TVector<TTypeLine> * const &)
FUNC 131fd 21 c std::vector<TTypeLine,pool_allocator<TTypeLine> >::_Ufill(TTypeLine *,unsigned int,TTypeLine const &)
FUNC 1321e 21 c std::vector<TParameter,pool_allocator<TParameter> >::_Ufill(TParameter *,unsigned int,TParameter const &)
FUNC 1323f 4e 8 TSymbolTableLevel::relateToOperator(char const *,TOperator)
FUNC 1328d 4f 8 std::basic_string<char,std::char_traits<char>,pool_allocator<char> >::append(unsigned int,char)
FUNC 132dc 18 c std::vector<TTypeLine,pool_allocator<TTypeLine> >::_Umove<TTypeLine *>(TTypeLine *,TTypeLine *,TTypeLine *)
FUNC 132f4 18 c std::vector<TParameter,pool_allocator<TParameter> >::_Umove<TParameter *>(TParameter *,TParameter *,TParameter *)
FUNC 1330c 197 c std::vector<TTypeLine,pool_allocator<TTypeLine> >::_Insert_n(std::_Vector_iterator<TTypeLine,pool_allocator<TTypeLine> >,unsigned int,TTypeLine const &)
FUNC 134a3 197 c std::vector<TParameter,pool_allocator<TParameter> >::_Insert_n(std::_Vector_iterator<TParameter,pool_allocator<TParameter> >,unsigned int,TParameter const &)
FUNC 1363a 34 0 TFunction::~TFunction()
FUNC 1366e 4 0 TFunction::getMangledName()
FUNC 13672 3d 8 std::vector<TTypeLine,pool_allocator<TTypeLine> >::insert(std::_Vector_iterator<TTypeLine,pool_allocator<TTypeLine> >,TTypeLine const &)
FUNC 136af 3d 8 std::vector<TParameter,pool_allocator<TParameter> >::insert(std::_Vector_iterator<TParameter,pool_allocator<TParameter> >,TParameter const &)
FUNC 136ec 24 0 NewPoolTTypeList()
FUNC 13710 35 8 TParameter::copyParam(TParameter const &,TMap<TVector<TTypeLine> *,TVector<TTypeLine> *,std::less<TVector<TTypeLine> *> > &)
FUNC 13745 e 0 TFunction::`vector deleting destructor'(unsigned int)
FUNC 13753 13a 4 TType::buildMangledName(std::basic_string<char,std::char_traits<char>,pool_allocator<char> > &)
FUNC 1388d 56 8 TSymbolTableLevel::relateToExtension(char const *,std::basic_string<char,std::char_traits<char>,pool_allocator<char> > const &)
FUNC 138e3 36 4 TSymbol::TSymbol(TSymbol const &)
FUNC 13919 40 4 std::vector<TTypeLine,pool_allocator<TTypeLine> >::push_back(TTypeLine const &)
FUNC 13959 40 4 std::vector<TParameter,pool_allocator<TParameter> >::push_back(TParameter const &)
FUNC 13999 173 8 TType::copyType(TType const &,TMap<TVector<TTypeLine> *,TVector<TTypeLine> *,std::less<TVector<TTypeLine> *> > &)
FUNC 13b0c 5e 8 TVariable::TVariable(TVariable const &,TMap<TVector<TTypeLine> *,TVector<TTypeLine> *,std::less<TVector<TTypeLine> *> > &)
FUNC 13b6a 29 4 TVariable::clone(TMap<TVector<TTypeLine> *,TVector<TTypeLine> *,std::less<TVector<TTypeLine> *> > &)
FUNC 13b93 a7 8 TFunction::TFunction(TFunction const &,TMap<TVector<TTypeLine> *,TVector<TTypeLine> *,std::less<TVector<TTypeLine> *> > &)
FUNC 13c3a 2c 4 TFunction::clone(TMap<TVector<TTypeLine> *,TVector<TTypeLine> *,std::less<TVector<TTypeLine> *> > &)
FUNC 13c66 3c 0 TSymbolTableLevel::~TSymbolTableLevel()
FUNC 13ca2 131 0 getVariableDataType
FUNC 13dd3 16 0 TVariableInfo::TVariableInfo()
FUNC 13de9 2b 8 CollectAttribsUniforms::CollectAttribsUniforms(std::vector<TVariableInfo,std::allocator<TVariableInfo> > &,std::vector<TVariableInfo,std::allocator<TVariableInfo> > &)
FUNC 13e14 3 4 TIntermTraverser::visitConstantUnion(TIntermConstantUnion *)
FUNC 13e17 5 8 CollectAttribsUniforms::visitBranch(Visit,TIntermBranch *)
FUNC 13e1c 13 0 std::vector<TVariableInfo,std::allocator<TVariableInfo> >::capacity()
FUNC 13e2f 2f 4 TVariableInfo::TVariableInfo(TVariableInfo const &)
FUNC 13e5e 27 18 std::_Copy_backward_opt<TVariableInfo *,TVariableInfo *,std::random_access_iterator_tag>(TVariableInfo *,TVariableInfo *,TVariableInfo *,std::random_access_iterator_tag,std::_Nonscalar_ptr_iterator_tag,std::_Range_checked_iterator_tag)
FUNC 13e85 1d c std::_Fill<TVariableInfo *,TVariableInfo>(TVariableInfo *,TVariableInfo *,TVariableInfo const &)
FUNC 13ea2 28 18 std::_Move_backward_opt<TVariableInfo *,TVariableInfo *,std::random_access_iterator_tag,std::_Undefined_move_tag>(TVariableInfo *,TVariableInfo *,TVariableInfo *,std::random_access_iterator_tag,std::_Undefined_move_tag,std::_Range_checked_iterator_tag)
FUNC 13eca 14 8 std::allocator<TVariableInfo>::construct(TVariableInfo *,TVariableInfo const &)
FUNC 13ede 28 c stdext::_Unchecked_move_backward<TVariableInfo *,TVariableInfo *>(TVariableInfo *,TVariableInfo *,TVariableInfo *)
FUNC 13f06 5f 18 std::_Uninit_copy<TVariableInfo *,TVariableInfo *,std::allocator<TVariableInfo> >(TVariableInfo *,TVariableInfo *,TVariableInfo *,std::allocator<TVariableInfo> &,std::_Nonscalar_ptr_iterator_tag,std::_Range_checked_iterator_tag)
FUNC 13f65 5b 18 std::_Uninit_fill_n<TVariableInfo *,unsigned int,TVariableInfo,std::allocator<TVariableInfo> >(TVariableInfo *,unsigned int,TVariableInfo const &,std::allocator<TVariableInfo> &,std::_Nonscalar_ptr_iterator_tag,std::_Range_checked_iterator_tag)
FUNC 13fc0 28 10 stdext::unchecked_uninitialized_copy<TVariableInfo *,TVariableInfo *,std::allocator<TVariableInfo> >(TVariableInfo *,TVariableInfo *,TVariableInfo *,std::allocator<TVariableInfo> &)
FUNC 13fe8 28 10 stdext::unchecked_uninitialized_fill_n<TVariableInfo *,unsigned int,TVariableInfo,std::allocator<TVariableInfo> >(TVariableInfo *,unsigned int,TVariableInfo const &,std::allocator<TVariableInfo> &)
FUNC 14010 22 c std::vector<TVariableInfo,std::allocator<TVariableInfo> >::_Ufill(TVariableInfo *,unsigned int,TVariableInfo const &)
FUNC 14032 39 8 std::operator+<char,std::char_traits<char>,pool_allocator<char> >(std::basic_string<char,std::char_traits<char>,pool_allocator<char> > const &,std::basic_string<char,std::char_traits<char>,pool_allocator<char> > const &)
FUNC 1406b 18 c std::vector<TVariableInfo,std::allocator<TVariableInfo> >::_Umove<TVariableInfo *>(TVariableInfo *,TVariableInfo *,TVariableInfo *)
FUNC 14083 c5 c getUserDefinedVariableInfo
FUNC 14148 207 c std::vector<TVariableInfo,std::allocator<TVariableInfo> >::_Insert_n(std::_Vector_iterator<TVariableInfo,std::allocator<TVariableInfo> >,unsigned int,TVariableInfo const &)
FUNC 1434f 55 4 arrayBrackets
FUNC 143a4 3d 8 std::vector<TVariableInfo,std::allocator<TVariableInfo> >::insert(std::_Vector_iterator<TVariableInfo,std::allocator<TVariableInfo> >,TVariableInfo const &)
FUNC 143e1 40 4 std::vector<TVariableInfo,std::allocator<TVariableInfo> >::push_back(TVariableInfo const &)
FUNC 14421 116 8 getBuiltInVariableInfo
FUNC 14537 f3 10 getVariableInfo
FUNC 1462a 72 8 CollectAttribsUniforms::visitAggregate(Visit,TIntermAggregate *)
FUNC 1469c e 0 OS_AllocTLSIndex()
FUNC 146aa 1e 8 OS_SetTLSValue(unsigned long,void *)
FUNC 146c8 1a 4 OS_FreeTLSIndex(unsigned long)
FUNC 146e2 32 4 atof_dot
FUNC 14714 25 0 TType::isScalar()
FUNC 14739 28 4 `anonymous namespace'::ValidateConstIndexExpr::ValidateConstIndexExpr(TVector<TLoopInfo> const &)
FUNC 14761 64 c ValidateLimitations::error(int,char const *,char const *)
FUNC 147c5 31 4 ValidateLimitations::validateLoopType(TIntermLoop *)
FUNC 147f6 12 4 ValidateLimitations::isConstExpr(TIntermNode *)
FUNC 14808 24 4 ValidateLimitations::isConstIndexExpr(TIntermNode *)
FUNC 1482c 25 18 std::_Copy_backward_opt<TTypeLine *,TTypeLine *,std::random_access_iterator_tag>(TTypeLine *,TTypeLine *,TTypeLine *,std::random_access_iterator_tag,std::_Nonscalar_ptr_iterator_tag,std::_Range_checked_iterator_tag)
FUNC 14851 45 18 std::_Uninit_copy<TLoopInfo *,TLoopInfo *,pool_allocator<TLoopInfo> >(TLoopInfo *,TLoopInfo *,TLoopInfo *,pool_allocator<TLoopInfo> &,std::_Nonscalar_ptr_iterator_tag,std::_Range_checked_iterator_tag)
FUNC 14896 30 18 std::_Uninit_copy<unsigned int *,unsigned int *,std::allocator<unsigned int> >(unsigned int *,unsigned int *,unsigned int *,std::allocator<unsigned int> &,std::_Scalar_ptr_iterator_tag,std::_Range_checked_iterator_tag)
FUNC 148c6 41 18 std::_Uninit_fill_n<TLoopInfo *,unsigned int,TLoopInfo,pool_allocator<TLoopInfo> >(TLoopInfo *,unsigned int,TLoopInfo const &,pool_allocator<TLoopInfo> &,std::_Nonscalar_ptr_iterator_tag,std::_Range_checked_iterator_tag)
FUNC 14907 28 10 stdext::unchecked_uninitialized_copy<TLoopInfo *,TLoopInfo *,pool_allocator<TLoopInfo> >(TLoopInfo *,TLoopInfo *,TLoopInfo *,pool_allocator<TLoopInfo> &)
FUNC 1492f 28 10 stdext::unchecked_uninitialized_copy<unsigned int *,unsigned int *,std::allocator<unsigned int> >(unsigned int *,unsigned int *,unsigned int *,std::allocator<unsigned int> &)
FUNC 14957 26 8 `anonymous namespace'::IsLoopIndex(TIntermSymbol const *,TVector<TLoopInfo> const &)
FUNC 1497d 35 4 `anonymous namespace'::ValidateConstIndexExpr::visitSymbol(TIntermSymbol *)
FUNC 149b2 123 8 ValidateLimitations::validateForLoopInit(TIntermLoop *,TLoopInfo *)
FUNC 14ad5 ef 8 ValidateLimitations::validateForLoopCond(TIntermLoop *,TLoopInfo *)
FUNC 14bc4 106 8 ValidateLimitations::validateForLoopExpr(TIntermLoop *,TLoopInfo *)
FUNC 14cca 69 8 ValidateLimitations::validateOperation(TIntermOperator *,TIntermNode *)
FUNC 14d33 28 10 stdext::unchecked_uninitialized_fill_n<TLoopInfo *,unsigned int,TLoopInfo,pool_allocator<TLoopInfo> >(TLoopInfo *,unsigned int,TLoopInfo const &,pool_allocator<TLoopInfo> &)
FUNC 14d5b 12 8 ValidateLimitations::visitUnary(Visit,TIntermUnary *)
FUNC 14d6d 41 8 ValidateLimitations::validateForLoopHeader(TIntermLoop *,TLoopInfo *)
FUNC 14dae 19 0 std::vector<TIntermNode *,pool_allocator<TIntermNode *> >::vector<TIntermNode *,pool_allocator<TIntermNode *> >()
FUNC 14dc7 21 c std::vector<TLoopInfo,pool_allocator<TLoopInfo> >::_Ufill(TLoopInfo *,unsigned int,TLoopInfo const &)
FUNC 14de8 a8 4 ValidateLimitations::validateIndexing(TIntermBinary *)
FUNC 14e90 18 c std::vector<TLoopInfo,pool_allocator<TLoopInfo> >::_Umove<TLoopInfo *>(TLoopInfo *,TLoopInfo *,TLoopInfo *)
FUNC 14ea8 18 c std::vector<TSymbolTableLevel *,std::allocator<TSymbolTableLevel *> >::_Umove<TSymbolTableLevel * *>(TSymbolTableLevel * *,TSymbolTableLevel * *,TSymbolTableLevel * *)
FUNC 14ec0 2b 8 ValidateLimitations::visitBinary(Visit,TIntermBinary *)
FUNC 14eeb 197 c std::vector<TLoopInfo,pool_allocator<TLoopInfo> >::_Insert_n(std::_Vector_iterator<TLoopInfo,pool_allocator<TLoopInfo> >,unsigned int,TLoopInfo const &)
FUNC 15082 1a7 c std::vector<int,std::allocator<int> >::_Insert_n(std::_Vector_iterator<int,std::allocator<int> >,unsigned int,int const &)
FUNC 15229 3a 8 ValidateLimitations::ValidateLimitations(ShShaderType,TInfoSinkBase &)
FUNC 15263 3d 8 std::vector<TLoopInfo,pool_allocator<TLoopInfo> >::insert(std::_Vector_iterator<TLoopInfo,pool_allocator<TLoopInfo> >,TLoopInfo const &)
FUNC 152a0 3d 8 std::vector<int,std::allocator<int> >::insert(std::_Vector_iterator<int,std::allocator<int> >,int const &)
FUNC 152dd 40 4 std::vector<TLoopInfo,pool_allocator<TLoopInfo> >::push_back(TLoopInfo const &)
FUNC 1531d 40 4 std::vector<int,std::allocator<int> >::push_back(int const &)
FUNC 1535d 6e 8 ValidateLimitations::visitLoop(Visit,TIntermLoop *)
FUNC 153cb 12b 4 ValidateLimitations::validateFunctionCall(TIntermAggregate *)
FUNC 154f6 16 8 ValidateLimitations::visitAggregate(Visit,TIntermAggregate *)
FUNC 1550c 32 8 `anonymous namespace'::IntegerForLoopUnrollMarker::visitLoop(Visit,TIntermLoop *)
FUNC 1553e 2c 4 ForLoopUnroll::MarkForLoopsWithIntegerIndicesForUnrolling(TIntermNode *)
FUNC 1556a 24 4 MapLongVariableNames::MapLongVariableNames(std::map<std::basic_string<char,std::char_traits<char>,std::allocator<char> >,std::basic_string<char,std::char_traits<char>,std::allocator<char> >,std::less<std::basic_string<char,std::char_traits<char>,std::allocator<char> > >,std::allocator<std::pair<std::basic_string<char,std::char_traits<char>,std::allocator<char> > const ,std::basic_string<char,std::char_traits<char>,std::allocator<char> > > > > &)
FUNC 1558e 17 8 MapLongVariableNames::visitLoop(Visit,TIntermLoop *)
FUNC 155a5 20 8 std::pair<std::basic_string<char,std::char_traits<char>,std::allocator<char> > const ,std::basic_string<char,std::char_traits<char>,std::allocator<char> > >::pair<std::basic_string<char,std::char_traits<char>,std::allocator<char> > const ,std::basic_string<char,std::char_traits<char>,std::allocator<char> > >(std::basic_string<char,std::char_traits<char>,std::allocator<char> > const &,std::basic_string<char,std::char_traits<char>,std::allocator<char> > const &)
FUNC 155c5 23 4 std::pair<std::basic_string<char,std::char_traits<char>,std::allocator<char> > const ,std::basic_string<char,std::char_traits<char>,std::allocator<char> > >::pair<std::basic_string<char,std::char_traits<char>,std::allocator<char> > const ,std::basic_string<char,std::char_traits<char>,std::allocator<char> > >(std::pair<std::basic_string<char,std::char_traits<char>,std::allocator<char> > const ,std::basic_string<char,std::char_traits<char>,std::allocator<char> > > const &)
FUNC 155e8 36 4 std::_Tree<std::_Tmap_traits<std::basic_string<char,std::char_traits<char>,std::allocator<char> >,std::basic_string<char,std::char_traits<char>,std::allocator<char> >,std::less<std::basic_string<char,std::char_traits<char>,std::allocator<char> > >,std::allocator<std::pair<std::basic_string<char,std::char_traits<char>,std::allocator<char> > const ,std::basic_string<char,std::char_traits<char>,std::allocator<char> > > >,0> >::_Lbound(std::basic_string<char,std::char_traits<char>,std::allocator<char> > const &)
FUNC 1561e 41 0 std::_Tree<std::_Tmap_traits<std::basic_string<char,std::char_traits<char>,std::allocator<char> >,std::basic_string<char,std::char_traits<char>,std::allocator<char> >,std::less<std::basic_string<char,std::char_traits<char>,std::allocator<char> > >,std::allocator<std::pair<std::basic_string<char,std::char_traits<char>,std::allocator<char> > const ,std::basic_string<char,std::char_traits<char>,std::allocator<char> > > >,0> >::const_iterator::_Dec()
FUNC 1565f 33 14 std::_Tree_nod<std::_Tmap_traits<std::basic_string<char,std::char_traits<char>,std::allocator<char> >,std::basic_string<char,std::char_traits<char>,std::allocator<char> >,std::less<std::basic_string<char,std::char_traits<char>,std::allocator<char> > >,std::allocator<std::pair<std::basic_string<char,std::char_traits<char>,std::allocator<char> > const ,std::basic_string<char,std::char_traits<char>,std::allocator<char> > > >,0> >::_Node::_Node(std::_Tree_nod<std::_Tmap_traits<std::basic_string<char,std::char_traits<char>,std::allocator<char> >,std::basic_string<char,std::char_traits<char>,std::allocator<char> >,std::less<std::basic_string<char,std::char_traits<char>,std::allocator<char> > >,std::allocator<std::pair<std::basic_string<char,std::char_traits<char>,std::allocator<char> > const ,std::basic_string<char,std::char_traits<char>,std::allocator<char> > > >,0> >::_Node *,std::_Tree_nod<std::_Tmap_traits<std::basic_string<char,std::char_traits<char>,std::allocator<char> >,std::basic_string<char,std::char_traits<char>,std::allocator<char> >,std::less<std::basic_string<char,std::char_traits<char>,std::allocator<char> > >,std::allocator<std::pair<std::basic_string<char,std::char_traits<char>,std::allocator<char> > const ,std::basic_string<char,std::char_traits<char>,std::allocator<char> > > >,0> >::_Node *,std::_Tree_nod<std::_Tmap_traits<std::basic_string<char,std::char_traits<char>,std::allocator<char> >,std::basic_string<char,std::char_traits<char>,std::allocator<char> >,std::less<std::basic_string<char,std::char_traits<char>,std::allocator<char> > >,std::allocator<std::pair<std::basic_string<char,std::char_traits<char>,std::allocator<char> > const ,std::basic_string<char,std::char_traits<char>,std::allocator<char> > > >,0> >::_Node *,std::pair<std::basic_string<char,std::char_traits<char>,std::allocator<char> > const ,std::basic_string<char,std::char_traits<char>,std::allocator<char> > > const &,char)
FUNC 15692 160 8 std::operator<<<char,std::char_traits<char>,pool_allocator<char> >(std::basic_ostream<char,std::char_traits<char> > &,std::basic_string<char,std::char_traits<char>,pool_allocator<char> > const &)
FUNC 157f2 5b 14 std::_Tree<std::_Tmap_traits<std::basic_string<char,std::char_traits<char>,std::allocator<char> >,std::basic_string<char,std::char_traits<char>,std::allocator<char> >,std::less<std::basic_string<char,std::char_traits<char>,std::allocator<char> > >,std::allocator<std::pair<std::basic_string<char,std::char_traits<char>,std::allocator<char> > const ,std::basic_string<char,std::char_traits<char>,std::allocator<char> > > >,0> >::_Buynode(std::_Tree_nod<std::_Tmap_traits<std::basic_string<char,std::char_traits<char>,std::allocator<char> >,std::basic_string<char,std::char_traits<char>,std::allocator<char> >,std::less<std::basic_string<char,std::char_traits<char>,std::allocator<char> > >,std::allocator<std::pair<std::basic_string<char,std::char_traits<char>,std::allocator<char> > const ,std::basic_string<char,std::char_traits<char>,std::allocator<char> > > >,0> >::_Node *,std::_Tree_nod<std::_Tmap_traits<std::basic_string<char,std::char_traits<char>,std::allocator<char> >,std::basic_string<char,std::char_traits<char>,std::allocator<char> >,std::less<std::basic_string<char,std::char_traits<char>,std::allocator<char> > >,std::allocator<std::pair<std::basic_string<char,std::char_traits<char>,std::allocator<char> > const ,std::basic_string<char,std::char_traits<char>,std::allocator<char> > > >,0> >::_Node *,std::_Tree_nod<std::_Tmap_traits<std::basic_string<char,std::char_traits<char>,std::allocator<char> >,std::basic_string<char,std::char_traits<char>,std::allocator<char> >,std::less<std::basic_string<char,std::char_traits<char>,std::allocator<char> > >,std::allocator<std::pair<std::basic_string<char,std::char_traits<char>,std::allocator<char> > const ,std::basic_string<char,std::char_traits<char>,std::allocator<char> > > >,0> >::_Node *,std::pair<std::basic_string<char,std::char_traits<char>,std::allocator<char> > const ,std::basic_string<char,std::char_traits<char>,std::allocator<char> > > const &,char)
FUNC 1584d 44 4 std::_Tree<std::_Tmap_traits<std::basic_string<char,std::char_traits<char>,std::allocator<char> >,std::basic_string<char,std::char_traits<char>,std::allocator<char> >,std::less<std::basic_string<char,std::char_traits<char>,std::allocator<char> > >,std::allocator<std::pair<std::basic_string<char,std::char_traits<char>,std::allocator<char> > const ,std::basic_string<char,std::char_traits<char>,std::allocator<char> > > >,0> >::find(std::basic_string<char,std::char_traits<char>,std::allocator<char> > const &)
FUNC 15891 14c c std::_Tree<std::_Tmap_traits<std::basic_string<char,std::char_traits<char>,std::allocator<char> >,std::basic_string<char,std::char_traits<char>,std::allocator<char> >,std::less<std::basic_string<char,std::char_traits<char>,std::allocator<char> > >,std::allocator<std::pair<std::basic_string<char,std::char_traits<char>,std::allocator<char> > const ,std::basic_string<char,std::char_traits<char>,std::allocator<char> > > >,0> >::_Insert(bool,std::_Tree_nod<std::_Tmap_traits<std::basic_string<char,std::char_traits<char>,std::allocator<char> >,std::basic_string<char,std::char_traits<char>,std::allocator<char> >,std::less<std::basic_string<char,std::char_traits<char>,std::allocator<char> > >,std::allocator<std::pair<std::basic_string<char,std::char_traits<char>,std::allocator<char> > const ,std::basic_string<char,std::char_traits<char>,std::allocator<char> > > >,0> >::_Node *,std::pair<std::basic_string<char,std::char_traits<char>,std::allocator<char> > const ,std::basic_string<char,std::char_traits<char>,std::allocator<char> > > const &)
FUNC 159dd a3 4 std::_Tree<std::_Tmap_traits<std::basic_string<char,std::char_traits<char>,std::allocator<char> >,std::basic_string<char,std::char_traits<char>,std::allocator<char> >,std::less<std::basic_string<char,std::char_traits<char>,std::allocator<char> > >,std::allocator<std::pair<std::basic_string<char,std::char_traits<char>,std::allocator<char> > const ,std::basic_string<char,std::char_traits<char>,std::allocator<char> > > >,0> >::insert(std::pair<std::basic_string<char,std::char_traits<char>,std::allocator<char> > const ,std::basic_string<char,std::char_traits<char>,std::allocator<char> > > const &)
FUNC 15a80 33 c std::basic_string<char,std::char_traits<char>,pool_allocator<char> >::basic_string<char,std::char_traits<char>,pool_allocator<char> >(std::basic_string<char,std::char_traits<char>,pool_allocator<char> > const &,unsigned int,unsigned int)
FUNC 15ab3 b8 c `anonymous namespace'::mapLongName(int,std::basic_string<char,std::char_traits<char>,pool_allocator<char> > const &,bool)
FUNC 15b6b 127 4 MapLongVariableNames::mapVaryingLongName(std::basic_string<char,std::char_traits<char>,pool_allocator<char> > const &)
FUNC 15c92 6f 4 MapLongVariableNames::visitSymbol(TIntermSymbol *)
FUNC 15d01 24 4 `anonymous namespace'::BuiltInFunctionEmulationMarker::BuiltInFunctionEmulationMarker(BuiltInFunctionEmulator &)
FUNC 15d25 4b 8 BuiltInFunctionEmulator::IdentifyFunction(TOperator,TType const &)
FUNC 15d70 82 c BuiltInFunctionEmulator::IdentifyFunction(TOperator,TType const &,TType const &)
FUNC 15df2 1e 4 BuiltInFunctionEmulator::MarkBuiltInFunctionsForEmulation(TIntermNode *)
FUNC 15e10 23 18 std::_Copy_backward_opt<std::list<std::pair<unsigned int const ,gl::Program *>,std::allocator<std::pair<unsigned int const ,gl::Program *> > >::_Iterator<0> *,std::list<std::pair<unsigned int const ,gl::Program *>,std::allocator<std::pair<unsigned int const ,gl::Program *> > >::_Iterator<0> *,std::random_access_iterator_tag>(std::list<std::pair<unsigned int const ,gl::Program *>,std::allocator<std::pair<unsigned int const ,gl::Program *> > >::_Iterator<0> *,std::list<std::pair<unsigned int const ,gl::Program *>,std::allocator<std::pair<unsigned int const ,gl::Program *> > >::_Iterator<0> *,std::list<std::pair<unsigned int const ,gl::Program *>,std::allocator<std::pair<unsigned int const ,gl::Program *> > >::_Iterator<0> *,std::random_access_iterator_tag,std::_Nonscalar_ptr_iterator_tag,std::_Range_checked_iterator_tag)
FUNC 15e33 45 18 std::_Uninit_copy<BuiltInFunctionEmulator::TBuiltInFunction *,BuiltInFunctionEmulator::TBuiltInFunction *,std::allocator<BuiltInFunctionEmulator::TBuiltInFunction> >(BuiltInFunctionEmulator::TBuiltInFunction *,BuiltInFunctionEmulator::TBuiltInFunction *,BuiltInFunctionEmulator::TBuiltInFunction *,std::allocator<BuiltInFunctionEmulator::TBuiltInFunction> &,std::_Nonscalar_ptr_iterator_tag,std::_Range_checked_iterator_tag)
FUNC 15e78 41 18 std::_Uninit_fill_n<BuiltInFunctionEmulator::TBuiltInFunction *,unsigned int,BuiltInFunctionEmulator::TBuiltInFunction,std::allocator<BuiltInFunctionEmulator::TBuiltInFunction> >(BuiltInFunctionEmulator::TBuiltInFunction *,unsigned int,BuiltInFunctionEmulator::TBuiltInFunction const &,std::allocator<BuiltInFunctionEmulator::TBuiltInFunction> &,std::_Nonscalar_ptr_iterator_tag,std::_Range_checked_iterator_tag)
FUNC 15eb9 28 10 stdext::unchecked_uninitialized_copy<BuiltInFunctionEmulator::TBuiltInFunction *,BuiltInFunctionEmulator::TBuiltInFunction *,std::allocator<BuiltInFunctionEmulator::TBuiltInFunction> >(BuiltInFunctionEmulator::TBuiltInFunction *,BuiltInFunctionEmulator::TBuiltInFunction *,BuiltInFunctionEmulator::TBuiltInFunction *,std::allocator<BuiltInFunctionEmulator::TBuiltInFunction> &)
FUNC 15ee1 28 10 stdext::unchecked_uninitialized_fill_n<BuiltInFunctionEmulator::TBuiltInFunction *,unsigned int,BuiltInFunctionEmulator::TBuiltInFunction,std::allocator<BuiltInFunctionEmulator::TBuiltInFunction> >(BuiltInFunctionEmulator::TBuiltInFunction *,unsigned int,BuiltInFunctionEmulator::TBuiltInFunction const &,std::allocator<BuiltInFunctionEmulator::TBuiltInFunction> &)
FUNC 15f09 21 c std::vector<BuiltInFunctionEmulator::TBuiltInFunction,std::allocator<BuiltInFunctionEmulator::TBuiltInFunction> >::_Ufill(BuiltInFunctionEmulator::TBuiltInFunction *,unsigned int,BuiltInFunctionEmulator::TBuiltInFunction const &)
FUNC 15f2a 18 c std::vector<BuiltInFunctionEmulator::TBuiltInFunction,std::allocator<BuiltInFunctionEmulator::TBuiltInFunction> >::_Umove<BuiltInFunctionEmulator::TBuiltInFunction *>(BuiltInFunctionEmulator::TBuiltInFunction *,BuiltInFunctionEmulator::TBuiltInFunction *,BuiltInFunctionEmulator::TBuiltInFunction *)
FUNC 15f42 15 0 std::vector<BuiltInFunctionEmulator::TBuiltInFunction,std::allocator<BuiltInFunctionEmulator::TBuiltInFunction> >::clear()
FUNC 15f57 1b5 c std::vector<BuiltInFunctionEmulator::TBuiltInFunction,std::allocator<BuiltInFunctionEmulator::TBuiltInFunction> >::_Insert_n(std::_Vector_iterator<BuiltInFunctionEmulator::TBuiltInFunction,std::allocator<BuiltInFunctionEmulator::TBuiltInFunction> >,unsigned int,BuiltInFunctionEmulator::TBuiltInFunction const &)
FUNC 1610c 38 4 BuiltInFunctionEmulator::BuiltInFunctionEmulator(ShShaderType)
FUNC 16144 5 0 BuiltInFunctionEmulator::Cleanup()
FUNC 16149 3d 8 std::vector<BuiltInFunctionEmulator::TBuiltInFunction,std::allocator<BuiltInFunctionEmulator::TBuiltInFunction> >::insert(std::_Vector_iterator<BuiltInFunctionEmulator::TBuiltInFunction,std::allocator<BuiltInFunctionEmulator::TBuiltInFunction> >,BuiltInFunctionEmulator::TBuiltInFunction const &)
FUNC 16186 40 4 std::vector<BuiltInFunctionEmulator::TBuiltInFunction,std::allocator<BuiltInFunctionEmulator::TBuiltInFunction> >::push_back(BuiltInFunctionEmulator::TBuiltInFunction const &)
FUNC 161c6 58 4 BuiltInFunctionEmulator::SetFunctionCalled(BuiltInFunctionEmulator::TBuiltInFunction)
FUNC 1621e 1c 8 BuiltInFunctionEmulator::SetFunctionCalled(TOperator,TType const &)
FUNC 1623a 20 c BuiltInFunctionEmulator::SetFunctionCalled(TOperator,TType const &,TType const &)
FUNC 1625a 2d 8 `anonymous namespace'::BuiltInFunctionEmulationMarker::visitUnary(Visit,TIntermUnary *)
FUNC 16287 a7 8 `anonymous namespace'::BuiltInFunctionEmulationMarker::visitAggregate(Visit,TIntermAggregate *)
FUNC 1632e 86 0 yy_get_previous_state
FUNC 163b4 84 0 yy_try_NUL_trans
FUNC 16438 2b 0 yy_load_buffer_state
FUNC 16463 4b 8 yy_flush_buffer(yy_buffer_state *,void *)
FUNC 164ae 25 4 yy_fatal_error
FUNC 164d3 31 8 yyset_lineno(int,void *)
FUNC 16504 26 0 yy_init_globals
FUNC 1652a 11 c yyrealloc(void *,unsigned int,void *)
FUNC 1653b 2c 4 CPPWarningToInfoLog
FUNC 16567 34 4 CPPShInfoLogMsg
FUNC 1659b 1e 4 SetLineNumber
FUNC 165b9 2a 4 SetStringNumber
FUNC 165e3 19 0 GetStringNumber
FUNC 165fc 1d 0 GetLineNumber
FUNC 16619 4c 0 IncLineNumber
FUNC 16665 4c 0 DecLineNumber
FUNC 166b1 13d 8 HandlePragma
FUNC 167ee 2d 0 reserved_word
FUNC 1681b 3e 8 yyerror(TParseContext *,char const *)
FUNC 16859 43 8 yy_delete_buffer(yy_buffer_state *,void *)
FUNC 1689c 50 4 yy_init_buffer
FUNC 168ec 6b 4 yypop_buffer_state(void *)
FUNC 16957 82 0 yyensure_buffer_stack
FUNC 169d9 54 8 yylex_init_extra(TParseContext *,void * *)
FUNC 16a2d 6d 4 yylex_destroy(void *)
FUNC 16a9a 2c 4 glslang_initialize(TParseContext *)
FUNC 16ac6 1a 4 glslang_finalize(TParseContext *)
FUNC 16ae0 4e c yy_create_buffer(_iobuf *,int,void *)
FUNC 16b2e 2c 0 GetStrfromTStr
FUNC 16b5a 62 8 yyrestart(_iobuf *,void *)
FUNC 16bbc 77 10 glslang_scan(int,char const * const * const,int const * const,TParseContext *)
FUNC 16c33 203 0 yy_get_next_buffer
FUNC 16e36 a7 4 StoreStr
FUNC 16edd 16 0 ResetTString
FUNC 16ef3 c7 4 GetBehavior
FUNC 16fba 1ef 8 updateExtensionBehavior
FUNC 171a9 6e 0 check_type
FUNC 17217 10c8 8 yylex(YYSTYPE *,void *)
FUNC 182df 2f c TPublicType::setBasic(TBasicType,TQualifier,int)
FUNC 1830e 16 4 TType::setMatrix(bool)
FUNC 18324 f 4 TType::setStruct(TVector<TTypeLine> *)
FUNC 18333 29 4 std::_Tree<std::_Tmap_traits<_D3DFORMAT,bool *,std::less<_D3DFORMAT>,std::allocator<std::pair<_D3DFORMAT const ,bool *> >,0> >::_Lbound(_D3DFORMAT const &)
FUNC 1835c 3a 4 std::_Tree<std::_Tmap_traits<_D3DFORMAT,bool *,std::less<_D3DFORMAT>,std::allocator<std::pair<_D3DFORMAT const ,bool *> >,0> >::find(_D3DFORMAT const &)
FUNC 18396 14c c std::_Tree<std::_Tmap_traits<TBasicType,TPrecision,std::less<TBasicType>,std::allocator<std::pair<TBasicType const ,TPrecision> >,0> >::_Insert(bool,std::_Tree_nod<std::_Tmap_traits<TBasicType,TPrecision,std::less<TBasicType>,std::allocator<std::pair<TBasicType const ,TPrecision> >,0> >::_Node *,std::pair<TBasicType const ,TPrecision> const &)
FUNC 184e2 66 4 TSymbolTable::getDefaultPrecision(TBasicType)
FUNC 18548 91 4 std::_Tree<std::_Tmap_traits<TBasicType,TPrecision,std::less<TBasicType>,std::allocator<std::pair<TBasicType const ,TPrecision> >,0> >::insert(std::pair<TBasicType const ,TPrecision> const &)
FUNC 185d9 e0 8 std::_Tree<std::_Tmap_traits<TBasicType,TPrecision,std::less<TBasicType>,std::allocator<std::pair<TBasicType const ,TPrecision> >,0> >::insert(std::_Tree<std::_Tmap_traits<TBasicType,TPrecision,std::less<TBasicType>,std::allocator<std::pair<TBasicType const ,TPrecision> >,0> >::iterator,std::pair<TBasicType const ,TPrecision> const &)
FUNC 186b9 37 8 std::operator+<char,std::char_traits<char>,pool_allocator<char> >(std::basic_string<char,std::char_traits<char>,pool_allocator<char> > const &,char)
FUNC 186f0 64 c TType::TType(TVector<TTypeLine> *,std::basic_string<char,std::char_traits<char>,pool_allocator<char> > const &,TPrecision)
FUNC 18754 23 4 TType::setTypeName(std::basic_string<char,std::char_traits<char>,pool_allocator<char> > const &)
FUNC 18777 23 4 TType::setFieldName(std::basic_string<char,std::char_traits<char>,pool_allocator<char> > const &)
FUNC 1879a 30 0 TType::getMangledName()
FUNC 187ca 17 4 TFunction::mangleName(std::basic_string<char,std::char_traits<char>,pool_allocator<char> > const &)
FUNC 187e1 42 4 std::map<TBasicType,TPrecision,std::less<TBasicType>,std::allocator<std::pair<TBasicType const ,TPrecision> > >::operator[](TBasicType const &)
FUNC 18823 13 4 TIntermAggregate::setName(std::basic_string<char,std::char_traits<char>,pool_allocator<char> > const &)
FUNC 18836 53 c TFunction::TFunction(std::basic_string<char,std::char_traits<char>,pool_allocator<char> > const *,TType &,TOperator)
FUNC 18889 37 8 TSymbolTable::setDefaultPrecision(TBasicType,TPrecision)
FUNC 188c0 4d 4 TFunction::addParameter(TParameter &)
FUNC 1890e 4518 4 yyparse(TParseContext *)
FUNC 1ce26 5 4 glslang_parse(TParseContext *)
FUNC 1ce2b 2c c ConstructCompiler(ShShaderType,ShShaderSpec,ShShaderOutput)
FUNC 1ce57 f 4 DeleteCompiler(TCompiler *)
FUNC 1ce66 21 4 TInfoSinkBase::operator<<(bool)
FUNC 1ce87 4 0 sh::OutputHLSL::getBodyStream()
FUNC 1ce8b 16 0 std::vector<TType,std::allocator<TType> >::size()
FUNC 1cea1 16 0 std::vector<TType,std::allocator<TType> >::capacity()
FUNC 1ceb7 34 14 std::_Tree_nod<std::_Tset_traits<std::basic_string<char,std::char_traits<char>,std::allocator<char> >,std::less<std::basic_string<char,std::char_traits<char>,std::allocator<char> > >,std::allocator<std::basic_string<char,std::char_traits<char>,std::allocator<char> > >,0> >::_Node::_Node(std::_Tree_nod<std::_Tset_traits<std::basic_string<char,std::char_traits<char>,std::allocator<char> >,std::less<std::basic_string<char,std::char_traits<char>,std::allocator<char> > >,std::allocator<std::basic_string<char,std::char_traits<char>,std::allocator<char> > >,0> >::_Node *,std::_Tree_nod<std::_Tset_traits<std::basic_string<char,std::char_traits<char>,std::allocator<char> >,std::less<std::basic_string<char,std::char_traits<char>,std::allocator<char> > >,std::allocator<std::basic_string<char,std::char_traits<char>,std::allocator<char> > >,0> >::_Node *,std::_Tree_nod<std::_Tset_traits<std::basic_string<char,std::char_traits<char>,std::allocator<char> >,std::less<std::basic_string<char,std::char_traits<char>,std::allocator<char> > >,std::allocator<std::basic_string<char,std::char_traits<char>,std::allocator<char> > >,0> >::_Node *,std::basic_string<char,std::char_traits<char>,std::allocator<char> > const &,char)
FUNC 1ceeb 36 0 std::_Tree<std::_Tset_traits<std::basic_string<char,std::char_traits<char>,pool_allocator<char> >,std::less<std::basic_string<char,std::char_traits<char>,pool_allocator<char> > >,std::allocator<std::basic_string<char,std::char_traits<char>,pool_allocator<char> > >,0> >::const_iterator::_Inc()
FUNC 1cf21 4e 8 std::_Allocate<gl::UniformLocation>(unsigned int,gl::UniformLocation *)
FUNC 1cf6f 4e 8 std::_Allocate<TType>(unsigned int,TType *)
FUNC 1cfbd 4e 8 std::_Allocate<std::_Tree_nod<std::_Tset_traits<std::basic_string<char,std::char_traits<char>,std::allocator<char> >,std::less<std::basic_string<char,std::char_traits<char>,std::allocator<char> > >,std::allocator<std::basic_string<char,std::char_traits<char>,std::allocator<char> > >,0> >::_Node>(unsigned int,std::_Tree_nod<std::_Tset_traits<std::basic_string<char,std::char_traits<char>,std::allocator<char> >,std::less<std::basic_string<char,std::char_traits<char>,std::allocator<char> > >,std::allocator<std::basic_string<char,std::char_traits<char>,std::allocator<char> > >,0> >::_Node *)
FUNC 1d00b 30 18 std::_Copy_opt<TIntermNode * *,TIntermNode * *,std::random_access_iterator_tag>(TIntermNode * *,TIntermNode * *,TIntermNode * *,std::random_access_iterator_tag,std::_Scalar_ptr_iterator_tag,std::_Range_checked_iterator_tag)
FUNC 1d03b 23 c std::_Fill<TType *,TType>(TType *,TType *,TType const &)
FUNC 1d05e 2a 18 std::_Copy_backward_opt<TType *,TType *,std::random_access_iterator_tag>(TType *,TType *,TType *,std::random_access_iterator_tag,std::_Nonscalar_ptr_iterator_tag,std::_Range_checked_iterator_tag)
FUNC 1d088 16 8 std::_Construct<TType,TType>(TType *,TType const &)
FUNC 1d09e 7f 4 sh::OutputHLSL::outputLineDirective(int)
FUNC 1d11d 36 4 std::_Tree<std::_Tset_traits<std::basic_string<char,std::char_traits<char>,std::allocator<char> >,std::less<std::basic_string<char,std::char_traits<char>,std::allocator<char> > >,std::allocator<std::basic_string<char,std::char_traits<char>,std::allocator<char> > >,0> >::_Lbound(std::basic_string<char,std::char_traits<char>,std::allocator<char> > const &)
FUNC 1d153 42 4 std::_Tree<std::_Tset_traits<std::basic_string<char,std::char_traits<char>,pool_allocator<char> >,std::less<std::basic_string<char,std::char_traits<char>,pool_allocator<char> > >,std::allocator<std::basic_string<char,std::char_traits<char>,pool_allocator<char> > >,0> >::_Lrotate(std::_Tree_nod<std::_Tset_traits<std::basic_string<char,std::char_traits<char>,pool_allocator<char> >,std::less<std::basic_string<char,std::char_traits<char>,pool_allocator<char> > >,std::allocator<std::basic_string<char,std::char_traits<char>,pool_allocator<char> > >,0> >::_Node *)
FUNC 1d195 44 4 std::_Tree<std::_Tset_traits<std::basic_string<char,std::char_traits<char>,std::allocator<char> >,std::less<std::basic_string<char,std::char_traits<char>,std::allocator<char> > >,std::allocator<std::basic_string<char,std::char_traits<char>,std::allocator<char> > >,0> >::_Rrotate(std::_Tree_nod<std::_Tset_traits<std::basic_string<char,std::char_traits<char>,std::allocator<char> >,std::less<std::basic_string<char,std::char_traits<char>,std::allocator<char> > >,std::allocator<std::basic_string<char,std::char_traits<char>,std::allocator<char> > >,0> >::_Node *)
FUNC 1d1d9 51 4 std::list<std::basic_string<char,std::char_traits<char>,pool_allocator<char> >,std::allocator<std::basic_string<char,std::char_traits<char>,pool_allocator<char> > > >::_Incsize(unsigned int)
FUNC 1d22a 41 0 std::_Tree<std::_Tset_traits<std::basic_string<char,std::char_traits<char>,std::allocator<char> >,std::less<std::basic_string<char,std::char_traits<char>,std::allocator<char> > >,std::allocator<std::basic_string<char,std::char_traits<char>,std::allocator<char> > >,0> >::const_iterator::_Dec()
FUNC 1d26b 28 c stdext::unchecked_copy<TIntermNode * *,TIntermNode * *>(TIntermNode * *,TIntermNode * *,TIntermNode * *)
FUNC 1d293 20 0 std::_List_nod<gl::Varying,std::allocator<gl::Varying> >::_Node::`scalar deleting destructor'(unsigned int)
FUNC 1d2b3 28 18 std::_Move_backward_opt<TType *,TType *,std::random_access_iterator_tag,std::_Undefined_move_tag>(TType *,TType *,TType *,std::random_access_iterator_tag,std::_Undefined_move_tag,std::_Range_checked_iterator_tag)
FUNC 1d2db 44 18 std::_Uninit_copy<TType *,TType *,std::allocator<TType> >(TType *,TType *,TType *,std::allocator<TType> &,std::_Nonscalar_ptr_iterator_tag,std::_Range_checked_iterator_tag)
FUNC 1d31f 105 8 sh::OutputHLSL::visitSelection(Visit,TIntermSelection *)
FUNC 1d424 32f 4 sh::OutputHLSL::handleExcessiveLoop(TIntermLoop *)
FUNC 1d753 2e 10 sh::OutputHLSL::outputTriplet(Visit,std::basic_string<char,std::char_traits<char>,pool_allocator<char> > const &,std::basic_string<char,std::char_traits<char>,pool_allocator<char> > const &,std::basic_string<char,std::char_traits<char>,pool_allocator<char> > const &)
FUNC 1d781 4a 0 std::list<std::basic_string<char,std::char_traits<char>,pool_allocator<char> >,std::allocator<std::basic_string<char,std::char_traits<char>,pool_allocator<char> > > >::_Buynode()
FUNC 1d7cb 5b 14 std::_Tree<std::_Tset_traits<std::basic_string<char,std::char_traits<char>,std::allocator<char> >,std::less<std::basic_string<char,std::char_traits<char>,std::allocator<char> > >,std::allocator<std::basic_string<char,std::char_traits<char>,std::allocator<char> > >,0> >::_Buynode(std::_Tree_nod<std::_Tset_traits<std::basic_string<char,std::char_traits<char>,std::allocator<char> >,std::less<std::basic_string<char,std::char_traits<char>,std::allocator<char> > >,std::allocator<std::basic_string<char,std::char_traits<char>,std::allocator<char> > >,0> >::_Node *,std::_Tree_nod<std::_Tset_traits<std::basic_string<char,std::char_traits<char>,std::allocator<char> >,std::less<std::basic_string<char,std::char_traits<char>,std::allocator<char> > >,std::allocator<std::basic_string<char,std::char_traits<char>,std::allocator<char> > >,0> >::_Node *,std::_Tree_nod<std::_Tset_traits<std::basic_string<char,std::char_traits<char>,std::allocator<char> >,std::less<std::basic_string<char,std::char_traits<char>,std::allocator<char> > >,std::allocator<std::basic_string<char,std::char_traits<char>,std::allocator<char> > >,0> >::_Node *,std::basic_string<char,std::char_traits<char>,std::allocator<char> > const &,char)
FUNC 1d826 5a 0 std::_Tree<std::_Tset_traits<std::basic_string<char,std::char_traits<char>,std::allocator<char> >,std::less<std::basic_string<char,std::char_traits<char>,std::allocator<char> > >,std::allocator<std::basic_string<char,std::char_traits<char>,std::allocator<char> > >,0> >::_Buynode()
FUNC 1d880 5a 0 std::_Tree<std::_Tset_traits<std::basic_string<char,std::char_traits<char>,pool_allocator<char> >,std::less<std::basic_string<char,std::char_traits<char>,pool_allocator<char> > >,std::allocator<std::basic_string<char,std::char_traits<char>,pool_allocator<char> > >,0> >::_Buynode()
FUNC 1d8da 28 c stdext::_Unchecked_move_backward<TType *,TType *>(TType *,TType *,TType *)
FUNC 1d902 27 c std::_Find<std::list<std::basic_string<char,std::char_traits<char>,pool_allocator<char> >,std::allocator<std::basic_string<char,std::char_traits<char>,pool_allocator<char> > > >::_Iterator<0>,std::basic_string<char,std::char_traits<char>,pool_allocator<char> > >(std::list<std::basic_string<char,std::char_traits<char>,pool_allocator<char> >,std::allocator<std::basic_string<char,std::char_traits<char>,pool_allocator<char> > > >::_Iterator<0>,std::list<std::basic_string<char,std::char_traits<char>,pool_allocator<char> >,std::allocator<std::basic_string<char,std::char_traits<char>,pool_allocator<char> > > >::_Iterator<0>,std::basic_string<char,std::char_traits<char>,pool_allocator<char> > const &)
FUNC 1d929 40 18 std::_Uninit_fill_n<TType *,unsigned int,TType,std::allocator<TType> >(TType *,unsigned int,TType const &,std::allocator<TType> &,std::_Nonscalar_ptr_iterator_tag,std::_Range_checked_iterator_tag)
FUNC 1d969 28 10 stdext::unchecked_uninitialized_copy<TType *,TType *,std::allocator<TType> >(TType *,TType *,TType *,std::allocator<TType> &)
FUNC 1d991 102 8 sh::OutputHLSL::visitLoop(Visit,TIntermLoop *)
FUNC 1da93 40 4 sh::OutputHLSL::isSingleStatement(TIntermNode *)
FUNC 1dad3 27 4 std::vector<TIntermNode *,pool_allocator<TIntermNode *> >::erase(std::_Vector_iterator<TIntermNode *,pool_allocator<TIntermNode *> >)
FUNC 1dafa 44 4 std::_Tree<std::_Tset_traits<std::basic_string<char,std::char_traits<char>,std::allocator<char> >,std::less<std::basic_string<char,std::char_traits<char>,std::allocator<char> > >,std::allocator<std::basic_string<char,std::char_traits<char>,std::allocator<char> > >,0> >::find(std::basic_string<char,std::char_traits<char>,std::allocator<char> > const &)
FUNC 1db3e 14c c std::_Tree<std::_Tset_traits<std::basic_string<char,std::char_traits<char>,std::allocator<char> >,std::less<std::basic_string<char,std::char_traits<char>,std::allocator<char> > >,std::allocator<std::basic_string<char,std::char_traits<char>,std::allocator<char> > >,0> >::_Insert(bool,std::_Tree_nod<std::_Tset_traits<std::basic_string<char,std::char_traits<char>,std::allocator<char> >,std::less<std::basic_string<char,std::char_traits<char>,std::allocator<char> > >,std::allocator<std::basic_string<char,std::char_traits<char>,std::allocator<char> > >,0> >::_Node *,std::basic_string<char,std::char_traits<char>,std::allocator<char> > const &)
FUNC 1dc8a 25 0 std::_Tree<std::_Tset_traits<std::basic_string<char,std::char_traits<char>,std::allocator<char> >,std::less<std::basic_string<char,std::char_traits<char>,std::allocator<char> > >,std::allocator<std::basic_string<char,std::char_traits<char>,std::allocator<char> > >,0> >::_Init()
FUNC 1dcaf 25 0 std::_Tree<std::_Tset_traits<std::basic_string<char,std::char_traits<char>,pool_allocator<char> >,std::less<std::basic_string<char,std::char_traits<char>,pool_allocator<char> > >,std::allocator<std::basic_string<char,std::char_traits<char>,pool_allocator<char> > >,0> >::_Init()
FUNC 1dcd4 21 c std::find<std::list<std::basic_string<char,std::char_traits<char>,pool_allocator<char> >,std::allocator<std::basic_string<char,std::char_traits<char>,pool_allocator<char> > > >::_Iterator<0>,std::basic_string<char,std::char_traits<char>,pool_allocator<char> > >(std::list<std::basic_string<char,std::char_traits<char>,pool_allocator<char> >,std::allocator<std::basic_string<char,std::char_traits<char>,pool_allocator<char> > > >::_Iterator<0>,std::list<std::basic_string<char,std::char_traits<char>,pool_allocator<char> >,std::allocator<std::basic_string<char,std::char_traits<char>,pool_allocator<char> > > >::_Iterator<0>,std::basic_string<char,std::char_traits<char>,pool_allocator<char> > const &)
FUNC 1dcf5 28 10 stdext::unchecked_uninitialized_fill_n<TType *,unsigned int,TType,std::allocator<TType> >(TType *,unsigned int,TType const &,std::allocator<TType> &)
FUNC 1dd1d a3 4 std::_Tree<std::_Tset_traits<std::basic_string<char,std::char_traits<char>,std::allocator<char> >,std::less<std::basic_string<char,std::char_traits<char>,std::allocator<char> > >,std::allocator<std::basic_string<char,std::char_traits<char>,std::allocator<char> > >,0> >::insert(std::basic_string<char,std::char_traits<char>,std::allocator<char> > const &)
FUNC 1ddc0 13 0 std::list<std::basic_string<char,std::char_traits<char>,pool_allocator<char> >,std::allocator<std::basic_string<char,std::char_traits<char>,pool_allocator<char> > > >::list<std::basic_string<char,std::char_traits<char>,pool_allocator<char> >,std::allocator<std::basic_string<char,std::char_traits<char>,pool_allocator<char> > > >()
FUNC 1ddd3 22 c std::vector<TType,std::allocator<TType> >::_Ufill(TType *,unsigned int,TType const &)
FUNC 1ddf5 27a 4 std::_Tree<std::_Tset_traits<std::basic_string<char,std::char_traits<char>,std::allocator<char> >,std::less<std::basic_string<char,std::char_traits<char>,std::allocator<char> > >,std::allocator<std::basic_string<char,std::char_traits<char>,std::allocator<char> > >,0> >::erase(std::_Tree<std::_Tset_traits<std::basic_string<char,std::char_traits<char>,std::allocator<char> >,std::less<std::basic_string<char,std::char_traits<char>,std::allocator<char> > >,std::allocator<std::basic_string<char,std::char_traits<char>,std::allocator<char> > >,0> >::iterator)
FUNC 1e06f 3b 4 std::_Tree<std::_Tset_traits<std::basic_string<char,std::char_traits<char>,std::allocator<char> >,std::less<std::basic_string<char,std::char_traits<char>,std::allocator<char> > >,std::allocator<std::basic_string<char,std::char_traits<char>,std::allocator<char> > >,0> >::_Erase(std::_Tree_nod<std::_Tset_traits<std::basic_string<char,std::char_traits<char>,std::allocator<char> >,std::less<std::basic_string<char,std::char_traits<char>,std::allocator<char> > >,std::allocator<std::basic_string<char,std::char_traits<char>,std::allocator<char> > >,0> >::_Node *)
FUNC 1e0aa 23 0 std::_List_nod<std::basic_string<char,std::char_traits<char>,pool_allocator<char> >,std::allocator<std::basic_string<char,std::char_traits<char>,pool_allocator<char> > > >::_Node::`scalar deleting destructor'(unsigned int)
FUNC 1e0cd 23 0 std::_Tree_nod<std::_Tset_traits<std::basic_string<char,std::char_traits<char>,pool_allocator<char> >,std::less<std::basic_string<char,std::char_traits<char>,pool_allocator<char> > >,std::allocator<std::basic_string<char,std::char_traits<char>,pool_allocator<char> > >,0> >::_Node::`scalar deleting destructor'(unsigned int)
FUNC 1e0f0 26 0 std::_Tree<std::_Tset_traits<std::basic_string<char,std::char_traits<char>,std::allocator<char> >,std::less<std::basic_string<char,std::char_traits<char>,std::allocator<char> > >,std::allocator<std::basic_string<char,std::char_traits<char>,std::allocator<char> > >,0> >::clear()
FUNC 1e116 33 14 std::_Tree_nod<std::_Tset_traits<std::basic_string<char,std::char_traits<char>,pool_allocator<char> >,std::less<std::basic_string<char,std::char_traits<char>,pool_allocator<char> > >,std::allocator<std::basic_string<char,std::char_traits<char>,pool_allocator<char> > >,0> >::_Node::_Node(std::_Tree_nod<std::_Tset_traits<std::basic_string<char,std::char_traits<char>,pool_allocator<char> >,std::less<std::basic_string<char,std::char_traits<char>,pool_allocator<char> > >,std::allocator<std::basic_string<char,std::char_traits<char>,pool_allocator<char> > >,0> >::_Node *,std::_Tree_nod<std::_Tset_traits<std::basic_string<char,std::char_traits<char>,pool_allocator<char> >,std::less<std::basic_string<char,std::char_traits<char>,pool_allocator<char> > >,std::allocator<std::basic_string<char,std::char_traits<char>,pool_allocator<char> > >,0> >::_Node *,std::_Tree_nod<std::_Tset_traits<std::basic_string<char,std::char_traits<char>,pool_allocator<char> >,std::less<std::basic_string<char,std::char_traits<char>,pool_allocator<char> > >,std::allocator<std::basic_string<char,std::char_traits<char>,pool_allocator<char> > >,0> >::_Node *,std::basic_string<char,std::char_traits<char>,pool_allocator<char> > const &,char)
FUNC 1e149 18 c std::vector<TType,std::allocator<TType> >::_Umove<TType *>(TType *,TType *,TType *)
FUNC 1e161 39 4 TFunction::unmangleName(std::basic_string<char,std::char_traits<char>,pool_allocator<char> > const &)
FUNC 1e19a 43 4 sh::str(int)
FUNC 1e1dd 161c 8 sh::OutputHLSL::visitUnary(Visit,TIntermUnary *)
FUNC 1f7f9 187 8 sh::OutputHLSL::visitBranch(Visit,TIntermBranch *)
FUNC 1f980 45 4 sh::OutputHLSL::qualifierString(TQualifier)
FUNC 1f9c5 53 8 std::_Tree<std::_Tset_traits<std::basic_string<char,std::char_traits<char>,std::allocator<char> >,std::less<std::basic_string<char,std::char_traits<char>,std::allocator<char> > >,std::allocator<std::basic_string<char,std::char_traits<char>,std::allocator<char> > >,0> >::erase(std::_Tree<std::_Tset_traits<std::basic_string<char,std::char_traits<char>,std::allocator<char> >,std::less<std::basic_string<char,std::char_traits<char>,std::allocator<char> > >,std::allocator<std::basic_string<char,std::char_traits<char>,std::allocator<char> > >,0> >::iterator,std::_Tree<std::_Tset_traits<std::basic_string<char,std::char_traits<char>,std::allocator<char> >,std::less<std::basic_string<char,std::char_traits<char>,std::allocator<char> > >,std::allocator<std::basic_string<char,std::char_traits<char>,std::allocator<char> > >,0> >::iterator)
FUNC 1fa18 5b 14 std::_Tree<std::_Tset_traits<std::basic_string<char,std::char_traits<char>,pool_allocator<char> >,std::less<std::basic_string<char,std::char_traits<char>,pool_allocator<char> > >,std::allocator<std::basic_string<char,std::char_traits<char>,pool_allocator<char> > >,0> >::_Buynode(std::_Tree_nod<std::_Tset_traits<std::basic_string<char,std::char_traits<char>,pool_allocator<char> >,std::less<std::basic_string<char,std::char_traits<char>,pool_allocator<char> > >,std::allocator<std::basic_string<char,std::char_traits<char>,pool_allocator<char> > >,0> >::_Node *,std::_Tree_nod<std::_Tset_traits<std::basic_string<char,std::char_traits<char>,pool_allocator<char> >,std::less<std::basic_string<char,std::char_traits<char>,pool_allocator<char> > >,std::allocator<std::basic_string<char,std::char_traits<char>,pool_allocator<char> > >,0> >::_Node *,std::_Tree_nod<std::_Tset_traits<std::basic_string<char,std::char_traits<char>,pool_allocator<char> >,std::less<std::basic_string<char,std::char_traits<char>,pool_allocator<char> > >,std::allocator<std::basic_string<char,std::char_traits<char>,pool_allocator<char> > >,0> >::_Node *,std::basic_string<char,std::char_traits<char>,pool_allocator<char> > const &,char)
FUNC 1fa73 1bd c std::vector<TType,std::allocator<TType> >::_Insert_n(std::_Vector_iterator<TType,std::allocator<TType> >,unsigned int,TType const &)
FUNC 1fc30 14 8 pool_allocator<std::basic_string<char,std::char_traits<char>,pool_allocator<char> > >::construct(std::basic_string<char,std::char_traits<char>,pool_allocator<char> > *,std::basic_string<char,std::char_traits<char>,pool_allocator<char> > const &)
FUNC 1fc44 12b0 8 sh::OutputHLSL::visitBinary(Visit,TIntermBinary *)
FUNC 20ef4 6b 4 sh::OutputHLSL::arrayString(TType const &)
FUNC 20f5f ad 4 sh::OutputHLSL::initializer(TType const &)
FUNC 2100c 82 4 sh::OutputHLSL::scopeString(unsigned int)
FUNC 2108e 5b 4 sh::OutputHLSL::scopedStruct(std::basic_string<char,std::char_traits<char>,pool_allocator<char> > const &)
FUNC 210e9 51 4 sh::OutputHLSL::decorate(std::basic_string<char,std::char_traits<char>,pool_allocator<char> > const &)
FUNC 2113a 2d 8 sh::OutputHLSL::decorateUniform(std::basic_string<char,std::char_traits<char>,pool_allocator<char> > const &,bool)
FUNC 21167 2b 0 std::_Tree<std::_Tset_traits<std::basic_string<char,std::char_traits<char>,std::allocator<char> >,std::less<std::basic_string<char,std::char_traits<char>,std::allocator<char> > >,std::allocator<std::basic_string<char,std::char_traits<char>,std::allocator<char> > >,0> >::_Tidy()
FUNC 21192 14c c std::_Tree<std::_Tset_traits<std::basic_string<char,std::char_traits<char>,pool_allocator<char> >,std::less<std::basic_string<char,std::char_traits<char>,pool_allocator<char> > >,std::allocator<std::basic_string<char,std::char_traits<char>,pool_allocator<char> > >,0> >::_Insert(bool,std::_Tree_nod<std::_Tset_traits<std::basic_string<char,std::char_traits<char>,pool_allocator<char> >,std::less<std::basic_string<char,std::char_traits<char>,pool_allocator<char> > >,std::allocator<std::basic_string<char,std::char_traits<char>,pool_allocator<char> > >,0> >::_Node *,std::basic_string<char,std::char_traits<char>,pool_allocator<char> > const &)
FUNC 212de 42 8 std::vector<TType,std::allocator<TType> >::insert(std::_Vector_iterator<TType,std::allocator<TType> >,TType const &)
FUNC 21320 38 0 std::list<std::basic_string<char,std::char_traits<char>,pool_allocator<char> >,std::allocator<std::basic_string<char,std::char_traits<char>,pool_allocator<char> > > >::clear()
FUNC 21358 67 c std::list<std::basic_string<char,std::char_traits<char>,pool_allocator<char> >,std::allocator<std::basic_string<char,std::char_traits<char>,pool_allocator<char> > > >::_Buynode(std::_List_nod<std::basic_string<char,std::char_traits<char>,pool_allocator<char> >,std::allocator<std::basic_string<char,std::char_traits<char>,pool_allocator<char> > > >::_Node *,std::_List_nod<std::basic_string<char,std::char_traits<char>,pool_allocator<char> >,std::allocator<std::basic_string<char,std::char_traits<char>,pool_allocator<char> > > >::_Node *,std::basic_string<char,std::char_traits<char>,pool_allocator<char> > const &)
FUNC 213bf 27a 4 std::_Tree<std::_Tset_traits<std::basic_string<char,std::char_traits<char>,pool_allocator<char> >,std::less<std::basic_string<char,std::char_traits<char>,pool_allocator<char> > >,std::allocator<std::basic_string<char,std::char_traits<char>,pool_allocator<char> > >,0> >::erase(std::_Tree<std::_Tset_traits<std::basic_string<char,std::char_traits<char>,pool_allocator<char> >,std::less<std::basic_string<char,std::char_traits<char>,pool_allocator<char> > >,std::allocator<std::basic_string<char,std::char_traits<char>,pool_allocator<char> > >,0> >::iterator)
FUNC 21639 3b 4 std::_Tree<std::_Tset_traits<std::basic_string<char,std::char_traits<char>,pool_allocator<char> >,std::less<std::basic_string<char,std::char_traits<char>,pool_allocator<char> > >,std::allocator<std::basic_string<char,std::char_traits<char>,pool_allocator<char> > >,0> >::_Erase(std::_Tree_nod<std::_Tset_traits<std::basic_string<char,std::char_traits<char>,pool_allocator<char> >,std::less<std::basic_string<char,std::char_traits<char>,pool_allocator<char> > >,std::allocator<std::basic_string<char,std::char_traits<char>,pool_allocator<char> > >,0> >::_Node *)
FUNC 21674 1f2 4 sh::OutputHLSL::visitSymbol(TIntermSymbol *)
FUNC 21866 dc 4 sh::OutputHLSL::structLookup(std::basic_string<char,std::char_traits<char>,pool_allocator<char> > const &)
FUNC 21942 a1 4 std::_Tree<std::_Tset_traits<std::basic_string<char,std::char_traits<char>,pool_allocator<char> >,std::less<std::basic_string<char,std::char_traits<char>,pool_allocator<char> > >,std::allocator<std::basic_string<char,std::char_traits<char>,pool_allocator<char> > >,0> >::insert(std::basic_string<char,std::char_traits<char>,pool_allocator<char> > const &)
FUNC 219e3 40 4 std::vector<TType,std::allocator<TType> >::push_back(TType const &)
FUNC 21a23 2f 8 std::list<std::basic_string<char,std::char_traits<char>,pool_allocator<char> >,std::allocator<std::basic_string<char,std::char_traits<char>,pool_allocator<char> > > >::_Insert(std::list<std::basic_string<char,std::char_traits<char>,pool_allocator<char> >,std::allocator<std::basic_string<char,std::char_traits<char>,pool_allocator<char> > > >::_Iterator<0>,std::basic_string<char,std::char_traits<char>,pool_allocator<char> > const &)
FUNC 21a52 17 0 std::list<std::basic_string<char,std::char_traits<char>,pool_allocator<char> >,std::allocator<std::basic_string<char,std::char_traits<char>,pool_allocator<char> > > >::_Tidy()
FUNC 21a69 26 0 std::_Tree<std::_Tset_traits<std::basic_string<char,std::char_traits<char>,pool_allocator<char> >,std::less<std::basic_string<char,std::char_traits<char>,pool_allocator<char> > >,std::allocator<std::basic_string<char,std::char_traits<char>,pool_allocator<char> > >,0> >::clear()
FUNC 21a8f 5 0 std::set<std::basic_string<char,std::char_traits<char>,std::allocator<char> >,std::less<std::basic_string<char,std::char_traits<char>,std::allocator<char> > >,std::allocator<std::basic_string<char,std::char_traits<char>,std::allocator<char> > > >::~set<std::basic_string<char,std::char_traits<char>,std::allocator<char> >,std::less<std::basic_string<char,std::char_traits<char>,std::allocator<char> > >,std::allocator<std::basic_string<char,std::char_traits<char>,std::allocator<char> > > >()
FUNC 21a94 2bb 4 sh::OutputHLSL::typeString(TType const &)
FUNC 21d4f 179 8 sh::OutputHLSL::writeConstantUnion(TType const &,ConstantUnion const *)
FUNC 21ec8 53 8 std::_Tree<std::_Tset_traits<std::basic_string<char,std::char_traits<char>,pool_allocator<char> >,std::less<std::basic_string<char,std::char_traits<char>,pool_allocator<char> > >,std::allocator<std::basic_string<char,std::char_traits<char>,pool_allocator<char> > >,0> >::erase(std::_Tree<std::_Tset_traits<std::basic_string<char,std::char_traits<char>,pool_allocator<char> >,std::less<std::basic_string<char,std::char_traits<char>,pool_allocator<char> > >,std::allocator<std::basic_string<char,std::char_traits<char>,pool_allocator<char> > >,0> >::iterator,std::_Tree<std::_Tset_traits<std::basic_string<char,std::char_traits<char>,pool_allocator<char> >,std::less<std::basic_string<char,std::char_traits<char>,pool_allocator<char> > >,std::allocator<std::basic_string<char,std::char_traits<char>,pool_allocator<char> > >,0> >::iterator)
FUNC 21f1b de9 0 sh::OutputHLSL::header()
FUNC 22d04 13 4 sh::OutputHLSL::visitConstantUnion(TIntermConstantUnion *)
FUNC 22d17 194 4 sh::OutputHLSL::argumentString(TIntermSymbol const *)
FUNC 22eab 98c c sh::OutputHLSL::addConstructor(TType const &,std::basic_string<char,std::char_traits<char>,pool_allocator<char> > const &,TVector<TIntermNode *> const *)
FUNC 23837 2b 0 std::_Tree<std::_Tset_traits<std::basic_string<char,std::char_traits<char>,pool_allocator<char> >,std::less<std::basic_string<char,std::char_traits<char>,pool_allocator<char> > >,std::allocator<std::basic_string<char,std::char_traits<char>,pool_allocator<char> > >,0> >::_Tidy()
FUNC 23862 53 0 sh::OutputHLSL::output()
FUNC 238b5 1fe8 8 sh::OutputHLSL::visitAggregate(Visit,TIntermAggregate *)
FUNC 2589d 6c 0 sh::OutputHLSL::~OutputHLSL()
FUNC 25909 19d 4 sh::OutputHLSL::OutputHLSL(TParseContext &)
FUNC 25aa6 1c 8 TranslatorHLSL::TranslatorHLSL(ShShaderType,ShShaderSpec)
FUNC 25ac2 45 4 TranslatorHLSL::translate(TIntermNode *)
FUNC 25b07 2e 8 sh::UnfoldSelect::UnfoldSelect(TParseContext &,sh::OutputHLSL *)
FUNC 25b35 18 4 sh::UnfoldSelect::traverse(TIntermNode *)
FUNC 25b4d 3b 8 sh::UnfoldSelect::visitLoop(Visit,TIntermLoop *)
FUNC 25b88 a 0 sh::UnfoldSelect::getNextTemporaryIndex()
FUNC 25b92 153 8 sh::UnfoldSelect::visitSelection(Visit,TIntermSelection *)
FUNC 25ce5 27 4 sh::SearchSymbol::SearchSymbol(std::basic_string<char,std::char_traits<char>,pool_allocator<char> > const &)
FUNC 25d0c 4 0 sh::SearchSymbol::foundMatch()
FUNC 25d10 1e 4 sh::SearchSymbol::visitSymbol(TIntermSymbol *)
FUNC 25d2e 24 0 gl::perfActive()
FUNC 25d52 f 0 gl::ScopedPerfEventHelper::~ScopedPerfEventHelper()
FUNC 25d61 1b c vsprintf_s<4096>(char (&)[4096],char const *,char *)
FUNC 25d7c 71 0 gl::output
FUNC 25ded 19 8 gl::trace(bool,char const *,...)
FUNC 25e06 1d 8 gl::ScopedPerfEventHelper::ScopedPerfEventHelper(char const *,...)
FUNC 25e23 4d 0 gl::Blit::~Blit()
FUNC 25e70 87 0 gl::Blit::initGeometry()
FUNC 25ef7 2d 4 gl::Blit::getSurfaceRect(IDirect3DSurface9 *)
FUNC 25f24 93 c gl::Blit::setViewport(tagRECT const &,int,int)
FUNC 25fb7 eb 0 gl::Blit::setCommonBlitState()
FUNC 260a2 4a 0 gl::Blit::render()
FUNC 260ec ef 0 gl::Blit::saveState()
FUNC 261db 57 0 gl::Blit::restoreState()
FUNC 26232 df 10 gl::Blit::setShader<IDirect3DPixelShader9>(gl::Blit::ShaderId,char const *,long ( IDirect3DDevice9::*)(unsigned long const *,IDirect3DPixelShader9 * *),long ( IDirect3DDevice9::*)(IDirect3DPixelShader9 *))
FUNC 26341 36 4 gl::Blit::Blit(gl::Context *)
FUNC 26377 32 4 gl::Blit::setVertexShader(gl::Blit::ShaderId)
FUNC 263a9 32 4 gl::Blit::setPixelShader(gl::Blit::ShaderId)
FUNC 263db f9 4 gl::Blit::setFormatConvertShaders(unsigned int)
FUNC 264d4 b7 8 gl::Blit::copySurfaceToTexture(IDirect3DSurface9 *,tagRECT const &)
FUNC 2658b c6 8 gl::Blit::boxFilter(IDirect3DSurface9 *,IDirect3DSurface9 *)
FUNC 26651 87 18 gl::Blit::formatConvert(IDirect3DSurface9 *,tagRECT const &,unsigned int,int,int,IDirect3DSurface9 *)
FUNC 266d8 a7 18 gl::Blit::copy(IDirect3DSurface9 *,tagRECT const &,unsigned int,int,int,IDirect3DSurface9 *)
FUNC 2677f 30 4 gl::Buffer::Buffer(unsigned int)
FUNC 267af 34 0 gl::Buffer::~Buffer()
FUNC 267e3 4 0 gl::DepthStencilbuffer::getDepthStencil()
FUNC 267e7 2b 0 gl::Buffer::invalidateStaticData()
FUNC 26812 6d 4 gl::Buffer::promoteStaticUsage(int)
FUNC 2687f 1c 0 gl::Buffer::`scalar deleting destructor'(unsigned int)
FUNC 2689b b9 c gl::Buffer::bufferData(void const *,long,unsigned int)
FUNC 26954 44 c gl::Buffer::bufferSubData(void const *,long,long)
FUNC 26998 1f 8 ldexpf
FUNC 269b7 18 4 gl::log2(int)
FUNC 269cf 1e 0 gl::Context::markContextLost()
FUNC 269ed 7 0 gl::Context::isContextLost()
FUNC 269f4 1f 10 gl::Context::setClearColor(float,float,float,float)
FUNC 26a13 a 4 gl::Context::setClearDepth(float)
FUNC 26a1d a 4 gl::Context::setClearStencil(int)
FUNC 26a27 16 4 gl::Context::setCullFace(bool)
FUNC 26a3d 4 0 gl::Context::isCullFaceEnabled()
FUNC 26a41 16 4 gl::Context::setCullMode(unsigned int)
FUNC 26a57 16 4 gl::Context::setFrontFace(unsigned int)
FUNC 26a6d 16 4 gl::Context::setDepthTest(bool)
FUNC 26a83 4 0 gl::Context::isDepthTestEnabled()
FUNC 26a87 16 4 gl::Context::setDepthFunc(unsigned int)
FUNC 26a9d 17 8 gl::Context::setDepthRange(float,float)
FUNC 26ab4 16 4 gl::Context::setBlend(bool)
FUNC 26aca 4 0 gl::Context::isBlendEnabled()
FUNC 26ace 3e 10 gl::Context::setBlendFactors(unsigned int,unsigned int,unsigned int,unsigned int)
FUNC 26b0c 62 10 gl::Context::setBlendColor(float,float,float,float)
FUNC 26b6e 22 8 gl::Context::setBlendEquation(unsigned int,unsigned int)
FUNC 26b90 16 4 gl::Context::setStencilTest(bool)
FUNC 26ba6 4 0 gl::Context::isStencilTestEnabled()
FUNC 26baa 3a c gl::Context::setStencilParams(unsigned int,int,unsigned int)
FUNC 26be4 4c c gl::Context::setStencilBackParams(unsigned int,int,unsigned int)
FUNC 26c30 1a 4 gl::Context::setStencilWritemask(unsigned int)
FUNC 26c4a 1a 4 gl::Context::setStencilBackWritemask(unsigned int)
FUNC 26c64 36 c gl::Context::setStencilOperations(unsigned int,unsigned int,unsigned int)
FUNC 26c9a 42 c gl::Context::setStencilBackOperations(unsigned int,unsigned int,unsigned int)
FUNC 26cdc 1a 4 gl::Context::setPolygonOffsetFill(bool)
FUNC 26cf6 7 0 gl::Context::isPolygonOffsetFillEnabled()
FUNC 26cfd 44 8 gl::Context::setPolygonOffsetParams(float,float)
FUNC 26d41 1a 4 gl::Context::setSampleAlphaToCoverage(bool)
FUNC 26d5b 7 0 gl::Context::isSampleAlphaToCoverageEnabled()
FUNC 26d62 1a 4 gl::Context::setSampleCoverage(bool)
FUNC 26d7c 7 0 gl::Context::isSampleCoverageEnabled()
FUNC 26d83 39 8 gl::Context::setSampleCoverageParams(float,bool)
FUNC 26dbc 1a 4 gl::Context::setScissorTest(bool)
FUNC 26dd6 7 0 gl::Context::isScissorTestEnabled()
FUNC 26ddd 1a 4 gl::Context::setDither(bool)
FUNC 26df7 7 0 gl::Context::isDitherEnabled()
FUNC 26dfe d 4 gl::Context::setLineWidth(float)
FUNC 26e0b d 4 gl::Context::setGenerateMipmapHint(unsigned int)
FUNC 26e18 d 4 gl::Context::setFragmentShaderDerivativeHint(unsigned int)
FUNC 26e25 2b 10 gl::Context::setViewportParams(int,int,int,int)
FUNC 26e50 56 10 gl::Context::setScissorParams(int,int,int,int)
FUNC 26ea6 5a 10 gl::Context::setColorMask(bool,bool,bool,bool)
FUNC 26f00 1a 4 gl::Context::setDepthMask(bool)
FUNC 26f1a d 4 gl::Context::setActiveSampler(unsigned int)
FUNC 26f27 7 0 gl::Context::getReadFramebufferHandle()
FUNC 26f2e 7 0 gl::Context::getDrawFramebufferHandle()
FUNC 26f35 11 0 gl::Context::getRenderbufferHandle()
FUNC 26f46 15 8 gl::Context::setEnableVertexAttribArray(unsigned int,bool)
FUNC 26f5b 11 4 gl::Context::getVertexAttribState(unsigned int)
FUNC 26f6c 11 4 gl::Context::getVertexAttribPointer(unsigned int)
FUNC 26f7d 7 0 gl::Context::getVertexAttributes()
FUNC 26f84 d 4 gl::Context::setPackAlignment(int)
FUNC 26f91 d 4 gl::Context::setUnpackAlignment(int)
FUNC 26f9e 7 0 gl::Program::getDxViewportLocation()
FUNC 26fa5 b 0 gl::Context::createBuffer()
FUNC 26fb0 b 0 gl::Context::createProgram()
FUNC 26fbb b 4 gl::Context::createShader(unsigned int)
FUNC 26fc6 b 0 gl::Context::createTexture()
FUNC 26fd1 b 0 gl::Context::createRenderbuffer()
FUNC 26fdc b 4 gl::Context::deleteShader(unsigned int)
FUNC 26fe7 1d 4 gl::Context::deleteProgram(unsigned int)
FUNC 27004 b 4 gl::Context::getBuffer(unsigned int)
FUNC 2700f b 4 gl::Context::getShader(unsigned int)
FUNC 2701a b 4 gl::Context::getProgram(unsigned int)
FUNC 27025 b 4 gl::Context::getTexture(unsigned int)
FUNC 27030 b 4 gl::Context::getRenderbuffer(unsigned int)
FUNC 2703b 7 0 gl::Context::getDrawFramebuffer()
FUNC 27042 5d 4 gl::Context::useProgram(unsigned int)
FUNC 2709f 23 0 gl::Context::getCurrentProgram()
FUNC 270c2 10d 8 gl::Context::getBooleanv(unsigned int,unsigned char *)
FUNC 271cf 63 0 gl::Context::applyShaders()
FUNC 27232 c8 4 gl::Context::sync(bool)
FUNC 272fa 8 0 gl::Context::recordInvalidEnum()
FUNC 27302 8 0 gl::Context::recordInvalidValue()
FUNC 2730a 8 0 gl::Context::recordInvalidOperation()
FUNC 27312 8 0 gl::Context::recordOutOfMemory()
FUNC 2731a 8 0 gl::Context::recordInvalidFramebufferOperation()
FUNC 27322 5f 0 gl::Context::getError()
FUNC 27381 43 0 gl::Context::getResetStatus()
FUNC 273c4 10 0 gl::Context::isResetNotificationEnabled()
FUNC 273d4 7 0 gl::Context::supportsShaderModel3()
FUNC 273db 10 0 gl::Context::getMaximumVaryingVectors()
FUNC 273eb e 0 gl::Context::getMaximumVertexTextureImageUnits()
FUNC 273f9 11 0 gl::Context::getMaximumCombinedTextureImageUnits()
FUNC 2740a 13 0 gl::Context::getMaximumFragmentUniformVectors()
FUNC 2741d 7 0 gl::Context::getMaxSupportedSamples()
FUNC 27424 7 0 gl::Context::supportsDXT1Textures()
FUNC 2742b 7 0 gl::Context::supportsDXT3Textures()
FUNC 27432 7 0 gl::Context::supportsDXT5Textures()
FUNC 27439 7 0 gl::Context::supportsFloat32Textures()
FUNC 27440 7 0 gl::Context::supportsFloat32LinearFilter()
FUNC 27447 7 0 gl::Context::supportsFloat32RenderableTextures()
FUNC 2744e 7 0 gl::Context::supportsFloat16Textures()
FUNC 27455 7 0 gl::Context::supportsFloat16LinearFilter()
FUNC 2745c 7 0 gl::Context::supportsFloat16RenderableTextures()
FUNC 27463 7 0 gl::Context::getMaximumRenderbufferDimension()
FUNC 2746a 7 0 gl::Context::getMaximumTextureDimension()
FUNC 27471 7 0 gl::Context::getMaximumCubeTextureDimension()
FUNC 27478 7 0 gl::Context::getMaximumTextureLevel()
FUNC 2747f 7 0 gl::Context::supportsLuminanceTextures()
FUNC 27486 7 0 gl::Context::supportsLuminanceAlphaTextures()
FUNC 2748d 7 0 gl::Context::supports32bitIndices()
FUNC 27494 7 0 gl::Context::supportsNonPower2Texture()
FUNC 2749b 34 4 gl::Context::isTriangleMode(unsigned int)
FUNC 274cf 47 8 gl::Context::setVertexAttrib(unsigned int,float const *)
FUNC 27516 1ba 0 gl::Context::initExtensionString()
FUNC 276d0 14 0 gl::Context::getExtensionString()
FUNC 276e4 40 0 gl::Context::initRendererString()
FUNC 27724 14 0 gl::Context::getRendererString()
FUNC 27738 1f 0 gl::VertexDeclarationCache::VertexDeclarationCache()
FUNC 27757 24 0 gl::VertexDeclarationCache::~VertexDeclarationCache()
FUNC 2777b 1bb c gl::VertexDeclarationCache::applyDeclaration(IDirect3DDevice9 *,gl::TranslatedAttribute * const,gl::Program *)
FUNC 27936 16 0 gl::VertexDeclarationCache::markStateDirty()
FUNC 2794c 24 10 `vector destructor iterator'(void *,unsigned int,int,void (*)(void *))
FUNC 27970 5 c glMakeCurrent
FUNC 27975 5 0 glGetCurrentContext
FUNC 2797a 13 0 std::vector<std::list<std::pair<unsigned int const ,gl::Framebuffer *>,std::allocator<std::pair<unsigned int const ,gl::Framebuffer *> > >::_Iterator<0>,std::allocator<std::list<std::pair<unsigned int const ,gl::Framebuffer *>,std::allocator<std::pair<unsigned int const ,gl::Framebuffer *> > >::_Iterator<0> > >::size()
FUNC 2798d 41 0 std::_Tree<std::_Tmap_traits<TBasicType,TPrecision,std::less<TBasicType>,std::allocator<std::pair<TBasicType const ,TPrecision> >,0> >::const_iterator::_Dec()
FUNC 279ce 36 c gl::clamp<float,float,float>(float,float,float)
FUNC 27a04 1a c gl::clamp<long,int,int>(long,int,int)
FUNC 27a1e 38 4 gl::unorm<8>(float)
FUNC 27a56 2d 0 gl::VertexAttribute::VertexAttribute()
FUNC 27a83 1f 4 gl::clamp01(float)
FUNC 27aa2 42 0 gl::State::State()
FUNC 27ae4 b7 0 gl::Context::markAllStateDirty()
FUNC 27b9b 4d 1c gl::Context::setVertexAttribState(unsigned int,gl::Buffer *,int,unsigned int,bool,int,void const *)
FUNC 27be8 31 4 gl::Context::bindArrayBuffer(unsigned int)
FUNC 27c19 31 4 gl::Context::bindElementArrayBuffer(unsigned int)
FUNC 27c4a 3a 4 gl::Context::bindTexture2D(unsigned int)
FUNC 27c84 3a 4 gl::Context::bindTextureCubeMap(unsigned int)
FUNC 27cbe 31 4 gl::Context::bindRenderbuffer(unsigned int)
FUNC 27cef b 4 gl::Context::setRenderbufferStorage(gl::RenderbufferStorage *)
FUNC 27cfa 7 0 gl::Context::getArrayBuffer()
FUNC 27d01 7 0 gl::Context::getElementArrayBuffer()
FUNC 27d08 64 8 gl::Context::getSamplerTexture(unsigned int,gl::TextureType)
FUNC 27d6c fd 8 gl::Context::getFloatv(unsigned int,float *)
FUNC 27e69 65b 8 gl::Context::getIntegerv(unsigned int,int *)
FUNC 284c4 3e2 c gl::Context::getQueryParameterInfo(unsigned int,unsigned int *,unsigned int *)
FUNC 288a6 4c1 4 gl::Context::applyRenderTarget(bool)
FUNC 28d67 83d 4 gl::Context::applyState(unsigned int)
FUNC 295a4 4a 8 gl::Context::applyVertexBuffer(int,int)
FUNC 295ee 59 14 gl::Context::applyIndexBuffer(void const *,int,unsigned int,unsigned int,gl::TranslatedIndexData *)
FUNC 29647 6ca 4 gl::Context::clear(unsigned int)
FUNC 29d11 16b 8 gl::Context::drawClosingLine(unsigned int,unsigned int)
FUNC 29e7c 80 c gl::Context::drawClosingLine(int,unsigned int,void const *)
FUNC 29efc 74 4 gl::Context::detachBuffer(unsigned int)
FUNC 29f73 139 4 gl::Context::getIncompleteTexture(gl::TextureType)
FUNC 2a0ac 26 4 gl::Context::cullSkipsDraw(unsigned int)
FUNC 2a0d2 42 4 std::_Tree<std::_Tmap_traits<TBasicType,TPrecision,std::less<TBasicType>,std::allocator<std::pair<TBasicType const ,TPrecision> >,0> >::_Lrotate(std::_Tree_nod<std::_Tmap_traits<TBasicType,TPrecision,std::less<TBasicType>,std::allocator<std::pair<TBasicType const ,TPrecision> >,0> >::_Node *)
FUNC 2a114 33 4 stdext::hash_compare<unsigned int,std::less<unsigned int> >::operator()(unsigned int const &)
FUNC 2a147 2d 0 std::list<std::pair<unsigned int const ,gl::Buffer *>,std::allocator<std::pair<unsigned int const ,gl::Buffer *> > >::clear()
FUNC 2a174 32 4 std::_Tree<std::_Tmap_traits<TBasicType,TPrecision,std::less<TBasicType>,std::allocator<std::pair<TBasicType const ,TPrecision> >,0> >::_Erase(std::_Tree_nod<std::_Tmap_traits<TBasicType,TPrecision,std::less<TBasicType>,std::allocator<std::pair<TBasicType const ,TPrecision> >,0> >::_Node *)
FUNC 2a1a6 45 18 std::_Uninit_copy<std::list<std::pair<unsigned int const ,gl::Framebuffer *>,std::allocator<std::pair<unsigned int const ,gl::Framebuffer *> > >::_Iterator<0> *,std::list<std::pair<unsigned int const ,gl::Framebuffer *>,std::allocator<std::pair<unsigned int const ,gl::Framebuffer *> > >::_Iterator<0> *,std::allocator<std::list<std::pair<unsigned int const ,gl::Framebuffer *>,std::allocator<std::pair<unsigned int const ,gl::Framebuffer *> > >::_Iterator<0> > >(std::list<std::pair<unsigned int const ,gl::Framebuffer *>,std::allocator<std::pair<unsigned int const ,gl::Framebuffer *> > >::_Iterator<0> *,std::list<std::pair<unsigned int const ,gl::Framebuffer *>,std::allocator<std::pair<unsigned int const ,gl::Framebuffer *> > >::_Iterator<0> *,std::list<std::pair<unsigned int const ,gl::Framebuffer *>,std::allocator<std::pair<unsigned int const ,gl::Framebuffer *> > >::_Iterator<0> *,std::allocator<std::list<std::pair<unsigned int const ,gl::Framebuffer *>,std::allocator<std::pair<unsigned int const ,gl::Framebuffer *> > >::_Iterator<0> > &,std::_Nonscalar_ptr_iterator_tag,std::_Range_checked_iterator_tag)
FUNC 2a1eb 45 18 std::_Uninit_copy<std::list<std::pair<unsigned int const ,gl::Fence *>,std::allocator<std::pair<unsigned int const ,gl::Fence *> > >::_Iterator<0> *,std::list<std::pair<unsigned int const ,gl::Fence *>,std::allocator<std::pair<unsigned int const ,gl::Fence *> > >::_Iterator<0> *,std::allocator<std::list<std::pair<unsigned int const ,gl::Fence *>,std::allocator<std::pair<unsigned int const ,gl::Fence *> > >::_Iterator<0> > >(std::list<std::pair<unsigned int const ,gl::Fence *>,std::allocator<std::pair<unsigned int const ,gl::Fence *> > >::_Iterator<0> *,std::list<std::pair<unsigned int const ,gl::Fence *>,std::allocator<std::pair<unsigned int const ,gl::Fence *> > >::_Iterator<0> *,std::list<std::pair<unsigned int const ,gl::Fence *>,std::allocator<std::pair<unsigned int const ,gl::Fence *> > >::_Iterator<0> *,std::allocator<std::list<std::pair<unsigned int const ,gl::Fence *>,std::allocator<std::pair<unsigned int const ,gl::Fence *> > >::_Iterator<0> > &,std::_Nonscalar_ptr_iterator_tag,std::_Range_checked_iterator_tag)
FUNC 2a230 31 4 gl::Context::deleteBuffer(unsigned int)
FUNC 2a261 e 0 gl::Context::getTexture2D()
FUNC 2a26f e 0 gl::Context::getTextureCubeMap()
FUNC 2a27d 2a3 4 gl::Context::applyTextures(gl::SamplerType)
FUNC 2a520 4a 0 std::list<std::pair<unsigned int const ,gl::Framebuffer *>,std::allocator<std::pair<unsigned int const ,gl::Framebuffer *> > >::_Buynode()
FUNC 2a56a 4a 0 std::list<std::pair<unsigned int const ,gl::Fence *>,std::allocator<std::pair<unsigned int const ,gl::Fence *> > >::_Buynode()
FUNC 2a5b4 26 0 std::_Tree<std::_Tmap_traits<_D3DFORMAT,bool *,std::less<_D3DFORMAT>,std::allocator<std::pair<_D3DFORMAT const ,bool *> >,0> >::clear()
FUNC 2a5da 5a 0 std::_Tree<std::_Tmap_traits<_D3DFORMAT,bool *,std::less<_D3DFORMAT>,std::allocator<std::pair<_D3DFORMAT const ,bool *> >,0> >::_Buynode()
FUNC 2a634 5b 14 std::_Tree<std::_Tmap_traits<_D3DFORMAT,bool *,std::less<_D3DFORMAT>,std::allocator<std::pair<_D3DFORMAT const ,bool *> >,0> >::_Buynode(std::_Tree_nod<std::_Tmap_traits<_D3DFORMAT,bool *,std::less<_D3DFORMAT>,std::allocator<std::pair<_D3DFORMAT const ,bool *> >,0> >::_Node *,std::_Tree_nod<std::_Tmap_traits<_D3DFORMAT,bool *,std::less<_D3DFORMAT>,std::allocator<std::pair<_D3DFORMAT const ,bool *> >,0> >::_Node *,std::_Tree_nod<std::_Tmap_traits<_D3DFORMAT,bool *,std::less<_D3DFORMAT>,std::allocator<std::pair<_D3DFORMAT const ,bool *> >,0> >::_Node *,std::pair<_D3DFORMAT const ,bool *> const &,char)
FUNC 2a68f 64 c std::list<std::pair<unsigned int const ,gl::Framebuffer *>,std::allocator<std::pair<unsigned int const ,gl::Framebuffer *> > >::_Buynode(std::_List_nod<std::pair<unsigned int const ,gl::Framebuffer *>,std::allocator<std::pair<unsigned int const ,gl::Framebuffer *> > >::_Node *,std::_List_nod<std::pair<unsigned int const ,gl::Framebuffer *>,std::allocator<std::pair<unsigned int const ,gl::Framebuffer *> > >::_Node *,std::pair<unsigned int const ,gl::Framebuffer *> const &)
FUNC 2a6f3 64 c std::list<std::pair<unsigned int const ,gl::Fence *>,std::allocator<std::pair<unsigned int const ,gl::Fence *> > >::_Buynode(std::_List_nod<std::pair<unsigned int const ,gl::Fence *>,std::allocator<std::pair<unsigned int const ,gl::Fence *> > >::_Node *,std::_List_nod<std::pair<unsigned int const ,gl::Fence *>,std::allocator<std::pair<unsigned int const ,gl::Fence *> > >::_Node *,std::pair<unsigned int const ,gl::Fence *> const &)
FUNC 2a757 41 18 std::_Uninit_fill_n<std::list<std::pair<unsigned int const ,gl::Framebuffer *>,std::allocator<std::pair<unsigned int const ,gl::Framebuffer *> > >::_Iterator<0> *,unsigned int,std::list<std::pair<unsigned int const ,gl::Framebuffer *>,std::allocator<std::pair<unsigned int const ,gl::Framebuffer *> > >::_Iterator<0>,std::allocator<std::list<std::pair<unsigned int const ,gl::Framebuffer *>,std::allocator<std::pair<unsigned int const ,gl::Framebuffer *> > >::_Iterator<0> > >(std::list<std::pair<unsigned int const ,gl::Framebuffer *>,std::allocator<std::pair<unsigned int const ,gl::Framebuffer *> > >::_Iterator<0> *,unsigned int,std::list<std::pair<unsigned int const ,gl::Framebuffer *>,std::allocator<std::pair<unsigned int const ,gl::Framebuffer *> > >::_Iterator<0> const &,std::allocator<std::list<std::pair<unsigned int const ,gl::Framebuffer *>,std::allocator<std::pair<unsigned int const ,gl::Framebuffer *> > >::_Iterator<0> > &,std::_Nonscalar_ptr_iterator_tag,std::_Range_checked_iterator_tag)
FUNC 2a798 41 18 std::_Uninit_fill_n<std::list<std::pair<unsigned int const ,gl::Fence *>,std::allocator<std::pair<unsigned int const ,gl::Fence *> > >::_Iterator<0> *,unsigned int,std::list<std::pair<unsigned int const ,gl::Fence *>,std::allocator<std::pair<unsigned int const ,gl::Fence *> > >::_Iterator<0>,std::allocator<std::list<std::pair<unsigned int const ,gl::Fence *>,std::allocator<std::pair<unsigned int const ,gl::Fence *> > >::_Iterator<0> > >(std::list<std::pair<unsigned int const ,gl::Fence *>,std::allocator<std::pair<unsigned int const ,gl::Fence *> > >::_Iterator<0> *,unsigned int,std::list<std::pair<unsigned int const ,gl::Fence *>,std::allocator<std::pair<unsigned int const ,gl::Fence *> > >::_Iterator<0> const &,std::allocator<std::list<std::pair<unsigned int const ,gl::Fence *>,std::allocator<std::pair<unsigned int const ,gl::Fence *> > >::_Iterator<0> > &,std::_Nonscalar_ptr_iterator_tag,std::_Range_checked_iterator_tag)
FUNC 2a7d9 28 10 stdext::unchecked_uninitialized_copy<std::list<std::pair<unsigned int const ,gl::Framebuffer *>,std::allocator<std::pair<unsigned int const ,gl::Framebuffer *> > >::_Iterator<0> *,std::list<std::pair<unsigned int const ,gl::Framebuffer *>,std::allocator<std::pair<unsigned int const ,gl::Framebuffer *> > >::_Iterator<0> *,std::allocator<std::list<std::pair<unsigned int const ,gl::Framebuffer *>,std::allocator<std::pair<unsigned int const ,gl::Framebuffer *> > >::_Iterator<0> > >(std::list<std::pair<unsigned int const ,gl::Framebuffer *>,std::allocator<std::pair<unsigned int const ,gl::Framebuffer *> > >::_Iterator<0> *,std::list<std::pair<unsigned int const ,gl::Framebuffer *>,std::allocator<std::pair<unsigned int const ,gl::Framebuffer *> > >::_Iterator<0> *,std::list<std::pair<unsigned int const ,gl::Framebuffer *>,std::allocator<std::pair<unsigned int const ,gl::Framebuffer *> > >::_Iterator<0> *,std::allocator<std::list<std::pair<unsigned int const ,gl::Framebuffer *>,std::allocator<std::pair<unsigned int const ,gl::Framebuffer *> > >::_Iterator<0> > &)
FUNC 2a801 28 10 stdext::unchecked_uninitialized_copy<std::list<std::pair<unsigned int const ,gl::Fence *>,std::allocator<std::pair<unsigned int const ,gl::Fence *> > >::_Iterator<0> *,std::list<std::pair<unsigned int const ,gl::Fence *>,std::allocator<std::pair<unsigned int const ,gl::Fence *> > >::_Iterator<0> *,std::allocator<std::list<std::pair<unsigned int const ,gl::Fence *>,std::allocator<std::pair<unsigned int const ,gl::Fence *> > >::_Iterator<0> > >(std::list<std::pair<unsigned int const ,gl::Fence *>,std::allocator<std::pair<unsigned int const ,gl::Fence *> > >::_Iterator<0> *,std::list<std::pair<unsigned int const ,gl::Fence *>,std::allocator<std::pair<unsigned int const ,gl::Fence *> > >::_Iterator<0> *,std::list<std::pair<unsigned int const ,gl::Fence *>,std::allocator<std::pair<unsigned int const ,gl::Fence *> > >::_Iterator<0> *,std::allocator<std::list<std::pair<unsigned int const ,gl::Fence *>,std::allocator<std::pair<unsigned int const ,gl::Fence *> > >::_Iterator<0> > &)
FUNC 2a829 1e 0 gl::Context::applyTextures()
FUNC 2a847 ed c gl::Context::drawArrays(unsigned int,int,int)
FUNC 2a934 122 10 gl::Context::drawElements(unsigned int,int,unsigned int,void const *)
FUNC 2aa56 3e 4 stdext::_Hash<stdext::_Hmap_traits<unsigned int,gl::Buffer *,stdext::hash_compare<unsigned int,std::less<unsigned int> >,std::allocator<std::pair<unsigned int const ,gl::Buffer *> >,0> >::erase(std::list<std::pair<unsigned int const ,gl::Buffer *>,std::allocator<std::pair<unsigned int const ,gl::Buffer *> > >::_Iterator<0>)
FUNC 2aa94 271 4 std::_Tree<std::_Tmap_traits<_D3DFORMAT,bool *,std::less<_D3DFORMAT>,std::allocator<std::pair<_D3DFORMAT const ,bool *> >,0> >::erase(std::_Tree<std::_Tmap_traits<_D3DFORMAT,bool *,std::less<_D3DFORMAT>,std::allocator<std::pair<_D3DFORMAT const ,bool *> >,0> >::iterator)
FUNC 2ad05 53 8 std::_Tree<std::_Tmap_traits<_D3DFORMAT,bool *,std::less<_D3DFORMAT>,std::allocator<std::pair<_D3DFORMAT const ,bool *> >,0> >::erase(std::_Tree<std::_Tmap_traits<_D3DFORMAT,bool *,std::less<_D3DFORMAT>,std::allocator<std::pair<_D3DFORMAT const ,bool *> >,0> >::iterator,std::_Tree<std::_Tmap_traits<_D3DFORMAT,bool *,std::less<_D3DFORMAT>,std::allocator<std::pair<_D3DFORMAT const ,bool *> >,0> >::iterator)
FUNC 2ad58 25 0 std::_Tree<std::_Tmap_traits<_D3DFORMAT,bool *,std::less<_D3DFORMAT>,std::allocator<std::pair<_D3DFORMAT const ,bool *> >,0> >::_Init()
FUNC 2ad7d 14c c std::_Tree<std::_Tmap_traits<_D3DFORMAT,bool *,std::less<_D3DFORMAT>,std::allocator<std::pair<_D3DFORMAT const ,bool *> >,0> >::_Insert(bool,std::_Tree_nod<std::_Tmap_traits<_D3DFORMAT,bool *,std::less<_D3DFORMAT>,std::allocator<std::pair<_D3DFORMAT const ,bool *> >,0> >::_Node *,std::pair<_D3DFORMAT const ,bool *> const &)
FUNC 2aec9 2f 8 std::list<std::pair<unsigned int const ,gl::Framebuffer *>,std::allocator<std::pair<unsigned int const ,gl::Framebuffer *> > >::_Insert(std::list<std::pair<unsigned int const ,gl::Framebuffer *>,std::allocator<std::pair<unsigned int const ,gl::Framebuffer *> > >::_Iterator<0>,std::pair<unsigned int const ,gl::Framebuffer *> const &)
FUNC 2aef8 2f 8 std::list<std::pair<unsigned int const ,gl::Fence *>,std::allocator<std::pair<unsigned int const ,gl::Fence *> > >::_Insert(std::list<std::pair<unsigned int const ,gl::Fence *>,std::allocator<std::pair<unsigned int const ,gl::Fence *> > >::_Iterator<0>,std::pair<unsigned int const ,gl::Fence *> const &)
FUNC 2af27 28 10 stdext::unchecked_uninitialized_fill_n<std::list<std::pair<unsigned int const ,gl::Framebuffer *>,std::allocator<std::pair<unsigned int const ,gl::Framebuffer *> > >::_Iterator<0> *,unsigned int,std::list<std::pair<unsigned int const ,gl::Framebuffer *>,std::allocator<std::pair<unsigned int const ,gl::Framebuffer *> > >::_Iterator<0>,std::allocator<std::list<std::pair<unsigned int const ,gl::Framebuffer *>,std::allocator<std::pair<unsigned int const ,gl::Framebuffer *> > >::_Iterator<0> > >(std::list<std::pair<unsigned int const ,gl::Framebuffer *>,std::allocator<std::pair<unsigned int const ,gl::Framebuffer *> > >::_Iterator<0> *,unsigned int,std::list<std::pair<unsigned int const ,gl::Framebuffer *>,std::allocator<std::pair<unsigned int const ,gl::Framebuffer *> > >::_Iterator<0> const &,std::allocator<std::list<std::pair<unsigned int const ,gl::Framebuffer *>,std::allocator<std::pair<unsigned int const ,gl::Framebuffer *> > >::_Iterator<0> > &)
FUNC 2af4f 28 10 stdext::unchecked_uninitialized_fill_n<std::list<std::pair<unsigned int const ,gl::Fence *>,std::allocator<std::pair<unsigned int const ,gl::Fence *> > >::_Iterator<0> *,unsigned int,std::list<std::pair<unsigned int const ,gl::Fence *>,std::allocator<std::pair<unsigned int const ,gl::Fence *> > >::_Iterator<0>,std::allocator<std::list<std::pair<unsigned int const ,gl::Fence *>,std::allocator<std::pair<unsigned int const ,gl::Fence *> > >::_Iterator<0> > >(std::list<std::pair<unsigned int const ,gl::Fence *>,std::allocator<std::pair<unsigned int const ,gl::Fence *> > >::_Iterator<0> *,unsigned int,std::list<std::pair<unsigned int const ,gl::Fence *>,std::allocator<std::pair<unsigned int const ,gl::Fence *> > >::_Iterator<0> const &,std::allocator<std::list<std::pair<unsigned int const ,gl::Fence *>,std::allocator<std::pair<unsigned int const ,gl::Fence *> > >::_Iterator<0> > &)
FUNC 2af77 53 8 gl::Context::getNearestSupportedSamples(_D3DFORMAT,int)
FUNC 2afca 2b 0 std::_Tree<std::_Tmap_traits<_D3DFORMAT,bool *,std::less<_D3DFORMAT>,std::allocator<std::pair<_D3DFORMAT const ,bool *> >,0> >::_Tidy()
FUNC 2aff5 15 4 std::list<std::pair<unsigned int const ,gl::Framebuffer *>,std::allocator<std::pair<unsigned int const ,gl::Framebuffer *> > >::list<std::pair<unsigned int const ,gl::Framebuffer *>,std::allocator<std::pair<unsigned int const ,gl::Framebuffer *> > >(std::allocator<std::pair<unsigned int const ,gl::Framebuffer *> > const &)
FUNC 2b00a 1c 8 std::list<std::pair<unsigned int const ,gl::Framebuffer *>,std::allocator<std::pair<unsigned int const ,gl::Framebuffer *> > >::insert(std::list<std::pair<unsigned int const ,gl::Framebuffer *>,std::allocator<std::pair<unsigned int const ,gl::Framebuffer *> > >::_Iterator<0>,std::pair<unsigned int const ,gl::Framebuffer *> const &)
FUNC 2b026 15 4 std::list<std::pair<unsigned int const ,gl::Fence *>,std::allocator<std::pair<unsigned int const ,gl::Fence *> > >::list<std::pair<unsigned int const ,gl::Fence *>,std::allocator<std::pair<unsigned int const ,gl::Fence *> > >(std::allocator<std::pair<unsigned int const ,gl::Fence *> > const &)
FUNC 2b03b 1c 8 std::list<std::pair<unsigned int const ,gl::Fence *>,std::allocator<std::pair<unsigned int const ,gl::Fence *> > >::insert(std::list<std::pair<unsigned int const ,gl::Fence *>,std::allocator<std::pair<unsigned int const ,gl::Fence *> > >::_Iterator<0>,std::pair<unsigned int const ,gl::Fence *> const &)
FUNC 2b057 91 4 std::_Tree<std::_Tmap_traits<_D3DFORMAT,bool *,std::less<_D3DFORMAT>,std::allocator<std::pair<_D3DFORMAT const ,bool *> >,0> >::insert(std::pair<_D3DFORMAT const ,bool *> const &)
FUNC 2b0e8 21 c std::vector<std::list<std::pair<unsigned int const ,gl::Framebuffer *>,std::allocator<std::pair<unsigned int const ,gl::Framebuffer *> > >::_Iterator<0>,std::allocator<std::list<std::pair<unsigned int const ,gl::Framebuffer *>,std::allocator<std::pair<unsigned int const ,gl::Framebuffer *> > >::_Iterator<0> > >::_Ufill(std::list<std::pair<unsigned int const ,gl::Framebuffer *>,std::allocator<std::pair<unsigned int const ,gl::Framebuffer *> > >::_Iterator<0> *,unsigned int,std::list<std::pair<unsigned int const ,gl::Framebuffer *>,std::allocator<std::pair<unsigned int const ,gl::Framebuffer *> > >::_Iterator<0> const &)
FUNC 2b109 21 c std::vector<std::list<std::pair<unsigned int const ,gl::Fence *>,std::allocator<std::pair<unsigned int const ,gl::Fence *> > >::_Iterator<0>,std::allocator<std::list<std::pair<unsigned int const ,gl::Fence *>,std::allocator<std::pair<unsigned int const ,gl::Fence *> > >::_Iterator<0> > >::_Ufill(std::list<std::pair<unsigned int const ,gl::Fence *>,std::allocator<std::pair<unsigned int const ,gl::Fence *> > >::_Iterator<0> *,unsigned int,std::list<std::pair<unsigned int const ,gl::Fence *>,std::allocator<std::pair<unsigned int const ,gl::Fence *> > >::_Iterator<0> const &)
FUNC 2b12a 57 4 gl::Context::deleteFence(unsigned int)
FUNC 2b181 31 4 gl::Context::getFramebuffer(unsigned int)
FUNC 2b1b2 31 4 gl::Context::getFence(unsigned int)
FUNC 2b1e3 e0 8 std::_Tree<std::_Tmap_traits<_D3DFORMAT,bool *,std::less<_D3DFORMAT>,std::allocator<std::pair<_D3DFORMAT const ,bool *> >,0> >::insert(std::_Tree<std::_Tmap_traits<_D3DFORMAT,bool *,std::less<_D3DFORMAT>,std::allocator<std::pair<_D3DFORMAT const ,bool *> >,0> >::iterator,std::pair<_D3DFORMAT const ,bool *> const &)
FUNC 2b2c3 1f 0 std::vector<unsigned int,std::allocator<unsigned int> >::_Tidy()
FUNC 2b2e2 52 8 std::vector<std::list<std::pair<unsigned int const ,gl::Framebuffer *>,std::allocator<std::pair<unsigned int const ,gl::Framebuffer *> > >::_Iterator<0>,std::allocator<std::list<std::pair<unsigned int const ,gl::Framebuffer *>,std::allocator<std::pair<unsigned int const ,gl::Framebuffer *> > >::_Iterator<0> > >::_Construct_n(unsigned int,std::list<std::pair<unsigned int const ,gl::Framebuffer *>,std::allocator<std::pair<unsigned int const ,gl::Framebuffer *> > >::_Iterator<0> const &)
FUNC 2b334 52 8 std::vector<std::list<std::pair<unsigned int const ,gl::Fence *>,std::allocator<std::pair<unsigned int const ,gl::Fence *> > >::_Iterator<0>,std::allocator<std::list<std::pair<unsigned int const ,gl::Fence *>,std::allocator<std::pair<unsigned int const ,gl::Fence *> > >::_Iterator<0> > >::_Construct_n(unsigned int,std::list<std::pair<unsigned int const ,gl::Fence *>,std::allocator<std::pair<unsigned int const ,gl::Fence *> > >::_Iterator<0> const &)
FUNC 2b386 2c 8 std::vector<std::list<std::pair<unsigned int const ,gl::Renderbuffer *>,std::allocator<std::pair<unsigned int const ,gl::Renderbuffer *> > >::_Iterator<0>,std::allocator<std::list<std::pair<unsigned int const ,gl::Renderbuffer *>,std::allocator<std::pair<unsigned int const ,gl::Renderbuffer *> > >::_Iterator<0> > >::erase(std::_Vector_iterator<std::list<std::pair<unsigned int const ,gl::Renderbuffer *>,std::allocator<std::pair<unsigned int const ,gl::Renderbuffer *> > >::_Iterator<0>,std::allocator<std::list<std::pair<unsigned int const ,gl::Renderbuffer *>,std::allocator<std::pair<unsigned int const ,gl::Renderbuffer *> > >::_Iterator<0> > >,std::_Vector_iterator<std::list<std::pair<unsigned int const ,gl::Renderbuffer *>,std::allocator<std::pair<unsigned int const ,gl::Renderbuffer *> > >::_Iterator<0>,std::allocator<std::list<std::pair<unsigned int const ,gl::Renderbuffer *>,std::allocator<std::pair<unsigned int const ,gl::Renderbuffer *> > >::_Iterator<0> > >)
FUNC 2b3b2 18 c std::vector<std::list<std::pair<unsigned int const ,gl::Framebuffer *>,std::allocator<std::pair<unsigned int const ,gl::Framebuffer *> > >::_Iterator<0>,std::allocator<std::list<std::pair<unsigned int const ,gl::Framebuffer *>,std::allocator<std::pair<unsigned int const ,gl::Framebuffer *> > >::_Iterator<0> > >::_Umove<std::list<std::pair<unsigned int const ,gl::Framebuffer *>,std::allocator<std::pair<unsigned int const ,gl::Framebuffer *> > >::_Iterator<0> *>(std::list<std::pair<unsigned int const ,gl::Framebuffer *>,std::allocator<std::pair<unsigned int const ,gl::Framebuffer *> > >::_Iterator<0> *,std::list<std::pair<unsigned int const ,gl::Framebuffer *>,std::allocator<std::pair<unsigned int const ,gl::Framebuffer *> > >::_Iterator<0> *,std::list<std::pair<unsigned int const ,gl::Framebuffer *>,std::allocator<std::pair<unsigned int const ,gl::Framebuffer *> > >::_Iterator<0> *)
FUNC 2b3ca 18 c std::vector<std::list<std::pair<unsigned int const ,gl::Fence *>,std::allocator<std::pair<unsigned int const ,gl::Fence *> > >::_Iterator<0>,std::allocator<std::list<std::pair<unsigned int const ,gl::Fence *>,std::allocator<std::pair<unsigned int const ,gl::Fence *> > >::_Iterator<0> > >::_Umove<std::list<std::pair<unsigned int const ,gl::Fence *>,std::allocator<std::pair<unsigned int const ,gl::Fence *> > >::_Iterator<0> *>(std::list<std::pair<unsigned int const ,gl::Fence *>,std::allocator<std::pair<unsigned int const ,gl::Fence *> > >::_Iterator<0> *,std::list<std::pair<unsigned int const ,gl::Fence *>,std::allocator<std::pair<unsigned int const ,gl::Fence *> > >::_Iterator<0> *,std::list<std::pair<unsigned int const ,gl::Fence *>,std::allocator<std::pair<unsigned int const ,gl::Fence *> > >::_Iterator<0> *)
FUNC 2b3e2 c 0 gl::Context::getReadFramebuffer()
FUNC 2b3ee 7b2 20 gl::Context::readPixels(int,int,int,int,unsigned int,unsigned int,int *,void *)
FUNC 2bba0 79 4 gl::Context::detachTexture(unsigned int)
FUNC 2bc19 56 4 gl::Context::detachRenderbuffer(unsigned int)
FUNC 2bc6f 55b 24 gl::Context::blitFramebuffer(int,int,int,int,int,int,int,int,unsigned int)
FUNC 2c1ca 42 4 std::map<_D3DFORMAT,bool *,std::less<_D3DFORMAT>,std::allocator<std::pair<_D3DFORMAT const ,bool *> > >::operator[](_D3DFORMAT const &)
FUNC 2c20c 1b5 c std::vector<std::list<std::pair<unsigned int const ,gl::Framebuffer *>,std::allocator<std::pair<unsigned int const ,gl::Framebuffer *> > >::_Iterator<0>,std::allocator<std::list<std::pair<unsigned int const ,gl::Framebuffer *>,std::allocator<std::pair<unsigned int const ,gl::Framebuffer *> > >::_Iterator<0> > >::_Insert_n(std::_Vector_iterator<std::list<std::pair<unsigned int const ,gl::Framebuffer *>,std::allocator<std::pair<unsigned int const ,gl::Framebuffer *> > >::_Iterator<0>,std::allocator<std::list<std::pair<unsigned int const ,gl::Framebuffer *>,std::allocator<std::pair<unsigned int const ,gl::Framebuffer *> > >::_Iterator<0> > >,unsigned int,std::list<std::pair<unsigned int const ,gl::Framebuffer *>,std::allocator<std::pair<unsigned int const ,gl::Framebuffer *> > >::_Iterator<0> const &)
FUNC 2c3c1 1b5 c std::vector<std::list<std::pair<unsigned int const ,gl::Fence *>,std::allocator<std::pair<unsigned int const ,gl::Fence *> > >::_Iterator<0>,std::allocator<std::list<std::pair<unsigned int const ,gl::Fence *>,std::allocator<std::pair<unsigned int const ,gl::Fence *> > >::_Iterator<0> > >::_Insert_n(std::_Vector_iterator<std::list<std::pair<unsigned int const ,gl::Fence *>,std::allocator<std::pair<unsigned int const ,gl::Fence *> > >::_Iterator<0>,std::allocator<std::list<std::pair<unsigned int const ,gl::Fence *>,std::allocator<std::pair<unsigned int const ,gl::Fence *> > >::_Iterator<0> > >,unsigned int,std::list<std::pair<unsigned int const ,gl::Fence *>,std::allocator<std::pair<unsigned int const ,gl::Fence *> > >::_Iterator<0> const &)
FUNC 2c576 31 4 gl::Context::deleteTexture(unsigned int)
FUNC 2c5a7 31 4 gl::Context::deleteRenderbuffer(unsigned int)
FUNC 2c5d8 3c 8 stdext::_Hash<stdext::_Hmap_traits<unsigned int,gl::Framebuffer *,stdext::hash_compare<unsigned int,std::less<unsigned int> >,std::allocator<std::pair<unsigned int const ,gl::Framebuffer *> >,0> >::_Hash<stdext::_Hmap_traits<unsigned int,gl::Framebuffer *,stdext::hash_compare<unsigned int,std::less<unsigned int> >,std::allocator<std::pair<unsigned int const ,gl::Framebuffer *> >,0> >(stdext::hash_compare<unsigned int,std::less<unsigned int> > const &,std::allocator<std::pair<unsigned int const ,gl::Framebuffer *> > const &)
FUNC 2c614 3c 8 stdext::_Hash<stdext::_Hmap_traits<unsigned int,gl::Fence *,stdext::hash_compare<unsigned int,std::less<unsigned int> >,std::allocator<std::pair<unsigned int const ,gl::Fence *> >,0> >::_Hash<stdext::_Hmap_traits<unsigned int,gl::Fence *,stdext::hash_compare<unsigned int,std::less<unsigned int> >,std::allocator<std::pair<unsigned int const ,gl::Fence *> >,0> >(stdext::hash_compare<unsigned int,std::less<unsigned int> > const &,std::allocator<std::pair<unsigned int const ,gl::Fence *> > const &)
FUNC 2c650 55 8 std::vector<std::list<std::pair<unsigned int const ,gl::Framebuffer *>,std::allocator<std::pair<unsigned int const ,gl::Framebuffer *> > >::_Iterator<0>,std::allocator<std::list<std::pair<unsigned int const ,gl::Framebuffer *>,std::allocator<std::pair<unsigned int const ,gl::Framebuffer *> > >::_Iterator<0> > >::resize(unsigned int,std::list<std::pair<unsigned int const ,gl::Framebuffer *>,std::allocator<std::pair<unsigned int const ,gl::Framebuffer *> > >::_Iterator<0>)
FUNC 2c6a5 55 8 std::vector<std::list<std::pair<unsigned int const ,gl::Fence *>,std::allocator<std::pair<unsigned int const ,gl::Fence *> > >::_Iterator<0>,std::allocator<std::list<std::pair<unsigned int const ,gl::Fence *>,std::allocator<std::pair<unsigned int const ,gl::Fence *> > >::_Iterator<0> > >::resize(unsigned int,std::list<std::pair<unsigned int const ,gl::Fence *>,std::allocator<std::pair<unsigned int const ,gl::Fence *> > >::_Iterator<0>)
FUNC 2c6fa 19 0 stdext::hash_map<unsigned int,gl::Framebuffer *,stdext::hash_compare<unsigned int,std::less<unsigned int> >,std::allocator<std::pair<unsigned int const ,gl::Framebuffer *> > >::hash_map<unsigned int,gl::Framebuffer *,stdext::hash_compare<unsigned int,std::less<unsigned int> >,std::allocator<std::pair<unsigned int const ,gl::Framebuffer *> > >()
FUNC 2c713 19 0 stdext::hash_map<unsigned int,gl::Fence *,stdext::hash_compare<unsigned int,std::less<unsigned int> >,std::allocator<std::pair<unsigned int const ,gl::Fence *> > >::hash_map<unsigned int,gl::Fence *,stdext::hash_compare<unsigned int,std::less<unsigned int> >,std::allocator<std::pair<unsigned int const ,gl::Fence *> > >()
FUNC 2c72c 180 4 stdext::_Hash<stdext::_Hmap_traits<unsigned int,gl::Framebuffer *,stdext::hash_compare<unsigned int,std::less<unsigned int> >,std::allocator<std::pair<unsigned int const ,gl::Framebuffer *> >,0> >::insert(std::pair<unsigned int const ,gl::Framebuffer *> const &)
FUNC 2c8ac 180 4 stdext::_Hash<stdext::_Hmap_traits<unsigned int,gl::Fence *,stdext::hash_compare<unsigned int,std::less<unsigned int> >,std::allocator<std::pair<unsigned int const ,gl::Fence *> >,0> >::insert(std::pair<unsigned int const ,gl::Fence *> const &)
FUNC 2ca2c 42 4 stdext::hash_map<unsigned int,gl::Framebuffer *,stdext::hash_compare<unsigned int,std::less<unsigned int> >,std::allocator<std::pair<unsigned int const ,gl::Framebuffer *> > >::operator[](unsigned int const &)
FUNC 2ca6e 42 4 stdext::hash_map<unsigned int,gl::Fence *,stdext::hash_compare<unsigned int,std::less<unsigned int> >,std::allocator<std::pair<unsigned int const ,gl::Fence *> > >::operator[](unsigned int const &)
FUNC 2cab0 2d 0 gl::Context::createFramebuffer()
FUNC 2cadd 47 0 gl::Context::createFence()
FUNC 2cb24 4a 4 gl::Context::bindReadFramebuffer(unsigned int)
FUNC 2cb6e 58 4 gl::Context::bindDrawFramebuffer(unsigned int)
FUNC 2cbc6 52 4 gl::Context::setFramebufferZero(gl::Framebuffer *)
FUNC 2cc18 2d 4 gl::Context::detachFramebuffer(unsigned int)
FUNC 2cc45 386 10 gl::Context::Context(egl::Config const *,gl::Context const *,bool,bool)
FUNC 2cfcb 39b 8 gl::Context::makeCurrent(egl::Display *,egl::Surface *)
FUNC 2d366 61 4 gl::Context::deleteFramebuffer(unsigned int)
FUNC 2d3c7 2a 10 glCreateContext
FUNC 2d3f1 214 0 gl::Context::~Context()
FUNC 2d605 30 4 glDestroyContext
FUNC 2d635 14 0 gl::Fence::Fence()
FUNC 2d649 1c 0 gl::Fence::~Fence()
FUNC 2d665 8 0 gl::Fence::isFence()
FUNC 2d66d 52 4 gl::Fence::setFence(unsigned int)
FUNC 2d6bf 90 8 gl::Fence::getFenceiv(unsigned int,int *)
FUNC 2d74f 1c 0 gl::Fence::`vector deleting destructor'(unsigned int)
FUNC 2d76b 4d 0 gl::Fence::testFence()
FUNC 2d7b8 2b 0 gl::Fence::finishFence()
FUNC 2d7e3 6d 8 gl::Framebuffer::lookupRenderbuffer(unsigned int,unsigned int)
FUNC 2d850 e 0 gl::Framebuffer::getColorbufferHandle()
FUNC 2d85e e 0 gl::Framebuffer::getDepthbufferHandle()
FUNC 2d86c e 0 gl::Framebuffer::getStencilbufferHandle()
FUNC 2d87a 6 0 gl::DefaultFramebuffer::completeness()
FUNC 2d880 1d 0 gl::Framebuffer::Framebuffer()
FUNC 2d89d 29 0 gl::Framebuffer::~Framebuffer()
FUNC 2d8c6 2c 8 gl::Framebuffer::setColorbuffer(unsigned int,unsigned int)
FUNC 2d8f2 2c 8 gl::Framebuffer::setDepthbuffer(unsigned int,unsigned int)
FUNC 2d91e 2c 8 gl::Framebuffer::setStencilbuffer(unsigned int,unsigned int)
FUNC 2d94a 97 4 gl::Framebuffer::detachTexture(unsigned int)
FUNC 2d9e1 7e 4 gl::Framebuffer::detachRenderbuffer(unsigned int)
FUNC 2da5f f 0 gl::Framebuffer::getRenderTargetSerial()
FUNC 2da6e f 0 gl::Framebuffer::getRenderTarget()
FUNC 2da7d 18 0 gl::Framebuffer::getDepthStencil()
FUNC 2da95 4 0 gl::IndexBuffer::getBuffer()
FUNC 2da99 1e 0 gl::Framebuffer::hasStencil()
FUNC 2dab7 297 0 gl::Framebuffer::completeness()
FUNC 2dd4e 93 8 gl::DefaultFramebuffer::DefaultFramebuffer(gl::Colorbuffer *,gl::DepthStencilbuffer *)
FUNC 2dde1 1c 0 gl::Framebuffer::getSamples()
FUNC 2ddfd 1c 0 gl::DefaultFramebuffer::`vector deleting destructor'(unsigned int)
FUNC 2de19 1b 4 ceilf
FUNC 2de34 1b 4 floorf
FUNC 2de4f f 4 ceil(float)
FUNC 2de5e f 4 floor(float)
FUNC 2de6d 16 4 gl::isPow2(int)
FUNC 2de83 56 c validImageSize(int,int,int)
FUNC 2ded9 4c 8 validReadFormatType(unsigned int,unsigned int)
FUNC 2df25 8c 4 glActiveTexture
FUNC 2dfb1 b3 8 glAttachShader
FUNC 2e064 ba c glBindAttribLocation
FUNC 2e11e 8a 8 glBindBuffer
FUNC 2e1a8 ae 8 glBindFramebuffer
FUNC 2e256 79 8 glBindRenderbuffer
FUNC 2e2cf b0 8 glBindTexture
FUNC 2e37f 9e 8 glBlendEquationSeparate
FUNC 2e41d 166 10 glBlendFuncSeparate
FUNC 2e583 c4 10 glBufferData
FUNC 2e647 c0 10 glBufferSubData
FUNC 2e707 60 4 glClear
FUNC 2e767 98 10 glClearColor
FUNC 2e7ff 6b 4 glClearDepthf
FUNC 2e86a 60 4 glClearStencil
FUNC 2e8ca 8c 10 glColorMask
FUNC 2e956 8f 4 glCompileShader
FUNC 2e9e5 26c 20 glCompressedTexImage2D
FUNC 2ec51 2be 24 glCompressedTexSubImage2D
FUNC 2ef0f 2be 20 glCopyTexImage2D
FUNC 2f1cd 21e 20 glCopyTexSubImage2D
FUNC 2f3eb 84 4 glCullFace
FUNC 2f46f 84 8 glDeleteBuffers
FUNC 2f4f3 84 8 glDeleteFencesNV
FUNC 2f577 89 8 glDeleteFramebuffers
FUNC 2f600 8e 4 glDeleteProgram
FUNC 2f68e 84 8 glDeleteRenderbuffers
FUNC 2f712 8e 4 glDeleteShader
FUNC 2f7a0 89 8 glDeleteTextures
FUNC 2f829 7c 4 glDepthFunc
FUNC 2f8a5 67 4 glDepthMask
FUNC 2f90c 7b 8 glDepthRangef
FUNC 2f987 b3 8 glDetachShader
FUNC 2fa3a f0 4 glDisable
FUNC 2fb2a 75 4 glDisableVertexAttribArray
FUNC 2fb9f 84 c glDrawArrays
FUNC 2fc23 ab 10 glDrawElements
FUNC 2fcce f8 4 glEnable
FUNC 2fdc6 75 4 glEnableVertexAttribArray
FUNC 2fe3b 78 4 glFinishFenceNV
FUNC 2feb3 59 0 glFinish
FUNC 2ff0c 59 0 glFlush
FUNC 2ff65 10f 10 glFramebufferRenderbuffer
FUNC 30074 18b 14 glFramebufferTexture2D
FUNC 301ff 7c 4 glFrontFace
FUNC 3027b 84 8 glGenBuffers
FUNC 302ff 9e 4 glGenerateMipmap
FUNC 3039d 84 8 glGenFencesNV
FUNC 30421 84 8 glGenFramebuffers
FUNC 304a5 84 8 glGenRenderbuffers
FUNC 30529 84 8 glGenTextures
FUNC 305ad c7 1c glGetActiveAttrib
FUNC 30674 c7 1c glGetActiveUniform
FUNC 3073b a9 10 glGetAttachedShaders
FUNC 307e4 146 8 glGetBooleanv
FUNC 3092a a9 c glGetBufferParameteriv
FUNC 309d3 4c 0 glGetError
FUNC 30a1f 84 c glGetFenceivNV
FUNC 30aa3 12d 8 glGetFloatv
FUNC 30bd0 1aa 10 glGetFramebufferAttachmentParameteriv
FUNC 30d7a 67 0 glGetGraphicsResetStatusEXT
FUNC 30de1 1a1 8 glGetIntegerv
FUNC 30f82 108 c glGetProgramiv
FUNC 3108a 90 10 glGetProgramInfoLog
FUNC 3111a 147 c glGetRenderbufferParameteriv
FUNC 31261 dd c glGetShaderiv
FUNC 3133e 90 10 glGetShaderInfoLog
FUNC 313ce ab 10 glGetShaderPrecisionFormat
FUNC 31479 97 10 glGetShaderSource
FUNC 31510 97 10 glGetTranslatedShaderSourceANGLE
FUNC 315a7 120 c glGetTexParameterfv
FUNC 316c7 e4 c glGetTexParameteriv
FUNC 317ab ae 10 glGetnUniformfvEXT
FUNC 31859 a3 c glGetUniformfv
FUNC 318fc ae 10 glGetnUniformivEXT
FUNC 319aa a3 c glGetUniformiv
FUNC 31a4d 121 c glGetVertexAttribfv
FUNC 31b6e 153 c glGetVertexAttribiv
FUNC 31cc1 8c c glGetVertexAttribPointerv
FUNC 31d4d 9d 8 glHint
FUNC 31dea 8d 4 glLineWidth
FUNC 31e77 8f 4 glLinkProgram
FUNC 31f06 b6 8 glPixelStorei
FUNC 31fbc 7b 8 glPolygonOffset
FUNC 32037 c1 20 glReadnPixelsEXT
FUNC 320f8 b6 1c glReadPixels
FUNC 321ae 4c 0 glReleaseShaderCompiler
FUNC 321fa 1c4 14 glRenderbufferStorageMultisampleANGLE
FUNC 323be 1a 10 glRenderbufferStorage
FUNC 323d8 8d 8 glSetFenceNV
FUNC 32465 8a 10 glScissor
FUNC 324ef 60 14 glShaderBinary
FUNC 3254f a7 10 glShaderSource
FUNC 325f6 cf 10 glStencilFuncSeparate
FUNC 326c5 ab 8 glStencilMaskSeparate
FUNC 32770 148 10 glStencilOpSeparate
FUNC 328b8 3cd 24 glTexImage2D
FUNC 32c85 d2 c glTexParameteri
FUNC 32d57 16 c glTexParameteriv
FUNC 32d6d 1dc 24 glTexSubImage2D
FUNC 32f49 9b c glUniform1fv
FUNC 32fe4 9b c glUniform1iv
FUNC 3307f 9b c glUniform2fv
FUNC 3311a 9b c glUniform2iv
FUNC 331b5 9b c glUniform3fv
FUNC 33250 9b c glUniform3iv
FUNC 332eb 9b c glUniform4fv
FUNC 33386 9b c glUniform4iv
FUNC 33421 a5 10 glUniformMatrix2fv
FUNC 334c6 a5 10 glUniformMatrix3fv
FUNC 3356b a5 10 glUniformMatrix4fv
FUNC 33610 a0 4 glUseProgram
FUNC 336b0 8f 4 glValidateProgram
FUNC 3373f 9d 8 glVertexAttrib1f
FUNC 337dc 98 8 glVertexAttrib1fv
FUNC 33874 a8 c glVertexAttrib2f
FUNC 3391c 9b 8 glVertexAttrib2fv
FUNC 339b7 b0 10 glVertexAttrib3f
FUNC 33a67 9c 8 glVertexAttrib3fv
FUNC 33b03 b8 14 glVertexAttrib4f
FUNC 33bbb 79 8 glVertexAttrib4fv
FUNC 33c34 d5 18 glVertexAttribPointer
FUNC 33d09 8a 10 glViewport
FUNC 33d93 12b 28 glBlitFramebufferANGLE
FUNC 33ebe 85 28 glTexImage3DOES
FUNC 33f43 b8 10 glBlendColor
FUNC 33ffb 10 4 glBlendEquation
FUNC 3400b 18 8 glBlendFunc
FUNC 34023 a9 4 glCheckFramebufferStatus
FUNC 340cc 67 0 glCreateProgram
FUNC 34133 8c 4 glCreateShader
FUNC 341bf b3 8 glGetAttribLocation
FUNC 34272 d6 4 glGetString
FUNC 34348 cf 8 glGetUniformLocation
FUNC 34417 78 4 glIsBuffer
FUNC 3448f f6 4 glIsEnabled
FUNC 34585 7b 4 glIsFenceNV
FUNC 34600 78 4 glIsFramebuffer
FUNC 34678 78 4 glIsProgram
FUNC 346f0 78 4 glIsRenderbuffer
FUNC 34768 78 4 glIsShader
FUNC 347e0 78 4 glIsTexture
FUNC 34858 82 8 glSampleCoverage
FUNC 348da 19 c glStencilFunc
FUNC 348f3 11 4 glStencilMask
FUNC 34904 19 c glStencilOp
FUNC 3491d 8f 4 glTestFenceNV
FUNC 349ac 1a c glTexParameterf
FUNC 349c6 1c c glTexParameterfv
FUNC 349e2 262 14 glTexStorage2DEXT
FUNC 34c44 13 8 glUniform1f
FUNC 34c57 13 8 glUniform1i
FUNC 34c6a 23 c glUniform2f
FUNC 34c8d 2d c glUniform2i
FUNC 34cba 2a 10 glUniform3f
FUNC 34ce4 2a 10 glUniform3i
FUNC 34d0e 30 14 glUniform4f
FUNC 34d3e 30 14 glUniform4i
FUNC 34d6e 2e 4 glGetProcAddress
FUNC 34d9c 86 4 glBindTexImage
FUNC 34e22 26 4 isDeviceLostError(long)
FUNC 34e48 90 c DllMain
FUNC 34ed8 33 c gl::makeCurrent(gl::Context *,egl::Display *,egl::Surface *)
FUNC 34f0b f 0 gl::getContext()
FUNC 34f1a 1f 0 gl::getNonLostContext()
FUNC 34f39 10 0 gl::getDisplay()
FUNC 34f49 c 0 gl::getDevice()
FUNC 34f55 20 4 gl::checkDeviceLost(long)
FUNC 34f75 c2 4 error(unsigned int)
FUNC 35037 18 0 gl::Attribute::Attribute()
FUNC 3504f 44 4 gl::str(int)
FUNC 35093 1f 0 gl::Uniform::~Uniform()
FUNC 350b2 18 0 gl::Uniform::isArray()
FUNC 350ca 9 0 gl::Attribute::~Attribute()
FUNC 350d3 66 4 gl::Program::attachShader(gl::Shader *)
FUNC 35139 70 4 gl::Program::detachShader(gl::Shader *)
FUNC 351a9 13 0 gl::Program::getAttachedShadersCount()
FUNC 351bc 4 0 gl::Program::getPixelShader()
FUNC 351c0 4 0 gl::Program::getVertexShader()
FUNC 351c4 52 4 gl::Program::getAttributeLocation(char const *)
FUNC 35216 e 4 gl::Program::getSemanticIndex(int)
FUNC 35224 3e 4 gl::Program::getUsedSamplerRange(gl::SamplerType)
FUNC 35262 7d 8 gl::Program::getSamplerMapping(gl::SamplerType,unsigned int)
FUNC 352df 4e 8 gl::Program::getSamplerTextureType(gl::SamplerType,unsigned int)
FUNC 3532d 1e 4 gl::Attribute::operator=(gl::Attribute const &)
FUNC 3534b 55 4 gl::Program::decorateAttribute(std::basic_string<char,std::char_traits<char>,std::allocator<char> > const &)
FUNC 353a0 1a6 10 gl::Program::applyUniformnbv(gl::Uniform *,int,int,unsigned char const *)
FUNC 35546 43 8 gl::Program::applyUniformnfv(gl::Uniform *,float const *)
FUNC 35589 41 c gl::Program::applyUniformniv(gl::Uniform *,int,D3DXVECTOR4 const *)
FUNC 355ca c9 8 gl::Program::appendToInfoLog(char const *,...)
FUNC 35693 19 0 gl::Program::resetInfoLog()
FUNC 356ac 7 0 gl::Program::isLinked()
FUNC 356b3 7 0 gl::Program::isValidated()
FUNC 356ba 23 0 gl::Program::release()
FUNC 356dd 7 0 gl::Program::addRef()
FUNC 356e4 7 0 gl::Program::getRefCount()
FUNC 356eb 7 0 gl::Program::getSerial()
FUNC 356f2 14 0 gl::Program::getInfoLogLength()
FUNC 35706 5b c gl::Program::getInfoLog(int,int *,char *)
FUNC 35761 48 c gl::Program::getAttachedShaders(int,int *,unsigned int *)
FUNC 357a9 92 18 gl::Program::getActiveAttribute(unsigned int,int,int *,int *,unsigned int *,char *)
FUNC 3583b 18 0 gl::Program::getActiveAttributeCount()
FUNC 35853 8 0 gl::Program::flagForDeletion()
FUNC 3585b 7 0 gl::Program::isFlaggedForDeletion()
FUNC 35862 e3 4 gl::Program::validateSamplers(bool)
FUNC 35945 60 c gl::Program::initializeConstantHandles(gl::Uniform *,gl::Uniform::RegisterInfo *,ID3DXConstantTable *)
FUNC 359a5 7 0 gl::Program::getDxDepthRangeLocation()
FUNC 359ac 7 0 gl::Program::getDxDepthLocation()
FUNC 359b3 7 0 gl::Program::getDxHalfPixelSizeLocation()
FUNC 359ba 7 0 gl::Program::getDxFrontCCWLocation()
FUNC 359c1 7 0 gl::Program::getDxPointsOrLinesLocation()
FUNC 359c8 16 0 std::vector<gl::UniformLocation,std::allocator<gl::UniformLocation> >::size()
FUNC 359de 16 0 std::vector<gl::UniformLocation,std::allocator<gl::UniformLocation> >::capacity()
FUNC 359f4 22 4 gl::UniformLocation::UniformLocation(gl::UniformLocation const &)
FUNC 35a16 4c 8 gl::transposeMatrix<float,4,2,2,2>(float *,float const *)
FUNC 35a62 4a 8 gl::transposeMatrix<float,4,3,3,3>(float *,float const *)
FUNC 35aac 28 8 gl::transposeMatrix<float,4,4,4,4>(float *,float const *)
FUNC 35ad4 28 8 gl::transposeMatrix<float,2,2,4,2>(float *,float const *)
FUNC 35afc 28 8 gl::transposeMatrix<float,3,3,4,3>(float *,float const *)
FUNC 35b24 3f 8 gl::transposeMatrix<int,2,2,4,2>(int *,float const *)
FUNC 35b63 3f 8 gl::transposeMatrix<int,3,3,4,3>(int *,float const *)
FUNC 35ba2 3f 8 gl::transposeMatrix<int,4,4,4,4>(int *,float const *)
FUNC 35be1 22 4 gl::UniformLocation::operator=(gl::UniformLocation const &)
FUNC 35c03 27 18 std::_Copy_backward_opt<gl::UniformLocation *,gl::UniformLocation *,std::random_access_iterator_tag>(gl::UniformLocation *,gl::UniformLocation *,gl::UniformLocation *,std::random_access_iterator_tag,std::_Nonscalar_ptr_iterator_tag,std::_Range_checked_iterator_tag)
FUNC 35c2a ee 1c gl::Program::getUniformLocation(std::basic_string<char,std::char_traits<char>,std::allocator<char> >)
FUNC 35d18 13c c gl::Program::setUniform1fv(int,int,float const *)
FUNC 35e54 144 c gl::Program::setUniform2fv(int,int,float const *)
FUNC 35f98 148 c gl::Program::setUniform3fv(int,int,float const *)
FUNC 360e0 12d c gl::Program::setUniform4fv(int,int,float const *)
FUNC 3620d 9e c gl::Program::setUniformMatrix2fv(int,int,float const *)
FUNC 362ab 9e c gl::Program::setUniformMatrix3fv(int,int,float const *)
FUNC 36349 9e c gl::Program::setUniformMatrix4fv(int,int,float const *)
FUNC 363e7 130 c gl::Program::setUniform1iv(int,int,int const *)
FUNC 36517 117 c gl::Program::setUniform2iv(int,int,int const *)
FUNC 3662e 118 c gl::Program::setUniform3iv(int,int,int const *)
FUNC 36746 118 c gl::Program::setUniform4iv(int,int,int const *)
FUNC 3685e 1bb c gl::Program::getUniformfv(int,int *,float *)
FUNC 36a19 1b8 c gl::Program::getUniformiv(int,int *,int *)
FUNC 36bd1 28 0 gl::Program::dirtyAllUniforms()
FUNC 36bf9 60 4 gl::Program::undecorateUniform(std::basic_string<char,std::char_traits<char>,std::allocator<char> > const &)
FUNC 36c59 10b c gl::Program::applyUniform1iv(gl::Uniform *,int,int const *)
FUNC 36d64 7a c gl::Program::applyUniform2iv(gl::Uniform *,int,int const *)
FUNC 36dde 7d c gl::Program::applyUniform3iv(gl::Uniform *,int,int const *)
FUNC 36e5b 7e c gl::Program::applyUniform4iv(gl::Uniform *,int,int const *)
FUNC 36ed9 91 4 gl::Program::appendToInfoLogSanitized(char const *)
FUNC 36f6a 37 0 gl::Program::getActiveAttributeMaxLength()
FUNC 36fa4 130 18 gl::Program::getActiveUniform(unsigned int,int,int *,int *,unsigned int *,char *)
FUNC 370d4 49 0 gl::Program::getActiveUniformCount()
FUNC 3711d 88 0 gl::Program::getActiveUniformMaxLength()
FUNC 371a5 36 4 std::_Tree<std::_Tset_traits<std::basic_string<char,std::char_traits<char>,std::allocator<char> >,std::less<std::basic_string<char,std::char_traits<char>,std::allocator<char> > >,std::allocator<std::basic_string<char,std::char_traits<char>,std::allocator<char> > >,0> >::_Ubound(std::basic_string<char,std::char_traits<char>,std::allocator<char> > const &)
FUNC 371db 24 18 std::_Copy_opt<gl::UniformLocation *,gl::UniformLocation *,std::random_access_iterator_tag>(gl::UniformLocation *,gl::UniformLocation *,gl::UniformLocation *,std::random_access_iterator_tag,std::_Nonscalar_ptr_iterator_tag,std::_Range_checked_iterator_tag)
FUNC 371ff 1d c std::_Fill<gl::UniformLocation *,gl::UniformLocation>(gl::UniformLocation *,gl::UniformLocation *,gl::UniformLocation const &)
FUNC 3721c 28 18 std::_Move_backward_opt<gl::UniformLocation *,gl::UniformLocation *,std::random_access_iterator_tag,std::_Undefined_move_tag>(gl::UniformLocation *,gl::UniformLocation *,gl::UniformLocation *,std::random_access_iterator_tag,std::_Undefined_move_tag,std::_Range_checked_iterator_tag)
FUNC 37244 14 8 std::allocator<gl::UniformLocation>::construct(gl::UniformLocation *,gl::UniformLocation const &)
FUNC 37258 58 c gl::Uniform::Uniform(unsigned int,std::basic_string<char,std::char_traits<char>,std::allocator<char> > const &,unsigned int)
FUNC 372b0 23 c gl::UniformLocation::UniformLocation(std::basic_string<char,std::char_traits<char>,std::allocator<char> > const &,unsigned int,unsigned int)
FUNC 372d3 246 c gl::Program::compileToBinary(char const *,char const *,ID3DXConstantTable * *)
FUNC 37519 301 8 gl::Program::createUniform(_D3DXCONSTANT_DESC const &,std::basic_string<char,std::char_traits<char>,std::allocator<char> > &)
FUNC 3781a 28 c stdext::unchecked_copy<gl::UniformLocation *,gl::UniformLocation *>(gl::UniformLocation *,gl::UniformLocation *,gl::UniformLocation *)
FUNC 37842 28 c stdext::_Unchecked_move_backward<TIntermNode * *,TIntermNode * *>(TIntermNode * *,TIntermNode * *,TIntermNode * *)
FUNC 3786a 28 c stdext::_Unchecked_move_backward<gl::UniformLocation *,gl::UniformLocation *>(gl::UniformLocation *,gl::UniformLocation *,gl::UniformLocation *)
FUNC 37892 23 10 std::_Distance2<std::_Tree<std::_Tset_traits<std::basic_string<char,std::char_traits<char>,std::allocator<char> >,std::less<std::basic_string<char,std::char_traits<char>,std::allocator<char> > >,std::allocator<std::basic_string<char,std::char_traits<char>,std::allocator<char> > >,0> >::iterator,unsigned int>(std::_Tree<std::_Tset_traits<std::basic_string<char,std::char_traits<char>,std::allocator<char> >,std::less<std::basic_string<char,std::char_traits<char>,std::allocator<char> > >,std::allocator<std::basic_string<char,std::char_traits<char>,std::allocator<char> > >,0> >::iterator,std::_Tree<std::_Tset_traits<std::basic_string<char,std::char_traits<char>,std::allocator<char> >,std::less<std::basic_string<char,std::char_traits<char>,std::allocator<char> > >,std::allocator<std::basic_string<char,std::char_traits<char>,std::allocator<char> > >,0> >::iterator,unsigned int &,std::bidirectional_iterator_tag)
FUNC 378b5 60 18 std::_Uninit_copy<gl::UniformLocation *,gl::UniformLocation *,std::allocator<gl::UniformLocation> >(gl::UniformLocation *,gl::UniformLocation *,gl::UniformLocation *,std::allocator<gl::UniformLocation> &,std::_Nonscalar_ptr_iterator_tag,std::_Range_checked_iterator_tag)
FUNC 37915 14e 0 gl::Program::applyUniforms()
FUNC 37a63 30d 4 gl::Program::packVaryings(gl::Varying const * (* const)[4])
FUNC 37d70 d53 0 gl::Program::linkVaryings()
FUNC 38ac3 44 0 gl::Program::validate()
FUNC 38b07 2a 4 std::_Tree<std::_Tset_traits<std::basic_string<char,std::char_traits<char>,std::allocator<char> >,std::less<std::basic_string<char,std::char_traits<char>,std::allocator<char> > >,std::allocator<std::basic_string<char,std::char_traits<char>,std::allocator<char> > >,0> >::equal_range(std::basic_string<char,std::char_traits<char>,std::allocator<char> > const &)
FUNC 38b31 1a c std::_Distance<std::_Tree<std::_Tset_traits<std::basic_string<char,std::char_traits<char>,std::allocator<char> >,std::less<std::basic_string<char,std::char_traits<char>,std::allocator<char> > >,std::allocator<std::basic_string<char,std::char_traits<char>,std::allocator<char> > >,0> >::iterator,unsigned int>(std::_Tree<std::_Tset_traits<std::basic_string<char,std::char_traits<char>,std::allocator<char> >,std::less<std::basic_string<char,std::char_traits<char>,std::allocator<char> > >,std::allocator<std::basic_string<char,std::char_traits<char>,std::allocator<char> > >,0> >::iterator,std::_Tree<std::_Tset_traits<std::basic_string<char,std::char_traits<char>,std::allocator<char> >,std::less<std::basic_string<char,std::char_traits<char>,std::allocator<char> > >,std::allocator<std::basic_string<char,std::char_traits<char>,std::allocator<char> > >,0> >::iterator,unsigned int &)
FUNC 38b4b 5c 18 std::_Uninit_fill_n<gl::UniformLocation *,unsigned int,gl::UniformLocation,std::allocator<gl::UniformLocation> >(gl::UniformLocation *,unsigned int,gl::UniformLocation const &,std::allocator<gl::UniformLocation> &,std::_Nonscalar_ptr_iterator_tag,std::_Range_checked_iterator_tag)
FUNC 38ba7 1a 10 std::_Destroy_range<gl::UniformLocation,std::allocator<gl::UniformLocation> >(gl::UniformLocation *,gl::UniformLocation *,std::allocator<gl::UniformLocation> &,std::_Nonscalar_ptr_iterator_tag)
FUNC 38bc1 28 10 stdext::unchecked_uninitialized_copy<gl::UniformLocation *,gl::UniformLocation *,std::allocator<gl::UniformLocation> >(gl::UniformLocation *,gl::UniformLocation *,gl::UniformLocation *,std::allocator<gl::UniformLocation> &)
FUNC 38be9 38 4 gl::Program::getAttributeBinding(std::basic_string<char,std::char_traits<char>,std::allocator<char> > const &)
FUNC 38c21 28 10 stdext::unchecked_uninitialized_fill_n<gl::UniformLocation *,unsigned int,gl::UniformLocation,std::allocator<gl::UniformLocation> >(gl::UniformLocation *,unsigned int,gl::UniformLocation const &,std::allocator<gl::UniformLocation> &)
FUNC 38c49 1a c std::_Destroy_range<gl::UniformLocation,std::allocator<gl::UniformLocation> >(gl::UniformLocation *,gl::UniformLocation *,std::allocator<gl::UniformLocation> &)
FUNC 38c63 17b 0 gl::Program::linkAttributes()
FUNC 38dde 22 c std::vector<gl::UniformLocation,std::allocator<gl::UniformLocation> >::_Ufill(gl::UniformLocation *,unsigned int,gl::UniformLocation const &)
FUNC 38e00 1a7 c std::vector<gl::Uniform *,std::allocator<gl::Uniform *> >::_Insert_n(std::_Vector_iterator<gl::Uniform *,std::allocator<gl::Uniform *> >,unsigned int,gl::Uniform * const &)
FUNC 38fa7 3d 8 std::vector<gl::Uniform *,std::allocator<gl::Uniform *> >::insert(std::_Vector_iterator<gl::Uniform *,std::allocator<gl::Uniform *> >,gl::Uniform * const &)
FUNC 38fe4 3a 8 std::vector<gl::UniformLocation,std::allocator<gl::UniformLocation> >::erase(std::_Vector_iterator<gl::UniformLocation,std::allocator<gl::UniformLocation> >,std::_Vector_iterator<gl::UniformLocation,std::allocator<gl::UniformLocation> >)
FUNC 3901e 2d 0 std::vector<gl::UniformLocation,std::allocator<gl::UniformLocation> >::_Tidy()
FUNC 3904b 18 c std::vector<gl::UniformLocation,std::allocator<gl::UniformLocation> >::_Umove<gl::UniformLocation *>(gl::UniformLocation *,gl::UniformLocation *,gl::UniformLocation *)
FUNC 39063 43 4 std::_Tree<std::_Tset_traits<std::basic_string<char,std::char_traits<char>,std::allocator<char> >,std::less<std::basic_string<char,std::char_traits<char>,std::allocator<char> > >,std::allocator<std::basic_string<char,std::char_traits<char>,std::allocator<char> > >,0> >::erase(std::basic_string<char,std::char_traits<char>,std::allocator<char> > const &)
FUNC 390a6 40 4 std::vector<gl::Uniform *,std::allocator<gl::Uniform *> >::push_back(gl::Uniform * const &)
FUNC 390e6 15 0 std::vector<gl::UniformLocation,std::allocator<gl::UniformLocation> >::clear()
FUNC 390fb 200 c std::vector<gl::UniformLocation,std::allocator<gl::UniformLocation> >::_Insert_n(std::_Vector_iterator<gl::UniformLocation,std::allocator<gl::UniformLocation> >,unsigned int,gl::UniformLocation const &)
FUNC 392fb 70 8 gl::Program::bindAttributeLocation(unsigned int,char const *)
FUNC 3936b 169 4 gl::Program::unlink(bool)
FUNC 394d4 42 8 std::vector<gl::UniformLocation,std::allocator<gl::UniformLocation> >::insert(std::_Vector_iterator<gl::UniformLocation,std::allocator<gl::UniformLocation> >,gl::UniformLocation const &)
FUNC 39516 c6 8 gl::Program::Program(gl::ResourceManager *,unsigned int)
FUNC 395dc 72 0 gl::Program::~Program()
FUNC 3964e 40 4 std::vector<gl::UniformLocation,std::allocator<gl::UniformLocation> >::push_back(gl::UniformLocation const &)
FUNC 3968e f2 8 gl::Program::defineUniform(_D3DXCONSTANT_DESC const &,std::basic_string<char,std::char_traits<char>,std::allocator<char> > &)
FUNC 39780 393 24 gl::Program::defineUniform(char const * const &,_D3DXCONSTANT_DESC const &,std::basic_string<char,std::char_traits<char>,std::allocator<char> >)
FUNC 39b13 77 4 gl::Program::linkUniforms(ID3DXConstantTable *)
FUNC 39b8a 281 0 gl::Program::link()
FUNC 39e0b 16 4 gl::RefCountObject::RefCountObject(unsigned int)
FUNC 39e21 7 0 gl::RefCountObject::~RefCountObject()
FUNC 39e28 4 0 gl::Shader::addRef()
FUNC 39e2c c 0 gl::RefCountObject::release()
FUNC 39e38 25 4 gl::RefCountObjectBindingPointer::set(gl::RefCountObject *)
FUNC 39e5d 1d 0 gl::RefCountObject::`scalar deleting destructor'(unsigned int)
FUNC 39e7a 1d 0 gl::RenderbufferTexture::`scalar deleting destructor'(unsigned int)
FUNC 39e97 d 0 gl::RenderbufferInterface::getBlueSize()
FUNC 39ea4 d 0 gl::RenderbufferInterface::getGreenSize()
FUNC 39eb1 d 0 gl::RenderbufferInterface::getAlphaSize()
FUNC 39ebe d 0 gl::RenderbufferInterface::getDepthSize()
FUNC 39ecb d 0 gl::RenderbufferInterface::getStencilSize()
FUNC 39ed8 19 8 gl::RenderbufferTexture::RenderbufferTexture(gl::Texture *,unsigned int)
FUNC 39ef1 e 0 gl::RenderbufferTexture::getRenderTarget()
FUNC 39eff 8 0 gl::RenderbufferTexture::getWidth()
FUNC 39f07 8 0 gl::RenderbufferTexture::getHeight()
FUNC 39f0f 8 0 gl::RenderbufferTexture::getInternalFormat()
FUNC 39f17 8 0 gl::RenderbufferTexture::getD3DFormat()
FUNC 39f1f c 0 gl::RenderbufferTexture::getSerial()
FUNC 39f2b 1f 8 gl::Renderbuffer::Renderbuffer(unsigned int,gl::RenderbufferInterface *)
FUNC 39f4a 1e 0 gl::Renderbuffer::~Renderbuffer()
FUNC 39f68 8 0 gl::Renderbuffer::getRenderTarget()
FUNC 39f70 8 0 gl::Renderbuffer::getDepthStencil()
FUNC 39f78 8 0 gl::Renderbuffer::getWidth()
FUNC 39f80 8 0 gl::Renderbuffer::getHeight()
FUNC 39f88 8 0 gl::Renderbuffer::getInternalFormat()
FUNC 39f90 8 0 gl::Renderbuffer::getD3DFormat()
FUNC 39f98 8 0 gl::Renderbuffer::getBlueSize()
FUNC 39fa0 8 0 gl::Renderbuffer::getGreenSize()
FUNC 39fa8 8 0 gl::Renderbuffer::getAlphaSize()
FUNC 39fb0 8 0 gl::Renderbuffer::getDepthSize()
FUNC 39fb8 8 0 gl::Renderbuffer::getStencilSize()
FUNC 39fc0 8 0 gl::Renderbuffer::getSamples()
FUNC 39fc8 8 0 gl::Renderbuffer::getSerial()
FUNC 39fd0 1b 4 gl::Renderbuffer::setStorage(gl::RenderbufferStorage *)
FUNC 39feb 3 0 TIntermNode::getAsBinaryNode()
FUNC 39fee 4 0 gl::Framebuffer::getDepthbufferType()
FUNC 39ff2 4 0 gl::Framebuffer::getDepthbuffer()
FUNC 39ff9 c 0 gl::RenderbufferStorage::issueSerial()
FUNC 3a005 d 0 gl::RenderbufferStorage::issueCubeSerials()
FUNC 3a012 1e 0 gl::Colorbuffer::~Colorbuffer()
FUNC 3a030 17 0 gl::Colorbuffer::getRenderTarget()
FUNC 3a047 1e 0 gl::DepthStencilbuffer::~DepthStencilbuffer()
FUNC 3a065 1c 0 gl::Renderbuffer::`vector deleting destructor'(unsigned int)
FUNC 3a081 31 0 gl::RenderbufferStorage::RenderbufferStorage()
FUNC 3a0b2 61 4 gl::Colorbuffer::Colorbuffer(IDirect3DSurface9 *)
FUNC 3a113 1c 0 gl::Colorbuffer::`scalar deleting destructor'(unsigned int)
FUNC 3a12f b8 10 gl::Colorbuffer::Colorbuffer(int,int,unsigned int,int)
FUNC 3a1e7 61 4 gl::DepthStencilbuffer::DepthStencilbuffer(IDirect3DSurface9 *)
FUNC 3a248 1c 0 gl::DepthStencilbuffer::`vector deleting destructor'(unsigned int)
FUNC 3a264 ad c gl::DepthStencilbuffer::DepthStencilbuffer(int,int,int)
FUNC 3a311 22 0 gl::Depthbuffer::`scalar deleting destructor'(unsigned int)
FUNC 3a333 2d c gl::Depthbuffer::Depthbuffer(int,int,int)
FUNC 3a360 22 0 gl::Stencilbuffer::`vector deleting destructor'(unsigned int)
FUNC 3a382 2d c gl::Stencilbuffer::Stencilbuffer(int,int,int)
FUNC 3a3af 3 0 gl::ResourceManager::addRef()
FUNC 3a3b2 4e 8 std::_Allocate<std::_List_nod<std::pair<unsigned int const ,gl::Texture *>,std::allocator<std::pair<unsigned int const ,gl::Texture *> > >::_Node>(unsigned int,std::_List_nod<std::pair<unsigned int const ,gl::Texture *>,std::allocator<std::pair<unsigned int const ,gl::Texture *> > >::_Node *)
FUNC 3a400 17 8 std::_Construct<std::pair<unsigned int const ,gl::Renderbuffer *>,std::pair<unsigned int const ,gl::Renderbuffer *> >(std::pair<unsigned int const ,gl::Renderbuffer *> *,std::pair<unsigned int const ,gl::Renderbuffer *> const &)
FUNC 3a417 20 18 std::_Copy_opt<std::list<std::pair<unsigned int const ,gl::Buffer *>,std::allocator<std::pair<unsigned int const ,gl::Buffer *> > >::_Iterator<0> *,std::list<std::pair<unsigned int const ,gl::Buffer *>,std::allocator<std::pair<unsigned int const ,gl::Buffer *> > >::_Iterator<0> *,std::random_access_iterator_tag>(std::list<std::pair<unsigned int const ,gl::Buffer *>,std::allocator<std::pair<unsigned int const ,gl::Buffer *> > >::_Iterator<0> *,std::list<std::pair<unsigned int const ,gl::Buffer *>,std::allocator<std::pair<unsigned int const ,gl::Buffer *> > >::_Iterator<0> *,std::list<std::pair<unsigned int const ,gl::Buffer *>,std::allocator<std::pair<unsigned int const ,gl::Buffer *> > >::_Iterator<0> *,std::random_access_iterator_tag,std::_Nonscalar_ptr_iterator_tag,std::_Range_checked_iterator_tag)
FUNC 3a437 28 c stdext::unchecked_copy<std::list<std::pair<unsigned int const ,gl::Framebuffer *>,std::allocator<std::pair<unsigned int const ,gl::Framebuffer *> > >::_Iterator<0> *,std::list<std::pair<unsigned int const ,gl::Framebuffer *>,std::allocator<std::pair<unsigned int const ,gl::Framebuffer *> > >::_Iterator<0> *>(std::list<std::pair<unsigned int const ,gl::Framebuffer *>,std::allocator<std::pair<unsigned int const ,gl::Framebuffer *> > >::_Iterator<0> *,std::list<std::pair<unsigned int const ,gl::Framebuffer *>,std::allocator<std::pair<unsigned int const ,gl::Framebuffer *> > >::_Iterator<0> *,std::list<std::pair<unsigned int const ,gl::Framebuffer *>,std::allocator<std::pair<unsigned int const ,gl::Framebuffer *> > >::_Iterator<0> *)
FUNC 3a45f 28 18 std::_Move_backward_opt<std::list<std::pair<unsigned int const ,gl::Program *>,std::allocator<std::pair<unsigned int const ,gl::Program *> > >::_Iterator<0> *,std::list<std::pair<unsigned int const ,gl::Program *>,std::allocator<std::pair<unsigned int const ,gl::Program *> > >::_Iterator<0> *,std::random_access_iterator_tag,std::_Undefined_move_tag>(std::list<std::pair<unsigned int const ,gl::Program *>,std::allocator<std::pair<unsigned int const ,gl::Program *> > >::_Iterator<0> *,std::list<std::pair<unsigned int const ,gl::Program *>,std::allocator<std::pair<unsigned int const ,gl::Program *> > >::_Iterator<0> *,std::list<std::pair<unsigned int const ,gl::Program *>,std::allocator<std::pair<unsigned int const ,gl::Program *> > >::_Iterator<0> *,std::random_access_iterator_tag,std::_Undefined_move_tag,std::_Range_checked_iterator_tag)
FUNC 3a487 13 8 std::allocator<std::list<std::pair<unsigned int const ,gl::Program *>,std::allocator<std::pair<unsigned int const ,gl::Program *> > >::_Iterator<0> >::construct(std::list<std::pair<unsigned int const ,gl::Program *>,std::allocator<std::pair<unsigned int const ,gl::Program *> > >::_Iterator<0> *,std::list<std::pair<unsigned int const ,gl::Program *>,std::allocator<std::pair<unsigned int const ,gl::Program *> > >::_Iterator<0> const &)
FUNC 3a49a 45 18 std::_Uninit_copy<std::list<std::pair<unsigned int const ,gl::Buffer *>,std::allocator<std::pair<unsigned int const ,gl::Buffer *> > >::_Iterator<0> *,std::list<std::pair<unsigned int const ,gl::Buffer *>,std::allocator<std::pair<unsigned int const ,gl::Buffer *> > >::_Iterator<0> *,std::allocator<std::list<std::pair<unsigned int const ,gl::Buffer *>,std::allocator<std::pair<unsigned int const ,gl::Buffer *> > >::_Iterator<0> > >(std::list<std::pair<unsigned int const ,gl::Buffer *>,std::allocator<std::pair<unsigned int const ,gl::Buffer *> > >::_Iterator<0> *,std::list<std::pair<unsigned int const ,gl::Buffer *>,std::allocator<std::pair<unsigned int const ,gl::Buffer *> > >::_Iterator<0> *,std::list<std::pair<unsigned int const ,gl::Buffer *>,std::allocator<std::pair<unsigned int const ,gl::Buffer *> > >::_Iterator<0> *,std::allocator<std::list<std::pair<unsigned int const ,gl::Buffer *>,std::allocator<std::pair<unsigned int const ,gl::Buffer *> > >::_Iterator<0> > &,std::_Nonscalar_ptr_iterator_tag,std::_Range_checked_iterator_tag)
FUNC 3a4df 45 18 std::_Uninit_copy<std::list<std::pair<unsigned int const ,gl::Shader *>,std::allocator<std::pair<unsigned int const ,gl::Shader *> > >::_Iterator<0> *,std::list<std::pair<unsigned int const ,gl::Shader *>,std::allocator<std::pair<unsigned int const ,gl::Shader *> > >::_Iterator<0> *,std::allocator<std::list<std::pair<unsigned int const ,gl::Shader *>,std::allocator<std::pair<unsigned int const ,gl::Shader *> > >::_Iterator<0> > >(std::list<std::pair<unsigned int const ,gl::Shader *>,std::allocator<std::pair<unsigned int const ,gl::Shader *> > >::_Iterator<0> *,std::list<std::pair<unsigned int const ,gl::Shader *>,std::allocator<std::pair<unsigned int const ,gl::Shader *> > >::_Iterator<0> *,std::list<std::pair<unsigned int const ,gl::Shader *>,std::allocator<std::pair<unsigned int const ,gl::Shader *> > >::_Iterator<0> *,std::allocator<std::list<std::pair<unsigned int const ,gl::Shader *>,std::allocator<std::pair<unsigned int const ,gl::Shader *> > >::_Iterator<0> > &,std::_Nonscalar_ptr_iterator_tag,std::_Range_checked_iterator_tag)
FUNC 3a524 45 18 std::_Uninit_copy<std::list<std::pair<unsigned int const ,gl::Program *>,std::allocator<std::pair<unsigned int const ,gl::Program *> > >::_Iterator<0> *,std::list<std::pair<unsigned int const ,gl::Program *>,std::allocator<std::pair<unsigned int const ,gl::Program *> > >::_Iterator<0> *,std::allocator<std::list<std::pair<unsigned int const ,gl::Program *>,std::allocator<std::pair<unsigned int const ,gl::Program *> > >::_Iterator<0> > >(std::list<std::pair<unsigned int const ,gl::Program *>,std::allocator<std::pair<unsigned int const ,gl::Program *> > >::_Iterator<0> *,std::list<std::pair<unsigned int const ,gl::Program *>,std::allocator<std::pair<unsigned int const ,gl::Program *> > >::_Iterator<0> *,std::list<std::pair<unsigned int const ,gl::Program *>,std::allocator<std::pair<unsigned int const ,gl::Program *> > >::_Iterator<0> *,std::allocator<std::list<std::pair<unsigned int const ,gl::Program *>,std::allocator<std::pair<unsigned int const ,gl::Program *> > >::_Iterator<0> > &,std::_Nonscalar_ptr_iterator_tag,std::_Range_checked_iterator_tag)
FUNC 3a569 45 18 std::_Uninit_copy<std::list<std::pair<unsigned int const ,gl::Texture *>,std::allocator<std::pair<unsigned int const ,gl::Texture *> > >::_Iterator<0> *,std::list<std::pair<unsigned int const ,gl::Texture *>,std::allocator<std::pair<unsigned int const ,gl::Texture *> > >::_Iterator<0> *,std::allocator<std::list<std::pair<unsigned int const ,gl::Texture *>,std::allocator<std::pair<unsigned int const ,gl::Texture *> > >::_Iterator<0> > >(std::list<std::pair<unsigned int const ,gl::Texture *>,std::allocator<std::pair<unsigned int const ,gl::Texture *> > >::_Iterator<0> *,std::list<std::pair<unsigned int const ,gl::Texture *>,std::allocator<std::pair<unsigned int const ,gl::Texture *> > >::_Iterator<0> *,std::list<std::pair<unsigned int const ,gl::Texture *>,std::allocator<std::pair<unsigned int const ,gl::Texture *> > >::_Iterator<0> *,std::allocator<std::list<std::pair<unsigned int const ,gl::Texture *>,std::allocator<std::pair<unsigned int const ,gl::Texture *> > >::_Iterator<0> > &,std::_Nonscalar_ptr_iterator_tag,std::_Range_checked_iterator_tag)
FUNC 3a5ae 45 18 std::_Uninit_copy<std::list<std::pair<unsigned int const ,gl::Renderbuffer *>,std::allocator<std::pair<unsigned int const ,gl::Renderbuffer *> > >::_Iterator<0> *,std::list<std::pair<unsigned int const ,gl::Renderbuffer *>,std::allocator<std::pair<unsigned int const ,gl::Renderbuffer *> > >::_Iterator<0> *,std::allocator<std::list<std::pair<unsigned int const ,gl::Renderbuffer *>,std::allocator<std::pair<unsigned int const ,gl::Renderbuffer *> > >::_Iterator<0> > >(std::list<std::pair<unsigned int const ,gl::Renderbuffer *>,std::allocator<std::pair<unsigned int const ,gl::Renderbuffer *> > >::_Iterator<0> *,std::list<std::pair<unsigned int const ,gl::Renderbuffer *>,std::allocator<std::pair<unsigned int const ,gl::Renderbuffer *> > >::_Iterator<0> *,std::list<std::pair<unsigned int const ,gl::Renderbuffer *>,std::allocator<std::pair<unsigned int const ,gl::Renderbuffer *> > >::_Iterator<0> *,std::allocator<std::list<std::pair<unsigned int const ,gl::Renderbuffer *>,std::allocator<std::pair<unsigned int const ,gl::Renderbuffer *> > >::_Iterator<0> > &,std::_Nonscalar_ptr_iterator_tag,std::_Range_checked_iterator_tag)
FUNC 3a5f3 25 4 stdext::_Hash<stdext::_Hmap_traits<unsigned int,gl::Program *,stdext::hash_compare<unsigned int,std::less<unsigned int> >,std::allocator<std::pair<unsigned int const ,gl::Program *> >,0> >::_Hashval(unsigned int const &)
FUNC 3a618 33 4 std::list<std::pair<unsigned int const ,gl::Fence *>,std::allocator<std::pair<unsigned int const ,gl::Fence *> > >::erase(std::list<std::pair<unsigned int const ,gl::Fence *>,std::allocator<std::pair<unsigned int const ,gl::Fence *> > >::_Iterator<0>)
FUNC 3a64b 17 0 std::list<std::pair<unsigned int const ,gl::Shader *>,std::allocator<std::pair<unsigned int const ,gl::Shader *> > >::_Tidy()
FUNC 3a662 4a 0 std::list<std::pair<unsigned int const ,gl::Buffer *>,std::allocator<std::pair<unsigned int const ,gl::Buffer *> > >::_Buynode()
FUNC 3a6ac 4a 0 std::list<std::pair<unsigned int const ,gl::Shader *>,std::allocator<std::pair<unsigned int const ,gl::Shader *> > >::_Buynode()
FUNC 3a6f6 4a 0 std::list<std::pair<unsigned int const ,gl::Program *>,std::allocator<std::pair<unsigned int const ,gl::Program *> > >::_Buynode()
FUNC 3a740 4a 0 std::list<std::pair<unsigned int const ,gl::Texture *>,std::allocator<std::pair<unsigned int const ,gl::Texture *> > >::_Buynode()
FUNC 3a78a 51 4 std::list<std::pair<unsigned int const ,gl::Shader *>,std::allocator<std::pair<unsigned int const ,gl::Shader *> > >::_Incsize(unsigned int)
FUNC 3a7db 4a 0 std::list<std::pair<unsigned int const ,gl::Renderbuffer *>,std::allocator<std::pair<unsigned int const ,gl::Renderbuffer *> > >::_Buynode()
FUNC 3a825 64 c std::list<std::pair<unsigned int const ,gl::Buffer *>,std::allocator<std::pair<unsigned int const ,gl::Buffer *> > >::_Buynode(std::_List_nod<std::pair<unsigned int const ,gl::Buffer *>,std::allocator<std::pair<unsigned int const ,gl::Buffer *> > >::_Node *,std::_List_nod<std::pair<unsigned int const ,gl::Buffer *>,std::allocator<std::pair<unsigned int const ,gl::Buffer *> > >::_Node *,std::pair<unsigned int const ,gl::Buffer *> const &)
FUNC 3a889 64 c std::list<std::pair<unsigned int const ,gl::Shader *>,std::allocator<std::pair<unsigned int const ,gl::Shader *> > >::_Buynode(std::_List_nod<std::pair<unsigned int const ,gl::Shader *>,std::allocator<std::pair<unsigned int const ,gl::Shader *> > >::_Node *,std::_List_nod<std::pair<unsigned int const ,gl::Shader *>,std::allocator<std::pair<unsigned int const ,gl::Shader *> > >::_Node *,std::pair<unsigned int const ,gl::Shader *> const &)
FUNC 3a8ed 44 4 std::vector<std::list<std::pair<unsigned int const ,gl::Program *>,std::allocator<std::pair<unsigned int const ,gl::Program *> > >::_Iterator<0>,std::allocator<std::list<std::pair<unsigned int const ,gl::Program *>,std::allocator<std::pair<unsigned int const ,gl::Program *> > >::_Iterator<0> > >::_Buy(unsigned int)
FUNC 3a931 64 c std::list<std::pair<unsigned int const ,gl::Program *>,std::allocator<std::pair<unsigned int const ,gl::Program *> > >::_Buynode(std::_List_nod<std::pair<unsigned int const ,gl::Program *>,std::allocator<std::pair<unsigned int const ,gl::Program *> > >::_Node *,std::_List_nod<std::pair<unsigned int const ,gl::Program *>,std::allocator<std::pair<unsigned int const ,gl::Program *> > >::_Node *,std::pair<unsigned int const ,gl::Program *> const &)
FUNC 3a995 64 c std::list<std::pair<unsigned int const ,gl::Texture *>,std::allocator<std::pair<unsigned int const ,gl::Texture *> > >::_Buynode(std::_List_nod<std::pair<unsigned int const ,gl::Texture *>,std::allocator<std::pair<unsigned int const ,gl::Texture *> > >::_Node *,std::_List_nod<std::pair<unsigned int const ,gl::Texture *>,std::allocator<std::pair<unsigned int const ,gl::Texture *> > >::_Node *,std::pair<unsigned int const ,gl::Texture *> const &)
FUNC 3a9f9 64 c std::list<std::pair<unsigned int const ,gl::Renderbuffer *>,std::allocator<std::pair<unsigned int const ,gl::Renderbuffer *> > >::_Buynode(std::_List_nod<std::pair<unsigned int const ,gl::Renderbuffer *>,std::allocator<std::pair<unsigned int const ,gl::Renderbuffer *> > >::_Node *,std::_List_nod<std::pair<unsigned int const ,gl::Renderbuffer *>,std::allocator<std::pair<unsigned int const ,gl::Renderbuffer *> > >::_Node *,std::pair<unsigned int const ,gl::Renderbuffer *> const &)
FUNC 3aa5d 28 c stdext::_Unchecked_move_backward<std::list<std::pair<unsigned int const ,gl::Fence *>,std::allocator<std::pair<unsigned int const ,gl::Fence *> > >::_Iterator<0> *,std::list<std::pair<unsigned int const ,gl::Fence *>,std::allocator<std::pair<unsigned int const ,gl::Fence *> > >::_Iterator<0> *>(std::list<std::pair<unsigned int const ,gl::Fence *>,std::allocator<std::pair<unsigned int const ,gl::Fence *> > >::_Iterator<0> *,std::list<std::pair<unsigned int const ,gl::Fence *>,std::allocator<std::pair<unsigned int const ,gl::Fence *> > >::_Iterator<0> *,std::list<std::pair<unsigned int const ,gl::Fence *>,std::allocator<std::pair<unsigned int const ,gl::Fence *> > >::_Iterator<0> *)
FUNC 3aa85 41 18 std::_Uninit_fill_n<std::list<std::pair<unsigned int const ,gl::Buffer *>,std::allocator<std::pair<unsigned int const ,gl::Buffer *> > >::_Iterator<0> *,unsigned int,std::list<std::pair<unsigned int const ,gl::Buffer *>,std::allocator<std::pair<unsigned int const ,gl::Buffer *> > >::_Iterator<0>,std::allocator<std::list<std::pair<unsigned int const ,gl::Buffer *>,std::allocator<std::pair<unsigned int const ,gl::Buffer *> > >::_Iterator<0> > >(std::list<std::pair<unsigned int const ,gl::Buffer *>,std::allocator<std::pair<unsigned int const ,gl::Buffer *> > >::_Iterator<0> *,unsigned int,std::list<std::pair<unsigned int const ,gl::Buffer *>,std::allocator<std::pair<unsigned int const ,gl::Buffer *> > >::_Iterator<0> const &,std::allocator<std::list<std::pair<unsigned int const ,gl::Buffer *>,std::allocator<std::pair<unsigned int const ,gl::Buffer *> > >::_Iterator<0> > &,std::_Nonscalar_ptr_iterator_tag,std::_Range_checked_iterator_tag)
FUNC 3aac6 41 18 std::_Uninit_fill_n<std::list<std::pair<unsigned int const ,gl::Shader *>,std::allocator<std::pair<unsigned int const ,gl::Shader *> > >::_Iterator<0> *,unsigned int,std::list<std::pair<unsigned int const ,gl::Shader *>,std::allocator<std::pair<unsigned int const ,gl::Shader *> > >::_Iterator<0>,std::allocator<std::list<std::pair<unsigned int const ,gl::Shader *>,std::allocator<std::pair<unsigned int const ,gl::Shader *> > >::_Iterator<0> > >(std::list<std::pair<unsigned int const ,gl::Shader *>,std::allocator<std::pair<unsigned int const ,gl::Shader *> > >::_Iterator<0> *,unsigned int,std::list<std::pair<unsigned int const ,gl::Shader *>,std::allocator<std::pair<unsigned int const ,gl::Shader *> > >::_Iterator<0> const &,std::allocator<std::list<std::pair<unsigned int const ,gl::Shader *>,std::allocator<std::pair<unsigned int const ,gl::Shader *> > >::_Iterator<0> > &,std::_Nonscalar_ptr_iterator_tag,std::_Range_checked_iterator_tag)
FUNC 3ab07 41 18 std::_Uninit_fill_n<std::list<std::pair<unsigned int const ,gl::Program *>,std::allocator<std::pair<unsigned int const ,gl::Program *> > >::_Iterator<0> *,unsigned int,std::list<std::pair<unsigned int const ,gl::Program *>,std::allocator<std::pair<unsigned int const ,gl::Program *> > >::_Iterator<0>,std::allocator<std::list<std::pair<unsigned int const ,gl::Program *>,std::allocator<std::pair<unsigned int const ,gl::Program *> > >::_Iterator<0> > >(std::list<std::pair<unsigned int const ,gl::Program *>,std::allocator<std::pair<unsigned int const ,gl::Program *> > >::_Iterator<0> *,unsigned int,std::list<std::pair<unsigned int const ,gl::Program *>,std::allocator<std::pair<unsigned int const ,gl::Program *> > >::_Iterator<0> const &,std::allocator<std::list<std::pair<unsigned int const ,gl::Program *>,std::allocator<std::pair<unsigned int const ,gl::Program *> > >::_Iterator<0> > &,std::_Nonscalar_ptr_iterator_tag,std::_Range_checked_iterator_tag)
FUNC 3ab48 41 18 std::_Uninit_fill_n<std::list<std::pair<unsigned int const ,gl::Texture *>,std::allocator<std::pair<unsigned int const ,gl::Texture *> > >::_Iterator<0> *,unsigned int,std::list<std::pair<unsigned int const ,gl::Texture *>,std::allocator<std::pair<unsigned int const ,gl::Texture *> > >::_Iterator<0>,std::allocator<std::list<std::pair<unsigned int const ,gl::Texture *>,std::allocator<std::pair<unsigned int const ,gl::Texture *> > >::_Iterator<0> > >(std::list<std::pair<unsigned int const ,gl::Texture *>,std::allocator<std::pair<unsigned int const ,gl::Texture *> > >::_Iterator<0> *,unsigned int,std::list<std::pair<unsigned int const ,gl::Texture *>,std::allocator<std::pair<unsigned int const ,gl::Texture *> > >::_Iterator<0> const &,std::allocator<std::list<std::pair<unsigned int const ,gl::Texture *>,std::allocator<std::pair<unsigned int const ,gl::Texture *> > >::_Iterator<0> > &,std::_Nonscalar_ptr_iterator_tag,std::_Range_checked_iterator_tag)
FUNC 3ab89 41 18 std::_Uninit_fill_n<std::list<std::pair<unsigned int const ,gl::Renderbuffer *>,std::allocator<std::pair<unsigned int const ,gl::Renderbuffer *> > >::_Iterator<0> *,unsigned int,std::list<std::pair<unsigned int const ,gl::Renderbuffer *>,std::allocator<std::pair<unsigned int const ,gl::Renderbuffer *> > >::_Iterator<0>,std::allocator<std::list<std::pair<unsigned int const ,gl::Renderbuffer *>,std::allocator<std::pair<unsigned int const ,gl::Renderbuffer *> > >::_Iterator<0> > >(std::list<std::pair<unsigned int const ,gl::Renderbuffer *>,std::allocator<std::pair<unsigned int const ,gl::Renderbuffer *> > >::_Iterator<0> *,unsigned int,std::list<std::pair<unsigned int const ,gl::Renderbuffer *>,std::allocator<std::pair<unsigned int const ,gl::Renderbuffer *> > >::_Iterator<0> const &,std::allocator<std::list<std::pair<unsigned int const ,gl::Renderbuffer *>,std::allocator<std::pair<unsigned int const ,gl::Renderbuffer *> > >::_Iterator<0> > &,std::_Nonscalar_ptr_iterator_tag,std::_Range_checked_iterator_tag)
FUNC 3abca 28 10 stdext::unchecked_uninitialized_copy<std::list<std::pair<unsigned int const ,gl::Buffer *>,std::allocator<std::pair<unsigned int const ,gl::Buffer *> > >::_Iterator<0> *,std::list<std::pair<unsigned int const ,gl::Buffer *>,std::allocator<std::pair<unsigned int const ,gl::Buffer *> > >::_Iterator<0> *,std::allocator<std::list<std::pair<unsigned int const ,gl::Buffer *>,std::allocator<std::pair<unsigned int const ,gl::Buffer *> > >::_Iterator<0> > >(std::list<std::pair<unsigned int const ,gl::Buffer *>,std::allocator<std::pair<unsigned int const ,gl::Buffer *> > >::_Iterator<0> *,std::list<std::pair<unsigned int const ,gl::Buffer *>,std::allocator<std::pair<unsigned int const ,gl::Buffer *> > >::_Iterator<0> *,std::list<std::pair<unsigned int const ,gl::Buffer *>,std::allocator<std::pair<unsigned int const ,gl::Buffer *> > >::_Iterator<0> *,std::allocator<std::list<std::pair<unsigned int const ,gl::Buffer *>,std::allocator<std::pair<unsigned int const ,gl::Buffer *> > >::_Iterator<0> > &)
FUNC 3abf2 28 10 stdext::unchecked_uninitialized_copy<std::list<std::pair<unsigned int const ,gl::Shader *>,std::allocator<std::pair<unsigned int const ,gl::Shader *> > >::_Iterator<0> *,std::list<std::pair<unsigned int const ,gl::Shader *>,std::allocator<std::pair<unsigned int const ,gl::Shader *> > >::_Iterator<0> *,std::allocator<std::list<std::pair<unsigned int const ,gl::Shader *>,std::allocator<std::pair<unsigned int const ,gl::Shader *> > >::_Iterator<0> > >(std::list<std::pair<unsigned int const ,gl::Shader *>,std::allocator<std::pair<unsigned int const ,gl::Shader *> > >::_Iterator<0> *,std::list<std::pair<unsigned int const ,gl::Shader *>,std::allocator<std::pair<unsigned int const ,gl::Shader *> > >::_Iterator<0> *,std::list<std::pair<unsigned int const ,gl::Shader *>,std::allocator<std::pair<unsigned int const ,gl::Shader *> > >::_Iterator<0> *,std::allocator<std::list<std::pair<unsigned int const ,gl::Shader *>,std::allocator<std::pair<unsigned int const ,gl::Shader *> > >::_Iterator<0> > &)
FUNC 3ac1a 28 10 stdext::unchecked_uninitialized_copy<std::list<std::pair<unsigned int const ,gl::Program *>,std::allocator<std::pair<unsigned int const ,gl::Program *> > >::_Iterator<0> *,std::list<std::pair<unsigned int const ,gl::Program *>,std::allocator<std::pair<unsigned int const ,gl::Program *> > >::_Iterator<0> *,std::allocator<std::list<std::pair<unsigned int const ,gl::Program *>,std::allocator<std::pair<unsigned int const ,gl::Program *> > >::_Iterator<0> > >(std::list<std::pair<unsigned int const ,gl::Program *>,std::allocator<std::pair<unsigned int const ,gl::Program *> > >::_Iterator<0> *,std::list<std::pair<unsigned int const ,gl::Program *>,std::allocator<std::pair<unsigned int const ,gl::Program *> > >::_Iterator<0> *,std::list<std::pair<unsigned int const ,gl::Program *>,std::allocator<std::pair<unsigned int const ,gl::Program *> > >::_Iterator<0> *,std::allocator<std::list<std::pair<unsigned int const ,gl::Program *>,std::allocator<std::pair<unsigned int const ,gl::Program *> > >::_Iterator<0> > &)
FUNC 3ac42 28 10 stdext::unchecked_uninitialized_copy<std::list<std::pair<unsigned int const ,gl::Texture *>,std::allocator<std::pair<unsigned int const ,gl::Texture *> > >::_Iterator<0> *,std::list<std::pair<unsigned int const ,gl::Texture *>,std::allocator<std::pair<unsigned int const ,gl::Texture *> > >::_Iterator<0> *,std::allocator<std::list<std::pair<unsigned int const ,gl::Texture *>,std::allocator<std::pair<unsigned int const ,gl::Texture *> > >::_Iterator<0> > >(std::list<std::pair<unsigned int const ,gl::Texture *>,std::allocator<std::pair<unsigned int const ,gl::Texture *> > >::_Iterator<0> *,std::list<std::pair<unsigned int const ,gl::Texture *>,std::allocator<std::pair<unsigned int const ,gl::Texture *> > >::_Iterator<0> *,std::list<std::pair<unsigned int const ,gl::Texture *>,std::allocator<std::pair<unsigned int const ,gl::Texture *> > >::_Iterator<0> *,std::allocator<std::list<std::pair<unsigned int const ,gl::Texture *>,std::allocator<std::pair<unsigned int const ,gl::Texture *> > >::_Iterator<0> > &)
FUNC 3ac6a 28 10 stdext::unchecked_uninitialized_copy<std::list<std::pair<unsigned int const ,gl::Renderbuffer *>,std::allocator<std::pair<unsigned int const ,gl::Renderbuffer *> > >::_Iterator<0> *,std::list<std::pair<unsigned int const ,gl::Renderbuffer *>,std::allocator<std::pair<unsigned int const ,gl::Renderbuffer *> > >::_Iterator<0> *,std::allocator<std::list<std::pair<unsigned int const ,gl::Renderbuffer *>,std::allocator<std::pair<unsigned int const ,gl::Renderbuffer *> > >::_Iterator<0> > >(std::list<std::pair<unsigned int const ,gl::Renderbuffer *>,std::allocator<std::pair<unsigned int const ,gl::Renderbuffer *> > >::_Iterator<0> *,std::list<std::pair<unsigned int const ,gl::Renderbuffer *>,std::allocator<std::pair<unsigned int const ,gl::Renderbuffer *> > >::_Iterator<0> *,std::list<std::pair<unsigned int const ,gl::Renderbuffer *>,std::allocator<std::pair<unsigned int const ,gl::Renderbuffer *> > >::_Iterator<0> *,std::allocator<std::list<std::pair<unsigned int const ,gl::Renderbuffer *>,std::allocator<std::pair<unsigned int const ,gl::Renderbuffer *> > >::_Iterator<0> > &)
FUNC 3ac92 55 4 stdext::_Hash<stdext::_Hmap_traits<unsigned int,gl::Program *,stdext::hash_compare<unsigned int,std::less<unsigned int> >,std::allocator<std::pair<unsigned int const ,gl::Program *> >,0> >::lower_bound(unsigned int const &)
FUNC 3ace7 2f 8 std::list<std::pair<unsigned int const ,gl::Buffer *>,std::allocator<std::pair<unsigned int const ,gl::Buffer *> > >::_Insert(std::list<std::pair<unsigned int const ,gl::Buffer *>,std::allocator<std::pair<unsigned int const ,gl::Buffer *> > >::_Iterator<0>,std::pair<unsigned int const ,gl::Buffer *> const &)
FUNC 3ad16 2f 8 std::list<std::pair<unsigned int const ,gl::Shader *>,std::allocator<std::pair<unsigned int const ,gl::Shader *> > >::_Insert(std::list<std::pair<unsigned int const ,gl::Shader *>,std::allocator<std::pair<unsigned int const ,gl::Shader *> > >::_Iterator<0>,std::pair<unsigned int const ,gl::Shader *> const &)
FUNC 3ad45 2f 8 std::list<std::pair<unsigned int const ,gl::Program *>,std::allocator<std::pair<unsigned int const ,gl::Program *> > >::_Insert(std::list<std::pair<unsigned int const ,gl::Program *>,std::allocator<std::pair<unsigned int const ,gl::Program *> > >::_Iterator<0>,std::pair<unsigned int const ,gl::Program *> const &)
FUNC 3ad74 2f 8 std::list<std::pair<unsigned int const ,gl::Texture *>,std::allocator<std::pair<unsigned int const ,gl::Texture *> > >::_Insert(std::list<std::pair<unsigned int const ,gl::Texture *>,std::allocator<std::pair<unsigned int const ,gl::Texture *> > >::_Iterator<0>,std::pair<unsigned int const ,gl::Texture *> const &)
FUNC 3ada3 2f 8 std::list<std::pair<unsigned int const ,gl::Renderbuffer *>,std::allocator<std::pair<unsigned int const ,gl::Renderbuffer *> > >::_Insert(std::list<std::pair<unsigned int const ,gl::Renderbuffer *>,std::allocator<std::pair<unsigned int const ,gl::Renderbuffer *> > >::_Iterator<0>,std::pair<unsigned int const ,gl::Renderbuffer *> const &)
FUNC 3add2 28 10 stdext::unchecked_uninitialized_fill_n<std::list<std::pair<unsigned int const ,gl::Buffer *>,std::allocator<std::pair<unsigned int const ,gl::Buffer *> > >::_Iterator<0> *,unsigned int,std::list<std::pair<unsigned int const ,gl::Buffer *>,std::allocator<std::pair<unsigned int const ,gl::Buffer *> > >::_Iterator<0>,std::allocator<std::list<std::pair<unsigned int const ,gl::Buffer *>,std::allocator<std::pair<unsigned int const ,gl::Buffer *> > >::_Iterator<0> > >(std::list<std::pair<unsigned int const ,gl::Buffer *>,std::allocator<std::pair<unsigned int const ,gl::Buffer *> > >::_Iterator<0> *,unsigned int,std::list<std::pair<unsigned int const ,gl::Buffer *>,std::allocator<std::pair<unsigned int const ,gl::Buffer *> > >::_Iterator<0> const &,std::allocator<std::list<std::pair<unsigned int const ,gl::Buffer *>,std::allocator<std::pair<unsigned int const ,gl::Buffer *> > >::_Iterator<0> > &)
FUNC 3adfa 28 10 stdext::unchecked_uninitialized_fill_n<std::list<std::pair<unsigned int const ,gl::Shader *>,std::allocator<std::pair<unsigned int const ,gl::Shader *> > >::_Iterator<0> *,unsigned int,std::list<std::pair<unsigned int const ,gl::Shader *>,std::allocator<std::pair<unsigned int const ,gl::Shader *> > >::_Iterator<0>,std::allocator<std::list<std::pair<unsigned int const ,gl::Shader *>,std::allocator<std::pair<unsigned int const ,gl::Shader *> > >::_Iterator<0> > >(std::list<std::pair<unsigned int const ,gl::Shader *>,std::allocator<std::pair<unsigned int const ,gl::Shader *> > >::_Iterator<0> *,unsigned int,std::list<std::pair<unsigned int const ,gl::Shader *>,std::allocator<std::pair<unsigned int const ,gl::Shader *> > >::_Iterator<0> const &,std::allocator<std::list<std::pair<unsigned int const ,gl::Shader *>,std::allocator<std::pair<unsigned int const ,gl::Shader *> > >::_Iterator<0> > &)
FUNC 3ae22 28 10 stdext::unchecked_uninitialized_fill_n<std::list<std::pair<unsigned int const ,gl::Program *>,std::allocator<std::pair<unsigned int const ,gl::Program *> > >::_Iterator<0> *,unsigned int,std::list<std::pair<unsigned int const ,gl::Program *>,std::allocator<std::pair<unsigned int const ,gl::Program *> > >::_Iterator<0>,std::allocator<std::list<std::pair<unsigned int const ,gl::Program *>,std::allocator<std::pair<unsigned int const ,gl::Program *> > >::_Iterator<0> > >(std::list<std::pair<unsigned int const ,gl::Program *>,std::allocator<std::pair<unsigned int const ,gl::Program *> > >::_Iterator<0> *,unsigned int,std::list<std::pair<unsigned int const ,gl::Program *>,std::allocator<std::pair<unsigned int const ,gl::Program *> > >::_Iterator<0> const &,std::allocator<std::list<std::pair<unsigned int const ,gl::Program *>,std::allocator<std::pair<unsigned int const ,gl::Program *> > >::_Iterator<0> > &)
FUNC 3ae4a 28 10 stdext::unchecked_uninitialized_fill_n<std::list<std::pair<unsigned int const ,gl::Texture *>,std::allocator<std::pair<unsigned int const ,gl::Texture *> > >::_Iterator<0> *,unsigned int,std::list<std::pair<unsigned int const ,gl::Texture *>,std::allocator<std::pair<unsigned int const ,gl::Texture *> > >::_Iterator<0>,std::allocator<std::list<std::pair<unsigned int const ,gl::Texture *>,std::allocator<std::pair<unsigned int const ,gl::Texture *> > >::_Iterator<0> > >(std::list<std::pair<unsigned int const ,gl::Texture *>,std::allocator<std::pair<unsigned int const ,gl::Texture *> > >::_Iterator<0> *,unsigned int,std::list<std::pair<unsigned int const ,gl::Texture *>,std::allocator<std::pair<unsigned int const ,gl::Texture *> > >::_Iterator<0> const &,std::allocator<std::list<std::pair<unsigned int const ,gl::Texture *>,std::allocator<std::pair<unsigned int const ,gl::Texture *> > >::_Iterator<0> > &)
FUNC 3ae72 28 10 stdext::unchecked_uninitialized_fill_n<std::list<std::pair<unsigned int const ,gl::Renderbuffer *>,std::allocator<std::pair<unsigned int const ,gl::Renderbuffer *> > >::_Iterator<0> *,unsigned int,std::list<std::pair<unsigned int const ,gl::Renderbuffer *>,std::allocator<std::pair<unsigned int const ,gl::Renderbuffer *> > >::_Iterator<0>,std::allocator<std::list<std::pair<unsigned int const ,gl::Renderbuffer *>,std::allocator<std::pair<unsigned int const ,gl::Renderbuffer *> > >::_Iterator<0> > >(std::list<std::pair<unsigned int const ,gl::Renderbuffer *>,std::allocator<std::pair<unsigned int const ,gl::Renderbuffer *> > >::_Iterator<0> *,unsigned int,std::list<std::pair<unsigned int const ,gl::Renderbuffer *>,std::allocator<std::pair<unsigned int const ,gl::Renderbuffer *> > >::_Iterator<0> const &,std::allocator<std::list<std::pair<unsigned int const ,gl::Renderbuffer *>,std::allocator<std::pair<unsigned int const ,gl::Renderbuffer *> > >::_Iterator<0> > &)
FUNC 3ae9a 15 4 std::list<std::pair<unsigned int const ,gl::Buffer *>,std::allocator<std::pair<unsigned int const ,gl::Buffer *> > >::list<std::pair<unsigned int const ,gl::Buffer *>,std::allocator<std::pair<unsigned int const ,gl::Buffer *> > >(std::allocator<std::pair<unsigned int const ,gl::Buffer *> > const &)
FUNC 3aeaf 1c 8 std::list<std::pair<unsigned int const ,gl::Buffer *>,std::allocator<std::pair<unsigned int const ,gl::Buffer *> > >::insert(std::list<std::pair<unsigned int const ,gl::Buffer *>,std::allocator<std::pair<unsigned int const ,gl::Buffer *> > >::_Iterator<0>,std::pair<unsigned int const ,gl::Buffer *> const &)
FUNC 3aecb 15 4 std::list<std::pair<unsigned int const ,gl::Shader *>,std::allocator<std::pair<unsigned int const ,gl::Shader *> > >::list<std::pair<unsigned int const ,gl::Shader *>,std::allocator<std::pair<unsigned int const ,gl::Shader *> > >(std::allocator<std::pair<unsigned int const ,gl::Shader *> > const &)
FUNC 3aee0 1c 8 std::list<std::pair<unsigned int const ,gl::Shader *>,std::allocator<std::pair<unsigned int const ,gl::Shader *> > >::insert(std::list<std::pair<unsigned int const ,gl::Shader *>,std::allocator<std::pair<unsigned int const ,gl::Shader *> > >::_Iterator<0>,std::pair<unsigned int const ,gl::Shader *> const &)
FUNC 3aefc 15 4 std::list<std::pair<unsigned int const ,gl::Program *>,std::allocator<std::pair<unsigned int const ,gl::Program *> > >::list<std::pair<unsigned int const ,gl::Program *>,std::allocator<std::pair<unsigned int const ,gl::Program *> > >(std::allocator<std::pair<unsigned int const ,gl::Program *> > const &)
FUNC 3af11 1c 8 std::list<std::pair<unsigned int const ,gl::Program *>,std::allocator<std::pair<unsigned int const ,gl::Program *> > >::insert(std::list<std::pair<unsigned int const ,gl::Program *>,std::allocator<std::pair<unsigned int const ,gl::Program *> > >::_Iterator<0>,std::pair<unsigned int const ,gl::Program *> const &)
FUNC 3af2d 15 4 std::list<std::pair<unsigned int const ,gl::Texture *>,std::allocator<std::pair<unsigned int const ,gl::Texture *> > >::list<std::pair<unsigned int const ,gl::Texture *>,std::allocator<std::pair<unsigned int const ,gl::Texture *> > >(std::allocator<std::pair<unsigned int const ,gl::Texture *> > const &)
FUNC 3af42 1c 8 std::list<std::pair<unsigned int const ,gl::Texture *>,std::allocator<std::pair<unsigned int const ,gl::Texture *> > >::insert(std::list<std::pair<unsigned int const ,gl::Texture *>,std::allocator<std::pair<unsigned int const ,gl::Texture *> > >::_Iterator<0>,std::pair<unsigned int const ,gl::Texture *> const &)
FUNC 3af5e 15 4 std::list<std::pair<unsigned int const ,gl::Renderbuffer *>,std::allocator<std::pair<unsigned int const ,gl::Renderbuffer *> > >::list<std::pair<unsigned int const ,gl::Renderbuffer *>,std::allocator<std::pair<unsigned int const ,gl::Renderbuffer *> > >(std::allocator<std::pair<unsigned int const ,gl::Renderbuffer *> > const &)
FUNC 3af73 1c 8 std::list<std::pair<unsigned int const ,gl::Renderbuffer *>,std::allocator<std::pair<unsigned int const ,gl::Renderbuffer *> > >::insert(std::list<std::pair<unsigned int const ,gl::Renderbuffer *>,std::allocator<std::pair<unsigned int const ,gl::Renderbuffer *> > >::_Iterator<0>,std::pair<unsigned int const ,gl::Renderbuffer *> const &)
FUNC 3af8f 21 c std::vector<std::list<std::pair<unsigned int const ,gl::Buffer *>,std::allocator<std::pair<unsigned int const ,gl::Buffer *> > >::_Iterator<0>,std::allocator<std::list<std::pair<unsigned int const ,gl::Buffer *>,std::allocator<std::pair<unsigned int const ,gl::Buffer *> > >::_Iterator<0> > >::_Ufill(std::list<std::pair<unsigned int const ,gl::Buffer *>,std::allocator<std::pair<unsigned int const ,gl::Buffer *> > >::_Iterator<0> *,unsigned int,std::list<std::pair<unsigned int const ,gl::Buffer *>,std::allocator<std::pair<unsigned int const ,gl::Buffer *> > >::_Iterator<0> const &)
FUNC 3afb0 21 c std::vector<std::list<std::pair<unsigned int const ,gl::Shader *>,std::allocator<std::pair<unsigned int const ,gl::Shader *> > >::_Iterator<0>,std::allocator<std::list<std::pair<unsigned int const ,gl::Shader *>,std::allocator<std::pair<unsigned int const ,gl::Shader *> > >::_Iterator<0> > >::_Ufill(std::list<std::pair<unsigned int const ,gl::Shader *>,std::allocator<std::pair<unsigned int const ,gl::Shader *> > >::_Iterator<0> *,unsigned int,std::list<std::pair<unsigned int const ,gl::Shader *>,std::allocator<std::pair<unsigned int const ,gl::Shader *> > >::_Iterator<0> const &)
FUNC 3afd1 21 c std::vector<std::list<std::pair<unsigned int const ,gl::Program *>,std::allocator<std::pair<unsigned int const ,gl::Program *> > >::_Iterator<0>,std::allocator<std::list<std::pair<unsigned int const ,gl::Program *>,std::allocator<std::pair<unsigned int const ,gl::Program *> > >::_Iterator<0> > >::_Ufill(std::list<std::pair<unsigned int const ,gl::Program *>,std::allocator<std::pair<unsigned int const ,gl::Program *> > >::_Iterator<0> *,unsigned int,std::list<std::pair<unsigned int const ,gl::Program *>,std::allocator<std::pair<unsigned int const ,gl::Program *> > >::_Iterator<0> const &)
FUNC 3aff2 21 c std::vector<std::list<std::pair<unsigned int const ,gl::Texture *>,std::allocator<std::pair<unsigned int const ,gl::Texture *> > >::_Iterator<0>,std::allocator<std::list<std::pair<unsigned int const ,gl::Texture *>,std::allocator<std::pair<unsigned int const ,gl::Texture *> > >::_Iterator<0> > >::_Ufill(std::list<std::pair<unsigned int const ,gl::Texture *>,std::allocator<std::pair<unsigned int const ,gl::Texture *> > >::_Iterator<0> *,unsigned int,std::list<std::pair<unsigned int const ,gl::Texture *>,std::allocator<std::pair<unsigned int const ,gl::Texture *> > >::_Iterator<0> const &)
FUNC 3b013 21 c std::vector<std::list<std::pair<unsigned int const ,gl::Renderbuffer *>,std::allocator<std::pair<unsigned int const ,gl::Renderbuffer *> > >::_Iterator<0>,std::allocator<std::list<std::pair<unsigned int const ,gl::Renderbuffer *>,std::allocator<std::pair<unsigned int const ,gl::Renderbuffer *> > >::_Iterator<0> > >::_Ufill(std::list<std::pair<unsigned int const ,gl::Renderbuffer *>,std::allocator<std::pair<unsigned int const ,gl::Renderbuffer *> > >::_Iterator<0> *,unsigned int,std::list<std::pair<unsigned int const ,gl::Renderbuffer *>,std::allocator<std::pair<unsigned int const ,gl::Renderbuffer *> > >::_Iterator<0> const &)
FUNC 3b034 4d 4 gl::ResourceManager::deleteBuffer(unsigned int)
FUNC 3b081 67 4 gl::ResourceManager::deleteShader(unsigned int)
FUNC 3b0e8 6f 4 gl::ResourceManager::deleteProgram(unsigned int)
FUNC 3b157 56 4 gl::ResourceManager::deleteTexture(unsigned int)
FUNC 3b1ad 56 4 gl::ResourceManager::deleteRenderbuffer(unsigned int)
FUNC 3b203 2b 4 gl::ResourceManager::getBuffer(unsigned int)
FUNC 3b22e 2b 4 gl::ResourceManager::getShader(unsigned int)
FUNC 3b259 37 4 gl::ResourceManager::getTexture(unsigned int)
FUNC 3b290 2b 4 gl::ResourceManager::getProgram(unsigned int)
FUNC 3b2bb 31 4 gl::ResourceManager::getRenderbuffer(unsigned int)
FUNC 3b2ec 48 18 std::list<std::pair<unsigned int const ,gl::Buffer *>,std::allocator<std::pair<unsigned int const ,gl::Buffer *> > >::_Splice(std::list<std::pair<unsigned int const ,gl::Buffer *>,std::allocator<std::pair<unsigned int const ,gl::Buffer *> > >::_Iterator<0>,std::list<std::pair<unsigned int const ,gl::Buffer *>,std::allocator<std::pair<unsigned int const ,gl::Buffer *> > > &,std::list<std::pair<unsigned int const ,gl::Buffer *>,std::allocator<std::pair<unsigned int const ,gl::Buffer *> > >::_Iterator<0>,std::list<std::pair<unsigned int const ,gl::Buffer *>,std::allocator<std::pair<unsigned int const ,gl::Buffer *> > >::_Iterator<0>,unsigned int,bool)
FUNC 3b334 52 8 std::vector<std::list<std::pair<unsigned int const ,gl::Buffer *>,std::allocator<std::pair<unsigned int const ,gl::Buffer *> > >::_Iterator<0>,std::allocator<std::list<std::pair<unsigned int const ,gl::Buffer *>,std::allocator<std::pair<unsigned int const ,gl::Buffer *> > >::_Iterator<0> > >::_Construct_n(unsigned int,std::list<std::pair<unsigned int const ,gl::Buffer *>,std::allocator<std::pair<unsigned int const ,gl::Buffer *> > >::_Iterator<0> const &)
FUNC 3b386 52 8 std::vector<std::list<std::pair<unsigned int const ,gl::Shader *>,std::allocator<std::pair<unsigned int const ,gl::Shader *> > >::_Iterator<0>,std::allocator<std::list<std::pair<unsigned int const ,gl::Shader *>,std::allocator<std::pair<unsigned int const ,gl::Shader *> > >::_Iterator<0> > >::_Construct_n(unsigned int,std::list<std::pair<unsigned int const ,gl::Shader *>,std::allocator<std::pair<unsigned int const ,gl::Shader *> > >::_Iterator<0> const &)
FUNC 3b3d8 52 8 std::vector<std::list<std::pair<unsigned int const ,gl::Program *>,std::allocator<std::pair<unsigned int const ,gl::Program *> > >::_Iterator<0>,std::allocator<std::list<std::pair<unsigned int const ,gl::Program *>,std::allocator<std::pair<unsigned int const ,gl::Program *> > >::_Iterator<0> > >::_Construct_n(unsigned int,std::list<std::pair<unsigned int const ,gl::Program *>,std::allocator<std::pair<unsigned int const ,gl::Program *> > >::_Iterator<0> const &)
FUNC 3b42a 52 8 std::vector<std::list<std::pair<unsigned int const ,gl::Texture *>,std::allocator<std::pair<unsigned int const ,gl::Texture *> > >::_Iterator<0>,std::allocator<std::list<std::pair<unsigned int const ,gl::Texture *>,std::allocator<std::pair<unsigned int const ,gl::Texture *> > >::_Iterator<0> > >::_Construct_n(unsigned int,std::list<std::pair<unsigned int const ,gl::Texture *>,std::allocator<std::pair<unsigned int const ,gl::Texture *> > >::_Iterator<0> const &)
FUNC 3b47c 52 8 std::vector<std::list<std::pair<unsigned int const ,gl::Renderbuffer *>,std::allocator<std::pair<unsigned int const ,gl::Renderbuffer *> > >::_Iterator<0>,std::allocator<std::list<std::pair<unsigned int const ,gl::Renderbuffer *>,std::allocator<std::pair<unsigned int const ,gl::Renderbuffer *> > >::_Iterator<0> > >::_Construct_n(unsigned int,std::list<std::pair<unsigned int const ,gl::Renderbuffer *>,std::allocator<std::pair<unsigned int const ,gl::Renderbuffer *> > >::_Iterator<0> const &)
FUNC 3b4ce 18 c std::vector<std::list<std::pair<unsigned int const ,gl::Buffer *>,std::allocator<std::pair<unsigned int const ,gl::Buffer *> > >::_Iterator<0>,std::allocator<std::list<std::pair<unsigned int const ,gl::Buffer *>,std::allocator<std::pair<unsigned int const ,gl::Buffer *> > >::_Iterator<0> > >::_Umove<std::list<std::pair<unsigned int const ,gl::Buffer *>,std::allocator<std::pair<unsigned int const ,gl::Buffer *> > >::_Iterator<0> *>(std::list<std::pair<unsigned int const ,gl::Buffer *>,std::allocator<std::pair<unsigned int const ,gl::Buffer *> > >::_Iterator<0> *,std::list<std::pair<unsigned int const ,gl::Buffer *>,std::allocator<std::pair<unsigned int const ,gl::Buffer *> > >::_Iterator<0> *,std::list<std::pair<unsigned int const ,gl::Buffer *>,std::allocator<std::pair<unsigned int const ,gl::Buffer *> > >::_Iterator<0> *)
FUNC 3b4e6 18 c std::vector<std::list<std::pair<unsigned int const ,gl::Shader *>,std::allocator<std::pair<unsigned int const ,gl::Shader *> > >::_Iterator<0>,std::allocator<std::list<std::pair<unsigned int const ,gl::Shader *>,std::allocator<std::pair<unsigned int const ,gl::Shader *> > >::_Iterator<0> > >::_Umove<std::list<std::pair<unsigned int const ,gl::Shader *>,std::allocator<std::pair<unsigned int const ,gl::Shader *> > >::_Iterator<0> *>(std::list<std::pair<unsigned int const ,gl::Shader *>,std::allocator<std::pair<unsigned int const ,gl::Shader *> > >::_Iterator<0> *,std::list<std::pair<unsigned int const ,gl::Shader *>,std::allocator<std::pair<unsigned int const ,gl::Shader *> > >::_Iterator<0> *,std::list<std::pair<unsigned int const ,gl::Shader *>,std::allocator<std::pair<unsigned int const ,gl::Shader *> > >::_Iterator<0> *)
FUNC 3b4fe 18 c std::vector<std::list<std::pair<unsigned int const ,gl::Program *>,std::allocator<std::pair<unsigned int const ,gl::Program *> > >::_Iterator<0>,std::allocator<std::list<std::pair<unsigned int const ,gl::Program *>,std::allocator<std::pair<unsigned int const ,gl::Program *> > >::_Iterator<0> > >::_Umove<std::list<std::pair<unsigned int const ,gl::Program *>,std::allocator<std::pair<unsigned int const ,gl::Program *> > >::_Iterator<0> *>(std::list<std::pair<unsigned int const ,gl::Program *>,std::allocator<std::pair<unsigned int const ,gl::Program *> > >::_Iterator<0> *,std::list<std::pair<unsigned int const ,gl::Program *>,std::allocator<std::pair<unsigned int const ,gl::Program *> > >::_Iterator<0> *,std::list<std::pair<unsigned int const ,gl::Program *>,std::allocator<std::pair<unsigned int const ,gl::Program *> > >::_Iterator<0> *)
FUNC 3b516 18 c std::vector<std::list<std::pair<unsigned int const ,gl::Texture *>,std::allocator<std::pair<unsigned int const ,gl::Texture *> > >::_Iterator<0>,std::allocator<std::list<std::pair<unsigned int const ,gl::Texture *>,std::allocator<std::pair<unsigned int const ,gl::Texture *> > >::_Iterator<0> > >::_Umove<std::list<std::pair<unsigned int const ,gl::Texture *>,std::allocator<std::pair<unsigned int const ,gl::Texture *> > >::_Iterator<0> *>(std::list<std::pair<unsigned int const ,gl::Texture *>,std::allocator<std::pair<unsigned int const ,gl::Texture *> > >::_Iterator<0> *,std::list<std::pair<unsigned int const ,gl::Texture *>,std::allocator<std::pair<unsigned int const ,gl::Texture *> > >::_Iterator<0> *,std::list<std::pair<unsigned int const ,gl::Texture *>,std::allocator<std::pair<unsigned int const ,gl::Texture *> > >::_Iterator<0> *)
FUNC 3b52e 18 c std::vector<std::list<std::pair<unsigned int const ,gl::Renderbuffer *>,std::allocator<std::pair<unsigned int const ,gl::Renderbuffer *> > >::_Iterator<0>,std::allocator<std::list<std::pair<unsigned int const ,gl::Renderbuffer *>,std::allocator<std::pair<unsigned int const ,gl::Renderbuffer *> > >::_Iterator<0> > >::_Umove<std::list<std::pair<unsigned int const ,gl::Renderbuffer *>,std::allocator<std::pair<unsigned int const ,gl::Renderbuffer *> > >::_Iterator<0> *>(std::list<std::pair<unsigned int const ,gl::Renderbuffer *>,std::allocator<std::pair<unsigned int const ,gl::Renderbuffer *> > >::_Iterator<0> *,std::list<std::pair<unsigned int const ,gl::Renderbuffer *>,std::allocator<std::pair<unsigned int const ,gl::Renderbuffer *> > >::_Iterator<0> *,std::list<std::pair<unsigned int const ,gl::Renderbuffer *>,std::allocator<std::pair<unsigned int const ,gl::Renderbuffer *> > >::_Iterator<0> *)
FUNC 3b546 1b5 c std::vector<std::list<std::pair<unsigned int const ,gl::Buffer *>,std::allocator<std::pair<unsigned int const ,gl::Buffer *> > >::_Iterator<0>,std::allocator<std::list<std::pair<unsigned int const ,gl::Buffer *>,std::allocator<std::pair<unsigned int const ,gl::Buffer *> > >::_Iterator<0> > >::_Insert_n(std::_Vector_iterator<std::list<std::pair<unsigned int const ,gl::Buffer *>,std::allocator<std::pair<unsigned int const ,gl::Buffer *> > >::_Iterator<0>,std::allocator<std::list<std::pair<unsigned int const ,gl::Buffer *>,std::allocator<std::pair<unsigned int const ,gl::Buffer *> > >::_Iterator<0> > >,unsigned int,std::list<std::pair<unsigned int const ,gl::Buffer *>,std::allocator<std::pair<unsigned int const ,gl::Buffer *> > >::_Iterator<0> const &)
FUNC 3b6fb 1b5 c std::vector<std::list<std::pair<unsigned int const ,gl::Shader *>,std::allocator<std::pair<unsigned int const ,gl::Shader *> > >::_Iterator<0>,std::allocator<std::list<std::pair<unsigned int const ,gl::Shader *>,std::allocator<std::pair<unsigned int const ,gl::Shader *> > >::_Iterator<0> > >::_Insert_n(std::_Vector_iterator<std::list<std::pair<unsigned int const ,gl::Shader *>,std::allocator<std::pair<unsigned int const ,gl::Shader *> > >::_Iterator<0>,std::allocator<std::list<std::pair<unsigned int const ,gl::Shader *>,std::allocator<std::pair<unsigned int const ,gl::Shader *> > >::_Iterator<0> > >,unsigned int,std::list<std::pair<unsigned int const ,gl::Shader *>,std::allocator<std::pair<unsigned int const ,gl::Shader *> > >::_Iterator<0> const &)
FUNC 3b8b0 1b5 c std::vector<std::list<std::pair<unsigned int const ,gl::Program *>,std::allocator<std::pair<unsigned int const ,gl::Program *> > >::_Iterator<0>,std::allocator<std::list<std::pair<unsigned int const ,gl::Program *>,std::allocator<std::pair<unsigned int const ,gl::Program *> > >::_Iterator<0> > >::_Insert_n(std::_Vector_iterator<std::list<std::pair<unsigned int const ,gl::Program *>,std::allocator<std::pair<unsigned int const ,gl::Program *> > >::_Iterator<0>,std::allocator<std::list<std::pair<unsigned int const ,gl::Program *>,std::allocator<std::pair<unsigned int const ,gl::Program *> > >::_Iterator<0> > >,unsigned int,std::list<std::pair<unsigned int const ,gl::Program *>,std::allocator<std::pair<unsigned int const ,gl::Program *> > >::_Iterator<0> const &)
FUNC 3ba65 1b5 c std::vector<std::list<std::pair<unsigned int const ,gl::Texture *>,std::allocator<std::pair<unsigned int const ,gl::Texture *> > >::_Iterator<0>,std::allocator<std::list<std::pair<unsigned int const ,gl::Texture *>,std::allocator<std::pair<unsigned int const ,gl::Texture *> > >::_Iterator<0> > >::_Insert_n(std::_Vector_iterator<std::list<std::pair<unsigned int const ,gl::Texture *>,std::allocator<std::pair<unsigned int const ,gl::Texture *> > >::_Iterator<0>,std::allocator<std::list<std::pair<unsigned int const ,gl::Texture *>,std::allocator<std::pair<unsigned int const ,gl::Texture *> > >::_Iterator<0> > >,unsigned int,std::list<std::pair<unsigned int const ,gl::Texture *>,std::allocator<std::pair<unsigned int const ,gl::Texture *> > >::_Iterator<0> const &)
FUNC 3bc1a 1b5 c std::vector<std::list<std::pair<unsigned int const ,gl::Renderbuffer *>,std::allocator<std::pair<unsigned int const ,gl::Renderbuffer *> > >::_Iterator<0>,std::allocator<std::list<std::pair<unsigned int const ,gl::Renderbuffer *>,std::allocator<std::pair<unsigned int const ,gl::Renderbuffer *> > >::_Iterator<0> > >::_Insert_n(std::_Vector_iterator<std::list<std::pair<unsigned int const ,gl::Renderbuffer *>,std::allocator<std::pair<unsigned int const ,gl::Renderbuffer *> > >::_Iterator<0>,std::allocator<std::list<std::pair<unsigned int const ,gl::Renderbuffer *>,std::allocator<std::pair<unsigned int const ,gl::Renderbuffer *> > >::_Iterator<0> > >,unsigned int,std::list<std::pair<unsigned int const ,gl::Renderbuffer *>,std::allocator<std::pair<unsigned int const ,gl::Renderbuffer *> > >::_Iterator<0> const &)
FUNC 3bdcf 14 0 stdext::_Hash<stdext::_Hmap_traits<unsigned int,gl::Shader *,stdext::hash_compare<unsigned int,std::less<unsigned int> >,std::allocator<std::pair<unsigned int const ,gl::Shader *> >,0> >::~_Hash<stdext::_Hmap_traits<unsigned int,gl::Shader *,stdext::hash_compare<unsigned int,std::less<unsigned int> >,std::allocator<std::pair<unsigned int const ,gl::Shader *> >,0> >()
FUNC 3bde3 3c 8 stdext::_Hash<stdext::_Hmap_traits<unsigned int,gl::Buffer *,stdext::hash_compare<unsigned int,std::less<unsigned int> >,std::allocator<std::pair<unsigned int const ,gl::Buffer *> >,0> >::_Hash<stdext::_Hmap_traits<unsigned int,gl::Buffer *,stdext::hash_compare<unsigned int,std::less<unsigned int> >,std::allocator<std::pair<unsigned int const ,gl::Buffer *> >,0> >(stdext::hash_compare<unsigned int,std::less<unsigned int> > const &,std::allocator<std::pair<unsigned int const ,gl::Buffer *> > const &)
FUNC 3be1f 3c 8 stdext::_Hash<stdext::_Hmap_traits<unsigned int,gl::Shader *,stdext::hash_compare<unsigned int,std::less<unsigned int> >,std::allocator<std::pair<unsigned int const ,gl::Shader *> >,0> >::_Hash<stdext::_Hmap_traits<unsigned int,gl::Shader *,stdext::hash_compare<unsigned int,std::less<unsigned int> >,std::allocator<std::pair<unsigned int const ,gl::Shader *> >,0> >(stdext::hash_compare<unsigned int,std::less<unsigned int> > const &,std::allocator<std::pair<unsigned int const ,gl::Shader *> > const &)
FUNC 3be5b 3c 8 stdext::_Hash<stdext::_Hmap_traits<unsigned int,gl::Program *,stdext::hash_compare<unsigned int,std::less<unsigned int> >,std::allocator<std::pair<unsigned int const ,gl::Program *> >,0> >::_Hash<stdext::_Hmap_traits<unsigned int,gl::Program *,stdext::hash_compare<unsigned int,std::less<unsigned int> >,std::allocator<std::pair<unsigned int const ,gl::Program *> >,0> >(stdext::hash_compare<unsigned int,std::less<unsigned int> > const &,std::allocator<std::pair<unsigned int const ,gl::Program *> > const &)
FUNC 3be97 3c 8 stdext::_Hash<stdext::_Hmap_traits<unsigned int,gl::Texture *,stdext::hash_compare<unsigned int,std::less<unsigned int> >,std::allocator<std::pair<unsigned int const ,gl::Texture *> >,0> >::_Hash<stdext::_Hmap_traits<unsigned int,gl::Texture *,stdext::hash_compare<unsigned int,std::less<unsigned int> >,std::allocator<std::pair<unsigned int const ,gl::Texture *> >,0> >(stdext::hash_compare<unsigned int,std::less<unsigned int> > const &,std::allocator<std::pair<unsigned int const ,gl::Texture *> > const &)
FUNC 3bed3 3c 8 stdext::_Hash<stdext::_Hmap_traits<unsigned int,gl::Renderbuffer *,stdext::hash_compare<unsigned int,std::less<unsigned int> >,std::allocator<std::pair<unsigned int const ,gl::Renderbuffer *> >,0> >::_Hash<stdext::_Hmap_traits<unsigned int,gl::Renderbuffer *,stdext::hash_compare<unsigned int,std::less<unsigned int> >,std::allocator<std::pair<unsigned int const ,gl::Renderbuffer *> >,0> >(stdext::hash_compare<unsigned int,std::less<unsigned int> > const &,std::allocator<std::pair<unsigned int const ,gl::Renderbuffer *> > const &)
FUNC 3bf0f 55 8 std::vector<std::list<std::pair<unsigned int const ,gl::Buffer *>,std::allocator<std::pair<unsigned int const ,gl::Buffer *> > >::_Iterator<0>,std::allocator<std::list<std::pair<unsigned int const ,gl::Buffer *>,std::allocator<std::pair<unsigned int const ,gl::Buffer *> > >::_Iterator<0> > >::resize(unsigned int,std::list<std::pair<unsigned int const ,gl::Buffer *>,std::allocator<std::pair<unsigned int const ,gl::Buffer *> > >::_Iterator<0>)
FUNC 3bf64 55 8 std::vector<std::list<std::pair<unsigned int const ,gl::Shader *>,std::allocator<std::pair<unsigned int const ,gl::Shader *> > >::_Iterator<0>,std::allocator<std::list<std::pair<unsigned int const ,gl::Shader *>,std::allocator<std::pair<unsigned int const ,gl::Shader *> > >::_Iterator<0> > >::resize(unsigned int,std::list<std::pair<unsigned int const ,gl::Shader *>,std::allocator<std::pair<unsigned int const ,gl::Shader *> > >::_Iterator<0>)
FUNC 3bfb9 55 8 std::vector<std::list<std::pair<unsigned int const ,gl::Program *>,std::allocator<std::pair<unsigned int const ,gl::Program *> > >::_Iterator<0>,std::allocator<std::list<std::pair<unsigned int const ,gl::Program *>,std::allocator<std::pair<unsigned int const ,gl::Program *> > >::_Iterator<0> > >::resize(unsigned int,std::list<std::pair<unsigned int const ,gl::Program *>,std::allocator<std::pair<unsigned int const ,gl::Program *> > >::_Iterator<0>)
FUNC 3c00e 55 8 std::vector<std::list<std::pair<unsigned int const ,gl::Texture *>,std::allocator<std::pair<unsigned int const ,gl::Texture *> > >::_Iterator<0>,std::allocator<std::list<std::pair<unsigned int const ,gl::Texture *>,std::allocator<std::pair<unsigned int const ,gl::Texture *> > >::_Iterator<0> > >::resize(unsigned int,std::list<std::pair<unsigned int const ,gl::Texture *>,std::allocator<std::pair<unsigned int const ,gl::Texture *> > >::_Iterator<0>)
FUNC 3c063 55 8 std::vector<std::list<std::pair<unsigned int const ,gl::Renderbuffer *>,std::allocator<std::pair<unsigned int const ,gl::Renderbuffer *> > >::_Iterator<0>,std::allocator<std::list<std::pair<unsigned int const ,gl::Renderbuffer *>,std::allocator<std::pair<unsigned int const ,gl::Renderbuffer *> > >::_Iterator<0> > >::resize(unsigned int,std::list<std::pair<unsigned int const ,gl::Renderbuffer *>,std::allocator<std::pair<unsigned int const ,gl::Renderbuffer *> > >::_Iterator<0>)
FUNC 3c0b8 df 0 gl::ResourceManager::~ResourceManager()
FUNC 3c197 19 0 stdext::hash_map<unsigned int,gl::Buffer *,stdext::hash_compare<unsigned int,std::less<unsigned int> >,std::allocator<std::pair<unsigned int const ,gl::Buffer *> > >::hash_map<unsigned int,gl::Buffer *,stdext::hash_compare<unsigned int,std::less<unsigned int> >,std::allocator<std::pair<unsigned int const ,gl::Buffer *> > >()
FUNC 3c1b0 19 0 stdext::hash_map<unsigned int,gl::Shader *,stdext::hash_compare<unsigned int,std::less<unsigned int> >,std::allocator<std::pair<unsigned int const ,gl::Shader *> > >::hash_map<unsigned int,gl::Shader *,stdext::hash_compare<unsigned int,std::less<unsigned int> >,std::allocator<std::pair<unsigned int const ,gl::Shader *> > >()
FUNC 3c1c9 19 0 stdext::hash_map<unsigned int,gl::Program *,stdext::hash_compare<unsigned int,std::less<unsigned int> >,std::allocator<std::pair<unsigned int const ,gl::Program *> > >::hash_map<unsigned int,gl::Program *,stdext::hash_compare<unsigned int,std::less<unsigned int> >,std::allocator<std::pair<unsigned int const ,gl::Program *> > >()
FUNC 3c1e2 19 0 stdext::hash_map<unsigned int,gl::Texture *,stdext::hash_compare<unsigned int,std::less<unsigned int> >,std::allocator<std::pair<unsigned int const ,gl::Texture *> > >::hash_map<unsigned int,gl::Texture *,stdext::hash_compare<unsigned int,std::less<unsigned int> >,std::allocator<std::pair<unsigned int const ,gl::Texture *> > >()
FUNC 3c1fb 19 0 stdext::hash_map<unsigned int,gl::Renderbuffer *,stdext::hash_compare<unsigned int,std::less<unsigned int> >,std::allocator<std::pair<unsigned int const ,gl::Renderbuffer *> > >::hash_map<unsigned int,gl::Renderbuffer *,stdext::hash_compare<unsigned int,std::less<unsigned int> >,std::allocator<std::pair<unsigned int const ,gl::Renderbuffer *> > >()
FUNC 3c214 180 4 stdext::_Hash<stdext::_Hmap_traits<unsigned int,gl::Buffer *,stdext::hash_compare<unsigned int,std::less<unsigned int> >,std::allocator<std::pair<unsigned int const ,gl::Buffer *> >,0> >::insert(std::pair<unsigned int const ,gl::Buffer *> const &)
FUNC 3c394 180 4 stdext::_Hash<stdext::_Hmap_traits<unsigned int,gl::Shader *,stdext::hash_compare<unsigned int,std::less<unsigned int> >,std::allocator<std::pair<unsigned int const ,gl::Shader *> >,0> >::insert(std::pair<unsigned int const ,gl::Shader *> const &)
FUNC 3c514 180 4 stdext::_Hash<stdext::_Hmap_traits<unsigned int,gl::Program *,stdext::hash_compare<unsigned int,std::less<unsigned int> >,std::allocator<std::pair<unsigned int const ,gl::Program *> >,0> >::insert(std::pair<unsigned int const ,gl::Program *> const &)
FUNC 3c694 180 4 stdext::_Hash<stdext::_Hmap_traits<unsigned int,gl::Texture *,stdext::hash_compare<unsigned int,std::less<unsigned int> >,std::allocator<std::pair<unsigned int const ,gl::Texture *> >,0> >::insert(std::pair<unsigned int const ,gl::Texture *> const &)
FUNC 3c814 180 4 stdext::_Hash<stdext::_Hmap_traits<unsigned int,gl::Renderbuffer *,stdext::hash_compare<unsigned int,std::less<unsigned int> >,std::allocator<std::pair<unsigned int const ,gl::Renderbuffer *> >,0> >::insert(std::pair<unsigned int const ,gl::Renderbuffer *> const &)
FUNC 3c994 64 0 gl::ResourceManager::ResourceManager()
FUNC 3c9f8 15 0 gl::ResourceManager::release()
FUNC 3ca0d 42 4 stdext::hash_map<unsigned int,gl::Buffer *,stdext::hash_compare<unsigned int,std::less<unsigned int> >,std::allocator<std::pair<unsigned int const ,gl::Buffer *> > >::operator[](unsigned int const &)
FUNC 3ca4f 42 4 stdext::hash_map<unsigned int,gl::Shader *,stdext::hash_compare<unsigned int,std::less<unsigned int> >,std::allocator<std::pair<unsigned int const ,gl::Shader *> > >::operator[](unsigned int const &)
FUNC 3ca91 42 4 stdext::hash_map<unsigned int,gl::Program *,stdext::hash_compare<unsigned int,std::less<unsigned int> >,std::allocator<std::pair<unsigned int const ,gl::Program *> > >::operator[](unsigned int const &)
FUNC 3cad3 42 4 stdext::hash_map<unsigned int,gl::Texture *,stdext::hash_compare<unsigned int,std::less<unsigned int> >,std::allocator<std::pair<unsigned int const ,gl::Texture *> > >::operator[](unsigned int const &)
FUNC 3cb15 42 4 stdext::hash_map<unsigned int,gl::Renderbuffer *,stdext::hash_compare<unsigned int,std::less<unsigned int> >,std::allocator<std::pair<unsigned int const ,gl::Renderbuffer *> > >::operator[](unsigned int const &)
FUNC 3cb57 27 0 gl::ResourceManager::createBuffer()
FUNC 3cb7e 90 4 gl::ResourceManager::createShader(unsigned int)
FUNC 3cc0e 4b 0 gl::ResourceManager::createProgram()
FUNC 3cc59 2d 0 gl::ResourceManager::createTexture()
FUNC 3cc86 2d 0 gl::ResourceManager::createRenderbuffer()
FUNC 3ccb3 4d 4 gl::ResourceManager::checkBufferAllocation(unsigned int)
FUNC 3cd00 96 8 gl::ResourceManager::checkTextureAllocation(unsigned int,gl::TextureType)
FUNC 3cd96 74 4 gl::ResourceManager::checkRenderbufferAllocation(unsigned int)
FUNC 3ce0a 32 10 gl::Varying::Varying(unsigned int,std::basic_string<char,std::char_traits<char>,std::allocator<char> > const &,int,bool)
FUNC 3ce3c 4 0 gl::Framebuffer::getColorbufferType()
FUNC 3ce40 b7 c gl::Shader::setSource(int,char const * *,int const *)
FUNC 3cef7 11 0 gl::Shader::getInfoLogLength()
FUNC 3cf08 52 c gl::Shader::getInfoLog(int,int *,char *)
FUNC 3cf5a 11 0 gl::Shader::getSourceLength()
FUNC 3cf6b 11 0 gl::Shader::getTranslatedSourceLength()
FUNC 3cf7c 54 10 gl::Shader::getSourceImpl(char *,int,int *,char *)
FUNC 3cfd0 17 c gl::Shader::getSource(int,int *,char *)
FUNC 3cfe7 17 c gl::Shader::getTranslatedSource(int,int *,char *)
FUNC 3cffe 9 0 gl::Shader::isCompiled()
FUNC 3d007 4 0 gl::RenderbufferStorage::getSamples()
FUNC 3d00b 17 0 gl::Shader::release()
FUNC 3d022 4 0 gl::Shader::isFlaggedForDeletion()
FUNC 3d026 5 0 gl::Shader::flagForDeletion()
FUNC 3d02b 2b 0 gl::Shader::releaseCompiler()
FUNC 3d056 14f 4 gl::Shader::compileToHLSL(void *)
FUNC 3d1a5 c7 4 gl::Shader::parseType(std::basic_string<char,std::char_traits<char>,std::allocator<char> > const &)
FUNC 3d26c 138 8 gl::Shader::compareVarying(gl::Varying const &,gl::Varying const &)
FUNC 3d3a4 6 0 gl::VertexShader::getType()
FUNC 3d3aa 6 0 gl::FragmentShader::getType()
FUNC 3d3b0 13 0 std::vector<gl::Attribute,std::allocator<gl::Attribute> >::capacity()
FUNC 3d3c3 13 0 std::vector<gl::Attribute,std::allocator<gl::Attribute> >::size()
FUNC 3d3d6 1e 4 gl::Attribute::Attribute(gl::Attribute const &)
FUNC 3d3f4 4e 8 std::_Allocate<std::_List_nod<gl::Varying,std::allocator<gl::Varying> >::_Node>(unsigned int,std::_List_nod<gl::Varying,std::allocator<gl::Varying> >::_Node *)
FUNC 3d442 4e 8 std::_Allocate<gl::Attribute>(unsigned int,gl::Attribute *)
FUNC 3d490 38 4 gl::Varying::Varying(gl::Varying const &)
FUNC 3d4c8 27 18 std::_Copy_backward_opt<gl::Attribute *,gl::Attribute *,std::random_access_iterator_tag>(gl::Attribute *,gl::Attribute *,gl::Attribute *,std::random_access_iterator_tag,std::_Nonscalar_ptr_iterator_tag,std::_Range_checked_iterator_tag)
FUNC 3d4ef 20 0 gl::Attribute::`scalar deleting destructor'(unsigned int)
FUNC 3d50f 1d c std::_Fill<gl::Attribute *,gl::Attribute>(gl::Attribute *,gl::Attribute *,gl::Attribute const &)
FUNC 3d52c 28 18 std::_Move_backward_opt<gl::Attribute *,gl::Attribute *,std::random_access_iterator_tag,std::_Undefined_move_tag>(gl::Attribute *,gl::Attribute *,gl::Attribute *,std::random_access_iterator_tag,std::_Undefined_move_tag,std::_Range_checked_iterator_tag)
FUNC 3d554 14 8 std::allocator<gl::Attribute>::construct(gl::Attribute *,gl::Attribute const &)
FUNC 3d568 4a 0 std::list<gl::Varying,std::allocator<gl::Varying> >::_Buynode()
FUNC 3d5b2 51 4 std::list<gl::Varying,std::allocator<gl::Varying> >::_Incsize(unsigned int)
FUNC 3d603 14 8 std::allocator<gl::Varying>::construct(gl::Varying *,gl::Varying const &)
FUNC 3d617 28 c stdext::_Unchecked_move_backward<gl::Attribute *,gl::Attribute *>(gl::Attribute *,gl::Attribute *,gl::Attribute *)
FUNC 3d63f 5f 18 std::_Uninit_copy<gl::Attribute *,gl::Attribute *,std::allocator<gl::Attribute> >(gl::Attribute *,gl::Attribute *,gl::Attribute *,std::allocator<gl::Attribute> &,std::_Nonscalar_ptr_iterator_tag,std::_Range_checked_iterator_tag)
FUNC 3d69e 47 4 gl::VertexShader::getSemanticIndex(std::basic_string<char,std::char_traits<char>,std::allocator<char> > const &)
FUNC 3d6e5 67 c std::list<gl::Varying,std::allocator<gl::Varying> >::_Buynode(std::_List_nod<gl::Varying,std::allocator<gl::Varying> >::_Node *,std::_List_nod<gl::Varying,std::allocator<gl::Varying> >::_Node *,gl::Varying const &)
FUNC 3d74c 5b 18 std::_Uninit_fill_n<gl::Attribute *,unsigned int,gl::Attribute,std::allocator<gl::Attribute> >(gl::Attribute *,unsigned int,gl::Attribute const &,std::allocator<gl::Attribute> &,std::_Nonscalar_ptr_iterator_tag,std::_Range_checked_iterator_tag)
FUNC 3d7a7 1b 10 std::_Destroy_range<gl::Attribute,std::allocator<gl::Attribute> >(gl::Attribute *,gl::Attribute *,std::allocator<gl::Attribute> &,std::_Nonscalar_ptr_iterator_tag)
FUNC 3d7c2 28 10 stdext::unchecked_uninitialized_copy<gl::Attribute *,gl::Attribute *,std::allocator<gl::Attribute> >(gl::Attribute *,gl::Attribute *,gl::Attribute *,std::allocator<gl::Attribute> &)
FUNC 3d7ea 13 0 std::list<gl::Varying,std::allocator<gl::Varying> >::list<gl::Varying,std::allocator<gl::Varying> >()
FUNC 3d7fd 2f 8 std::list<gl::Varying,std::allocator<gl::Varying> >::_Insert(std::list<gl::Varying,std::allocator<gl::Varying> >::_Iterator<0>,gl::Varying const &)
FUNC 3d82c 38 0 std::list<gl::Varying,std::allocator<gl::Varying> >::clear()
FUNC 3d864 28 10 stdext::unchecked_uninitialized_fill_n<gl::Attribute *,unsigned int,gl::Attribute,std::allocator<gl::Attribute> >(gl::Attribute *,unsigned int,gl::Attribute const &,std::allocator<gl::Attribute> &)
FUNC 3d88c 1a c std::_Destroy_range<gl::Attribute,std::allocator<gl::Attribute> >(gl::Attribute *,gl::Attribute *,std::allocator<gl::Attribute> &)
FUNC 3d8a6 17 0 std::list<gl::Varying,std::allocator<gl::Varying> >::_Tidy()
FUNC 3d8bd 22 c std::vector<gl::Attribute,std::allocator<gl::Attribute> >::_Ufill(gl::Attribute *,unsigned int,gl::Attribute const &)
FUNC 3d8df 170 0 gl::Shader::parseVaryings()
FUNC 3da4f 2d 0 std::vector<gl::Attribute,std::allocator<gl::Attribute> >::_Tidy()
FUNC 3da7c 18 c std::vector<gl::Attribute,std::allocator<gl::Attribute> >::_Umove<gl::Attribute *>(gl::Attribute *,gl::Attribute *,gl::Attribute *)
FUNC 3da94 48 18 std::list<gl::Varying,std::allocator<gl::Varying> >::_Splice(std::list<gl::Varying,std::allocator<gl::Varying> >::_Iterator<0>,std::list<gl::Varying,std::allocator<gl::Varying> > &,std::list<gl::Varying,std::allocator<gl::Varying> >::_Iterator<0>,std::list<gl::Varying,std::allocator<gl::Varying> >::_Iterator<0>,unsigned int,bool)
FUNC 3dadc 7e 8 std::list<gl::Varying,std::allocator<gl::Varying> >::merge<bool (*)(gl::Varying const &,gl::Varying const &)>(std::list<gl::Varying,std::allocator<gl::Varying> > &,bool (*)(gl::Varying const &,gl::Varying const &))
FUNC 3db5a e2 8 gl::Shader::Shader(gl::ResourceManager *,unsigned int)
FUNC 3dc3c 2d 0 gl::Shader::~Shader()
FUNC 3dc69 1c 8 gl::FragmentShader::FragmentShader(gl::ResourceManager *,unsigned int)
FUNC 3dc85 1fe c std::vector<gl::Attribute,std::allocator<gl::Attribute> >::_Insert_n(std::_Vector_iterator<gl::Attribute,std::allocator<gl::Attribute> >,unsigned int,gl::Attribute const &)
FUNC 3de83 2a 8 std::list<gl::Varying,std::allocator<gl::Varying> >::splice(std::list<gl::Varying,std::allocator<gl::Varying> >::_Iterator<0>,std::list<gl::Varying,std::allocator<gl::Varying> > &)
FUNC 3dead 1c 0 gl::Shader::`vector deleting destructor'(unsigned int)
FUNC 3dec9 27 8 gl::VertexShader::VertexShader(gl::ResourceManager *,unsigned int)
FUNC 3def0 19 0 gl::VertexShader::~VertexShader()
FUNC 3df09 22 0 gl::FragmentShader::`scalar deleting destructor'(unsigned int)
FUNC 3df2b 3d 8 std::vector<gl::Attribute,std::allocator<gl::Attribute> >::insert(std::_Vector_iterator<gl::Attribute,std::allocator<gl::Attribute> >,gl::Attribute const &)
FUNC 3df68 1c 0 gl::VertexShader::`vector deleting destructor'(unsigned int)
FUNC 3df84 40 4 std::vector<gl::Attribute,std::allocator<gl::Attribute> >::push_back(gl::Attribute const &)
FUNC 3dfc4 155 4 std::list<gl::Varying,std::allocator<gl::Varying> >::sort<bool (*)(gl::Varying const &,gl::Varying const &)>(bool (*)(gl::Varying const &,gl::Varying const &))
FUNC 3e119 110 0 gl::VertexShader::parseAttributes()
FUNC 3e229 24 0 gl::FragmentShader::compile()
FUNC 3e24d 1d 0 gl::VertexShader::compile()
FUNC 3e26a 5e 0 gl::supportsSSE2()
FUNC 3e2c8 1d 0 gl::Image::Image()
FUNC 3e2e5 10 0 gl::Image::~Image()
FUNC 3e2f5 54 14 gl::Image::redefine(unsigned int,int,int,unsigned int,bool)
FUNC 3e349 10 0 gl::Image::unlock()
FUNC 3e359 b2 0 gl::Image::getD3DFormat()
FUNC 3e40b 34 4 gl::Image::setManagedSurface(IDirect3DSurface9 *)
FUNC 3e43f 58 20 gl::Image::loadAlphaData(int,int,int,int,int,void const *,unsigned int,void *)
FUNC 3e497 56 20 gl::Image::loadAlphaFloatData(int,int,int,int,int,void const *,unsigned int,void *)
FUNC 3e4ed 5c 20 gl::Image::loadAlphaHalfFloatData(int,int,int,int,int,void const *,unsigned int,void *)
FUNC 3e549 7a 24 gl::Image::loadLuminanceData(int,int,int,int,int,void const *,unsigned int,void *,bool)
FUNC 3e5c3 5a 20 gl::Image::loadLuminanceFloatData(int,int,int,int,int,void const *,unsigned int,void *)
FUNC 3e61d 60 20 gl::Image::loadLuminanceHalfFloatData(int,int,int,int,int,void const *,unsigned int,void *)
FUNC 3e67d 83 24 gl::Image::loadLuminanceAlphaData(int,int,int,int,int,void const *,unsigned int,void *,bool)
FUNC 3e700 5e 20 gl::Image::loadLuminanceAlphaFloatData(int,int,int,int,int,void const *,unsigned int,void *)
FUNC 3e75e 68 20 gl::Image::loadLuminanceAlphaHalfFloatData(int,int,int,int,int,void const *,unsigned int,void *)
FUNC 3e7c6 5f 20 gl::Image::loadRGBUByteData(int,int,int,int,int,void const *,unsigned int,void *)
FUNC 3e825 98 20 gl::Image::loadRGB565Data(int,int,int,int,int,void const *,unsigned int,void *)
FUNC 3e8bd 60 20 gl::Image::loadRGBFloatData(int,int,int,int,int,void const *,unsigned int,void *)
FUNC 3e91d 69 20 gl::Image::loadRGBHalfFloatData(int,int,int,int,int,void const *,unsigned int,void *)
FUNC 3e986 100 20 gl::Image::loadRGBAUByteDataSSE2(int,int,int,int,int,void const *,unsigned int,void *)
FUNC 3ea86 61 20 gl::Image::loadRGBAUByteData(int,int,int,int,int,void const *,unsigned int,void *)
FUNC 3eae7 a1 20 gl::Image::loadRGBA4444Data(int,int,int,int,int,void const *,unsigned int,void *)
FUNC 3eb88 aa 20 gl::Image::loadRGBA5551Data(int,int,int,int,int,void const *,unsigned int,void *)
FUNC 3ec32 48 20 gl::Image::loadRGBAFloatData(int,int,int,int,int,void const *,unsigned int,void *)
FUNC 3ec7a 46 20 gl::Image::loadRGBAHalfFloatData(int,int,int,int,int,void const *,unsigned int,void *)
FUNC 3ecc0 46 20 gl::Image::loadBGRAData(int,int,int,int,int,void const *,unsigned int,void *)
FUNC 3ed06 30 0 gl::FlipCopyDXT1BlockFull
FUNC 3ed36 95 0 gl::FlipCopyDXT5BlockFull
FUNC 3edcb e6 20 gl::Image::loadDXT1Data(int,int,int,int,int,void const *,unsigned int,void *)
FUNC 3eeb1 12b 20 gl::Image::loadDXT3Data(int,int,int,int,int,void const *,unsigned int,void *)
FUNC 3efdc 14e 20 gl::Image::loadDXT5Data(int,int,int,int,int,void const *,unsigned int,void *)
FUNC 3f12a 41 4 gl::Texture::Texture(unsigned int)
FUNC 3f16b 35 4 gl::Texture::setMinFilter(unsigned int)
FUNC 3f1a0 27 4 gl::Texture::setMagFilter(unsigned int)
FUNC 3f1c7 2e 4 gl::Texture::setWrapS(unsigned int)
FUNC 3f1f5 2e 4 gl::Texture::setWrapT(unsigned int)
FUNC 3f223 1b 4 gl::Texture::setUsage(unsigned int)
FUNC 3f23e 4 0 gl::Texture::getWrapT()
FUNC 3f242 4 0 gl::Texture::getUsage()
FUNC 3f246 31 0 gl::Texture::getTexture()
FUNC 3f277 4 0 gl::Texture::hasDirtyParameters()
FUNC 3f27b 4 0 gl::Texture::hasDirtyImages()
FUNC 3f27f 9 0 gl::Texture::resetDirty()
FUNC 3f288 10 0 gl::Texture::getTextureSerial()
FUNC 3f298 15 4 gl::Texture::getRenderTargetSerial(unsigned int)
FUNC 3f2ad 4 0 gl::Texture::isImmutable()
FUNC 3f2b1 36 8 gl::Texture::creationLevels(int,int)
FUNC 3f2e7 1f 0 gl::Texture::levelCount()
FUNC 3f306 c 0 gl::Texture::getBlitter()
FUNC 3f312 63 c gl::Texture::copyToRenderTarget(IDirect3DSurface9 *,IDirect3DSurface9 *,bool)
FUNC 3f375 1a 0 gl::TextureStorage2D::~TextureStorage2D()
FUNC 3f38f 25 4 gl::TextureStorage2D::getSurfaceLevel(int)
FUNC 3f3b4 6 4 gl::TextureStorage2D::getRenderTargetSerial(unsigned int)
FUNC 3f3ba 6 0 gl::Texture2D::getTarget()
FUNC 3f3c0 4 0 gl::TextureCubeMap::getInternalFormat()
FUNC 3f3c4 64 14 gl::Texture2D::redefineImage(int,unsigned int,int,int,unsigned int)
FUNC 3f428 54 0 gl::Texture2D::releaseTexImage()
FUNC 3f47c 11 0 gl::Texture2D::getBaseTexture()
FUNC 3f48d 3d 4 gl::Texture2D::getRenderTarget(unsigned int)
FUNC 3f4ca 7 0 gl::Texture2D::getStorage()
FUNC 3f4d1 1a 0 gl::TextureStorageCubeMap::~TextureStorageCubeMap()
FUNC 3f4eb 37 8 gl::TextureStorageCubeMap::getCubeMapSurface(unsigned int,int)
FUNC 3f522 6 0 gl::TextureCubeMap::getTarget()
FUNC 3f528 4 0 gl::Texture2D::getWidth()
FUNC 3f52c 4 0 gl::Texture2D::getHeight()
FUNC 3f530 4 0 gl::TextureCubeMap::getType()
FUNC 3f534 8 0 gl::TextureCubeMap::getD3DFormat()
FUNC 3f53c 49 0 gl::TextureCubeMap::isCubeComplete()
FUNC 3f585 d 0 gl::TextureCubeMap::isCompressed()
FUNC 3f592 11 0 gl::TextureCubeMap::getBaseTexture()
FUNC 3f5a3 74 18 gl::TextureCubeMap::redefineImage(int,int,unsigned int,int,int,unsigned int)
FUNC 3f617 41 4 gl::TextureCubeMap::getRenderTarget(unsigned int)
FUNC 3f658 7 0 gl::TextureCubeMap::getStorage()
FUNC 3f65f 11d 0 gl::Image::createSurface()
FUNC 3f77c 2c 8 gl::Image::lock(_D3DLOCKED_RECT *,tagRECT const *)
FUNC 3f7a8 5d 0 gl::Image::isRenderable()
FUNC 3f805 d 0 gl::Image::getSurface()
FUNC 3f812 85 14 gl::Image::updateSurface(IDirect3DSurface9 *,int,int,int,int)
FUNC 3f897 3af 24 gl::Image::loadData(int,int,int,int,unsigned int,int,void const *,unsigned int,void *)
FUNC 3fc46 86 20 gl::Image::loadCompressedData(int,int,int,int,int,void const *,unsigned int,void *)
FUNC 3fccc 3b2 1c gl::Image::copy(int,int,int,int,int,int,IDirect3DSurface9 *)
FUNC 4007e 40 4 gl::TextureStorage::TextureStorage(bool)
FUNC 400be 1d 0 gl::TextureStorage::`scalar deleting destructor'(unsigned int)
FUNC 400db 22 0 gl::Texture::`vector deleting destructor'(unsigned int)
FUNC 400fd 53 c gl::Texture::setImage(int,void const *,gl::Image *)
FUNC 40150 79 c gl::Texture::setCompressedImage(int,void const *,gl::Image *)
FUNC 401c9 a7 24 gl::Texture::subImage(int,int,int,int,unsigned int,unsigned int,int,void const *,gl::Image *)
FUNC 40270 dd 20 gl::Texture::subImageCompressed(int,int,int,int,unsigned int,int,void const *,gl::Image *)
FUNC 4034d 25 4 gl::TextureStorage2D::TextureStorage2D(IDirect3DTexture9 *)
FUNC 40372 1c 0 gl::TextureStorage2D::`scalar deleting destructor'(unsigned int)
FUNC 4038e 7c 14 gl::TextureStorage2D::TextureStorage2D(int,_D3DFORMAT,int,int,bool)
FUNC 4040a 41 4 gl::Texture2D::Texture2D(unsigned int)
FUNC 4044b 63 0 gl::Texture2D::~Texture2D()
FUNC 404ae 37 1c gl::Texture2D::setImage(int,int,int,unsigned int,unsigned int,int,void const *)
FUNC 404e5 b6 4 gl::Texture2D::bindTexImage(egl::Surface *)
FUNC 4059b 39 18 gl::Texture2D::setCompressedImage(int,unsigned int,int,int,int,void const *)
FUNC 405d4 52 14 gl::Texture2D::commitRect(int,int,int,int,int)
FUNC 40626 4d 24 gl::Texture2D::subImage(int,int,int,int,int,unsigned int,unsigned int,int,void const *)
FUNC 40673 4a 20 gl::Texture2D::subImageCompressed(int,int,int,int,int,unsigned int,int,void const *)
FUNC 406bd 1cf 1c gl::Texture2D::copyImage(int,unsigned int,int,int,int,int,gl::Framebuffer *)
FUNC 4088c 1f3 24 gl::Texture2D::copySubImage(unsigned int,int,int,int,int,int,int,int,gl::Framebuffer *)
FUNC 40a7f 108 10 gl::Texture2D::storage(int,unsigned int,int,int)
FUNC 40b87 a7 0 gl::Texture2D::isMipmapComplete()
FUNC 40c2e ad 0 gl::Texture2D::createTexture()
FUNC 40cdb 3e 0 gl::Texture2D::updateTexture()
FUNC 40d19 11d 0 gl::Texture2D::convertToRenderTarget()
FUNC 40e36 1a2 0 gl::Texture2D::generateMipmaps()
FUNC 40fd8 73 4 gl::Texture2D::getRenderbuffer(unsigned int)
FUNC 4104b 79 10 gl::TextureStorageCubeMap::TextureStorageCubeMap(int,_D3DFORMAT,int,bool)
FUNC 410c4 1c 0 gl::TextureStorageCubeMap::`scalar deleting destructor'(unsigned int)
FUNC 410e0 11 4 gl::TextureStorageCubeMap::getRenderTargetSerial(unsigned int)
FUNC 410f1 40 4 gl::TextureCubeMap::TextureCubeMap(unsigned int)
FUNC 41131 5a 0 gl::TextureCubeMap::~TextureCubeMap()
FUNC 4118b 4b 1c gl::TextureCubeMap::setCompressedImage(unsigned int,int,unsigned int,int,int,int,void const *)
FUNC 411d6 62 18 gl::TextureCubeMap::commitRect(int,int,int,int,int,int)
FUNC 41238 61 28 gl::TextureCubeMap::subImage(unsigned int,int,int,int,int,int,unsigned int,unsigned int,int,void const *)
FUNC 41299 5e 24 gl::TextureCubeMap::subImageCompressed(unsigned int,int,int,int,int,int,unsigned int,int,void const *)
FUNC 412f7 9a 0 gl::TextureCubeMap::isMipmapCubeComplete()
FUNC 41391 cf 0 gl::TextureCubeMap::createTexture()
FUNC 41460 61 0 gl::TextureCubeMap::updateTexture()
FUNC 414c1 137 0 gl::TextureCubeMap::convertToRenderTarget()
FUNC 415f8 40 20 gl::TextureCubeMap::setImage(int,int,int,int,unsigned int,unsigned int,int,void const *)
FUNC 41638 1d0 20 gl::TextureCubeMap::copyImage(unsigned int,int,unsigned int,int,int,int,int,gl::Framebuffer *)
FUNC 41808 20f 24 gl::TextureCubeMap::copySubImage(unsigned int,int,int,int,int,int,int,int,gl::Framebuffer *)
FUNC 41a17 110 c gl::TextureCubeMap::storage(int,unsigned int,int)
FUNC 41b27 1f3 0 gl::TextureCubeMap::generateMipmaps()
FUNC 41d1a 7b 4 gl::TextureCubeMap::getRenderbuffer(unsigned int)
FUNC 41d95 1c 0 gl::Texture2D::`vector deleting destructor'(unsigned int)
FUNC 41db1 134 0 gl::Texture2D::isSamplerComplete()
FUNC 41ee5 1c 0 gl::TextureCubeMap::`vector deleting destructor'(unsigned int)
FUNC 41f01 23 1c gl::TextureCubeMap::setImagePosX(int,int,int,unsigned int,unsigned int,int,void const *)
FUNC 41f24 23 1c gl::TextureCubeMap::setImageNegX(int,int,int,unsigned int,unsigned int,int,void const *)
FUNC 41f47 23 1c gl::TextureCubeMap::setImagePosY(int,int,int,unsigned int,unsigned int,int,void const *)
FUNC 41f6a 23 1c gl::TextureCubeMap::setImageNegY(int,int,int,unsigned int,unsigned int,int,void const *)
FUNC 41f8d 23 1c gl::TextureCubeMap::setImagePosZ(int,int,int,unsigned int,unsigned int,int,void const *)
FUNC 41fb0 23 1c gl::TextureCubeMap::setImageNegZ(int,int,int,unsigned int,unsigned int,int,void const *)
FUNC 41fd3 f3 0 gl::TextureCubeMap::isSamplerComplete()
FUNC 420c6 a8 4 gl::UniformExternalComponentCount(unsigned int)
FUNC 4216e 95 4 gl::UniformInternalComponentCount(unsigned int)
FUNC 42203 84 4 gl::UniformComponentType(unsigned int)
FUNC 42287 3a 4 gl::UniformComponentSize(unsigned int)
FUNC 422c1 23 4 gl::UniformInternalSize(unsigned int)
FUNC 422e4 23 4 gl::UniformExternalSize(unsigned int)
FUNC 42307 61 4 gl::VariableRowCount(unsigned int)
FUNC 42368 87 4 gl::VariableColumnCount(unsigned int)
FUNC 423ef 38 c gl::AllocateFirstFreeBits(unsigned int *,unsigned int,unsigned int)
FUNC 42427 c3 c gl::ComputeCompressedSize(int,int,unsigned int)
FUNC 424ea 26 4 gl::IsCompressed(unsigned int)
FUNC 42510 df 8 gl::ComputePixelSize(unsigned int,unsigned int)
FUNC 425ef 12 4 gl::IsCubemapTextureTarget(unsigned int)
FUNC 42601 1c 4 gl::IsTextureTarget(unsigned int)
FUNC 4261d 80 8 gl::CheckTextureFormatType(unsigned int,unsigned int)
FUNC 4269d dc 4 gl::ExtractFormat(unsigned int)
FUNC 42779 c0 4 gl::ExtractType(unsigned int)
FUNC 42839 58 4 gl::IsColorRenderable(unsigned int)
FUNC 42891 58 4 gl::IsDepthRenderable(unsigned int)
FUNC 428e9 58 4 gl::IsStencilRenderable(unsigned int)
FUNC 42941 78 4 es2dx::ConvertComparison(unsigned int)
FUNC 429b9 a1 4 es2dx::ConvertBlendFunc(unsigned int)
FUNC 42a5a 41 4 es2dx::ConvertBlendOp(unsigned int)
FUNC 42a9b 7c 4 es2dx::ConvertStencilOp(unsigned int)
FUNC 42b17 47 4 es2dx::ConvertTextureWrap(unsigned int)
FUNC 42b5e 5e 8 es2dx::ConvertCullMode(unsigned int,unsigned int)
FUNC 42bbc 53 4 es2dx::ConvertCubeFace(unsigned int)
FUNC 42c0f 31 10 es2dx::ConvertColorMask(bool,bool,bool,bool)
FUNC 42c40 38 4 es2dx::ConvertMagFilter(unsigned int)
FUNC 42c78 aa c es2dx::ConvertMinFilter(unsigned int,_D3DTEXTUREFILTERTYPE *,_D3DTEXTUREFILTERTYPE *)
FUNC 42d22 8d 10 es2dx::ConvertPrimitiveType(unsigned int,int,_D3DPRIMITIVETYPE *,int *)
FUNC 42daf 64 4 es2dx::ConvertRenderbufferFormat(unsigned int)
FUNC 42e13 c 4 es2dx::GetMultisampleTypeFromSamples(int)
FUNC 42e1f 4e 4 dx2es::GetStencilSize(_D3DFORMAT)
FUNC 42e6d 3b 4 dx2es::GetAlphaSize(_D3DFORMAT)
FUNC 42ea8 3e 4 dx2es::GetRedSize(_D3DFORMAT)
FUNC 42ee6 42 4 dx2es::GetGreenSize(_D3DFORMAT)
FUNC 42f28 3d 4 dx2es::GetDepthSize(_D3DFORMAT)
FUNC 42f65 45 4 dx2es::IsFloat32Format(_D3DFORMAT)
FUNC 42faa 45 4 dx2es::IsFloat16Format(_D3DFORMAT)
FUNC 42fef e 4 dx2es::GetSamplesFromMultisampleType(_D3DMULTISAMPLE_TYPE)
FUNC 42ffd 51 4 dx2es::ConvertBackBufferFormat(_D3DFORMAT)
FUNC 4304e 3b 4 dx2es::ConvertDepthStencilFormat(_D3DFORMAT)
FUNC 43089 92 0 getTempPath()
FUNC 4311b 53 c writeFile(char const *,void const *,unsigned int)
FUNC 4316e 22 10 gl::ComputePitch(int,unsigned int,unsigned int,int)
FUNC 43190 13 8 gl::ComputeCompressedPitch(int,unsigned int)
FUNC 431a3 53 10 es2dx::ConvertColor(gl::Color)
FUNC 431f6 d 4 gl::HandleAllocator::setBaseHandle(unsigned int)
FUNC 43203 50 8 std::_Allocate<BuiltInFunctionEmulator::TBuiltInFunction>(unsigned int,BuiltInFunctionEmulator::TBuiltInFunction *)
FUNC 43253 1d 0 gl::HandleAllocator::HandleAllocator()
FUNC 43270 e 0 gl::HandleAllocator::~HandleAllocator()
FUNC 4327e 1c 0 gl::HandleAllocator::`scalar deleting destructor'(unsigned int)
FUNC 4329a 39 0 gl::HandleAllocator::allocate()
FUNC 432d3 1a7 c std::vector<unsigned int,std::allocator<unsigned int> >::_Insert_n(std::_Vector_iterator<unsigned int,std::allocator<unsigned int> >,unsigned int,unsigned int const &)
FUNC 4347a 3d 8 std::vector<unsigned int,std::allocator<unsigned int> >::insert(std::_Vector_iterator<unsigned int,std::allocator<unsigned int> >,unsigned int const &)
FUNC 434b7 40 4 std::vector<unsigned int,std::allocator<unsigned int> >::push_back(unsigned int const &)
FUNC 434f7 2f 4 gl::HandleAllocator::release(unsigned int)
FUNC 43526 31 4 gl::StaticIndexBuffer::IndexRange::operator<(gl::StaticIndexBuffer::IndexRange const &)
FUNC 43557 25 0 gl::IndexDataManager::~IndexDataManager()
FUNC 4357c 76 10 gl::convertIndices(unsigned int,void const *,int,void *)
FUNC 435f2 3f 4 gl::IndexDataManager::typeSize(unsigned int)
FUNC 43631 14 0 gl::IndexBuffer::~IndexBuffer()
FUNC 43645 5f 8 gl::StreamingIndexBuffer::map(unsigned int,unsigned int *)
FUNC 436a4 4f 8 gl::StaticIndexBuffer::map(unsigned int,unsigned int *)
FUNC 436f3 b8 8 gl::StaticIndexBuffer::reserveSpace(unsigned int,unsigned int)
FUNC 437ab 44 4 std::_Tree<std::_Tmap_traits<gl::StaticIndexBuffer::IndexRange,gl::StaticIndexBuffer::IndexResult,std::less<gl::StaticIndexBuffer::IndexRange>,std::allocator<std::pair<gl::StaticIndexBuffer::IndexRange const ,gl::StaticIndexBuffer::IndexResult> >,0> >::_Rrotate(std::_Tree_nod<std::_Tmap_traits<gl::StaticIndexBuffer::IndexRange,gl::StaticIndexBuffer::IndexResult,std::less<gl::StaticIndexBuffer::IndexRange>,std::allocator<std::pair<gl::StaticIndexBuffer::IndexRange const ,gl::StaticIndexBuffer::IndexResult> >,0> >::_Node *)
FUNC 437ef 41 0 std::_Tree<std::_Tmap_traits<gl::StaticIndexBuffer::IndexRange,gl::StaticIndexBuffer::IndexResult,std::less<gl::StaticIndexBuffer::IndexRange>,std::allocator<std::pair<gl::StaticIndexBuffer::IndexRange const ,gl::StaticIndexBuffer::IndexResult> >,0> >::const_iterator::_Dec()
FUNC 43830 36 0 std::_Tree<std::_Tmap_traits<gl::StaticIndexBuffer::IndexRange,gl::StaticIndexBuffer::IndexResult,std::less<gl::StaticIndexBuffer::IndexRange>,std::allocator<std::pair<gl::StaticIndexBuffer::IndexRange const ,gl::StaticIndexBuffer::IndexResult> >,0> >::const_iterator::_Inc()
FUNC 43866 33 14 std::_Tree_nod<std::_Tmap_traits<gl::StaticIndexBuffer::IndexRange,gl::StaticIndexBuffer::IndexResult,std::less<gl::StaticIndexBuffer::IndexRange>,std::allocator<std::pair<gl::StaticIndexBuffer::IndexRange const ,gl::StaticIndexBuffer::IndexResult> >,0> >::_Node::_Node(std::_Tree_nod<std::_Tmap_traits<gl::StaticIndexBuffer::IndexRange,gl::StaticIndexBuffer::IndexResult,std::less<gl::StaticIndexBuffer::IndexRange>,std::allocator<std::pair<gl::StaticIndexBuffer::IndexRange const ,gl::StaticIndexBuffer::IndexResult> >,0> >::_Node *,std::_Tree_nod<std::_Tmap_traits<gl::StaticIndexBuffer::IndexRange,gl::StaticIndexBuffer::IndexResult,std::less<gl::StaticIndexBuffer::IndexRange>,std::allocator<std::pair<gl::StaticIndexBuffer::IndexRange const ,gl::StaticIndexBuffer::IndexResult> >,0> >::_Node *,std::_Tree_nod<std::_Tmap_traits<gl::StaticIndexBuffer::IndexRange,gl::StaticIndexBuffer::IndexResult,std::less<gl::StaticIndexBuffer::IndexRange>,std::allocator<std::pair<gl::StaticIndexBuffer::IndexRange const ,gl::StaticIndexBuffer::IndexResult> >,0> >::_Node *,std::pair<gl::StaticIndexBuffer::IndexRange const ,gl::StaticIndexBuffer::IndexResult> const &,char)
FUNC 43899 3d 10 gl::computeRange<unsigned char>(unsigned char const *,int,unsigned int *,unsigned int *)
FUNC 438d6 39 10 gl::computeRange<unsigned int>(unsigned int const *,int,unsigned int *,unsigned int *)
FUNC 4390f 3d 10 gl::computeRange<unsigned short>(unsigned short const *,int,unsigned int *,unsigned int *)
FUNC 4394c 1c 0 gl::IndexDataManager::`scalar deleting destructor'(unsigned int)
FUNC 43968 76 14 gl::computeRange(unsigned int,void const *,int,unsigned int *,unsigned int *)
FUNC 439de 80 c gl::IndexBuffer::IndexBuffer(IDirect3DDevice9 *,unsigned int,_D3DFORMAT)
FUNC 43a5e 1c 0 gl::IndexBuffer::`vector deleting destructor'(unsigned int)
FUNC 43a7a 24 c gl::StreamingIndexBuffer::StreamingIndexBuffer(IDirect3DDevice9 *,unsigned int,_D3DFORMAT)
FUNC 43a9e 22 0 gl::StreamingIndexBuffer::`scalar deleting destructor'(unsigned int)
FUNC 43ac0 d7 8 gl::StreamingIndexBuffer::reserveSpace(unsigned int,unsigned int)
FUNC 43b97 32 4 std::_Tree<std::_Tmap_traits<gl::StaticIndexBuffer::IndexRange,gl::StaticIndexBuffer::IndexResult,std::less<gl::StaticIndexBuffer::IndexRange>,std::allocator<std::pair<gl::StaticIndexBuffer::IndexRange const ,gl::StaticIndexBuffer::IndexResult> >,0> >::_Lbound(gl::StaticIndexBuffer::IndexRange const &)
FUNC 43bc9 42 4 std::_Tree<std::_Tmap_traits<gl::StaticIndexBuffer::IndexRange,gl::StaticIndexBuffer::IndexResult,std::less<gl::StaticIndexBuffer::IndexRange>,std::allocator<std::pair<gl::StaticIndexBuffer::IndexRange const ,gl::StaticIndexBuffer::IndexResult> >,0> >::_Lrotate(std::_Tree_nod<std::_Tmap_traits<gl::StaticIndexBuffer::IndexRange,gl::StaticIndexBuffer::IndexResult,std::less<gl::StaticIndexBuffer::IndexRange>,std::allocator<std::pair<gl::StaticIndexBuffer::IndexRange const ,gl::StaticIndexBuffer::IndexResult> >,0> >::_Node *)
FUNC 43c0b a1 8 gl::IndexDataManager::IndexDataManager(gl::Context *,IDirect3DDevice9 *)
FUNC 43cac 271 4 std::_Tree<std::_Tmap_traits<gl::StaticIndexBuffer::IndexRange,gl::StaticIndexBuffer::IndexResult,std::less<gl::StaticIndexBuffer::IndexRange>,std::allocator<std::pair<gl::StaticIndexBuffer::IndexRange const ,gl::StaticIndexBuffer::IndexResult> >,0> >::erase(std::_Tree<std::_Tmap_traits<gl::StaticIndexBuffer::IndexRange,gl::StaticIndexBuffer::IndexResult,std::less<gl::StaticIndexBuffer::IndexRange>,std::allocator<std::pair<gl::StaticIndexBuffer::IndexRange const ,gl::StaticIndexBuffer::IndexResult> >,0> >::iterator)
FUNC 43f1d 5a 0 std::_Tree<std::_Tmap_traits<gl::StaticIndexBuffer::IndexRange,gl::StaticIndexBuffer::IndexResult,std::less<gl::StaticIndexBuffer::IndexRange>,std::allocator<std::pair<gl::StaticIndexBuffer::IndexRange const ,gl::StaticIndexBuffer::IndexResult> >,0> >::_Buynode()
FUNC 43f77 5b 14 std::_Tree<std::_Tmap_traits<gl::StaticIndexBuffer::IndexRange,gl::StaticIndexBuffer::IndexResult,std::less<gl::StaticIndexBuffer::IndexRange>,std::allocator<std::pair<gl::StaticIndexBuffer::IndexRange const ,gl::StaticIndexBuffer::IndexResult> >,0> >::_Buynode(std::_Tree_nod<std::_Tmap_traits<gl::StaticIndexBuffer::IndexRange,gl::StaticIndexBuffer::IndexResult,std::less<gl::StaticIndexBuffer::IndexRange>,std::allocator<std::pair<gl::StaticIndexBuffer::IndexRange const ,gl::StaticIndexBuffer::IndexResult> >,0> >::_Node *,std::_Tree_nod<std::_Tmap_traits<gl::StaticIndexBuffer::IndexRange,gl::StaticIndexBuffer::IndexResult,std::less<gl::StaticIndexBuffer::IndexRange>,std::allocator<std::pair<gl::StaticIndexBuffer::IndexRange const ,gl::StaticIndexBuffer::IndexResult> >,0> >::_Node *,std::_Tree_nod<std::_Tmap_traits<gl::StaticIndexBuffer::IndexRange,gl::StaticIndexBuffer::IndexResult,std::less<gl::StaticIndexBuffer::IndexRange>,std::allocator<std::pair<gl::StaticIndexBuffer::IndexRange const ,gl::StaticIndexBuffer::IndexResult> >,0> >::_Node *,std::pair<gl::StaticIndexBuffer::IndexRange const ,gl::StaticIndexBuffer::IndexResult> const &,char)
FUNC 43fd2 32 4 std::_Tree<std::_Tmap_traits<gl::StaticIndexBuffer::IndexRange,gl::StaticIndexBuffer::IndexResult,std::less<gl::StaticIndexBuffer::IndexRange>,std::allocator<std::pair<gl::StaticIndexBuffer::IndexRange const ,gl::StaticIndexBuffer::IndexResult> >,0> >::_Erase(std::_Tree_nod<std::_Tmap_traits<gl::StaticIndexBuffer::IndexRange,gl::StaticIndexBuffer::IndexResult,std::less<gl::StaticIndexBuffer::IndexRange>,std::allocator<std::pair<gl::StaticIndexBuffer::IndexRange const ,gl::StaticIndexBuffer::IndexResult> >,0> >::_Node *)
FUNC 44004 40 4 std::_Tree<std::_Tmap_traits<gl::StaticIndexBuffer::IndexRange,gl::StaticIndexBuffer::IndexResult,std::less<gl::StaticIndexBuffer::IndexRange>,std::allocator<std::pair<gl::StaticIndexBuffer::IndexRange const ,gl::StaticIndexBuffer::IndexResult> >,0> >::find(gl::StaticIndexBuffer::IndexRange const &)
FUNC 44044 25 0 std::_Tree<std::_Tmap_traits<gl::StaticIndexBuffer::IndexRange,gl::StaticIndexBuffer::IndexResult,std::less<gl::StaticIndexBuffer::IndexRange>,std::allocator<std::pair<gl::StaticIndexBuffer::IndexRange const ,gl::StaticIndexBuffer::IndexResult> >,0> >::_Init()
FUNC 44069 14c c std::_Tree<std::_Tmap_traits<gl::StaticIndexBuffer::IndexRange,gl::StaticIndexBuffer::IndexResult,std::less<gl::StaticIndexBuffer::IndexRange>,std::allocator<std::pair<gl::StaticIndexBuffer::IndexRange const ,gl::StaticIndexBuffer::IndexResult> >,0> >::_Insert(bool,std::_Tree_nod<std::_Tmap_traits<gl::StaticIndexBuffer::IndexRange,gl::StaticIndexBuffer::IndexResult,std::less<gl::StaticIndexBuffer::IndexRange>,std::allocator<std::pair<gl::StaticIndexBuffer::IndexRange const ,gl::StaticIndexBuffer::IndexResult> >,0> >::_Node *,std::pair<gl::StaticIndexBuffer::IndexRange const ,gl::StaticIndexBuffer::IndexResult> const &)
FUNC 441b5 26 0 std::_Tree<std::_Tmap_traits<gl::StaticIndexBuffer::IndexRange,gl::StaticIndexBuffer::IndexResult,std::less<gl::StaticIndexBuffer::IndexRange>,std::allocator<std::pair<gl::StaticIndexBuffer::IndexRange const ,gl::StaticIndexBuffer::IndexResult> >,0> >::clear()
FUNC 441db 49 10 gl::StaticIndexBuffer::lookupRange(int,int,unsigned int *,unsigned int *)
FUNC 44224 9c 4 std::_Tree<std::_Tmap_traits<gl::StaticIndexBuffer::IndexRange,gl::StaticIndexBuffer::IndexResult,std::less<gl::StaticIndexBuffer::IndexRange>,std::allocator<std::pair<gl::StaticIndexBuffer::IndexRange const ,gl::StaticIndexBuffer::IndexResult> >,0> >::insert(std::pair<gl::StaticIndexBuffer::IndexRange const ,gl::StaticIndexBuffer::IndexResult> const &)
FUNC 442c0 53 8 std::_Tree<std::_Tmap_traits<gl::StaticIndexBuffer::IndexRange,gl::StaticIndexBuffer::IndexResult,std::less<gl::StaticIndexBuffer::IndexRange>,std::allocator<std::pair<gl::StaticIndexBuffer::IndexRange const ,gl::StaticIndexBuffer::IndexResult> >,0> >::erase(std::_Tree<std::_Tmap_traits<gl::StaticIndexBuffer::IndexRange,gl::StaticIndexBuffer::IndexResult,std::less<gl::StaticIndexBuffer::IndexRange>,std::allocator<std::pair<gl::StaticIndexBuffer::IndexRange const ,gl::StaticIndexBuffer::IndexResult> >,0> >::iterator,std::_Tree<std::_Tmap_traits<gl::StaticIndexBuffer::IndexRange,gl::StaticIndexBuffer::IndexResult,std::less<gl::StaticIndexBuffer::IndexRange>,std::allocator<std::pair<gl::StaticIndexBuffer::IndexRange const ,gl::StaticIndexBuffer::IndexResult> >,0> >::iterator)
FUNC 44313 121 8 std::_Tree<std::_Tmap_traits<gl::StaticIndexBuffer::IndexRange,gl::StaticIndexBuffer::IndexResult,std::less<gl::StaticIndexBuffer::IndexRange>,std::allocator<std::pair<gl::StaticIndexBuffer::IndexRange const ,gl::StaticIndexBuffer::IndexResult> >,0> >::insert(std::_Tree<std::_Tmap_traits<gl::StaticIndexBuffer::IndexRange,gl::StaticIndexBuffer::IndexResult,std::less<gl::StaticIndexBuffer::IndexRange>,std::allocator<std::pair<gl::StaticIndexBuffer::IndexRange const ,gl::StaticIndexBuffer::IndexResult> >,0> >::iterator,std::pair<gl::StaticIndexBuffer::IndexRange const ,gl::StaticIndexBuffer::IndexResult> const &)
FUNC 44434 2b 0 std::_Tree<std::_Tmap_traits<gl::StaticIndexBuffer::IndexRange,gl::StaticIndexBuffer::IndexResult,std::less<gl::StaticIndexBuffer::IndexRange>,std::allocator<std::pair<gl::StaticIndexBuffer::IndexRange const ,gl::StaticIndexBuffer::IndexResult> >,0> >::_Tidy()
FUNC 4445f 66 4 std::map<gl::StaticIndexBuffer::IndexRange,gl::StaticIndexBuffer::IndexResult,std::less<gl::StaticIndexBuffer::IndexRange>,std::allocator<std::pair<gl::StaticIndexBuffer::IndexRange const ,gl::StaticIndexBuffer::IndexResult> > >::operator[](gl::StaticIndexBuffer::IndexRange const &)
FUNC 444c5 19 0 gl::StaticIndexBuffer::~StaticIndexBuffer()
FUNC 444de 40 14 gl::StaticIndexBuffer::addRange(int,int,unsigned int,unsigned int,unsigned int)
FUNC 4451e 2ac 14 gl::IndexDataManager::prepareIndexData(unsigned int,int,gl::Buffer *,void const *,gl::TranslatedIndexData *)
FUNC 447ca 2a 4 gl::StaticIndexBuffer::StaticIndexBuffer(IDirect3DDevice9 *)
FUNC 447f4 1c 0 gl::StaticIndexBuffer::`vector deleting destructor'(unsigned int)
FUNC 44810 4d 0 gl::VertexAttribute::typeSize()
FUNC 4485d 35 8 gl::elementsInBuffer(gl::VertexAttribute const &,int)
FUNC 44892 32 0 gl::VertexDataManager::~VertexDataManager()
FUNC 448c4 55 4 gl::VertexDataManager::checkVertexCaps(unsigned long)
FUNC 44919 56 4 gl::VertexDataManager::typeIndex(unsigned int)
FUNC 4496f 14 0 gl::VertexBuffer::~VertexBuffer()
FUNC 44983 10 0 gl::IndexBuffer::unmap()
FUNC 44993 5f c gl::StreamingVertexBuffer::map(gl::VertexAttribute const &,unsigned int,unsigned int *)
FUNC 449f2 9a 0 gl::StaticVertexBuffer::reserveRequiredSpace()
FUNC 44a8c 27 4 gl::VertexDataManager::formatConverter(gl::VertexAttribute const &)
FUNC 44ab3 16 0 std::vector<gl::StaticVertexBuffer::VertexElement,std::allocator<gl::StaticVertexBuffer::VertexElement> >::size()
FUNC 44ac9 16 0 std::vector<gl::StaticVertexBuffer::VertexElement,std::allocator<gl::StaticVertexBuffer::VertexElement> >::capacity()
FUNC 44adf 36 0 std::vector<TSymbolTableLevel *,std::allocator<TSymbolTableLevel *> >::_Xlen()
FUNC 44b15 21 4 gl::FixedToFloat<unsigned int,16>::convert(unsigned int)
FUNC 44b36 23 4 gl::Normalize<signed char>::convert(signed char)
FUNC 44b59 23 4 gl::Normalize<short>::convert(short)
FUNC 44b7c 4e 8 std::_Allocate<std::_Tree_nod<std::_Tmap_traits<TBasicType,TPrecision,std::less<TBasicType>,std::allocator<std::pair<TBasicType const ,TPrecision> >,0> >::_Node>(unsigned int,std::_Tree_nod<std::_Tmap_traits<TBasicType,TPrecision,std::less<TBasicType>,std::allocator<std::pair<TBasicType const ,TPrecision> >,0> >::_Node *)
FUNC 44bca 23 c std::_Fill<gl::StaticVertexBuffer::VertexElement *,gl::StaticVertexBuffer::VertexElement>(gl::StaticVertexBuffer::VertexElement *,gl::StaticVertexBuffer::VertexElement *,gl::StaticVertexBuffer::VertexElement const &)
FUNC 44bed 2a 18 std::_Copy_backward_opt<gl::StaticVertexBuffer::VertexElement *,gl::StaticVertexBuffer::VertexElement *,std::random_access_iterator_tag>(gl::StaticVertexBuffer::VertexElement *,gl::StaticVertexBuffer::VertexElement *,gl::StaticVertexBuffer::VertexElement *,std::random_access_iterator_tag,std::_Nonscalar_ptr_iterator_tag,std::_Range_checked_iterator_tag)
FUNC 44c17 16 8 std::_Construct<gl::StaticVertexBuffer::VertexElement,gl::StaticVertexBuffer::VertexElement>(gl::StaticVertexBuffer::VertexElement *,gl::StaticVertexBuffer::VertexElement const &)
FUNC 44c2d 1c 0 gl::VertexDataManager::`vector deleting destructor'(unsigned int)
FUNC 44c49 14 8 gl::VertexDataManager::spaceRequired(gl::VertexAttribute const &,unsigned int)
FUNC 44c5d 79 c gl::VertexBuffer::VertexBuffer(IDirect3DDevice9 *,unsigned int,unsigned long)
FUNC 44cd6 1c 0 gl::VertexBuffer::`vector deleting destructor'(unsigned int)
FUNC 44cf2 2e c gl::ArrayVertexBuffer::ArrayVertexBuffer(IDirect3DDevice9 *,unsigned int,unsigned long)
FUNC 44d20 21 8 gl::StreamingVertexBuffer::StreamingVertexBuffer(IDirect3DDevice9 *,unsigned int)
FUNC 44d41 22 0 gl::StreamingVertexBuffer::`vector deleting destructor'(unsigned int)
FUNC 44d63 d9 0 gl::StreamingVertexBuffer::reserveRequiredSpace()
FUNC 44e3c a4 4 gl::StaticVertexBuffer::lookupAttribute(gl::VertexAttribute const &)
FUNC 44ee0 29 10 gl::VertexDataConverter<float,gl::WidenRule<0,1>,gl::ConversionRule<5126,1,0>,gl::DefaultVertexValues<float,1> >::copyComponent(float *,float const *,unsigned int,float)
FUNC 44f09 29 10 gl::VertexDataConverter<float,gl::WidenRule<0,2>,gl::ConversionRule<5126,1,0>,gl::DefaultVertexValues<float,1> >::copyComponent(float *,float const *,unsigned int,float)
FUNC 44f32 29 10 gl::VertexDataConverter<float,gl::WidenRule<0,3>,gl::ConversionRule<5126,1,0>,gl::DefaultVertexValues<float,1> >::copyComponent(float *,float const *,unsigned int,float)
FUNC 44f5b 29 10 gl::VertexDataConverter<float,gl::WidenRule<0,4>,gl::ConversionRule<5126,1,0>,gl::DefaultVertexValues<float,1> >::copyComponent(float *,float const *,unsigned int,float)
FUNC 44f84 28 18 std::_Move_backward_opt<gl::StaticVertexBuffer::VertexElement *,gl::StaticVertexBuffer::VertexElement *,std::random_access_iterator_tag,std::_Undefined_move_tag>(gl::StaticVertexBuffer::VertexElement *,gl::StaticVertexBuffer::VertexElement *,gl::StaticVertexBuffer::VertexElement *,std::random_access_iterator_tag,std::_Undefined_move_tag,std::_Range_checked_iterator_tag)
FUNC 44fac 44 18 std::_Uninit_copy<gl::StaticVertexBuffer::VertexElement *,gl::StaticVertexBuffer::VertexElement *,std::allocator<gl::StaticVertexBuffer::VertexElement> >(gl::StaticVertexBuffer::VertexElement *,gl::StaticVertexBuffer::VertexElement *,gl::StaticVertexBuffer::VertexElement *,std::allocator<gl::StaticVertexBuffer::VertexElement> &,std::_Nonscalar_ptr_iterator_tag,std::_Range_checked_iterator_tag)
FUNC 44ff0 7f 8 gl::VertexDataManager::VertexDataManager(gl::Context *,IDirect3DDevice9 *)
FUNC 4506f d5 10 gl::VertexDataManager::writeAttributeData(gl::ArrayVertexBuffer *,int,int,gl::VertexAttribute const &)
FUNC 45144 428 c gl::VertexDataManager::prepareVertexData(int,int,gl::TranslatedAttribute *)
FUNC 4556c 29 10 gl::VertexDataConverter<signed char,gl::WidenRule<1,1>,gl::ConversionRule<5120,0,1>,gl::DefaultVertexValues<short,0> >::convertArray(signed char const *,unsigned int,unsigned int,short *)
FUNC 45595 2d 10 gl::VertexDataConverter<signed char,gl::WidenRule<1,2>,gl::ConversionRule<5120,0,1>,gl::DefaultVertexValues<short,0> >::convertArray(signed char const *,unsigned int,unsigned int,short *)
FUNC 455c2 3f 10 gl::VertexDataConverter<signed char,gl::WidenRule<1,3>,gl::ConversionRule<5120,0,1>,gl::DefaultVertexValues<short,0> >::convertArray(signed char const *,unsigned int,unsigned int,short *)
FUNC 45601 42 10 gl::VertexDataConverter<signed char,gl::WidenRule<1,4>,gl::ConversionRule<5120,0,1>,gl::DefaultVertexValues<short,0> >::convertArray(signed char const *,unsigned int,unsigned int,short *)
FUNC 45643 2d 10 gl::VertexDataConverter<signed char,gl::WidenRule<0,1>,gl::ConversionRule<5120,1,0>,gl::DefaultVertexValues<float,1> >::convertArray(signed char const *,unsigned int,unsigned int,float *)
FUNC 45670 3b 10 gl::VertexDataConverter<signed char,gl::WidenRule<0,2>,gl::ConversionRule<5120,1,0>,gl::DefaultVertexValues<float,1> >::convertArray(signed char const *,unsigned int,unsigned int,float *)
FUNC 456ab 4c 10 gl::VertexDataConverter<signed char,gl::WidenRule<0,3>,gl::ConversionRule<5120,1,0>,gl::DefaultVertexValues<float,1> >::convertArray(signed char const *,unsigned int,unsigned int,float *)
FUNC 456f7 59 10 gl::VertexDataConverter<signed char,gl::WidenRule<0,4>,gl::ConversionRule<5120,1,0>,gl::DefaultVertexValues<float,1> >::convertArray(signed char const *,unsigned int,unsigned int,float *)
FUNC 45750 2d 10 gl::VertexDataConverter<unsigned char,gl::WidenRule<3,1>,gl::ConversionRule<5121,0,3>,gl::DefaultVertexValues<unsigned char,0> >::convertArray(unsigned char const *,unsigned int,unsigned int,unsigned char *)
FUNC 4577d 28 10 gl::VertexDataConverter<unsigned char,gl::WidenRule<0,1>,gl::ConversionRule<5121,0,0>,gl::DefaultVertexValues<float,0> >::convertArray(unsigned char const *,unsigned int,unsigned int,float *)
FUNC 457a5 2f 10 gl::VertexDataConverter<unsigned char,gl::WidenRule<3,2>,gl::ConversionRule<5121,0,3>,gl::DefaultVertexValues<unsigned char,0> >::convertArray(unsigned char const *,unsigned int,unsigned int,unsigned char *)
FUNC 457d4 35 10 gl::VertexDataConverter<unsigned char,gl::WidenRule<0,2>,gl::ConversionRule<5121,0,0>,gl::DefaultVertexValues<float,0> >::convertArray(unsigned char const *,unsigned int,unsigned int,float *)
FUNC 45809 34 10 gl::VertexDataConverter<unsigned char,gl::WidenRule<3,3>,gl::ConversionRule<5121,0,3>,gl::DefaultVertexValues<unsigned char,0> >::convertArray(unsigned char const *,unsigned int,unsigned int,unsigned char *)
FUNC 4583d 45 10 gl::VertexDataConverter<unsigned char,gl::WidenRule<0,3>,gl::ConversionRule<5121,0,0>,gl::DefaultVertexValues<float,0> >::convertArray(unsigned char const *,unsigned int,unsigned int,float *)
FUNC 45882 52 10 gl::VertexDataConverter<unsigned char,gl::WidenRule<0,4>,gl::ConversionRule<5121,0,0>,gl::DefaultVertexValues<float,0> >::convertArray(unsigned char const *,unsigned int,unsigned int,float *)
FUNC 458d4 2d 10 gl::VertexDataConverter<unsigned char,gl::WidenRule<4,1>,gl::ConversionRule<5121,1,4>,gl::DefaultVertexValues<unsigned char,1> >::convertArray(unsigned char const *,unsigned int,unsigned int,unsigned char *)
FUNC 45901 2e 10 gl::VertexDataConverter<unsigned char,gl::WidenRule<0,1>,gl::ConversionRule<5121,1,0>,gl::DefaultVertexValues<float,1> >::convertArray(unsigned char const *,unsigned int,unsigned int,float *)
FUNC 4592f 2f 10 gl::VertexDataConverter<unsigned char,gl::WidenRule<4,2>,gl::ConversionRule<5121,1,4>,gl::DefaultVertexValues<unsigned char,1> >::convertArray(unsigned char const *,unsigned int,unsigned int,unsigned char *)
FUNC 4595e 41 10 gl::VertexDataConverter<unsigned char,gl::WidenRule<0,2>,gl::ConversionRule<5121,1,0>,gl::DefaultVertexValues<float,1> >::convertArray(unsigned char const *,unsigned int,unsigned int,float *)
FUNC 4599f 34 10 gl::VertexDataConverter<unsigned char,gl::WidenRule<4,3>,gl::ConversionRule<5121,1,4>,gl::DefaultVertexValues<unsigned char,1> >::convertArray(unsigned char const *,unsigned int,unsigned int,unsigned char *)
FUNC 459d3 53 10 gl::VertexDataConverter<unsigned char,gl::WidenRule<0,3>,gl::ConversionRule<5121,1,0>,gl::DefaultVertexValues<float,1> >::convertArray(unsigned char const *,unsigned int,unsigned int,float *)
FUNC 45a26 36 10 gl::VertexDataConverter<unsigned char,gl::WidenRule<3,4>,gl::ConversionRule<5121,0,3>,gl::DefaultVertexValues<unsigned char,0> >::convertArray(unsigned char const *,unsigned int,unsigned int,unsigned char *)
FUNC 45a5c 62 10 gl::VertexDataConverter<unsigned char,gl::WidenRule<0,4>,gl::ConversionRule<5121,1,0>,gl::DefaultVertexValues<float,1> >::convertArray(unsigned char const *,unsigned int,unsigned int,float *)
FUNC 45abe 2b 10 gl::VertexDataConverter<unsigned short,gl::WidenRule<5,2>,gl::ConversionRule<5123,1,5>,gl::DefaultVertexValues<unsigned short,1> >::convertArray(unsigned short const *,unsigned int,unsigned int,unsigned short *)
FUNC 45ae9 3c 10 gl::VertexDataConverter<short,gl::WidenRule<1,3>,gl::ConversionRule<5122,0,1>,gl::DefaultVertexValues<short,0> >::convertArray(short const *,unsigned int,unsigned int,short *)
FUNC 45b25 28 10 gl::VertexDataConverter<short,gl::WidenRule<2,1>,gl::ConversionRule<5122,1,2>,gl::DefaultVertexValues<short,1> >::convertArray(short const *,unsigned int,unsigned int,short *)
FUNC 45b4d 2d 10 gl::VertexDataConverter<short,gl::WidenRule<0,1>,gl::ConversionRule<5122,1,0>,gl::DefaultVertexValues<float,1> >::convertArray(short const *,unsigned int,unsigned int,float *)
FUNC 45b7a 3b 10 gl::VertexDataConverter<short,gl::WidenRule<0,2>,gl::ConversionRule<5122,1,0>,gl::DefaultVertexValues<float,1> >::convertArray(short const *,unsigned int,unsigned int,float *)
FUNC 45bb5 3c 10 gl::VertexDataConverter<short,gl::WidenRule<2,3>,gl::ConversionRule<5122,1,2>,gl::DefaultVertexValues<short,1> >::convertArray(short const *,unsigned int,unsigned int,short *)
FUNC 45bf1 4c 10 gl::VertexDataConverter<short,gl::WidenRule<0,3>,gl::ConversionRule<5122,1,0>,gl::DefaultVertexValues<float,1> >::convertArray(short const *,unsigned int,unsigned int,float *)
FUNC 45c3d 3e 10 gl::VertexDataConverter<unsigned short,gl::WidenRule<5,4>,gl::ConversionRule<5123,1,5>,gl::DefaultVertexValues<unsigned short,1> >::convertArray(unsigned short const *,unsigned int,unsigned int,unsigned short *)
FUNC 45c7b 59 10 gl::VertexDataConverter<short,gl::WidenRule<0,4>,gl::ConversionRule<5122,1,0>,gl::DefaultVertexValues<float,1> >::convertArray(short const *,unsigned int,unsigned int,float *)
FUNC 45cd4 28 10 gl::VertexDataConverter<unsigned short,gl::WidenRule<0,1>,gl::ConversionRule<5123,0,0>,gl::DefaultVertexValues<float,0> >::convertArray(unsigned short const *,unsigned int,unsigned int,float *)
FUNC 45cfc 35 10 gl::VertexDataConverter<unsigned short,gl::WidenRule<0,2>,gl::ConversionRule<5123,0,0>,gl::DefaultVertexValues<float,0> >::convertArray(unsigned short const *,unsigned int,unsigned int,float *)
FUNC 45d31 45 10 gl::VertexDataConverter<unsigned short,gl::WidenRule<0,3>,gl::ConversionRule<5123,0,0>,gl::DefaultVertexValues<float,0> >::convertArray(unsigned short const *,unsigned int,unsigned int,float *)
FUNC 45d76 52 10 gl::VertexDataConverter<unsigned short,gl::WidenRule<0,4>,gl::ConversionRule<5123,0,0>,gl::DefaultVertexValues<float,0> >::convertArray(unsigned short const *,unsigned int,unsigned int,float *)
FUNC 45dc8 2e 10 gl::VertexDataConverter<unsigned short,gl::WidenRule<0,1>,gl::ConversionRule<5123,1,0>,gl::DefaultVertexValues<float,1> >::convertArray(unsigned short const *,unsigned int,unsigned int,float *)
FUNC 45df6 41 10 gl::VertexDataConverter<unsigned short,gl::WidenRule<0,2>,gl::ConversionRule<5123,1,0>,gl::DefaultVertexValues<float,1> >::convertArray(unsigned short const *,unsigned int,unsigned int,float *)
FUNC 45e37 3c 10 gl::VertexDataConverter<unsigned short,gl::WidenRule<5,3>,gl::ConversionRule<5123,1,5>,gl::DefaultVertexValues<unsigned short,1> >::convertArray(unsigned short const *,unsigned int,unsigned int,unsigned short *)
FUNC 45e73 53 10 gl::VertexDataConverter<unsigned short,gl::WidenRule<0,3>,gl::ConversionRule<5123,1,0>,gl::DefaultVertexValues<float,1> >::convertArray(unsigned short const *,unsigned int,unsigned int,float *)
FUNC 45ec6 62 10 gl::VertexDataConverter<unsigned short,gl::WidenRule<0,4>,gl::ConversionRule<5123,1,0>,gl::DefaultVertexValues<float,1> >::convertArray(unsigned short const *,unsigned int,unsigned int,float *)
FUNC 45f28 2b 10 gl::VertexDataConverter<unsigned int,gl::WidenRule<0,1>,gl::ConversionRule<5132,1,0>,gl::DefaultVertexValues<float,1> >::convertArray(unsigned int const *,unsigned int,unsigned int,float *)
FUNC 45f53 37 10 gl::VertexDataConverter<unsigned int,gl::WidenRule<0,2>,gl::ConversionRule<5132,1,0>,gl::DefaultVertexValues<float,1> >::convertArray(unsigned int const *,unsigned int,unsigned int,float *)
FUNC 45f8a 46 10 gl::VertexDataConverter<unsigned int,gl::WidenRule<0,3>,gl::ConversionRule<5132,1,0>,gl::DefaultVertexValues<float,1> >::convertArray(unsigned int const *,unsigned int,unsigned int,float *)
FUNC 45fd0 51 10 gl::VertexDataConverter<unsigned int,gl::WidenRule<0,4>,gl::ConversionRule<5132,1,0>,gl::DefaultVertexValues<float,1> >::convertArray(unsigned int const *,unsigned int,unsigned int,float *)
FUNC 46021 1f 10 gl::VertexDataConverter<float,gl::WidenRule<0,1>,gl::ConversionRule<5126,0,0>,gl::DefaultVertexValues<float,0> >::convertArray(float const *,unsigned int,unsigned int,float *)
FUNC 46040 25 10 gl::VertexDataConverter<float,gl::WidenRule<0,2>,gl::ConversionRule<5126,0,0>,gl::DefaultVertexValues<float,0> >::convertArray(float const *,unsigned int,unsigned int,float *)
FUNC 46065 2e 10 gl::VertexDataConverter<float,gl::WidenRule<0,3>,gl::ConversionRule<5126,0,0>,gl::DefaultVertexValues<float,0> >::convertArray(float const *,unsigned int,unsigned int,float *)
FUNC 46093 34 10 gl::VertexDataConverter<float,gl::WidenRule<0,4>,gl::ConversionRule<5126,0,0>,gl::DefaultVertexValues<float,0> >::convertArray(float const *,unsigned int,unsigned int,float *)
FUNC 460c7 44 10 gl::VertexDataConverter<float,gl::WidenRule<0,1>,gl::ConversionRule<5126,1,0>,gl::DefaultVertexValues<float,1> >::convertArray(float const *,unsigned int,unsigned int,float *)
FUNC 4610b 55 10 gl::VertexDataConverter<float,gl::WidenRule<0,2>,gl::ConversionRule<5126,1,0>,gl::DefaultVertexValues<float,1> >::convertArray(float const *,unsigned int,unsigned int,float *)
FUNC 46160 66 10 gl::VertexDataConverter<float,gl::WidenRule<0,3>,gl::ConversionRule<5126,1,0>,gl::DefaultVertexValues<float,1> >::convertArray(float const *,unsigned int,unsigned int,float *)
FUNC 461c6 66 10 gl::VertexDataConverter<float,gl::WidenRule<0,4>,gl::ConversionRule<5126,1,0>,gl::DefaultVertexValues<float,1> >::convertArray(float const *,unsigned int,unsigned int,float *)
FUNC 4622c 28 c stdext::_Unchecked_move_backward<gl::StaticVertexBuffer::VertexElement *,gl::StaticVertexBuffer::VertexElement *>(gl::StaticVertexBuffer::VertexElement *,gl::StaticVertexBuffer::VertexElement *,gl::StaticVertexBuffer::VertexElement *)
FUNC 46254 40 18 std::_Uninit_fill_n<gl::StaticVertexBuffer::VertexElement *,unsigned int,gl::StaticVertexBuffer::VertexElement,std::allocator<gl::StaticVertexBuffer::VertexElement> >(gl::StaticVertexBuffer::VertexElement *,unsigned int,gl::StaticVertexBuffer::VertexElement const &,std::allocator<gl::StaticVertexBuffer::VertexElement> &,std::_Nonscalar_ptr_iterator_tag,std::_Range_checked_iterator_tag)
FUNC 46294 28 10 stdext::unchecked_uninitialized_copy<gl::StaticVertexBuffer::VertexElement *,gl::StaticVertexBuffer::VertexElement *,std::allocator<gl::StaticVertexBuffer::VertexElement> >(gl::StaticVertexBuffer::VertexElement *,gl::StaticVertexBuffer::VertexElement *,gl::StaticVertexBuffer::VertexElement *,std::allocator<gl::StaticVertexBuffer::VertexElement> &)
FUNC 462bc 5 10 gl::VertexDataConverter<signed char,gl::WidenRule<1,1>,gl::ConversionRule<5120,0,1>,gl::DefaultVertexValues<short,0> >::convertArray(void const *,unsigned int,unsigned int,void *)
FUNC 462c1 5 10 gl::VertexDataConverter<signed char,gl::WidenRule<1,2>,gl::ConversionRule<5120,0,1>,gl::DefaultVertexValues<short,0> >::convertArray(void const *,unsigned int,unsigned int,void *)
FUNC 462c6 5 10 gl::VertexDataConverter<signed char,gl::WidenRule<1,3>,gl::ConversionRule<5120,0,1>,gl::DefaultVertexValues<short,0> >::convertArray(void const *,unsigned int,unsigned int,void *)
FUNC 462cb 5 10 gl::VertexDataConverter<signed char,gl::WidenRule<1,4>,gl::ConversionRule<5120,0,1>,gl::DefaultVertexValues<short,0> >::convertArray(void const *,unsigned int,unsigned int,void *)
FUNC 462d0 5 10 gl::VertexDataConverter<signed char,gl::WidenRule<0,1>,gl::ConversionRule<5120,1,0>,gl::DefaultVertexValues<float,1> >::convertArray(void const *,unsigned int,unsigned int,void *)
FUNC 462d5 5 10 gl::VertexDataConverter<signed char,gl::WidenRule<0,2>,gl::ConversionRule<5120,1,0>,gl::DefaultVertexValues<float,1> >::convertArray(void const *,unsigned int,unsigned int,void *)
FUNC 462da 5 10 gl::VertexDataConverter<signed char,gl::WidenRule<0,3>,gl::ConversionRule<5120,1,0>,gl::DefaultVertexValues<float,1> >::convertArray(void const *,unsigned int,unsigned int,void *)
FUNC 462df 5 10 gl::VertexDataConverter<signed char,gl::WidenRule<0,4>,gl::ConversionRule<5120,1,0>,gl::DefaultVertexValues<float,1> >::convertArray(void const *,unsigned int,unsigned int,void *)
FUNC 462e4 5 10 gl::VertexDataConverter<unsigned char,gl::WidenRule<3,1>,gl::ConversionRule<5121,0,3>,gl::DefaultVertexValues<unsigned char,0> >::convertArray(void const *,unsigned int,unsigned int,void *)
FUNC 462e9 5 10 gl::VertexDataConverter<unsigned char,gl::WidenRule<0,1>,gl::ConversionRule<5121,0,0>,gl::DefaultVertexValues<float,0> >::convertArray(void const *,unsigned int,unsigned int,void *)
FUNC 462ee 5 10 gl::VertexDataConverter<unsigned char,gl::WidenRule<3,2>,gl::ConversionRule<5121,0,3>,gl::DefaultVertexValues<unsigned char,0> >::convertArray(void const *,unsigned int,unsigned int,void *)
FUNC 462f3 5 10 gl::VertexDataConverter<unsigned char,gl::WidenRule<0,2>,gl::ConversionRule<5121,0,0>,gl::DefaultVertexValues<float,0> >::convertArray(void const *,unsigned int,unsigned int,void *)
FUNC 462f8 5 10 gl::VertexDataConverter<unsigned char,gl::WidenRule<3,3>,gl::ConversionRule<5121,0,3>,gl::DefaultVertexValues<unsigned char,0> >::convertArray(void const *,unsigned int,unsigned int,void *)
FUNC 462fd 5 10 gl::VertexDataConverter<unsigned char,gl::WidenRule<0,3>,gl::ConversionRule<5121,0,0>,gl::DefaultVertexValues<float,0> >::convertArray(void const *,unsigned int,unsigned int,void *)
FUNC 46302 5 10 gl::VertexDataConverter<unsigned char,gl::WidenRule<0,4>,gl::ConversionRule<5121,0,0>,gl::DefaultVertexValues<float,0> >::convertArray(void const *,unsigned int,unsigned int,void *)
FUNC 46307 5 10 gl::VertexDataConverter<unsigned char,gl::WidenRule<4,1>,gl::ConversionRule<5121,1,4>,gl::DefaultVertexValues<unsigned char,1> >::convertArray(void const *,unsigned int,unsigned int,void *)
FUNC 4630c 5 10 gl::VertexDataConverter<unsigned char,gl::WidenRule<0,1>,gl::ConversionRule<5121,1,0>,gl::DefaultVertexValues<float,1> >::convertArray(void const *,unsigned int,unsigned int,void *)
FUNC 46311 5 10 gl::VertexDataConverter<unsigned char,gl::WidenRule<4,2>,gl::ConversionRule<5121,1,4>,gl::DefaultVertexValues<unsigned char,1> >::convertArray(void const *,unsigned int,unsigned int,void *)
FUNC 46316 5 10 gl::VertexDataConverter<unsigned char,gl::WidenRule<0,2>,gl::ConversionRule<5121,1,0>,gl::DefaultVertexValues<float,1> >::convertArray(void const *,unsigned int,unsigned int,void *)
FUNC 4631b 5 10 gl::VertexDataConverter<unsigned char,gl::WidenRule<4,3>,gl::ConversionRule<5121,1,4>,gl::DefaultVertexValues<unsigned char,1> >::convertArray(void const *,unsigned int,unsigned int,void *)
FUNC 46320 5 10 gl::VertexDataConverter<unsigned char,gl::WidenRule<0,3>,gl::ConversionRule<5121,1,0>,gl::DefaultVertexValues<float,1> >::convertArray(void const *,unsigned int,unsigned int,void *)
FUNC 46325 5 10 gl::VertexDataConverter<unsigned char,gl::WidenRule<3,4>,gl::ConversionRule<5121,0,3>,gl::DefaultVertexValues<unsigned char,0> >::convertArray(void const *,unsigned int,unsigned int,void *)
FUNC 4632a 5 10 gl::VertexDataConverter<unsigned char,gl::WidenRule<0,4>,gl::ConversionRule<5121,1,0>,gl::DefaultVertexValues<float,1> >::convertArray(void const *,unsigned int,unsigned int,void *)
FUNC 4632f 5 10 gl::VertexDataConverter<unsigned short,gl::WidenRule<5,1>,gl::ConversionRule<5123,1,5>,gl::DefaultVertexValues<unsigned short,1> >::convertArray(void const *,unsigned int,unsigned int,void *)
FUNC 46334 5 10 gl::VertexDataConverter<short,gl::WidenRule<1,3>,gl::ConversionRule<5122,0,1>,gl::DefaultVertexValues<short,0> >::convertArray(void const *,unsigned int,unsigned int,void *)
FUNC 46339 5 10 gl::VertexDataConverter<short,gl::WidenRule<0,1>,gl::ConversionRule<5122,1,0>,gl::DefaultVertexValues<float,1> >::convertArray(void const *,unsigned int,unsigned int,void *)
FUNC 4633e 5 10 gl::VertexDataConverter<short,gl::WidenRule<0,2>,gl::ConversionRule<5122,1,0>,gl::DefaultVertexValues<float,1> >::convertArray(void const *,unsigned int,unsigned int,void *)
FUNC 46343 5 10 gl::VertexDataConverter<short,gl::WidenRule<2,3>,gl::ConversionRule<5122,1,2>,gl::DefaultVertexValues<short,1> >::convertArray(void const *,unsigned int,unsigned int,void *)
FUNC 46348 5 10 gl::VertexDataConverter<short,gl::WidenRule<0,3>,gl::ConversionRule<5122,1,0>,gl::DefaultVertexValues<float,1> >::convertArray(void const *,unsigned int,unsigned int,void *)
FUNC 4634d 5 10 gl::VertexDataConverter<short,gl::WidenRule<1,4>,gl::ConversionRule<5122,0,1>,gl::DefaultVertexValues<short,0> >::convertArray(void const *,unsigned int,unsigned int,void *)
FUNC 46352 5 10 gl::VertexDataConverter<short,gl::WidenRule<0,4>,gl::ConversionRule<5122,1,0>,gl::DefaultVertexValues<float,1> >::convertArray(void const *,unsigned int,unsigned int,void *)
FUNC 46357 5 10 gl::VertexDataConverter<unsigned short,gl::WidenRule<0,1>,gl::ConversionRule<5123,0,0>,gl::DefaultVertexValues<float,0> >::convertArray(void const *,unsigned int,unsigned int,void *)
FUNC 4635c 5 10 gl::VertexDataConverter<unsigned short,gl::WidenRule<0,2>,gl::ConversionRule<5123,0,0>,gl::DefaultVertexValues<float,0> >::convertArray(void const *,unsigned int,unsigned int,void *)
FUNC 46361 5 10 gl::VertexDataConverter<unsigned short,gl::WidenRule<0,3>,gl::ConversionRule<5123,0,0>,gl::DefaultVertexValues<float,0> >::convertArray(void const *,unsigned int,unsigned int,void *)
FUNC 46366 5 10 gl::VertexDataConverter<unsigned short,gl::WidenRule<0,4>,gl::ConversionRule<5123,0,0>,gl::DefaultVertexValues<float,0> >::convertArray(void const *,unsigned int,unsigned int,void *)
FUNC 4636b 5 10 gl::VertexDataConverter<unsigned short,gl::WidenRule<0,1>,gl::ConversionRule<5123,1,0>,gl::DefaultVertexValues<float,1> >::convertArray(void const *,unsigned int,unsigned int,void *)
FUNC 46370 5 10 gl::VertexDataConverter<short,gl::WidenRule<2,2>,gl::ConversionRule<5122,1,2>,gl::DefaultVertexValues<short,1> >::convertArray(void const *,unsigned int,unsigned int,void *)
FUNC 46375 5 10 gl::VertexDataConverter<unsigned short,gl::WidenRule<0,2>,gl::ConversionRule<5123,1,0>,gl::DefaultVertexValues<float,1> >::convertArray(void const *,unsigned int,unsigned int,void *)
FUNC 4637a 5 10 gl::VertexDataConverter<unsigned short,gl::WidenRule<5,3>,gl::ConversionRule<5123,1,5>,gl::DefaultVertexValues<unsigned short,1> >::convertArray(void const *,unsigned int,unsigned int,void *)
FUNC 4637f 5 10 gl::VertexDataConverter<unsigned short,gl::WidenRule<0,3>,gl::ConversionRule<5123,1,0>,gl::DefaultVertexValues<float,1> >::convertArray(void const *,unsigned int,unsigned int,void *)
FUNC 46384 5 10 gl::VertexDataConverter<unsigned short,gl::WidenRule<0,4>,gl::ConversionRule<5123,1,0>,gl::DefaultVertexValues<float,1> >::convertArray(void const *,unsigned int,unsigned int,void *)
FUNC 46389 5 10 gl::VertexDataConverter<unsigned int,gl::WidenRule<0,1>,gl::ConversionRule<5132,1,0>,gl::DefaultVertexValues<float,1> >::convertArray(void const *,unsigned int,unsigned int,void *)
FUNC 4638e 5 10 gl::VertexDataConverter<unsigned int,gl::WidenRule<0,2>,gl::ConversionRule<5132,1,0>,gl::DefaultVertexValues<float,1> >::convertArray(void const *,unsigned int,unsigned int,void *)
FUNC 46393 5 10 gl::VertexDataConverter<unsigned int,gl::WidenRule<0,3>,gl::ConversionRule<5132,1,0>,gl::DefaultVertexValues<float,1> >::convertArray(void const *,unsigned int,unsigned int,void *)
FUNC 46398 5 10 gl::VertexDataConverter<unsigned int,gl::WidenRule<0,4>,gl::ConversionRule<5132,0,0>,gl::DefaultVertexValues<float,0> >::convertArray(void const *,unsigned int,unsigned int,void *)
FUNC 4639d 5 10 gl::VertexDataConverter<float,gl::WidenRule<0,1>,gl::ConversionRule<5126,0,0>,gl::DefaultVertexValues<float,0> >::convertArray(void const *,unsigned int,unsigned int,void *)
FUNC 463a2 5 10 gl::VertexDataConverter<float,gl::WidenRule<0,2>,gl::ConversionRule<5126,0,0>,gl::DefaultVertexValues<float,0> >::convertArray(void const *,unsigned int,unsigned int,void *)
FUNC 463a7 5 10 gl::VertexDataConverter<float,gl::WidenRule<0,3>,gl::ConversionRule<5126,0,0>,gl::DefaultVertexValues<float,0> >::convertArray(void const *,unsigned int,unsigned int,void *)
FUNC 463ac 5 10 gl::VertexDataConverter<float,gl::WidenRule<0,4>,gl::ConversionRule<5126,0,0>,gl::DefaultVertexValues<float,0> >::convertArray(void const *,unsigned int,unsigned int,void *)
FUNC 463b1 5 10 gl::VertexDataConverter<float,gl::WidenRule<0,1>,gl::ConversionRule<5126,1,0>,gl::DefaultVertexValues<float,1> >::convertArray(void const *,unsigned int,unsigned int,void *)
FUNC 463b6 5 10 gl::VertexDataConverter<float,gl::WidenRule<0,2>,gl::ConversionRule<5126,1,0>,gl::DefaultVertexValues<float,1> >::convertArray(void const *,unsigned int,unsigned int,void *)
FUNC 463bb 5 10 gl::VertexDataConverter<float,gl::WidenRule<0,3>,gl::ConversionRule<5126,1,0>,gl::DefaultVertexValues<float,1> >::convertArray(void const *,unsigned int,unsigned int,void *)
FUNC 463c0 5 10 gl::VertexDataConverter<float,gl::WidenRule<0,4>,gl::ConversionRule<5126,1,0>,gl::DefaultVertexValues<float,1> >::convertArray(void const *,unsigned int,unsigned int,void *)
FUNC 463c5 28 10 stdext::unchecked_uninitialized_fill_n<gl::StaticVertexBuffer::VertexElement *,unsigned int,gl::StaticVertexBuffer::VertexElement,std::allocator<gl::StaticVertexBuffer::VertexElement> >(gl::StaticVertexBuffer::VertexElement *,unsigned int,gl::StaticVertexBuffer::VertexElement const &,std::allocator<gl::StaticVertexBuffer::VertexElement> &)
FUNC 463ed 22 c std::vector<gl::StaticVertexBuffer::VertexElement,std::allocator<gl::StaticVertexBuffer::VertexElement> >::_Ufill(gl::StaticVertexBuffer::VertexElement *,unsigned int,gl::StaticVertexBuffer::VertexElement const &)
FUNC 4640f 18 c std::vector<gl::StaticVertexBuffer::VertexElement,std::allocator<gl::StaticVertexBuffer::VertexElement> >::_Umove<gl::StaticVertexBuffer::VertexElement *>(gl::StaticVertexBuffer::VertexElement *,gl::StaticVertexBuffer::VertexElement *,gl::StaticVertexBuffer::VertexElement *)
FUNC 46427 1bd c std::vector<gl::StaticVertexBuffer::VertexElement,std::allocator<gl::StaticVertexBuffer::VertexElement> >::_Insert_n(std::_Vector_iterator<gl::StaticVertexBuffer::VertexElement,std::allocator<gl::StaticVertexBuffer::VertexElement> >,unsigned int,gl::StaticVertexBuffer::VertexElement const &)
FUNC 465e4 28 4 gl::StaticVertexBuffer::StaticVertexBuffer(IDirect3DDevice9 *)
FUNC 4660c 1f 0 gl::StaticVertexBuffer::~StaticVertexBuffer()
FUNC 4662b 42 8 std::vector<gl::StaticVertexBuffer::VertexElement,std::allocator<gl::StaticVertexBuffer::VertexElement> >::insert(std::_Vector_iterator<gl::StaticVertexBuffer::VertexElement,std::allocator<gl::StaticVertexBuffer::VertexElement> >,gl::StaticVertexBuffer::VertexElement const &)
FUNC 4666d 1c 0 gl::StaticVertexBuffer::`scalar deleting destructor'(unsigned int)
FUNC 46689 40 4 std::vector<gl::StaticVertexBuffer::VertexElement,std::allocator<gl::StaticVertexBuffer::VertexElement> >::push_back(gl::StaticVertexBuffer::VertexElement const &)
FUNC 466c9 b7 c gl::StaticVertexBuffer::map(gl::VertexAttribute const &,unsigned int,unsigned int *)
FUNC 467e0 f 0 __security_check_cookie
FUNC 467f0 49 0 type_info::`vector deleting destructor'(unsigned int)
FUNC 4685e 36 4 _EH_prolog3_catch
FUNC 46894 39 4 _EH_prolog3_catch_GS
FUNC 468cd 14 0 _EH_epilog3
FUNC 468e1 f 0 _EH_epilog3_catch_GS
FUNC 46930 9 0 _ftol2_sse
FUNC 46939 13 0 _ftol2_pentium4
FUNC 4694c 1a 0 _ftol2_sse_excpt
FUNC 46966 75 0 _ftol2
FUNC 469db 5 4 operator new[](unsigned int)
FUNC 469f0 2b 0 _chkstk
FUNC 46a22 4d 0 pre_c_init
FUNC 46a6f 1c3 c _CRT_INIT
FUNC 46c32 116 4 __DllMainCRTStartup
FUNC 46d48 21 c _DllMainCRTStartup
FUNC 46d69 104 0 __report_gsfailure
FUNC 46e6d 5e 10 __ArrayUnwind(void *,unsigned int,int,void (*)(void *))
FUNC 46ecb 63 10 `eh vector destructor iterator'(void *,unsigned int,int,void (*)(void *))
FUNC 46f2e 50 0 has_osfxsr_set
FUNC 46f7e 60 0 _get_sse2_info
FUNC 46fde d 0 __sse2_available_init
FUNC 46feb c 0 __clean_type_info_names
FUNC 46ff7 a5 4 _onexit
FUNC 4709c 12 4 atexit
FUNC 470ae 24 0 _RTC_Initialize
FUNC 470d2 24 0 _RTC_Terminate
FUNC 47100 29 4 _ValidateImageBase
FUNC 47130 42 8 _FindPESection
FUNC 47180 bb 4 _IsNonwritableInCurrentImage
FUNC 47254 45 0 _SEH_prolog4
FUNC 47299 14 0 _SEH_epilog4
FUNC 472ad 23 10 _except_handler4
FUNC 472d0 94 0 __security_init_cookie
STACK WIN 4 1000 61 2 0 4 0 0 0 1 $T2 $esp .cbLocals + .cbSavedRegs + = $T0 .raSearchStart = $eip $T0 ^ = $esp $T0 4 + =
STACK WIN 4 1001 5f 1 0 4 4 0 0 1 $T2 $esp .cbLocals + .cbSavedRegs + = $T0 .raSearchStart = $eip $T0 ^ = $esp $T0 4 + = $ebx $T0 4 - ^ =
STACK WIN 4 1002 5b 0 0 4 8 0 0 1 $T2 $esp .cbLocals + .cbSavedRegs + = $T0 .raSearchStart = $eip $T0 ^ = $esp $T0 4 + = $ebx $T0 4 - ^ =
STACK WIN 4 1061 44 3 0 0 0 0 0 1 $T2 $esp .cbLocals + .cbSavedRegs + = $T0 .raSearchStart = $eip $T0 ^ = $esp $T0 4 + =
STACK WIN 4 1062 42 2 0 0 4 0 0 1 $T2 $esp .cbLocals + .cbSavedRegs + = $T0 .raSearchStart = $eip $T0 ^ = $esp $T0 4 + =
STACK WIN 4 10a5 1f 0 0 8 0 0 0 1 $T2 $esp .cbLocals + .cbSavedRegs + = $T0 .raSearchStart = $eip $T0 ^ = $esp $T0 4 + =
STACK WIN 4 10c4 94 4 0 0 0 4 0 1 $T0 $ebp = $eip $T0 4 + ^ = $ebp $T0 ^ = $esp $T0 8 + = $L $T0 .cbSavedRegs - = $P $T0 8 + .cbParams + =
STACK WIN 4 10dc 78 0 0 0 4 4 0 1 $T0 $ebp = $eip $T0 4 + ^ = $ebp $T0 ^ = $esp $T0 8 + = $L $T0 .cbSavedRegs - = $P $T0 8 + .cbParams + = $ebx $T0 8 - ^ =
STACK WIN 4 1158 27 0 0 0 0 0 0 1 $T2 $esp .cbLocals + .cbSavedRegs + = $T0 .raSearchStart = $eip $T0 ^ = $esp $T0 4 + =
STACK WIN 4 1161 14 0 0 0 4 0 0 1 $T2 $esp .cbLocals + .cbSavedRegs + = $T0 .raSearchStart = $eip $T0 ^ = $esp $T0 4 + =
STACK WIN 4 117f 3a 3 0 0 0 0 0 1 $T2 $esp .cbLocals + .cbSavedRegs + = $T0 .raSearchStart = $eip $T0 ^ = $esp $T0 4 + =
STACK WIN 4 1180 38 2 0 0 4 0 0 1 $T2 $esp .cbLocals + .cbSavedRegs + = $T0 .raSearchStart = $eip $T0 ^ = $esp $T0 4 + =
STACK WIN 4 1189 2b 0 0 0 8 0 0 1 $T2 $esp .cbLocals + .cbSavedRegs + = $T0 .raSearchStart = $eip $T0 ^ = $esp $T0 4 + =
STACK WIN 4 11b9 45 0 0 8 0 0 0 1 $T2 $esp .cbLocals + .cbSavedRegs + = $T0 .raSearchStart = $eip $T0 ^ = $esp $T0 4 + =
STACK WIN 4 11fe 1b 0 0 8 0 0 0 1 $T2 $esp .cbLocals + .cbSavedRegs + = $T0 .raSearchStart = $eip $T0 ^ = $esp $T0 4 + =
STACK WIN 4 1219 6a b 0 4 0 4 0 1 $T0 $ebp = $eip $T0 4 + ^ = $ebp $T0 ^ = $esp $T0 8 + = $L $T0 .cbSavedRegs - = $P $T0 8 + .cbParams + =
STACK WIN 4 121e 63 6 0 4 4 4 0 1 $T0 $ebp = $eip $T0 4 + ^ = $ebp $T0 ^ = $esp $T0 8 + = $L $T0 .cbSavedRegs - = $P $T0 8 + .cbParams + =
STACK WIN 4 121f 5f 5 0 4 8 4 0 1 $T0 $ebp = $eip $T0 4 + ^ = $ebp $T0 ^ = $esp $T0 8 + = $L $T0 .cbSavedRegs - = $P $T0 8 + .cbParams + =
STACK WIN 4 1283 11 0 0 8 0 0 0 1 $T2 $esp .cbLocals + .cbSavedRegs + = $T0 .raSearchStart = $eip $T0 ^ = $esp $T0 4 + =
STACK WIN 4 1294 5b d 0 4 0 0 0 1 $T2 $esp .cbLocals + .cbSavedRegs + = $T0 .raSearchStart = $eip $T0 ^ = $esp $T0 4 + =
STACK WIN 4 1295 59 c 0 4 4 0 0 1 $T2 $esp .cbLocals + .cbSavedRegs + = $T0 .raSearchStart = $eip $T0 ^ = $esp $T0 4 + = $ebx $T0 4 - ^ =
STACK WIN 4 1296 57 b 0 4 8 0 0 1 $T2 $esp .cbLocals + .cbSavedRegs + = $T0 .raSearchStart = $eip $T0 ^ = $esp $T0 4 + = $ebx $T0 4 - ^ =
STACK WIN 4 12a1 3f 0 0 4 c 0 0 1 $T2 $esp .cbLocals + .cbSavedRegs + = $T0 .raSearchStart = $eip $T0 ^ = $esp $T0 4 + = $ebx $T0 4 - ^ =
STACK WIN 4 12ef 190 1a 0 0 0 e8 0 1 $T0 $ebp 120 + = $eip $T0 4 + ^ = $ebp $T0 ^ = $esp $T0 8 + = $L $T0 .cbSavedRegs - = $P $T0 8 + .cbParams + =
STACK WIN 4 1307 16e 2 0 0 4 e8 0 1 $T0 $ebp 120 + = $eip $T0 4 + ^ = $ebp $T0 ^ = $esp $T0 8 + = $L $T0 .cbSavedRegs - = $P $T0 8 + .cbParams + = $ebx $T0 236 - ^ =
STACK WIN 4 1308 16a 1 0 0 8 e8 0 1 $T0 $ebp 120 + = $eip $T0 4 + ^ = $ebp $T0 ^ = $esp $T0 8 + = $L $T0 .cbSavedRegs - = $P $T0 8 + .cbParams + = $ebx $T0 236 - ^ =
STACK WIN 4 1309 168 0 0 0 c e8 0 1 $T0 $ebp 120 + = $eip $T0 4 + ^ = $ebp $T0 ^ = $esp $T0 8 + = $L $T0 .cbSavedRegs - = $P $T0 8 + .cbParams + = $ebx $T0 236 - ^ =
STACK WIN 4 147f 6b c 0 4 0 38 0 1 $T0 $ebp = $eip $T0 4 + ^ = $ebp $T0 ^ = $esp $T0 8 + = $L $T0 .cbSavedRegs - = $P $T0 8 + .cbParams + =
STACK WIN 4 1486 62 5 0 4 4 38 0 1 $T0 $ebp = $eip $T0 4 + ^ = $ebp $T0 ^ = $esp $T0 8 + = $L $T0 .cbSavedRegs - = $P $T0 8 + .cbParams + = $ebx $T0 60 - ^ =
STACK WIN 4 148a 5d 1 0 4 8 38 0 1 $T0 $ebp = $eip $T0 4 + ^ = $ebp $T0 ^ = $esp $T0 8 + = $L $T0 .cbSavedRegs - = $P $T0 8 + .cbParams + = $ebx $T0 60 - ^ =
STACK WIN 4 148b 5b 0 0 4 c 38 0 1 $T0 $ebp = $eip $T0 4 + ^ = $ebp $T0 ^ = $esp $T0 8 + = $L $T0 .cbSavedRegs - = $P $T0 8 + .cbParams + = $ebx $T0 60 - ^ =
STACK WIN 4 14ea 49 6 0 8 0 0 0 1 $T2 $esp .cbLocals + .cbSavedRegs + = $T0 .raSearchStart = $eip $T0 ^ = $esp $T0 4 + =
STACK WIN 4 14eb 47 5 0 8 4 0 0 1 $T2 $esp .cbLocals + .cbSavedRegs + = $T0 .raSearchStart = $eip $T0 ^ = $esp $T0 4 + =
STACK WIN 4 14f0 41 0 0 8 8 0 0 1 $T2 $esp .cbLocals + .cbSavedRegs + = $T0 .raSearchStart = $eip $T0 ^ = $esp $T0 4 + =
STACK WIN 4 1533 3f 6 0 8 0 0 0 1 $T2 $esp .cbLocals + .cbSavedRegs + = $T0 .raSearchStart = $eip $T0 ^ = $esp $T0 4 + =
STACK WIN 4 1534 3d 5 0 8 4 0 0 1 $T2 $esp .cbLocals + .cbSavedRegs + = $T0 .raSearchStart = $eip $T0 ^ = $esp $T0 4 + =
STACK WIN 4 1539 37 0 0 8 8 0 0 1 $T2 $esp .cbLocals + .cbSavedRegs + = $T0 .raSearchStart = $eip $T0 ^ = $esp $T0 4 + =
STACK WIN 4 1572 10a 6 0 8 0 0 0 1 $T0 $ebp = $eip $T0 4 + ^ = $ebp $T0 ^ = $esp $T0 8 + = $L $T0 .cbSavedRegs - = $P $T0 8 + .cbParams + =
STACK WIN 4 1576 100 2 0 8 4 0 0 1 $T0 $ebp = $eip $T0 4 + ^ = $ebp $T0 ^ = $esp $T0 8 + = $L $T0 .cbSavedRegs - = $P $T0 8 + .cbParams + = $ebx $T0 4 - ^ =
STACK WIN 4 1577 fe 1 0 8 8 0 0 1 $T0 $ebp = $eip $T0 4 + ^ = $ebp $T0 ^ = $esp $T0 8 + = $L $T0 .cbSavedRegs - = $P $T0 8 + .cbParams + = $ebx $T0 4 - ^ =
STACK WIN 4 1578 fc 0 0 8 c 0 0 1 $T0 $ebp = $eip $T0 4 + ^ = $ebp $T0 ^ = $esp $T0 8 + = $L $T0 .cbSavedRegs - = $P $T0 8 + .cbParams + = $ebx $T0 4 - ^ =
STACK WIN 4 167c 1d 0 0 0 0 0 0 1 $T2 $esp .cbLocals + .cbSavedRegs + = $T0 .raSearchStart = $eip $T0 ^ = $esp $T0 4 + =
STACK WIN 4 1699 27c 10 0 0 0 11c 0 1 $T0 $ebp = $eip $T0 4 + ^ = $ebp $T0 ^ = $esp $T0 8 + = $L $T0 .cbSavedRegs - = $P $T0 8 + .cbParams + =
STACK WIN 4 16a3 270 6 0 0 4 11c 0 1 $T0 $ebp = $eip $T0 4 + ^ = $ebp $T0 ^ = $esp $T0 8 + = $L $T0 .cbSavedRegs - = $P $T0 8 + .cbParams + = $ebx $T0 288 - ^ =
STACK WIN 4 16a4 26e 5 0 0 8 11c 0 1 $T0 $ebp = $eip $T0 4 + ^ = $ebp $T0 ^ = $esp $T0 8 + = $L $T0 .cbSavedRegs - = $P $T0 8 + .cbParams + = $ebx $T0 288 - ^ =
STACK WIN 4 16a5 26c 4 0 0 c 11c 0 1 $T0 $ebp = $eip $T0 4 + ^ = $ebp $T0 ^ = $esp $T0 8 + = $L $T0 .cbSavedRegs - = $P $T0 8 + .cbParams + = $ebx $T0 288 - ^ =
STACK WIN 4 1915 6b 9 0 0 0 0 0 1 $T2 $esp .cbLocals + .cbSavedRegs + = $T0 .raSearchStart = $eip $T0 ^ = $esp $T0 4 + =
STACK WIN 4 191e 61 0 0 0 4 0 0 1 $T2 $esp .cbLocals + .cbSavedRegs + = $T0 .raSearchStart = $eip $T0 ^ = $esp $T0 4 + =
STACK WIN 4 1980 12 0 0 8 0 0 0 1 $T2 $esp .cbLocals + .cbSavedRegs + = $T0 .raSearchStart = $eip $T0 ^ = $esp $T0 4 + =
STACK WIN 4 1992 10 0 0 8 0 0 0 1 $T2 $esp .cbLocals + .cbSavedRegs + = $T0 .raSearchStart = $eip $T0 ^ = $esp $T0 4 + =
STACK WIN 4 19a2 9 0 0 8 0 0 0 1 $T2 $esp .cbLocals + .cbSavedRegs + = $T0 .raSearchStart = $eip $T0 ^ = $esp $T0 4 + =
STACK WIN 4 19ab 9 0 0 8 0 0 0 1 $T2 $esp .cbLocals + .cbSavedRegs + = $T0 .raSearchStart = $eip $T0 ^ = $esp $T0 4 + =
STACK WIN 4 19b4 9 0 0 8 0 0 0 1 $T2 $esp .cbLocals + .cbSavedRegs + = $T0 .raSearchStart = $eip $T0 ^ = $esp $T0 4 + =
STACK WIN 4 19bd e 0 0 8 0 0 0 1 $T2 $esp .cbLocals + .cbSavedRegs + = $T0 .raSearchStart = $eip $T0 ^ = $esp $T0 4 + =
STACK WIN 4 19cb e 0 0 8 0 0 0 1 $T2 $esp .cbLocals + .cbSavedRegs + = $T0 .raSearchStart = $eip $T0 ^ = $esp $T0 4 + =
STACK WIN 4 19d9 e 0 0 8 0 0 0 1 $T2 $esp .cbLocals + .cbSavedRegs + = $T0 .raSearchStart = $eip $T0 ^ = $esp $T0 4 + =
STACK WIN 4 19e7 e 0 0 8 0 0 0 1 $T2 $esp .cbLocals + .cbSavedRegs + = $T0 .raSearchStart = $eip $T0 ^ = $esp $T0 4 + =
STACK WIN 4 19f5 e 0 0 8 0 0 0 1 $T2 $esp .cbLocals + .cbSavedRegs + = $T0 .raSearchStart = $eip $T0 ^ = $esp $T0 4 + =
STACK WIN 4 1a03 e 0 0 8 0 0 0 1 $T2 $esp .cbLocals + .cbSavedRegs + = $T0 .raSearchStart = $eip $T0 ^ = $esp $T0 4 + =
STACK WIN 4 1a11 b 0 0 8 0 0 0 1 $T2 $esp .cbLocals + .cbSavedRegs + = $T0 .raSearchStart = $eip $T0 ^ = $esp $T0 4 + =
STACK WIN 4 1a1c b 0 0 8 0 0 0 1 $T2 $esp .cbLocals + .cbSavedRegs + = $T0 .raSearchStart = $eip $T0 ^ = $esp $T0 4 + =
STACK WIN 4 1a27 b 0 0 8 0 0 0 1 $T2 $esp .cbLocals + .cbSavedRegs + = $T0 .raSearchStart = $eip $T0 ^ = $esp $T0 4 + =
STACK WIN 4 1a32 9 0 0 8 0 0 0 1 $T2 $esp .cbLocals + .cbSavedRegs + = $T0 .raSearchStart = $eip $T0 ^ = $esp $T0 4 + =
STACK WIN 4 1a3b a 0 0 8 0 0 0 1 $T2 $esp .cbLocals + .cbSavedRegs + = $T0 .raSearchStart = $eip $T0 ^ = $esp $T0 4 + =
STACK WIN 4 1a45 a 0 0 8 0 0 0 1 $T2 $esp .cbLocals + .cbSavedRegs + = $T0 .raSearchStart = $eip $T0 ^ = $esp $T0 4 + =
STACK WIN 4 1a4f c 0 0 8 0 0 0 1 $T2 $esp .cbLocals + .cbSavedRegs + = $T0 .raSearchStart = $eip $T0 ^ = $esp $T0 4 + =
STACK WIN 4 1a5b 5 0 0 4 0 0 0 1 $T2 $esp .cbLocals + .cbSavedRegs + = $T0 .raSearchStart = $eip $T0 ^ = $esp $T0 4 + =
STACK WIN 4 1a60 7 0 0 4 0 0 0 1 $T2 $esp .cbLocals + .cbSavedRegs + = $T0 .raSearchStart = $eip $T0 ^ = $esp $T0 4 + =
STACK WIN 4 1a67 7 0 0 4 0 0 0 1 $T2 $esp .cbLocals + .cbSavedRegs + = $T0 .raSearchStart = $eip $T0 ^ = $esp $T0 4 + =
STACK WIN 4 1a6e a 0 0 4 0 0 0 1 $T2 $esp .cbLocals + .cbSavedRegs + = $T0 .raSearchStart = $eip $T0 ^ = $esp $T0 4 + =
STACK WIN 4 1a78 a4 9 0 0 0 0 0 1 $T2 $esp .cbLocals + .cbSavedRegs + = $T0 .raSearchStart = $eip $T0 ^ = $esp $T0 4 + =
STACK WIN 4 1a81 9a 0 0 0 4 0 0 1 $T2 $esp .cbLocals + .cbSavedRegs + = $T0 .raSearchStart = $eip $T0 ^ = $esp $T0 4 + =
STACK WIN 4 1aaf 6b 0 0 0 8 0 0 1 $T2 $esp .cbLocals + .cbSavedRegs + = $T0 .raSearchStart = $eip $T0 ^ = $esp $T0 4 + = $ebx $T0 8 - ^ =
STACK WIN 4 1ab0 69 0 0 0 c 0 0 1 $T2 $esp .cbLocals + .cbSavedRegs + = $T0 .raSearchStart = $eip $T0 ^ = $esp $T0 4 + = $ebp $T0 12 - ^ = $ebx $T0 8 - ^ =
STACK WIN 4 1b1c 9c 0 0 0 0 0 0 1 $T2 $esp .cbLocals + .cbSavedRegs + = $T0 .raSearchStart = $eip $T0 ^ = $esp $T0 4 + =
STACK WIN 4 1bb8 17c 10 0 4 0 c 0 1 $T0 $ebp = $eip $T0 4 + ^ = $ebp $T0 ^ = $esp $T0 8 + = $L $T0 .cbSavedRegs - = $P $T0 8 + .cbParams + =
STACK WIN 4 1bc7 15c 1 0 4 4 c 0 1 $T0 $ebp = $eip $T0 4 + ^ = $ebp $T0 ^ = $esp $T0 8 + = $L $T0 .cbSavedRegs - = $P $T0 8 + .cbParams + =
STACK WIN 4 1bc8 15a 0 0 4 8 c 0 1 $T0 $ebp = $eip $T0 4 + ^ = $ebp $T0 ^ = $esp $T0 8 + = $L $T0 .cbSavedRegs - = $P $T0 8 + .cbParams + =
STACK WIN 4 1bfd 124 0 0 4 c c 0 1 $T0 $ebp = $eip $T0 4 + ^ = $ebp $T0 ^ = $esp $T0 8 + = $L $T0 .cbSavedRegs - = $P $T0 8 + .cbParams + = $ebx $T0 24 - ^ =
STACK WIN 4 1d34 9e 3 0 0 0 0 0 1 $T2 $esp .cbLocals + .cbSavedRegs + = $T0 .raSearchStart = $eip $T0 ^ = $esp $T0 4 + =
STACK WIN 4 1d35 9c 2 0 0 4 0 0 1 $T2 $esp .cbLocals + .cbSavedRegs + = $T0 .raSearchStart = $eip $T0 ^ = $esp $T0 4 + =
STACK WIN 4 1d40 90 0 0 0 8 0 0 1 $T2 $esp .cbLocals + .cbSavedRegs + = $T0 .raSearchStart = $eip $T0 ^ = $esp $T0 4 + =
STACK WIN 4 1d84 4b 0 0 0 c 0 0 1 $T2 $esp .cbLocals + .cbSavedRegs + = $T0 .raSearchStart = $eip $T0 ^ = $esp $T0 4 + = $ebx $T0 12 - ^ =
STACK WIN 4 1dd2 117 1e 0 0 0 100 0 1 $T0 $ebp 128 + = $eip $T0 4 + ^ = $ebp $T0 ^ = $esp $T0 8 + = $L $T0 .cbSavedRegs - = $P $T0 8 + .cbParams + =
STACK WIN 4 1df0 ec 0 0 0 4 100 0 1 $T0 $ebp 128 + = $eip $T0 4 + ^ = $ebp $T0 ^ = $esp $T0 8 + = $L $T0 .cbSavedRegs - = $P $T0 8 + .cbParams + =
STACK WIN 4 1e1c ba 0 0 0 8 100 0 1 $T0 $ebp 128 + = $eip $T0 4 + ^ = $ebp $T0 ^ = $esp $T0 8 + = $L $T0 .cbSavedRegs - = $P $T0 8 + .cbParams + =
STACK WIN 4 1e31 a4 0 0 0 c 100 0 1 $T0 $ebp 128 + = $eip $T0 4 + ^ = $ebp $T0 ^ = $esp $T0 8 + = $L $T0 .cbSavedRegs - = $P $T0 8 + .cbParams + = $ebx $T0 268 - ^ =
STACK WIN 4 1ee9 cb 24 0 8 0 120 0 1 $T0 $ebp 160 + = $eip $T0 4 + ^ = $ebp $T0 ^ = $esp $T0 8 + = $L $T0 .cbSavedRegs - = $P $T0 8 + .cbParams + =
STACK WIN 4 1f05 a2 8 0 8 4 120 0 1 $T0 $ebp 160 + = $eip $T0 4 + ^ = $ebp $T0 ^ = $esp $T0 8 + = $L $T0 .cbSavedRegs - = $P $T0 8 + .cbParams + = $ebx $T0 292 - ^ =
STACK WIN 4 1f06 9e 7 0 8 8 120 0 1 $T0 $ebp 160 + = $eip $T0 4 + ^ = $ebp $T0 ^ = $esp $T0 8 + = $L $T0 .cbSavedRegs - = $P $T0 8 + .cbParams + = $ebx $T0 292 - ^ =
STACK WIN 4 1f0d 96 0 0 8 c 120 0 1 $T0 $ebp 160 + = $eip $T0 4 + ^ = $ebp $T0 ^ = $esp $T0 8 + = $L $T0 .cbSavedRegs - = $P $T0 8 + .cbParams + = $ebx $T0 292 - ^ =
STACK WIN 4 1fb4 4 0 0 8 0 0 0 1 $T2 $esp .cbLocals + .cbSavedRegs + = $T0 .raSearchStart = $eip $T0 ^ = $esp $T0 4 + =
STACK WIN 4 1fb8 3e 1 0 0 0 0 0 1 $T2 $esp .cbLocals + .cbSavedRegs + = $T0 .raSearchStart = $eip $T0 ^ = $esp $T0 4 + =
STACK WIN 4 1fb9 3c 0 0 0 4 0 0 1 $T2 $esp .cbLocals + .cbSavedRegs + = $T0 .raSearchStart = $eip $T0 ^ = $esp $T0 4 + =
STACK WIN 4 1ff6 db 4 0 4 0 4 0 1 $T0 $ebp = $eip $T0 4 + ^ = $ebp $T0 ^ = $esp $T0 8 + = $L $T0 .cbSavedRegs - = $P $T0 8 + .cbParams + =
STACK WIN 4 2004 cb 0 0 4 4 4 0 1 $T0 $ebp = $eip $T0 4 + ^ = $ebp $T0 ^ = $esp $T0 8 + = $L $T0 .cbSavedRegs - = $P $T0 8 + .cbParams + =
STACK WIN 4 20d1 c0 9 0 8 0 0 0 1 $T2 $esp .cbLocals + .cbSavedRegs + = $T0 .raSearchStart = $eip $T0 ^ = $esp $T0 4 + =
STACK WIN 4 20d2 be 8 0 8 4 0 0 1 $T2 $esp .cbLocals + .cbSavedRegs + = $T0 .raSearchStart = $eip $T0 ^ = $esp $T0 4 + =
STACK WIN 4 20da b5 0 0 8 8 0 0 1 $T2 $esp .cbLocals + .cbSavedRegs + = $T0 .raSearchStart = $eip $T0 ^ = $esp $T0 4 + =
STACK WIN 4 2153 3b 0 0 8 c 0 0 1 $T2 $esp .cbLocals + .cbSavedRegs + = $T0 .raSearchStart = $eip $T0 ^ = $esp $T0 4 + = $ebx $T0 12 - ^ =
STACK WIN 4 2191 2c7 7 0 8 0 8 0 1 $T0 $ebp = $eip $T0 4 + ^ = $ebp $T0 ^ = $esp $T0 8 + = $L $T0 .cbSavedRegs - = $P $T0 8 + .cbParams + =
STACK WIN 4 2197 11a 1 0 8 4 8 0 1 $T0 $ebp = $eip $T0 4 + ^ = $ebp $T0 ^ = $esp $T0 8 + = $L $T0 .cbSavedRegs - = $P $T0 8 + .cbParams + = $ebx $T0 12 - ^ =
STACK WIN 4 2198 118 0 0 8 8 8 0 1 $T0 $ebp = $eip $T0 4 + ^ = $ebp $T0 ^ = $esp $T0 8 + = $L $T0 .cbSavedRegs - = $P $T0 8 + .cbParams + = $ebx $T0 12 - ^ =
STACK WIN 4 21fc b3 0 0 8 c 8 0 1 $T0 $ebp = $eip $T0 4 + ^ = $ebp $T0 ^ = $esp $T0 8 + = $L $T0 .cbSavedRegs - = $P $T0 8 + .cbParams + = $ebx $T0 12 - ^ =
STACK WIN 4 2458 25 0 0 0 0 0 0 1 $T2 $esp .cbLocals + .cbSavedRegs + = $T0 .raSearchStart = $eip $T0 ^ = $esp $T0 4 + =
STACK WIN 4 247d 27b 12 0 0 0 44 0 1 $T0 $ebp = $eip $T0 4 + ^ = $ebp $T0 ^ = $esp $T0 8 + = $L $T0 .cbSavedRegs - = $P $T0 8 + .cbParams + =
STACK WIN 4 248e 263 1 0 0 4 44 0 1 $T0 $ebp = $eip $T0 4 + ^ = $ebp $T0 ^ = $esp $T0 8 + = $L $T0 .cbSavedRegs - = $P $T0 8 + .cbParams + =
STACK WIN 4 248f 25e 0 0 0 8 44 0 1 $T0 $ebp = $eip $T0 4 + ^ = $ebp $T0 ^ = $esp $T0 8 + = $L $T0 .cbSavedRegs - = $P $T0 8 + .cbParams + =
STACK WIN 4 26f8 1f0 2 0 4 0 0 0 1 $T2 $esp .cbLocals + .cbSavedRegs + = $T0 .raSearchStart = $eip $T0 ^ = $esp $T0 4 + =
STACK WIN 4 26f9 15e 1 0 4 4 0 0 1 $T2 $esp .cbLocals + .cbSavedRegs + = $T0 .raSearchStart = $eip $T0 ^ = $esp $T0 4 + = $ebx $T0 4 - ^ =
STACK WIN 4 26fa 15c 0 0 4 8 0 0 1 $T2 $esp .cbLocals + .cbSavedRegs + = $T0 .raSearchStart = $eip $T0 ^ = $esp $T0 4 + = $ebx $T0 4 - ^ =
STACK WIN 4 28e8 25b 12 0 14 0 0 0 1 $T0 $ebp = $eip $T0 4 + ^ = $ebp $T0 ^ = $esp $T0 8 + = $L $T0 .cbSavedRegs - = $P $T0 8 + .cbParams + =
STACK WIN 4 28ec 255 e 0 14 4 0 0 1 $T0 $ebp = $eip $T0 4 + ^ = $ebp $T0 ^ = $esp $T0 8 + = $L $T0 .cbSavedRegs - = $P $T0 8 + .cbParams + = $ebx $T0 4 - ^ =
STACK WIN 4 28f6 248 4 0 14 8 0 0 1 $T0 $ebp = $eip $T0 4 + ^ = $ebp $T0 ^ = $esp $T0 8 + = $L $T0 .cbSavedRegs - = $P $T0 8 + .cbParams + = $ebx $T0 4 - ^ =
STACK WIN 4 28fa 243 0 0 14 c 0 0 1 $T0 $ebp = $eip $T0 4 + ^ = $ebp $T0 ^ = $esp $T0 8 + = $L $T0 .cbSavedRegs - = $P $T0 8 + .cbParams + = $ebx $T0 4 - ^ =
STACK WIN 4 2b43 ed 13 0 4 0 8 0 1 $T0 $ebp = $eip $T0 4 + ^ = $ebp $T0 ^ = $esp $T0 8 + = $L $T0 .cbSavedRegs - = $P $T0 8 + .cbParams + =
STACK WIN 4 2b51 dd 5 0 4 4 8 0 1 $T0 $ebp = $eip $T0 4 + ^ = $ebp $T0 ^ = $esp $T0 8 + = $L $T0 .cbSavedRegs - = $P $T0 8 + .cbParams + = $ebx $T0 12 - ^ =
STACK WIN 4 2b52 db 4 0 4 8 8 0 1 $T0 $ebp = $eip $T0 4 + ^ = $ebp $T0 ^ = $esp $T0 8 + = $L $T0 .cbSavedRegs - = $P $T0 8 + .cbParams + = $ebx $T0 12 - ^ =
STACK WIN 4 2b56 d6 0 0 4 c 8 0 1 $T0 $ebp = $eip $T0 4 + ^ = $ebp $T0 ^ = $esp $T0 8 + = $L $T0 .cbSavedRegs - = $P $T0 8 + .cbParams + = $ebx $T0 12 - ^ =
STACK WIN 4 2c30 118 4 0 4 0 0 0 1 $T2 $esp .cbLocals + .cbSavedRegs + = $T0 .raSearchStart = $eip $T0 ^ = $esp $T0 4 + =
STACK WIN 4 2c31 116 3 0 4 4 0 0 1 $T2 $esp .cbLocals + .cbSavedRegs + = $T0 .raSearchStart = $eip $T0 ^ = $esp $T0 4 + = $ebx $T0 4 - ^ =
STACK WIN 4 2c32 114 2 0 4 8 0 0 1 $T2 $esp .cbLocals + .cbSavedRegs + = $T0 .raSearchStart = $eip $T0 ^ = $esp $T0 4 + = $ebx $T0 4 - ^ =
STACK WIN 4 2c3d 108 0 0 4 c 0 0 1 $T2 $esp .cbLocals + .cbSavedRegs + = $T0 .raSearchStart = $eip $T0 ^ = $esp $T0 4 + = $ebx $T0 4 - ^ =
STACK WIN 4 2d48 283 10 0 4 0 0 0 1 $T2 $esp .cbLocals + .cbSavedRegs + = $T0 .raSearchStart = $eip $T0 ^ = $esp $T0 4 + =
STACK WIN 4 2d51 1ab 7 0 4 4 0 0 1 $T2 $esp .cbLocals + .cbSavedRegs + = $T0 .raSearchStart = $eip $T0 ^ = $esp $T0 4 + = $ebx $T0 4 - ^ =
STACK WIN 4 2d52 1a9 6 0 4 8 0 0 1 $T2 $esp .cbLocals + .cbSavedRegs + = $T0 .raSearchStart = $eip $T0 ^ = $esp $T0 4 + = $ebp $T0 8 - ^ = $ebx $T0 4 - ^ =
STACK WIN 4 2d53 1a7 5 0 4 c 0 0 1 $T2 $esp .cbLocals + .cbSavedRegs + = $T0 .raSearchStart = $eip $T0 ^ = $esp $T0 4 + = $ebp $T0 8 - ^ = $ebx $T0 4 - ^ =
STACK WIN 4 2d58 1a1 0 0 4 10 0 0 1 $T2 $esp .cbLocals + .cbSavedRegs + = $T0 .raSearchStart = $eip $T0 ^ = $esp $T0 4 + = $ebp $T0 8 - ^ = $ebx $T0 4 - ^ =
STACK WIN 4 2fcb 71 0 0 0 0 0 0 1 $T2 $esp .cbLocals + .cbSavedRegs + = $T0 .raSearchStart = $eip $T0 ^ = $esp $T0 4 + =
STACK WIN 4 303c 20 0 0 0 0 0 0 1 $T2 $esp .cbLocals + .cbSavedRegs + = $T0 .raSearchStart = $eip $T0 ^ = $esp $T0 4 + =
STACK WIN 4 305c 19 0 0 0 0 0 0 1 $T2 $esp .cbLocals + .cbSavedRegs + = $T0 .raSearchStart = $eip $T0 ^ = $esp $T0 4 + =
STACK WIN 4 3075 3c 0 0 0 0 0 0 1 $T2 $esp .cbLocals + .cbSavedRegs + = $T0 .raSearchStart = $eip $T0 ^ = $esp $T0 4 + =
STACK WIN 4 30b1 49 0 0 0 0 0 0 1 $T2 $esp .cbLocals + .cbSavedRegs + = $T0 .raSearchStart = $eip $T0 ^ = $esp $T0 4 + =
STACK WIN 4 30fa 5b 0 0 8 0 0 0 1 $T2 $esp .cbLocals + .cbSavedRegs + = $T0 .raSearchStart = $eip $T0 ^ = $esp $T0 4 + =
STACK WIN 4 3106 4e 0 0 8 4 0 0 1 $T2 $esp .cbLocals + .cbSavedRegs + = $T0 .raSearchStart = $eip $T0 ^ = $esp $T0 4 + =
STACK WIN 4 3107 4c 0 0 8 8 0 0 1 $T2 $esp .cbLocals + .cbSavedRegs + = $T0 .raSearchStart = $eip $T0 ^ = $esp $T0 4 + =
STACK WIN 4 3155 2d 2 0 4 0 0 0 1 $T2 $esp .cbLocals + .cbSavedRegs + = $T0 .raSearchStart = $eip $T0 ^ = $esp $T0 4 + =
STACK WIN 4 3156 2b 1 0 4 4 0 0 1 $T2 $esp .cbLocals + .cbSavedRegs + = $T0 .raSearchStart = $eip $T0 ^ = $esp $T0 4 + =
STACK WIN 4 3157 29 0 0 4 8 0 0 1 $T2 $esp .cbLocals + .cbSavedRegs + = $T0 .raSearchStart = $eip $T0 ^ = $esp $T0 4 + =
STACK WIN 4 3182 7b 19 0 8 0 0 0 1 $T2 $esp .cbLocals + .cbSavedRegs + = $T0 .raSearchStart = $eip $T0 ^ = $esp $T0 4 + =
STACK WIN 4 3187 75 14 0 8 4 0 0 1 $T2 $esp .cbLocals + .cbSavedRegs + = $T0 .raSearchStart = $eip $T0 ^ = $esp $T0 4 + = $ebx $T0 4 - ^ =
STACK WIN 4 3188 73 13 0 8 8 0 0 1 $T2 $esp .cbLocals + .cbSavedRegs + = $T0 .raSearchStart = $eip $T0 ^ = $esp $T0 4 + = $ebx $T0 4 - ^ =
STACK WIN 4 319b 5f 0 0 8 c 0 0 1 $T2 $esp .cbLocals + .cbSavedRegs + = $T0 .raSearchStart = $eip $T0 ^ = $esp $T0 4 + = $ebx $T0 4 - ^ =
STACK WIN 4 31fd 3e 1 0 c 0 0 0 1 $T2 $esp .cbLocals + .cbSavedRegs + = $T0 .raSearchStart = $eip $T0 ^ = $esp $T0 4 + =
STACK WIN 4 31fe 3c 0 0 c 4 0 0 1 $T2 $esp .cbLocals + .cbSavedRegs + = $T0 .raSearchStart = $eip $T0 ^ = $esp $T0 4 + =
STACK WIN 4 323b 35 0 0 4 0 0 0 1 $T2 $esp .cbLocals + .cbSavedRegs + = $T0 .raSearchStart = $eip $T0 ^ = $esp $T0 4 + =
STACK WIN 4 3270 5 0 0 0 0 0 0 1 $T2 $esp .cbLocals + .cbSavedRegs + = $T0 .raSearchStart = $eip $T0 ^ = $esp $T0 4 + =
STACK WIN 4 3275 b0 c 0 4 0 0 0 1 $T2 $esp .cbLocals + .cbSavedRegs + = $T0 .raSearchStart = $eip $T0 ^ = $esp $T0 4 + =
STACK WIN 4 3276 ae b 0 4 4 0 0 1 $T2 $esp .cbLocals + .cbSavedRegs + = $T0 .raSearchStart = $eip $T0 ^ = $esp $T0 4 + =
STACK WIN 4 3281 a2 0 0 4 8 0 0 1 $T2 $esp .cbLocals + .cbSavedRegs + = $T0 .raSearchStart = $eip $T0 ^ = $esp $T0 4 + =
STACK WIN 4 3325 38 8 0 c 0 0 0 1 $T2 $esp .cbLocals + .cbSavedRegs + = $T0 .raSearchStart = $eip $T0 ^ = $esp $T0 4 + =
STACK WIN 4 332d b 0 0 c 4 0 0 1 $T2 $esp .cbLocals + .cbSavedRegs + = $T0 .raSearchStart = $eip $T0 ^ = $esp $T0 4 + =
STACK WIN 4 335d 194 c 0 0 0 4 0 1 $T0 $ebp = $eip $T0 4 + ^ = $ebp $T0 ^ = $esp $T0 8 + = $L $T0 .cbSavedRegs - = $P $T0 8 + .cbParams + =
STACK WIN 4 3366 189 3 0 0 4 4 0 1 $T0 $ebp = $eip $T0 4 + ^ = $ebp $T0 ^ = $esp $T0 8 + = $L $T0 .cbSavedRegs - = $P $T0 8 + .cbParams + = $ebx $T0 8 - ^ =
STACK WIN 4 3367 182 2 0 0 8 4 0 1 $T0 $ebp = $eip $T0 4 + ^ = $ebp $T0 ^ = $esp $T0 8 + = $L $T0 .cbSavedRegs - = $P $T0 8 + .cbParams + = $ebx $T0 8 - ^ =
STACK WIN 4 336d 17b 0 0 0 c 4 0 1 $T0 $ebp = $eip $T0 4 + ^ = $ebp $T0 ^ = $esp $T0 8 + = $L $T0 .cbSavedRegs - = $P $T0 8 + .cbParams + = $ebx $T0 8 - ^ =
STACK WIN 4 34f1 9ca 24 0 8 0 20c 0 1 $T0 $ebp 396 + = $eip $T0 4 + ^ = $ebp $T0 ^ = $esp $T0 8 + = $L $T0 .cbSavedRegs - = $P $T0 8 + .cbParams + =
STACK WIN 4 350d 9a1 8 0 8 4 20c 0 1 $T0 $ebp 396 + = $eip $T0 4 + ^ = $ebp $T0 ^ = $esp $T0 8 + = $L $T0 .cbSavedRegs - = $P $T0 8 + .cbParams + = $ebx $T0 528 - ^ =
STACK WIN 4 350e 99d 7 0 8 8 20c 0 1 $T0 $ebp 396 + = $eip $T0 4 + ^ = $ebp $T0 ^ = $esp $T0 8 + = $L $T0 .cbSavedRegs - = $P $T0 8 + .cbParams + = $ebx $T0 528 - ^ =
STACK WIN 4 3515 995 0 0 8 c 20c 0 1 $T0 $ebp 396 + = $eip $T0 4 + ^ = $ebp $T0 ^ = $esp $T0 8 + = $L $T0 .cbSavedRegs - = $P $T0 8 + .cbParams + = $ebx $T0 528 - ^ =
STACK WIN 4 3ebb 33 0 0 4 0 0 0 1 $T2 $esp .cbLocals + .cbSavedRegs + = $T0 .raSearchStart = $eip $T0 ^ = $esp $T0 4 + =
STACK WIN 4 3eee 50 1 0 4 0 0 0 1 $T2 $esp .cbLocals + .cbSavedRegs + = $T0 .raSearchStart = $eip $T0 ^ = $esp $T0 4 + =
STACK WIN 4 3eef 4e 0 0 4 4 0 0 1 $T2 $esp .cbLocals + .cbSavedRegs + = $T0 .raSearchStart = $eip $T0 ^ = $esp $T0 4 + =
STACK WIN 4 3f3e 186 2f 0 8 0 110 0 1 $T0 $ebp 144 + = $eip $T0 4 + ^ = $ebp $T0 ^ = $esp $T0 8 + = $L $T0 .cbSavedRegs - = $P $T0 8 + .cbParams + =
STACK WIN 4 3f60 71 d 0 8 4 110 0 1 $T0 $ebp 144 + = $eip $T0 4 + ^ = $ebp $T0 ^ = $esp $T0 8 + = $L $T0 .cbSavedRegs - = $P $T0 8 + .cbParams + = $ebx $T0 276 - ^ =
STACK WIN 4 3f61 6d c 0 8 8 110 0 1 $T0 $ebp 144 + = $eip $T0 4 + ^ = $ebp $T0 ^ = $esp $T0 8 + = $L $T0 .cbSavedRegs - = $P $T0 8 + .cbParams + = $ebx $T0 276 - ^ =
STACK WIN 4 3f6d 60 0 0 8 c 110 0 1 $T0 $ebp 144 + = $eip $T0 4 + ^ = $ebp $T0 ^ = $esp $T0 8 + = $L $T0 .cbSavedRegs - = $P $T0 8 + .cbParams + = $ebx $T0 276 - ^ =
STACK WIN 4 40c4 22 0 0 4 0 0 0 1 $T2 $esp .cbLocals + .cbSavedRegs + = $T0 .raSearchStart = $eip $T0 ^ = $esp $T0 4 + =
STACK WIN 4 40e6 56 2 0 4 0 0 0 1 $T2 $esp .cbLocals + .cbSavedRegs + = $T0 .raSearchStart = $eip $T0 ^ = $esp $T0 4 + =
STACK WIN 4 40e7 54 1 0 4 4 0 0 1 $T2 $esp .cbLocals + .cbSavedRegs + = $T0 .raSearchStart = $eip $T0 ^ = $esp $T0 4 + =
STACK WIN 4 40e8 50 0 0 4 8 0 0 1 $T2 $esp .cbLocals + .cbSavedRegs + = $T0 .raSearchStart = $eip $T0 ^ = $esp $T0 4 + =
STACK WIN 4 413c 41 5 0 10 0 0 0 1 $T2 $esp .cbLocals + .cbSavedRegs + = $T0 .raSearchStart = $eip $T0 ^ = $esp $T0 4 + =
STACK WIN 4 4141 3b 0 0 10 4 0 0 1 $T2 $esp .cbLocals + .cbSavedRegs + = $T0 .raSearchStart = $eip $T0 ^ = $esp $T0 4 + =
STACK WIN 4 417d 8b 3 0 10 0 0 0 1 $T2 $esp .cbLocals + .cbSavedRegs + = $T0 .raSearchStart = $eip $T0 ^ = $esp $T0 4 + =
STACK WIN 4 417e 89 2 0 10 4 0 0 1 $T2 $esp .cbLocals + .cbSavedRegs + = $T0 .raSearchStart = $eip $T0 ^ = $esp $T0 4 + = $ebx $T0 4 - ^ =
STACK WIN 4 417f 85 1 0 10 8 0 0 1 $T2 $esp .cbLocals + .cbSavedRegs + = $T0 .raSearchStart = $eip $T0 ^ = $esp $T0 4 + = $ebx $T0 4 - ^ =
STACK WIN 4 4180 83 0 0 10 c 0 0 1 $T2 $esp .cbLocals + .cbSavedRegs + = $T0 .raSearchStart = $eip $T0 ^ = $esp $T0 4 + = $ebx $T0 4 - ^ =
STACK WIN 4 4208 51 2 0 8 0 0 0 1 $T2 $esp .cbLocals + .cbSavedRegs + = $T0 .raSearchStart = $eip $T0 ^ = $esp $T0 4 + =
STACK WIN 4 4209 4b 1 0 8 4 0 0 1 $T2 $esp .cbLocals + .cbSavedRegs + = $T0 .raSearchStart = $eip $T0 ^ = $esp $T0 4 + =
STACK WIN 4 420a 49 0 0 8 8 0 0 1 $T2 $esp .cbLocals + .cbSavedRegs + = $T0 .raSearchStart = $eip $T0 ^ = $esp $T0 4 + =
STACK WIN 4 4259 2c 1 0 8 0 0 0 1 $T2 $esp .cbLocals + .cbSavedRegs + = $T0 .raSearchStart = $eip $T0 ^ = $esp $T0 4 + =
STACK WIN 4 425a 2a 0 0 8 4 0 0 1 $T2 $esp .cbLocals + .cbSavedRegs + = $T0 .raSearchStart = $eip $T0 ^ = $esp $T0 4 + =
STACK WIN 4 4285 4a 1 0 4 0 0 0 1 $T2 $esp .cbLocals + .cbSavedRegs + = $T0 .raSearchStart = $eip $T0 ^ = $esp $T0 4 + =
STACK WIN 4 4286 39 0 0 4 4 0 0 1 $T2 $esp .cbLocals + .cbSavedRegs + = $T0 .raSearchStart = $eip $T0 ^ = $esp $T0 4 + =
STACK WIN 4 42cf 24 3 0 0 0 0 0 1 $T2 $esp .cbLocals + .cbSavedRegs + = $T0 .raSearchStart = $eip $T0 ^ = $esp $T0 4 + =
STACK WIN 4 42d0 22 2 0 0 4 0 0 1 $T2 $esp .cbLocals + .cbSavedRegs + = $T0 .raSearchStart = $eip $T0 ^ = $esp $T0 4 + =
STACK WIN 4 42f3 34 0 0 0 0 0 0 1 $T2 $esp .cbLocals + .cbSavedRegs + = $T0 .raSearchStart = $eip $T0 ^ = $esp $T0 4 + =
STACK WIN 4 42fe 7 0 0 0 4 0 0 1 $T2 $esp .cbLocals + .cbSavedRegs + = $T0 .raSearchStart = $eip $T0 ^ = $esp $T0 4 + =
STACK WIN 4 4327 96 10 0 8 0 0 0 1 $T0 $ebp = $eip $T0 4 + ^ = $ebp $T0 ^ = $esp $T0 8 + = $L $T0 .cbSavedRegs - = $P $T0 8 + .cbParams + =
STACK WIN 4 432f 8c 8 0 8 4 0 0 1 $T0 $ebp = $eip $T0 4 + ^ = $ebp $T0 ^ = $esp $T0 8 + = $L $T0 .cbSavedRegs - = $P $T0 8 + .cbParams + = $ebx $T0 4 - ^ =
STACK WIN 4 4336 84 1 0 8 8 0 0 1 $T0 $ebp = $eip $T0 4 + ^ = $ebp $T0 ^ = $esp $T0 8 + = $L $T0 .cbSavedRegs - = $P $T0 8 + .cbParams + = $ebx $T0 4 - ^ =
STACK WIN 4 4337 80 0 0 8 c 0 0 1 $T0 $ebp = $eip $T0 4 + ^ = $ebp $T0 ^ = $esp $T0 8 + = $L $T0 .cbSavedRegs - = $P $T0 8 + .cbParams + = $ebx $T0 4 - ^ =
STACK WIN 4 43bd 37 1 0 4 0 0 0 1 $T2 $esp .cbLocals + .cbSavedRegs + = $T0 .raSearchStart = $eip $T0 ^ = $esp $T0 4 + =
STACK WIN 4 43be 35 0 0 4 4 0 0 1 $T2 $esp .cbLocals + .cbSavedRegs + = $T0 .raSearchStart = $eip $T0 ^ = $esp $T0 4 + =
STACK WIN 4 43cc 26 0 0 4 8 0 0 1 $T2 $esp .cbLocals + .cbSavedRegs + = $T0 .raSearchStart = $eip $T0 ^ = $esp $T0 4 + = $ebx $T0 8 - ^ =
STACK WIN 4 43d5 d 0 0 4 c 0 0 1 $T2 $esp .cbLocals + .cbSavedRegs + = $T0 .raSearchStart = $eip $T0 ^ = $esp $T0 4 + = $ebx $T0 8 - ^ =
STACK WIN 4 43f4 a7 f 0 c 0 0 0 1 $T0 $ebp = $eip $T0 4 + ^ = $ebp $T0 ^ = $esp $T0 8 + = $L $T0 .cbSavedRegs - = $P $T0 8 + .cbParams + =
STACK WIN 4 43f8 a1 b 0 c 4 0 0 1 $T0 $ebp = $eip $T0 4 + ^ = $ebp $T0 ^ = $esp $T0 8 + = $L $T0 .cbSavedRegs - = $P $T0 8 + .cbParams + = $ebx $T0 4 - ^ =
STACK WIN 4 4402 96 1 0 c 8 0 0 1 $T0 $ebp = $eip $T0 4 + ^ = $ebp $T0 ^ = $esp $T0 8 + = $L $T0 .cbSavedRegs - = $P $T0 8 + .cbParams + = $ebx $T0 4 - ^ =
STACK WIN 4 4403 94 0 0 c c 0 0 1 $T0 $ebp = $eip $T0 4 + ^ = $ebp $T0 ^ = $esp $T0 8 + = $L $T0 .cbSavedRegs - = $P $T0 8 + .cbParams + = $ebx $T0 4 - ^ =
STACK WIN 4 449b 13 0 0 4 0 0 0 1 $T2 $esp .cbLocals + .cbSavedRegs + = $T0 .raSearchStart = $eip $T0 ^ = $esp $T0 4 + =
STACK WIN 4 44ae 1da 19 0 8 0 304 0 1 $T0 $ebp = $eip $T0 4 + ^ = $ebp $T0 ^ = $esp $T0 8 + = $L $T0 .cbSavedRegs - = $P $T0 8 + .cbParams + =
STACK WIN 4 44c2 1bf 5 0 8 4 304 0 1 $T0 $ebp = $eip $T0 4 + ^ = $ebp $T0 ^ = $esp $T0 8 + = $L $T0 .cbSavedRegs - = $P $T0 8 + .cbParams + = $ebx $T0 776 - ^ =
STACK WIN 4 44c6 1b8 1 0 8 8 304 0 1 $T0 $ebp = $eip $T0 4 + ^ = $ebp $T0 ^ = $esp $T0 8 + = $L $T0 .cbSavedRegs - = $P $T0 8 + .cbParams + = $ebx $T0 776 - ^ =
STACK WIN 4 44c7 1b6 0 0 8 c 304 0 1 $T0 $ebp = $eip $T0 4 + ^ = $ebp $T0 ^ = $esp $T0 8 + = $L $T0 .cbSavedRegs - = $P $T0 8 + .cbParams + = $ebx $T0 776 - ^ =
STACK WIN 4 4688 8a 1 0 8 0 0 0 1 $T2 $esp .cbLocals + .cbSavedRegs + = $T0 .raSearchStart = $eip $T0 ^ = $esp $T0 4 + =
STACK WIN 4 4689 88 0 0 8 4 0 0 1 $T2 $esp .cbLocals + .cbSavedRegs + = $T0 .raSearchStart = $eip $T0 ^ = $esp $T0 4 + =
STACK WIN 4 46d9 37 0 0 8 8 0 0 1 $T2 $esp .cbLocals + .cbSavedRegs + = $T0 .raSearchStart = $eip $T0 ^ = $esp $T0 4 + =
STACK WIN 4 4712 56 1 0 c 0 0 0 1 $T2 $esp .cbLocals + .cbSavedRegs + = $T0 .raSearchStart = $eip $T0 ^ = $esp $T0 4 + =
STACK WIN 4 4713 54 0 0 c 4 0 0 1 $T2 $esp .cbLocals + .cbSavedRegs + = $T0 .raSearchStart = $eip $T0 ^ = $esp $T0 4 + =
STACK WIN 4 4768 2f a 0 8 0 0 0 1 $T2 $esp .cbLocals + .cbSavedRegs + = $T0 .raSearchStart = $eip $T0 ^ = $esp $T0 4 + =
STACK WIN 4 476d 29 5 0 8 4 0 0 1 $T2 $esp .cbLocals + .cbSavedRegs + = $T0 .raSearchStart = $eip $T0 ^ = $esp $T0 4 + = $ebx $T0 4 - ^ =
STACK WIN 4 4771 22 1 0 8 8 0 0 1 $T2 $esp .cbLocals + .cbSavedRegs + = $T0 .raSearchStart = $eip $T0 ^ = $esp $T0 4 + = $ebx $T0 4 - ^ =
STACK WIN 4 4772 20 0 0 8 c 0 0 1 $T2 $esp .cbLocals + .cbSavedRegs + = $T0 .raSearchStart = $eip $T0 ^ = $esp $T0 4 + = $ebx $T0 4 - ^ =
STACK WIN 4 4797 69 3 0 8 0 0 0 1 $T2 $esp .cbLocals + .cbSavedRegs + = $T0 .raSearchStart = $eip $T0 ^ = $esp $T0 4 + =
STACK WIN 4 4798 67 2 0 8 4 0 0 1 $T2 $esp .cbLocals + .cbSavedRegs + = $T0 .raSearchStart = $eip $T0 ^ = $esp $T0 4 + = $ebx $T0 4 - ^ =
STACK WIN 4 4799 62 1 0 8 8 0 0 1 $T2 $esp .cbLocals + .cbSavedRegs + = $T0 .raSearchStart = $eip $T0 ^ = $esp $T0 4 + = $ebx $T0 4 - ^ =
STACK WIN 4 479a 60 0 0 8 c 0 0 1 $T2 $esp .cbLocals + .cbSavedRegs + = $T0 .raSearchStart = $eip $T0 ^ = $esp $T0 4 + = $ebx $T0 4 - ^ =
STACK WIN 4 4800 c 0 0 0 0 0 0 1 $T2 $esp .cbLocals + .cbSavedRegs + = $T0 .raSearchStart = $eip $T0 ^ = $esp $T0 4 + =
STACK WIN 4 480c 23 3 0 4 0 0 0 1 $T2 $esp .cbLocals + .cbSavedRegs + = $T0 .raSearchStart = $eip $T0 ^ = $esp $T0 4 + =
STACK WIN 4 480d 1f 2 0 4 4 0 0 1 $T2 $esp .cbLocals + .cbSavedRegs + = $T0 .raSearchStart = $eip $T0 ^ = $esp $T0 4 + =
STACK WIN 4 482f 22 3 0 4 0 0 0 1 $T2 $esp .cbLocals + .cbSavedRegs + = $T0 .raSearchStart = $eip $T0 ^ = $esp $T0 4 + =
STACK WIN 4 4830 1e 2 0 4 4 0 0 1 $T2 $esp .cbLocals + .cbSavedRegs + = $T0 .raSearchStart = $eip $T0 ^ = $esp $T0 4 + =
STACK WIN 4 4851 1b 3 0 0 0 0 0 1 $T2 $esp .cbLocals + .cbSavedRegs + = $T0 .raSearchStart = $eip $T0 ^ = $esp $T0 4 + =
STACK WIN 4 4852 14 2 0 0 4 0 0 1 $T2 $esp .cbLocals + .cbSavedRegs + = $T0 .raSearchStart = $eip $T0 ^ = $esp $T0 4 + =
STACK WIN 4 486c e 0 0 0 0 0 0 1 $T2 $esp .cbLocals + .cbSavedRegs + = $T0 .raSearchStart = $eip $T0 ^ = $esp $T0 4 + =
STACK WIN 4 487a 1c 3 0 4 0 0 0 1 $T2 $esp .cbLocals + .cbSavedRegs + = $T0 .raSearchStart = $eip $T0 ^ = $esp $T0 4 + =
STACK WIN 4 487b 18 2 0 4 4 0 0 1 $T2 $esp .cbLocals + .cbSavedRegs + = $T0 .raSearchStart = $eip $T0 ^ = $esp $T0 4 + =
STACK WIN 4 4896 b 0 0 0 0 0 0 1 $T2 $esp .cbLocals + .cbSavedRegs + = $T0 .raSearchStart = $eip $T0 ^ = $esp $T0 4 + =
STACK WIN 4 48a1 22 3 0 4 0 0 0 1 $T2 $esp .cbLocals + .cbSavedRegs + = $T0 .raSearchStart = $eip $T0 ^ = $esp $T0 4 + =
STACK WIN 4 48a2 1e 2 0 4 4 0 0 1 $T2 $esp .cbLocals + .cbSavedRegs + = $T0 .raSearchStart = $eip $T0 ^ = $esp $T0 4 + =
STACK WIN 4 48c3 b 0 0 0 0 0 0 1 $T2 $esp .cbLocals + .cbSavedRegs + = $T0 .raSearchStart = $eip $T0 ^ = $esp $T0 4 + =
STACK WIN 4 48ce 22 3 0 4 0 0 0 1 $T2 $esp .cbLocals + .cbSavedRegs + = $T0 .raSearchStart = $eip $T0 ^ = $esp $T0 4 + =
STACK WIN 4 48cf 1e 2 0 4 4 0 0 1 $T2 $esp .cbLocals + .cbSavedRegs + = $T0 .raSearchStart = $eip $T0 ^ = $esp $T0 4 + =
STACK WIN 4 48f0 27 9 0 8 0 0 0 1 $T2 $esp .cbLocals + .cbSavedRegs + = $T0 .raSearchStart = $eip $T0 ^ = $esp $T0 4 + =
STACK WIN 4 48f7 1d 2 0 8 4 0 0 1 $T2 $esp .cbLocals + .cbSavedRegs + = $T0 .raSearchStart = $eip $T0 ^ = $esp $T0 4 + =
STACK WIN 4 4917 1b 5 0 0 0 0 0 1 $T2 $esp .cbLocals + .cbSavedRegs + = $T0 .raSearchStart = $eip $T0 ^ = $esp $T0 4 + =
STACK WIN 4 4918 19 4 0 0 4 0 0 1 $T2 $esp .cbLocals + .cbSavedRegs + = $T0 .raSearchStart = $eip $T0 ^ = $esp $T0 4 + =
STACK WIN 4 4932 2e 4 0 0 0 0 0 1 $T2 $esp .cbLocals + .cbSavedRegs + = $T0 .raSearchStart = $eip $T0 ^ = $esp $T0 4 + =
STACK WIN 4 4933 2c 3 0 0 4 0 0 1 $T2 $esp .cbLocals + .cbSavedRegs + = $T0 .raSearchStart = $eip $T0 ^ = $esp $T0 4 + =
STACK WIN 4 4934 28 2 0 0 8 0 0 1 $T2 $esp .cbLocals + .cbSavedRegs + = $T0 .raSearchStart = $eip $T0 ^ = $esp $T0 4 + =
STACK WIN 4 4960 23 3 0 0 0 0 0 1 $T2 $esp .cbLocals + .cbSavedRegs + = $T0 .raSearchStart = $eip $T0 ^ = $esp $T0 4 + =
STACK WIN 4 4961 1d 2 0 0 4 0 0 1 $T2 $esp .cbLocals + .cbSavedRegs + = $T0 .raSearchStart = $eip $T0 ^ = $esp $T0 4 + =
STACK WIN 4 4983 5e a 0 4 0 20 0 1 $T0 $ebp = $eip $T0 4 + ^ = $ebp $T0 ^ = $esp $T0 8 + = $L $T0 .cbSavedRegs - = $P $T0 8 + .cbParams + =
STACK WIN 4 498a 38 3 0 4 4 20 0 1 $T0 $ebp = $eip $T0 4 + ^ = $ebp $T0 ^ = $esp $T0 8 + = $L $T0 .cbSavedRegs - = $P $T0 8 + .cbParams + = $ebx $T0 36 - ^ =
STACK WIN 4 498b 34 2 0 4 8 20 0 1 $T0 $ebp = $eip $T0 4 + ^ = $ebp $T0 ^ = $esp $T0 8 + = $L $T0 .cbSavedRegs - = $P $T0 8 + .cbParams + = $ebx $T0 36 - ^ =
STACK WIN 4 49e1 2b c 0 4 0 14 0 1 $T0 $ebp = $eip $T0 4 + ^ = $ebp $T0 ^ = $esp $T0 8 + = $L $T0 .cbSavedRegs - = $P $T0 8 + .cbParams + =
STACK WIN 4 4a0c 24 c 0 4 0 10 0 1 $T0 $ebp = $eip $T0 4 + ^ = $ebp $T0 ^ = $esp $T0 8 + = $L $T0 .cbSavedRegs - = $P $T0 8 + .cbParams + =
STACK WIN 4 4a30 16 0 0 0 0 0 0 1 $T2 $esp .cbLocals + .cbSavedRegs + = $T0 .raSearchStart = $eip $T0 ^ = $esp $T0 4 + =
STACK WIN 4 4a46 16 0 0 0 0 0 0 1 $T2 $esp .cbLocals + .cbSavedRegs + = $T0 .raSearchStart = $eip $T0 ^ = $esp $T0 4 + =
STACK WIN 4 4a5c 29 9 0 4 0 0 0 1 $T2 $esp .cbLocals + .cbSavedRegs + = $T0 .raSearchStart = $eip $T0 ^ = $esp $T0 4 + =
STACK WIN 4 4a5d 25 8 0 4 4 0 0 1 $T2 $esp .cbLocals + .cbSavedRegs + = $T0 .raSearchStart = $eip $T0 ^ = $esp $T0 4 + =
STACK WIN 4 4a5e 21 7 0 4 8 0 0 1 $T2 $esp .cbLocals + .cbSavedRegs + = $T0 .raSearchStart = $eip $T0 ^ = $esp $T0 4 + =
STACK WIN 4 4a85 18 7 0 4 0 0 0 1 $T2 $esp .cbLocals + .cbSavedRegs + = $T0 .raSearchStart = $eip $T0 ^ = $esp $T0 4 + =
STACK WIN 4 4a86 14 6 0 4 4 0 0 1 $T2 $esp .cbLocals + .cbSavedRegs + = $T0 .raSearchStart = $eip $T0 ^ = $esp $T0 4 + =
STACK WIN 4 4a9d 44 7 0 4 0 0 0 1 $T2 $esp .cbLocals + .cbSavedRegs + = $T0 .raSearchStart = $eip $T0 ^ = $esp $T0 4 + =
STACK WIN 4 4aa4 1e 0 0 4 4 0 0 1 $T2 $esp .cbLocals + .cbSavedRegs + = $T0 .raSearchStart = $eip $T0 ^ = $esp $T0 4 + =
STACK WIN 4 4ae1 44 7 0 4 0 0 0 1 $T2 $esp .cbLocals + .cbSavedRegs + = $T0 .raSearchStart = $eip $T0 ^ = $esp $T0 4 + =
STACK WIN 4 4ae8 1e 0 0 4 4 0 0 1 $T2 $esp .cbLocals + .cbSavedRegs + = $T0 .raSearchStart = $eip $T0 ^ = $esp $T0 4 + =
STACK WIN 4 4b25 36 3 0 0 0 0 0 1 $T2 $esp .cbLocals + .cbSavedRegs + = $T0 .raSearchStart = $eip $T0 ^ = $esp $T0 4 + =
STACK WIN 4 4b28 32 0 0 0 4 0 0 1 $T2 $esp .cbLocals + .cbSavedRegs + = $T0 .raSearchStart = $eip $T0 ^ = $esp $T0 4 + = $ebx $T0 4 - ^ =
STACK WIN 4 4b5b 42 8 0 4 0 0 0 1 $T2 $esp .cbLocals + .cbSavedRegs + = $T0 .raSearchStart = $eip $T0 ^ = $esp $T0 4 + =
STACK WIN 4 4b63 1d 0 0 4 4 0 0 1 $T2 $esp .cbLocals + .cbSavedRegs + = $T0 .raSearchStart = $eip $T0 ^ = $esp $T0 4 + =
STACK WIN 4 4b9d 44 7 0 4 0 0 0 1 $T2 $esp .cbLocals + .cbSavedRegs + = $T0 .raSearchStart = $eip $T0 ^ = $esp $T0 4 + =
STACK WIN 4 4ba4 1e 0 0 4 4 0 0 1 $T2 $esp .cbLocals + .cbSavedRegs + = $T0 .raSearchStart = $eip $T0 ^ = $esp $T0 4 + =
STACK WIN 4 4be1 32 5 0 14 0 0 0 1 $T0 $ebp = $eip $T0 4 + ^ = $ebp $T0 ^ = $esp $T0 8 + = $L $T0 .cbSavedRegs - = $P $T0 8 + .cbParams + =
STACK WIN 4 4c13 36 3 0 0 0 0 0 1 $T2 $esp .cbLocals + .cbSavedRegs + = $T0 .raSearchStart = $eip $T0 ^ = $esp $T0 4 + =
STACK WIN 4 4c16 32 0 0 0 4 0 0 1 $T2 $esp .cbLocals + .cbSavedRegs + = $T0 .raSearchStart = $eip $T0 ^ = $esp $T0 4 + = $ebx $T0 4 - ^ =
STACK WIN 4 4c49 36 3 0 0 0 0 0 1 $T2 $esp .cbLocals + .cbSavedRegs + = $T0 .raSearchStart = $eip $T0 ^ = $esp $T0 4 + =
STACK WIN 4 4c4c 32 0 0 0 4 0 0 1 $T2 $esp .cbLocals + .cbSavedRegs + = $T0 .raSearchStart = $eip $T0 ^ = $esp $T0 4 + = $ebx $T0 4 - ^ =
STACK WIN 4 4c7f 4e 9 0 8 0 c 0 1 $T0 $ebp = $eip $T0 4 + ^ = $ebp $T0 ^ = $esp $T0 8 + = $L $T0 .cbSavedRegs - = $P $T0 8 + .cbParams + =
STACK WIN 4 4ccd 4e 9 0 8 0 c 0 1 $T0 $ebp = $eip $T0 4 + ^ = $ebp $T0 ^ = $esp $T0 8 + = $L $T0 .cbSavedRegs - = $P $T0 8 + .cbParams + =
STACK WIN 4 4d1b 4e 9 0 8 0 c 0 1 $T0 $ebp = $eip $T0 4 + ^ = $ebp $T0 ^ = $esp $T0 8 + = $L $T0 .cbSavedRegs - = $P $T0 8 + .cbParams + =
STACK WIN 4 4d69 19 7 0 4 0 0 0 1 $T2 $esp .cbLocals + .cbSavedRegs + = $T0 .raSearchStart = $eip $T0 ^ = $esp $T0 4 + =
STACK WIN 4 4d6a 15 6 0 4 4 0 0 1 $T2 $esp .cbLocals + .cbSavedRegs + = $T0 .raSearchStart = $eip $T0 ^ = $esp $T0 4 + =
STACK WIN 4 4d82 15 3 0 0 0 0 0 1 $T2 $esp .cbLocals + .cbSavedRegs + = $T0 .raSearchStart = $eip $T0 ^ = $esp $T0 4 + =
STACK WIN 4 4d83 e 2 0 0 4 0 0 1 $T2 $esp .cbLocals + .cbSavedRegs + = $T0 .raSearchStart = $eip $T0 ^ = $esp $T0 4 + =
STACK WIN 4 4d97 1d 3 0 14 0 0 0 1 $T0 $ebp = $eip $T0 4 + ^ = $ebp $T0 ^ = $esp $T0 8 + = $L $T0 .cbSavedRegs - = $P $T0 8 + .cbParams + =
STACK WIN 4 4db4 2f 9 0 4 0 0 0 1 $T2 $esp .cbLocals + .cbSavedRegs + = $T0 .raSearchStart = $eip $T0 ^ = $esp $T0 4 + =
STACK WIN 4 4db5 2b 8 0 4 4 0 0 1 $T2 $esp .cbLocals + .cbSavedRegs + = $T0 .raSearchStart = $eip $T0 ^ = $esp $T0 4 + =
STACK WIN 4 4db6 27 7 0 4 8 0 0 1 $T2 $esp .cbLocals + .cbSavedRegs + = $T0 .raSearchStart = $eip $T0 ^ = $esp $T0 4 + =
STACK WIN 4 4de3 1c 3 0 4 0 0 0 1 $T2 $esp .cbLocals + .cbSavedRegs + = $T0 .raSearchStart = $eip $T0 ^ = $esp $T0 4 + =
STACK WIN 4 4de4 18 2 0 4 4 0 0 1 $T2 $esp .cbLocals + .cbSavedRegs + = $T0 .raSearchStart = $eip $T0 ^ = $esp $T0 4 + =
STACK WIN 4 4dff 1f 3 0 0 0 0 0 1 $T2 $esp .cbLocals + .cbSavedRegs + = $T0 .raSearchStart = $eip $T0 ^ = $esp $T0 4 + =
STACK WIN 4 4e00 1d 2 0 0 4 0 0 1 $T2 $esp .cbLocals + .cbSavedRegs + = $T0 .raSearchStart = $eip $T0 ^ = $esp $T0 4 + =
STACK WIN 4 4e1e 1e 3 0 0 0 0 0 1 $T2 $esp .cbLocals + .cbSavedRegs + = $T0 .raSearchStart = $eip $T0 ^ = $esp $T0 4 + =
STACK WIN 4 4e1f 17 2 0 0 4 0 0 1 $T2 $esp .cbLocals + .cbSavedRegs + = $T0 .raSearchStart = $eip $T0 ^ = $esp $T0 4 + =
STACK WIN 4 4e3c e 0 0 0 0 0 0 1 $T2 $esp .cbLocals + .cbSavedRegs + = $T0 .raSearchStart = $eip $T0 ^ = $esp $T0 4 + =
STACK WIN 4 4e4a 1c 0 0 4 0 0 0 1 $T2 $esp .cbLocals + .cbSavedRegs + = $T0 .raSearchStart = $eip $T0 ^ = $esp $T0 4 + =
STACK WIN 4 4e66 42 8 0 4 0 0 0 1 $T2 $esp .cbLocals + .cbSavedRegs + = $T0 .raSearchStart = $eip $T0 ^ = $esp $T0 4 + =
STACK WIN 4 4e6e 1d 0 0 4 4 0 0 1 $T2 $esp .cbLocals + .cbSavedRegs + = $T0 .raSearchStart = $eip $T0 ^ = $esp $T0 4 + =
STACK WIN 4 4ea8 44 7 0 4 0 0 0 1 $T2 $esp .cbLocals + .cbSavedRegs + = $T0 .raSearchStart = $eip $T0 ^ = $esp $T0 4 + =
STACK WIN 4 4eaf 1e 0 0 4 4 0 0 1 $T2 $esp .cbLocals + .cbSavedRegs + = $T0 .raSearchStart = $eip $T0 ^ = $esp $T0 4 + =
STACK WIN 4 4eec 42 8 0 4 0 0 0 1 $T2 $esp .cbLocals + .cbSavedRegs + = $T0 .raSearchStart = $eip $T0 ^ = $esp $T0 4 + =
STACK WIN 4 4ef4 1d 0 0 4 4 0 0 1 $T2 $esp .cbLocals + .cbSavedRegs + = $T0 .raSearchStart = $eip $T0 ^ = $esp $T0 4 + =
STACK WIN 4 4f2e 4e c 0 0 c 10 0 1 $T0 $ebp = $eip $T0 4 + ^ = $ebp $T0 ^ = $esp $T0 8 + = $L $T0 .cbSavedRegs - = $P $T0 8 + .cbParams + =
STACK WIN 4 4f7c 1d 4 0 10 0 4 0 1 $T0 $ebp = $eip $T0 4 + ^ = $ebp $T0 ^ = $esp $T0 8 + = $L $T0 .cbSavedRegs - = $P $T0 8 + .cbParams + =
STACK WIN 4 4f99 24 4 0 18 0 0 0 1 $T0 $ebp = $eip $T0 4 + ^ = $ebp $T0 ^ = $esp $T0 8 + = $L $T0 .cbSavedRegs - = $P $T0 8 + .cbParams + =
STACK WIN 4 4f9d 1e 0 0 18 4 0 0 1 $T0 $ebp = $eip $T0 4 + ^ = $ebp $T0 ^ = $esp $T0 8 + = $L $T0 .cbSavedRegs - = $P $T0 8 + .cbParams + =
STACK WIN 4 4fbd 22 5 0 14 0 4 0 1 $T0 $ebp = $eip $T0 4 + ^ = $ebp $T0 ^ = $esp $T0 8 + = $L $T0 .cbSavedRegs - = $P $T0 8 + .cbParams + =
STACK WIN 4 4fc2 1b 0 0 14 4 4 0 1 $T0 $ebp = $eip $T0 4 + ^ = $ebp $T0 ^ = $esp $T0 8 + = $L $T0 .cbSavedRegs - = $P $T0 8 + .cbParams + =
STACK WIN 4 4fdf 41 8 0 8 0 0 0 1 $T2 $esp .cbLocals + .cbSavedRegs + = $T0 .raSearchStart = $eip $T0 ^ = $esp $T0 4 + =
STACK WIN 4 4fe5 38 2 0 8 4 0 0 1 $T2 $esp .cbLocals + .cbSavedRegs + = $T0 .raSearchStart = $eip $T0 ^ = $esp $T0 4 + =
STACK WIN 4 5020 25 3 0 0 0 0 0 1 $T2 $esp .cbLocals + .cbSavedRegs + = $T0 .raSearchStart = $eip $T0 ^ = $esp $T0 4 + =
STACK WIN 4 5021 23 2 0 0 4 0 0 1 $T2 $esp .cbLocals + .cbSavedRegs + = $T0 .raSearchStart = $eip $T0 ^ = $esp $T0 4 + =
STACK WIN 4 5045 18 7 0 4 0 0 0 1 $T2 $esp .cbLocals + .cbSavedRegs + = $T0 .raSearchStart = $eip $T0 ^ = $esp $T0 4 + =
STACK WIN 4 5046 14 6 0 4 4 0 0 1 $T2 $esp .cbLocals + .cbSavedRegs + = $T0 .raSearchStart = $eip $T0 ^ = $esp $T0 4 + =
STACK WIN 4 505d 5a c 0 0 c 14 0 1 $T0 $ebp = $eip $T0 4 + ^ = $ebp $T0 ^ = $esp $T0 8 + = $L $T0 .cbSavedRegs - = $P $T0 8 + .cbParams + =
STACK WIN 4 50b7 5b c 0 14 c 14 0 1 $T0 $ebp = $eip $T0 4 + ^ = $ebp $T0 ^ = $esp $T0 8 + = $L $T0 .cbSavedRegs - = $P $T0 8 + .cbParams + =
STACK WIN 4 5112 5a c 0 0 c 14 0 1 $T0 $ebp = $eip $T0 4 + ^ = $ebp $T0 ^ = $esp $T0 8 + = $L $T0 .cbSavedRegs - = $P $T0 8 + .cbParams + =
STACK WIN 4 516c 4e c 0 0 c 10 0 1 $T0 $ebp = $eip $T0 4 + ^ = $ebp $T0 ^ = $esp $T0 8 + = $L $T0 .cbSavedRegs - = $P $T0 8 + .cbParams + =
STACK WIN 4 51ba 4e c 0 0 c 10 0 1 $T0 $ebp = $eip $T0 4 + ^ = $ebp $T0 ^ = $esp $T0 8 + = $L $T0 .cbSavedRegs - = $P $T0 8 + .cbParams + =
STACK WIN 4 5208 85 11 0 8 c 18 0 1 $T0 $ebp = $eip $T0 4 + ^ = $ebp $T0 ^ = $esp $T0 8 + = $L $T0 .cbSavedRegs - = $P $T0 8 + .cbParams + =
STACK WIN 4 528d 28 5 0 c 0 4 0 1 $T0 $ebp = $eip $T0 4 + ^ = $ebp $T0 ^ = $esp $T0 8 + = $L $T0 .cbSavedRegs - = $P $T0 8 + .cbParams + =
STACK WIN 4 5292 21 0 0 c 4 4 0 1 $T0 $ebp = $eip $T0 4 + ^ = $ebp $T0 ^ = $esp $T0 8 + = $L $T0 .cbSavedRegs - = $P $T0 8 + .cbParams + =
STACK WIN 4 52b5 1f 3 0 4 0 0 0 1 $T2 $esp .cbLocals + .cbSavedRegs + = $T0 .raSearchStart = $eip $T0 ^ = $esp $T0 4 + =
STACK WIN 4 52b6 1b 2 0 4 4 0 0 1 $T2 $esp .cbLocals + .cbSavedRegs + = $T0 .raSearchStart = $eip $T0 ^ = $esp $T0 4 + =
STACK WIN 4 52d4 25 5 0 c 0 4 0 1 $T0 $ebp = $eip $T0 4 + ^ = $ebp $T0 ^ = $esp $T0 8 + = $L $T0 .cbSavedRegs - = $P $T0 8 + .cbParams + =
STACK WIN 4 52d9 1e 0 0 c 4 4 0 1 $T0 $ebp = $eip $T0 4 + ^ = $ebp $T0 ^ = $esp $T0 8 + = $L $T0 .cbSavedRegs - = $P $T0 8 + .cbParams + =
STACK WIN 4 52f9 1e 3 0 0 0 0 0 1 $T2 $esp .cbLocals + .cbSavedRegs + = $T0 .raSearchStart = $eip $T0 ^ = $esp $T0 4 + =
STACK WIN 4 52fa 1c 2 0 0 4 0 0 1 $T2 $esp .cbLocals + .cbSavedRegs + = $T0 .raSearchStart = $eip $T0 ^ = $esp $T0 4 + =
STACK WIN 4 5317 25 3 0 0 0 0 0 1 $T2 $esp .cbLocals + .cbSavedRegs + = $T0 .raSearchStart = $eip $T0 ^ = $esp $T0 4 + =
STACK WIN 4 5318 23 2 0 0 4 0 0 1 $T2 $esp .cbLocals + .cbSavedRegs + = $T0 .raSearchStart = $eip $T0 ^ = $esp $T0 4 + =
STACK WIN 4 533c 25 3 0 0 0 0 0 1 $T2 $esp .cbLocals + .cbSavedRegs + = $T0 .raSearchStart = $eip $T0 ^ = $esp $T0 4 + =
STACK WIN 4 533d 23 2 0 0 4 0 0 1 $T2 $esp .cbLocals + .cbSavedRegs + = $T0 .raSearchStart = $eip $T0 ^ = $esp $T0 4 + =
STACK WIN 4 5361 25 3 0 0 0 0 0 1 $T2 $esp .cbLocals + .cbSavedRegs + = $T0 .raSearchStart = $eip $T0 ^ = $esp $T0 4 + =
STACK WIN 4 5362 23 2 0 0 4 0 0 1 $T2 $esp .cbLocals + .cbSavedRegs + = $T0 .raSearchStart = $eip $T0 ^ = $esp $T0 4 + =
STACK WIN 4 5386 25 3 0 0 0 0 0 1 $T2 $esp .cbLocals + .cbSavedRegs + = $T0 .raSearchStart = $eip $T0 ^ = $esp $T0 4 + =
STACK WIN 4 5387 23 2 0 0 4 0 0 1 $T2 $esp .cbLocals + .cbSavedRegs + = $T0 .raSearchStart = $eip $T0 ^ = $esp $T0 4 + =
STACK WIN 4 53ab 60 c 0 4 0 0 0 1 $T2 $esp .cbLocals + .cbSavedRegs + = $T0 .raSearchStart = $eip $T0 ^ = $esp $T0 4 + =
STACK WIN 4 53ac 3a b 0 4 4 0 0 1 $T2 $esp .cbLocals + .cbSavedRegs + = $T0 .raSearchStart = $eip $T0 ^ = $esp $T0 4 + = $ebx $T0 4 - ^ =
STACK WIN 4 53b4 31 3 0 4 8 0 0 1 $T2 $esp .cbLocals + .cbSavedRegs + = $T0 .raSearchStart = $eip $T0 ^ = $esp $T0 4 + = $ebx $T0 4 - ^ =
STACK WIN 4 53b5 2f 2 0 4 c 0 0 1 $T2 $esp .cbLocals + .cbSavedRegs + = $T0 .raSearchStart = $eip $T0 ^ = $esp $T0 4 + = $ebx $T0 4 - ^ =
STACK WIN 4 540b 1c 3 0 0 0 0 0 1 $T2 $esp .cbLocals + .cbSavedRegs + = $T0 .raSearchStart = $eip $T0 ^ = $esp $T0 4 + =
STACK WIN 4 540c 1a 2 0 0 4 0 0 1 $T2 $esp .cbLocals + .cbSavedRegs + = $T0 .raSearchStart = $eip $T0 ^ = $esp $T0 4 + =
STACK WIN 4 5427 19 1 0 10 0 0 0 1 $T2 $esp .cbLocals + .cbSavedRegs + = $T0 .raSearchStart = $eip $T0 ^ = $esp $T0 4 + =
STACK WIN 4 5428 17 0 0 10 4 0 0 1 $T2 $esp .cbLocals + .cbSavedRegs + = $T0 .raSearchStart = $eip $T0 ^ = $esp $T0 4 + =
STACK WIN 4 5440 1d 1 0 10 0 0 0 1 $T2 $esp .cbLocals + .cbSavedRegs + = $T0 .raSearchStart = $eip $T0 ^ = $esp $T0 4 + =
STACK WIN 4 5441 1b 0 0 10 4 0 0 1 $T2 $esp .cbLocals + .cbSavedRegs + = $T0 .raSearchStart = $eip $T0 ^ = $esp $T0 4 + =
STACK WIN 4 545d 2f 7 0 4 0 4 0 1 $T0 $ebp = $eip $T0 4 + ^ = $ebp $T0 ^ = $esp $T0 8 + = $L $T0 .cbSavedRegs - = $P $T0 8 + .cbParams + =
STACK WIN 4 5462 26 2 0 4 4 4 0 1 $T0 $ebp = $eip $T0 4 + ^ = $ebp $T0 ^ = $esp $T0 8 + = $L $T0 .cbSavedRegs - = $P $T0 8 + .cbParams + =
STACK WIN 4 548c 20 6 0 c 0 0 0 1 $T2 $esp .cbLocals + .cbSavedRegs + = $T0 .raSearchStart = $eip $T0 ^ = $esp $T0 4 + =
STACK WIN 4 548d 1c 5 0 c 4 0 0 1 $T2 $esp .cbLocals + .cbSavedRegs + = $T0 .raSearchStart = $eip $T0 ^ = $esp $T0 4 + =
STACK WIN 4 5492 16 0 0 c 8 0 0 1 $T2 $esp .cbLocals + .cbSavedRegs + = $T0 .raSearchStart = $eip $T0 ^ = $esp $T0 4 + =
STACK WIN 4 54ac 1d 9 0 8 0 0 0 1 $T2 $esp .cbLocals + .cbSavedRegs + = $T0 .raSearchStart = $eip $T0 ^ = $esp $T0 4 + =
STACK WIN 4 54b3 13 2 0 8 4 0 0 1 $T2 $esp .cbLocals + .cbSavedRegs + = $T0 .raSearchStart = $eip $T0 ^ = $esp $T0 4 + =
STACK WIN 4 54c9 1d 9 0 8 0 0 0 1 $T2 $esp .cbLocals + .cbSavedRegs + = $T0 .raSearchStart = $eip $T0 ^ = $esp $T0 4 + =
STACK WIN 4 54d0 13 2 0 8 4 0 0 1 $T2 $esp .cbLocals + .cbSavedRegs + = $T0 .raSearchStart = $eip $T0 ^ = $esp $T0 4 + =
STACK WIN 4 54e6 1a7 e 0 c c 14 0 1 $T0 $ebp = $eip $T0 4 + ^ = $ebp $T0 ^ = $esp $T0 8 + = $L $T0 .cbSavedRegs - = $P $T0 8 + .cbParams + =
STACK WIN 4 568d 1d 9 0 8 0 0 0 1 $T2 $esp .cbLocals + .cbSavedRegs + = $T0 .raSearchStart = $eip $T0 ^ = $esp $T0 4 + =
STACK WIN 4 5694 13 2 0 8 4 0 0 1 $T2 $esp .cbLocals + .cbSavedRegs + = $T0 .raSearchStart = $eip $T0 ^ = $esp $T0 4 + =
STACK WIN 4 56aa 44 11 0 4 c 14 0 1 $T0 $ebp = $eip $T0 4 + ^ = $ebp $T0 ^ = $esp $T0 8 + = $L $T0 .cbSavedRegs - = $P $T0 8 + .cbParams + =
STACK WIN 4 56ee 27a 13 0 8 0 48 0 1 $T0 $ebp = $eip $T0 4 + ^ = $ebp $T0 ^ = $esp $T0 8 + = $L $T0 .cbSavedRegs - = $P $T0 8 + .cbParams + =
STACK WIN 4 56f5 261 c 0 8 4 48 0 1 $T0 $ebp = $eip $T0 4 + ^ = $ebp $T0 ^ = $esp $T0 8 + = $L $T0 .cbSavedRegs - = $P $T0 8 + .cbParams + = $ebx $T0 76 - ^ =
STACK WIN 4 56fd 258 4 0 8 8 48 0 1 $T0 $ebp = $eip $T0 4 + ^ = $ebp $T0 ^ = $esp $T0 8 + = $L $T0 .cbSavedRegs - = $P $T0 8 + .cbParams + = $ebx $T0 76 - ^ =
STACK WIN 4 56fe 256 3 0 8 c 48 0 1 $T0 $ebp = $eip $T0 4 + ^ = $ebp $T0 ^ = $esp $T0 8 + = $L $T0 .cbSavedRegs - = $P $T0 8 + .cbParams + = $ebx $T0 76 - ^ =
STACK WIN 4 5968 3b d 0 4 0 0 0 1 $T2 $esp .cbLocals + .cbSavedRegs + = $T0 .raSearchStart = $eip $T0 ^ = $esp $T0 4 + =
STACK WIN 4 5969 37 c 0 4 4 0 0 1 $T2 $esp .cbLocals + .cbSavedRegs + = $T0 .raSearchStart = $eip $T0 ^ = $esp $T0 4 + = $ebx $T0 4 - ^ =
STACK WIN 4 596a 35 b 0 4 8 0 0 1 $T2 $esp .cbLocals + .cbSavedRegs + = $T0 .raSearchStart = $eip $T0 ^ = $esp $T0 4 + = $ebx $T0 4 - ^ =
STACK WIN 4 596b 33 a 0 4 c 0 0 1 $T2 $esp .cbLocals + .cbSavedRegs + = $T0 .raSearchStart = $eip $T0 ^ = $esp $T0 4 + = $ebx $T0 4 - ^ =
STACK WIN 4 59a3 1a 4 0 c 0 4 0 1 $T0 $ebp = $eip $T0 4 + ^ = $ebp $T0 ^ = $esp $T0 8 + = $L $T0 .cbSavedRegs - = $P $T0 8 + .cbParams + =
STACK WIN 4 59bd 1a 4 0 c 0 4 0 1 $T0 $ebp = $eip $T0 4 + ^ = $ebp $T0 ^ = $esp $T0 8 + = $L $T0 .cbSavedRegs - = $P $T0 8 + .cbParams + =
STACK WIN 4 59d7 3d 4 0 c 0 0 0 1 $T2 $esp .cbLocals + .cbSavedRegs + = $T0 .raSearchStart = $eip $T0 ^ = $esp $T0 4 + =
STACK WIN 4 59d8 39 3 0 c 4 0 0 1 $T2 $esp .cbLocals + .cbSavedRegs + = $T0 .raSearchStart = $eip $T0 ^ = $esp $T0 4 + =
STACK WIN 4 59d9 35 2 0 c 8 0 0 1 $T2 $esp .cbLocals + .cbSavedRegs + = $T0 .raSearchStart = $eip $T0 ^ = $esp $T0 4 + =
STACK WIN 4 5a14 272 13 0 8 0 48 0 1 $T0 $ebp = $eip $T0 4 + ^ = $ebp $T0 ^ = $esp $T0 8 + = $L $T0 .cbSavedRegs - = $P $T0 8 + .cbParams + =
STACK WIN 4 5a1b 259 c 0 8 4 48 0 1 $T0 $ebp = $eip $T0 4 + ^ = $ebp $T0 ^ = $esp $T0 8 + = $L $T0 .cbSavedRegs - = $P $T0 8 + .cbParams + = $ebx $T0 76 - ^ =
STACK WIN 4 5a23 250 4 0 8 8 48 0 1 $T0 $ebp = $eip $T0 4 + ^ = $ebp $T0 ^ = $esp $T0 8 + = $L $T0 .cbSavedRegs - = $P $T0 8 + .cbParams + = $ebx $T0 76 - ^ =
STACK WIN 4 5a24 24e 3 0 8 c 48 0 1 $T0 $ebp = $eip $T0 4 + ^ = $ebp $T0 ^ = $esp $T0 8 + = $L $T0 .cbSavedRegs - = $P $T0 8 + .cbParams + = $ebx $T0 76 - ^ =
STACK WIN 4 5c86 276 13 0 8 0 48 0 1 $T0 $ebp = $eip $T0 4 + ^ = $ebp $T0 ^ = $esp $T0 8 + = $L $T0 .cbSavedRegs - = $P $T0 8 + .cbParams + =
STACK WIN 4 5c8d 25d c 0 8 4 48 0 1 $T0 $ebp = $eip $T0 4 + ^ = $ebp $T0 ^ = $esp $T0 8 + = $L $T0 .cbSavedRegs - = $P $T0 8 + .cbParams + = $ebx $T0 76 - ^ =
STACK WIN 4 5c95 254 4 0 8 8 48 0 1 $T0 $ebp = $eip $T0 4 + ^ = $ebp $T0 ^ = $esp $T0 8 + = $L $T0 .cbSavedRegs - = $P $T0 8 + .cbParams + = $ebx $T0 76 - ^ =
STACK WIN 4 5c96 252 3 0 8 c 48 0 1 $T0 $ebp = $eip $T0 4 + ^ = $ebp $T0 ^ = $esp $T0 8 + = $L $T0 .cbSavedRegs - = $P $T0 8 + .cbParams + = $ebx $T0 76 - ^ =
STACK WIN 4 5efc 26 4 0 0 0 0 0 1 $T2 $esp .cbLocals + .cbSavedRegs + = $T0 .raSearchStart = $eip $T0 ^ = $esp $T0 4 + =
STACK WIN 4 5efd 24 3 0 0 4 0 0 1 $T2 $esp .cbLocals + .cbSavedRegs + = $T0 .raSearchStart = $eip $T0 ^ = $esp $T0 4 + =
STACK WIN 4 5efe 1f 2 0 0 8 0 0 1 $T2 $esp .cbLocals + .cbSavedRegs + = $T0 .raSearchStart = $eip $T0 ^ = $esp $T0 4 + =
STACK WIN 4 5f22 33 d 0 4 0 0 0 1 $T2 $esp .cbLocals + .cbSavedRegs + = $T0 .raSearchStart = $eip $T0 ^ = $esp $T0 4 + =
STACK WIN 4 5f23 2f c 0 4 4 0 0 1 $T2 $esp .cbLocals + .cbSavedRegs + = $T0 .raSearchStart = $eip $T0 ^ = $esp $T0 4 + = $ebx $T0 4 - ^ =
STACK WIN 4 5f24 2d b 0 4 8 0 0 1 $T2 $esp .cbLocals + .cbSavedRegs + = $T0 .raSearchStart = $eip $T0 ^ = $esp $T0 4 + = $ebx $T0 4 - ^ =
STACK WIN 4 5f25 2b a 0 4 c 0 0 1 $T2 $esp .cbLocals + .cbSavedRegs + = $T0 .raSearchStart = $eip $T0 ^ = $esp $T0 4 + = $ebx $T0 4 - ^ =
STACK WIN 4 5f55 37 d 0 4 0 0 0 1 $T2 $esp .cbLocals + .cbSavedRegs + = $T0 .raSearchStart = $eip $T0 ^ = $esp $T0 4 + =
STACK WIN 4 5f56 33 c 0 4 4 0 0 1 $T2 $esp .cbLocals + .cbSavedRegs + = $T0 .raSearchStart = $eip $T0 ^ = $esp $T0 4 + = $ebx $T0 4 - ^ =
STACK WIN 4 5f57 31 b 0 4 8 0 0 1 $T2 $esp .cbLocals + .cbSavedRegs + = $T0 .raSearchStart = $eip $T0 ^ = $esp $T0 4 + = $ebx $T0 4 - ^ =
STACK WIN 4 5f58 2f a 0 4 c 0 0 1 $T2 $esp .cbLocals + .cbSavedRegs + = $T0 .raSearchStart = $eip $T0 ^ = $esp $T0 4 + = $ebx $T0 4 - ^ =
STACK WIN 4 5f8c 1d 1 0 c 0 0 0 1 $T2 $esp .cbLocals + .cbSavedRegs + = $T0 .raSearchStart = $eip $T0 ^ = $esp $T0 4 + =
STACK WIN 4 5f8d 1b 0 0 c 4 0 0 1 $T2 $esp .cbLocals + .cbSavedRegs + = $T0 .raSearchStart = $eip $T0 ^ = $esp $T0 4 + =
STACK WIN 4 5fa9 21 8 0 4 0 0 0 1 $T2 $esp .cbLocals + .cbSavedRegs + = $T0 .raSearchStart = $eip $T0 ^ = $esp $T0 4 + =
STACK WIN 4 5fb1 16 0 0 4 4 0 0 1 $T2 $esp .cbLocals + .cbSavedRegs + = $T0 .raSearchStart = $eip $T0 ^ = $esp $T0 4 + =
STACK WIN 4 5fca 40 7 0 4 0 0 0 1 $T0 $ebp = $eip $T0 4 + ^ = $ebp $T0 ^ = $esp $T0 8 + = $L $T0 .cbSavedRegs - = $P $T0 8 + .cbParams + =
STACK WIN 4 5fce 38 3 0 4 4 0 0 1 $T0 $ebp = $eip $T0 4 + ^ = $ebp $T0 ^ = $esp $T0 8 + = $L $T0 .cbSavedRegs - = $P $T0 8 + .cbParams + =
STACK WIN 4 5fcf 36 2 0 4 8 0 0 1 $T0 $ebp = $eip $T0 4 + ^ = $ebp $T0 ^ = $esp $T0 8 + = $L $T0 .cbSavedRegs - = $P $T0 8 + .cbParams + =
STACK WIN 4 600a 3a c 0 c 0 0 0 1 $T2 $esp .cbLocals + .cbSavedRegs + = $T0 .raSearchStart = $eip $T0 ^ = $esp $T0 4 + =
STACK WIN 4 600b 36 b 0 c 4 0 0 1 $T2 $esp .cbLocals + .cbSavedRegs + = $T0 .raSearchStart = $eip $T0 ^ = $esp $T0 4 + = $ebx $T0 4 - ^ =
STACK WIN 4 6014 2a 2 0 c 8 0 0 1 $T2 $esp .cbLocals + .cbSavedRegs + = $T0 .raSearchStart = $eip $T0 ^ = $esp $T0 4 + = $ebx $T0 4 - ^ =
STACK WIN 4 6019 20 0 0 c c 0 0 1 $T2 $esp .cbLocals + .cbSavedRegs + = $T0 .raSearchStart = $eip $T0 ^ = $esp $T0 4 + = $ebx $T0 4 - ^ =
STACK WIN 4 6044 2d 3 0 0 0 0 0 1 $T2 $esp .cbLocals + .cbSavedRegs + = $T0 .raSearchStart = $eip $T0 ^ = $esp $T0 4 + =
STACK WIN 4 6045 2b 2 0 0 4 0 0 1 $T2 $esp .cbLocals + .cbSavedRegs + = $T0 .raSearchStart = $eip $T0 ^ = $esp $T0 4 + =
STACK WIN 4 6071 25 3 0 0 0 0 0 1 $T2 $esp .cbLocals + .cbSavedRegs + = $T0 .raSearchStart = $eip $T0 ^ = $esp $T0 4 + =
STACK WIN 4 6072 23 2 0 0 4 0 0 1 $T2 $esp .cbLocals + .cbSavedRegs + = $T0 .raSearchStart = $eip $T0 ^ = $esp $T0 4 + =
STACK WIN 4 6096 53 7 0 c 0 4 0 1 $T0 $ebp = $eip $T0 4 + ^ = $ebp $T0 ^ = $esp $T0 8 + = $L $T0 .cbSavedRegs - = $P $T0 8 + .cbParams + =
STACK WIN 4 609b 4a 2 0 c 4 4 0 1 $T0 $ebp = $eip $T0 4 + ^ = $ebp $T0 ^ = $esp $T0 8 + = $L $T0 .cbSavedRegs - = $P $T0 8 + .cbParams + =
STACK WIN 4 60c0 1f 0 0 c 8 4 0 1 $T0 $ebp = $eip $T0 4 + ^ = $ebp $T0 ^ = $esp $T0 8 + = $L $T0 .cbSavedRegs - = $P $T0 8 + .cbParams + =
STACK WIN 4 60e9 26 4 0 0 0 0 0 1 $T2 $esp .cbLocals + .cbSavedRegs + = $T0 .raSearchStart = $eip $T0 ^ = $esp $T0 4 + =
STACK WIN 4 60ea 24 3 0 0 4 0 0 1 $T2 $esp .cbLocals + .cbSavedRegs + = $T0 .raSearchStart = $eip $T0 ^ = $esp $T0 4 + =
STACK WIN 4 60eb 1f 2 0 0 8 0 0 1 $T2 $esp .cbLocals + .cbSavedRegs + = $T0 .raSearchStart = $eip $T0 ^ = $esp $T0 4 + =
STACK WIN 4 610f 26 4 0 0 0 0 0 1 $T2 $esp .cbLocals + .cbSavedRegs + = $T0 .raSearchStart = $eip $T0 ^ = $esp $T0 4 + =
STACK WIN 4 6110 24 3 0 0 4 0 0 1 $T2 $esp .cbLocals + .cbSavedRegs + = $T0 .raSearchStart = $eip $T0 ^ = $esp $T0 4 + =
STACK WIN 4 6111 1f 2 0 0 8 0 0 1 $T2 $esp .cbLocals + .cbSavedRegs + = $T0 .raSearchStart = $eip $T0 ^ = $esp $T0 4 + =
STACK WIN 4 6135 14 0 0 8 0 0 0 1 $T2 $esp .cbLocals + .cbSavedRegs + = $T0 .raSearchStart = $eip $T0 ^ = $esp $T0 4 + =
STACK WIN 4 6149 2e 6 0 4 0 28 0 1 $T0 $ebp = $eip $T0 4 + ^ = $ebp $T0 ^ = $esp $T0 8 + = $L $T0 .cbSavedRegs - = $P $T0 8 + .cbParams + =
STACK WIN 4 6177 15 1 0 0 0 4 0 1 $T2 $esp .cbLocals + .cbSavedRegs + = $T0 .raSearchStart = $eip $T0 ^ = $esp $T0 4 + =
STACK WIN 4 618c 2b 4 0 0 0 4 0 1 $T2 $esp .cbLocals + .cbSavedRegs + = $T0 .raSearchStart = $eip $T0 ^ = $esp $T0 4 + =
STACK WIN 4 618e 27 2 0 0 4 4 0 1 $T2 $esp .cbLocals + .cbSavedRegs + = $T0 .raSearchStart = $eip $T0 ^ = $esp $T0 4 + =
STACK WIN 4 61b7 53 7 0 c 0 4 0 1 $T0 $ebp = $eip $T0 4 + ^ = $ebp $T0 ^ = $esp $T0 8 + = $L $T0 .cbSavedRegs - = $P $T0 8 + .cbParams + =
STACK WIN 4 61bc 4a 2 0 c 4 4 0 1 $T0 $ebp = $eip $T0 4 + ^ = $ebp $T0 ^ = $esp $T0 8 + = $L $T0 .cbSavedRegs - = $P $T0 8 + .cbParams + =
STACK WIN 4 61e1 1f 0 0 c 8 4 0 1 $T0 $ebp = $eip $T0 4 + ^ = $ebp $T0 ^ = $esp $T0 8 + = $L $T0 .cbSavedRegs - = $P $T0 8 + .cbParams + =
STACK WIN 4 620a 53 7 0 c 0 4 0 1 $T0 $ebp = $eip $T0 4 + ^ = $ebp $T0 ^ = $esp $T0 8 + = $L $T0 .cbSavedRegs - = $P $T0 8 + .cbParams + =
STACK WIN 4 620f 4a 2 0 c 4 4 0 1 $T0 $ebp = $eip $T0 4 + ^ = $ebp $T0 ^ = $esp $T0 8 + = $L $T0 .cbSavedRegs - = $P $T0 8 + .cbParams + =
STACK WIN 4 6234 1f 0 0 c 8 4 0 1 $T0 $ebp = $eip $T0 4 + ^ = $ebp $T0 ^ = $esp $T0 8 + = $L $T0 .cbSavedRegs - = $P $T0 8 + .cbParams + =
STACK WIN 4 625d 27 4 0 18 0 0 0 1 $T0 $ebp = $eip $T0 4 + ^ = $ebp $T0 ^ = $esp $T0 8 + = $L $T0 .cbSavedRegs - = $P $T0 8 + .cbParams + =
STACK WIN 4 6261 21 0 0 18 4 0 0 1 $T0 $ebp = $eip $T0 4 + ^ = $ebp $T0 ^ = $esp $T0 8 + = $L $T0 .cbSavedRegs - = $P $T0 8 + .cbParams + =
STACK WIN 4 6284 46 3 0 0 0 0 0 1 $T2 $esp .cbLocals + .cbSavedRegs + = $T0 .raSearchStart = $eip $T0 ^ = $esp $T0 4 + =
STACK WIN 4 6285 40 2 0 0 4 0 0 1 $T2 $esp .cbLocals + .cbSavedRegs + = $T0 .raSearchStart = $eip $T0 ^ = $esp $T0 4 + =
STACK WIN 4 62ca 22 4 0 0 0 4 0 1 $T2 $esp .cbLocals + .cbSavedRegs + = $T0 .raSearchStart = $eip $T0 ^ = $esp $T0 4 + =
STACK WIN 4 62cc 1e 2 0 0 4 4 0 1 $T2 $esp .cbLocals + .cbSavedRegs + = $T0 .raSearchStart = $eip $T0 ^ = $esp $T0 4 + =
STACK WIN 4 62ec 22 4 0 0 0 4 0 1 $T2 $esp .cbLocals + .cbSavedRegs + = $T0 .raSearchStart = $eip $T0 ^ = $esp $T0 4 + =
STACK WIN 4 62ee 1e 2 0 0 4 4 0 1 $T2 $esp .cbLocals + .cbSavedRegs + = $T0 .raSearchStart = $eip $T0 ^ = $esp $T0 4 + =
STACK WIN 4 630e 28 5 0 c 0 4 0 1 $T0 $ebp = $eip $T0 4 + ^ = $ebp $T0 ^ = $esp $T0 8 + = $L $T0 .cbSavedRegs - = $P $T0 8 + .cbParams + =
STACK WIN 4 6313 21 0 0 c 4 4 0 1 $T0 $ebp = $eip $T0 4 + ^ = $ebp $T0 ^ = $esp $T0 8 + = $L $T0 .cbSavedRegs - = $P $T0 8 + .cbParams + =
STACK WIN 4 6336 7d c 0 18 c 20 0 1 $T0 $ebp = $eip $T0 4 + ^ = $ebp $T0 ^ = $esp $T0 8 + = $L $T0 .cbSavedRegs - = $P $T0 8 + .cbParams + =
STACK WIN 4 63b3 24 8 0 0 0 8 0 1 $T0 $ebp = $eip $T0 4 + ^ = $ebp $T0 ^ = $esp $T0 8 + = $L $T0 .cbSavedRegs - = $P $T0 8 + .cbParams + =
STACK WIN 4 63b9 1c 2 0 0 4 8 0 1 $T0 $ebp = $eip $T0 4 + ^ = $ebp $T0 ^ = $esp $T0 8 + = $L $T0 .cbSavedRegs - = $P $T0 8 + .cbParams + =
STACK WIN 4 63d7 24 8 0 0 0 8 0 1 $T0 $ebp = $eip $T0 4 + ^ = $ebp $T0 ^ = $esp $T0 8 + = $L $T0 .cbSavedRegs - = $P $T0 8 + .cbParams + =
STACK WIN 4 63dd 1c 2 0 0 4 8 0 1 $T0 $ebp = $eip $T0 4 + ^ = $ebp $T0 ^ = $esp $T0 8 + = $L $T0 .cbSavedRegs - = $P $T0 8 + .cbParams + =
STACK WIN 4 63fb 24 8 0 0 0 8 0 1 $T0 $ebp = $eip $T0 4 + ^ = $ebp $T0 ^ = $esp $T0 8 + = $L $T0 .cbSavedRegs - = $P $T0 8 + .cbParams + =
STACK WIN 4 6401 1c 2 0 0 4 8 0 1 $T0 $ebp = $eip $T0 4 + ^ = $ebp $T0 ^ = $esp $T0 8 + = $L $T0 .cbSavedRegs - = $P $T0 8 + .cbParams + =
STACK WIN 4 641f 19 1 0 10 0 0 0 1 $T2 $esp .cbLocals + .cbSavedRegs + = $T0 .raSearchStart = $eip $T0 ^ = $esp $T0 4 + =
STACK WIN 4 6420 17 0 0 10 4 0 0 1 $T2 $esp .cbLocals + .cbSavedRegs + = $T0 .raSearchStart = $eip $T0 ^ = $esp $T0 4 + =
STACK WIN 4 6438 5b c 0 18 c 14 0 1 $T0 $ebp = $eip $T0 4 + ^ = $ebp $T0 ^ = $esp $T0 8 + = $L $T0 .cbSavedRegs - = $P $T0 8 + .cbParams + =
STACK WIN 4 6493 28 5 0 10 0 4 0 1 $T0 $ebp = $eip $T0 4 + ^ = $ebp $T0 ^ = $esp $T0 8 + = $L $T0 .cbSavedRegs - = $P $T0 8 + .cbParams + =
STACK WIN 4 6498 21 0 0 10 4 4 0 1 $T0 $ebp = $eip $T0 4 + ^ = $ebp $T0 ^ = $esp $T0 8 + = $L $T0 .cbSavedRegs - = $P $T0 8 + .cbParams + =
STACK WIN 4 64bb 1a 4 0 c 0 4 0 1 $T0 $ebp = $eip $T0 4 + ^ = $ebp $T0 ^ = $esp $T0 8 + = $L $T0 .cbSavedRegs - = $P $T0 8 + .cbParams + =
STACK WIN 4 64d5 28 5 0 10 0 4 0 1 $T0 $ebp = $eip $T0 4 + ^ = $ebp $T0 ^ = $esp $T0 8 + = $L $T0 .cbSavedRegs - = $P $T0 8 + .cbParams + =
STACK WIN 4 64da 21 0 0 10 4 4 0 1 $T0 $ebp = $eip $T0 4 + ^ = $ebp $T0 ^ = $esp $T0 8 + = $L $T0 .cbSavedRegs - = $P $T0 8 + .cbParams + =
STACK WIN 4 64fd 18 0 0 c 0 0 0 1 $T2 $esp .cbLocals + .cbSavedRegs + = $T0 .raSearchStart = $eip $T0 ^ = $esp $T0 4 + =
STACK WIN 4 6515 1e 7 0 8 0 0 0 1 $T2 $esp .cbLocals + .cbSavedRegs + = $T0 .raSearchStart = $eip $T0 ^ = $esp $T0 4 + =
STACK WIN 4 651a 16 2 0 8 4 0 0 1 $T2 $esp .cbLocals + .cbSavedRegs + = $T0 .raSearchStart = $eip $T0 ^ = $esp $T0 4 + =
STACK WIN 4 6533 18 3 0 0 0 0 0 1 $T2 $esp .cbLocals + .cbSavedRegs + = $T0 .raSearchStart = $eip $T0 ^ = $esp $T0 4 + =
STACK WIN 4 6534 12 2 0 0 4 0 0 1 $T2 $esp .cbLocals + .cbSavedRegs + = $T0 .raSearchStart = $eip $T0 ^ = $esp $T0 4 + =
STACK WIN 4 654b 2d 3 0 0 0 0 0 1 $T2 $esp .cbLocals + .cbSavedRegs + = $T0 .raSearchStart = $eip $T0 ^ = $esp $T0 4 + =
STACK WIN 4 654c 2b 2 0 0 4 0 0 1 $T2 $esp .cbLocals + .cbSavedRegs + = $T0 .raSearchStart = $eip $T0 ^ = $esp $T0 4 + =
STACK WIN 4 6578 22 3 0 c 0 0 0 1 $T0 $ebp = $eip $T0 4 + ^ = $ebp $T0 ^ = $esp $T0 8 + = $L $T0 .cbSavedRegs - = $P $T0 8 + .cbParams + =
STACK WIN 4 659a 206 11 0 c c 28 0 1 $T0 $ebp = $eip $T0 4 + ^ = $ebp $T0 ^ = $esp $T0 8 + = $L $T0 .cbSavedRegs - = $P $T0 8 + .cbParams + =
STACK WIN 4 67a0 74 a 0 24 0 0 0 1 $T0 $ebp = $eip $T0 4 + ^ = $ebp $T0 ^ = $esp $T0 8 + = $L $T0 .cbSavedRegs - = $P $T0 8 + .cbParams + =
STACK WIN 4 67a7 69 3 0 24 4 0 0 1 $T0 $ebp = $eip $T0 4 + ^ = $ebp $T0 ^ = $esp $T0 8 + = $L $T0 .cbSavedRegs - = $P $T0 8 + .cbParams + = $ebx $T0 4 - ^ =
STACK WIN 4 67a8 67 2 0 24 8 0 0 1 $T0 $ebp = $eip $T0 4 + ^ = $ebp $T0 ^ = $esp $T0 8 + = $L $T0 .cbSavedRegs - = $P $T0 8 + .cbParams + = $ebx $T0 4 - ^ =
STACK WIN 4 6814 23 3 0 0 0 0 0 1 $T2 $esp .cbLocals + .cbSavedRegs + = $T0 .raSearchStart = $eip $T0 ^ = $esp $T0 4 + =
STACK WIN 4 6815 21 2 0 0 4 0 0 1 $T2 $esp .cbLocals + .cbSavedRegs + = $T0 .raSearchStart = $eip $T0 ^ = $esp $T0 4 + =
STACK WIN 4 6837 42 4 0 c 0 0 0 1 $T2 $esp .cbLocals + .cbSavedRegs + = $T0 .raSearchStart = $eip $T0 ^ = $esp $T0 4 + =
STACK WIN 4 6838 3e 3 0 c 4 0 0 1 $T2 $esp .cbLocals + .cbSavedRegs + = $T0 .raSearchStart = $eip $T0 ^ = $esp $T0 4 + =
STACK WIN 4 6839 3a 2 0 c 8 0 0 1 $T2 $esp .cbLocals + .cbSavedRegs + = $T0 .raSearchStart = $eip $T0 ^ = $esp $T0 4 + =
STACK WIN 4 6879 32 3 0 0 0 0 0 1 $T2 $esp .cbLocals + .cbSavedRegs + = $T0 .raSearchStart = $eip $T0 ^ = $esp $T0 4 + =
STACK WIN 4 687a 2c 2 0 0 4 0 0 1 $T2 $esp .cbLocals + .cbSavedRegs + = $T0 .raSearchStart = $eip $T0 ^ = $esp $T0 4 + =
STACK WIN 4 68ab 40 7 0 4 0 0 0 1 $T0 $ebp = $eip $T0 4 + ^ = $ebp $T0 ^ = $esp $T0 8 + = $L $T0 .cbSavedRegs - = $P $T0 8 + .cbParams + =
STACK WIN 4 68af 38 3 0 4 4 0 0 1 $T0 $ebp = $eip $T0 4 + ^ = $ebp $T0 ^ = $esp $T0 8 + = $L $T0 .cbSavedRegs - = $P $T0 8 + .cbParams + =
STACK WIN 4 68b0 36 2 0 4 8 0 0 1 $T0 $ebp = $eip $T0 4 + ^ = $ebp $T0 ^ = $esp $T0 8 + = $L $T0 .cbSavedRegs - = $P $T0 8 + .cbParams + =
STACK WIN 4 68eb 28 3 0 0 0 0 0 1 $T2 $esp .cbLocals + .cbSavedRegs + = $T0 .raSearchStart = $eip $T0 ^ = $esp $T0 4 + =
STACK WIN 4 68ec 22 2 0 0 4 0 0 1 $T2 $esp .cbLocals + .cbSavedRegs + = $T0 .raSearchStart = $eip $T0 ^ = $esp $T0 4 + =
STACK WIN 4 6913 59 c 0 0 0 10 0 1 $T0 $ebp = $eip $T0 4 + ^ = $ebp $T0 ^ = $esp $T0 8 + = $L $T0 .cbSavedRegs - = $P $T0 8 + .cbParams + =
STACK WIN 4 691a 50 5 0 0 4 10 0 1 $T0 $ebp = $eip $T0 4 + ^ = $ebp $T0 ^ = $esp $T0 8 + = $L $T0 .cbSavedRegs - = $P $T0 8 + .cbParams + =
STACK WIN 4 691b 4e 4 0 0 8 10 0 1 $T0 $ebp = $eip $T0 4 + ^ = $ebp $T0 ^ = $esp $T0 8 + = $L $T0 .cbSavedRegs - = $P $T0 8 + .cbParams + =
STACK WIN 4 696c ff 21 0 18 0 b0 0 1 $T0 $ebp 96 + = $eip $T0 4 + ^ = $ebp $T0 ^ = $esp $T0 8 + = $L $T0 .cbSavedRegs - = $P $T0 8 + .cbParams + =
STACK WIN 4 6985 dc 8 0 18 4 b0 0 1 $T0 $ebp 96 + = $eip $T0 4 + ^ = $ebp $T0 ^ = $esp $T0 8 + = $L $T0 .cbSavedRegs - = $P $T0 8 + .cbParams + = $ebx $T0 180 - ^ =
STACK WIN 4 6989 d3 4 0 18 8 b0 0 1 $T0 $ebp 96 + = $eip $T0 4 + ^ = $ebp $T0 ^ = $esp $T0 8 + = $L $T0 .cbSavedRegs - = $P $T0 8 + .cbParams + = $ebx $T0 180 - ^ =
STACK WIN 4 698d ce 0 0 18 c b0 0 1 $T0 $ebp 96 + = $eip $T0 4 + ^ = $ebp $T0 ^ = $esp $T0 8 + = $L $T0 .cbSavedRegs - = $P $T0 8 + .cbParams + = $ebx $T0 180 - ^ =
STACK WIN 4 6a6b 82 5 0 8 0 0 0 1 $T2 $esp .cbLocals + .cbSavedRegs + = $T0 .raSearchStart = $eip $T0 ^ = $esp $T0 4 + =
STACK WIN 4 6a6c 7e 4 0 8 4 0 0 1 $T2 $esp .cbLocals + .cbSavedRegs + = $T0 .raSearchStart = $eip $T0 ^ = $esp $T0 4 + = $ebx $T0 4 - ^ =
STACK WIN 4 6a6d 7c 3 0 8 8 0 0 1 $T2 $esp .cbLocals + .cbSavedRegs + = $T0 .raSearchStart = $eip $T0 ^ = $esp $T0 4 + = $ebx $T0 4 - ^ =
STACK WIN 4 6a6e 78 2 0 8 c 0 0 1 $T2 $esp .cbLocals + .cbSavedRegs + = $T0 .raSearchStart = $eip $T0 ^ = $esp $T0 4 + = $ebx $T0 4 - ^ =
STACK WIN 4 6aed 55 3 0 0 0 0 0 1 $T2 $esp .cbLocals + .cbSavedRegs + = $T0 .raSearchStart = $eip $T0 ^ = $esp $T0 4 + =
STACK WIN 4 6aee 4f 2 0 0 4 0 0 1 $T2 $esp .cbLocals + .cbSavedRegs + = $T0 .raSearchStart = $eip $T0 ^ = $esp $T0 4 + =
STACK WIN 4 6b42 1b3 1b 0 c 0 98 0 1 $T0 $ebp 108 + = $eip $T0 4 + ^ = $ebp $T0 ^ = $esp $T0 8 + = $L $T0 .cbSavedRegs - = $P $T0 8 + .cbParams + =
STACK WIN 4 6b58 39 5 0 c 4 98 0 1 $T0 $ebp 108 + = $eip $T0 4 + ^ = $ebp $T0 ^ = $esp $T0 8 + = $L $T0 .cbSavedRegs - = $P $T0 8 + .cbParams + = $ebx $T0 156 - ^ =
STACK WIN 4 6b5c 30 1 0 c 8 98 0 1 $T0 $ebp 108 + = $eip $T0 4 + ^ = $ebp $T0 ^ = $esp $T0 8 + = $L $T0 .cbSavedRegs - = $P $T0 8 + .cbParams + = $ebx $T0 156 - ^ =
STACK WIN 4 6b5d 2e 0 0 c c 98 0 1 $T0 $ebp 108 + = $eip $T0 4 + ^ = $ebp $T0 ^ = $esp $T0 8 + = $L $T0 .cbSavedRegs - = $P $T0 8 + .cbParams + = $ebx $T0 156 - ^ =
STACK WIN 4 6cf5 55 a 0 4 0 10 0 1 $T0 $ebp = $eip $T0 4 + ^ = $ebp $T0 ^ = $esp $T0 8 + = $L $T0 .cbSavedRegs - = $P $T0 8 + .cbParams + =
STACK WIN 4 6cfc 4a 3 0 4 4 10 0 1 $T0 $ebp = $eip $T0 4 + ^ = $ebp $T0 ^ = $esp $T0 8 + = $L $T0 .cbSavedRegs - = $P $T0 8 + .cbParams + = $ebx $T0 20 - ^ =
STACK WIN 4 6cfd 46 2 0 4 8 10 0 1 $T0 $ebp = $eip $T0 4 + ^ = $ebp $T0 ^ = $esp $T0 8 + = $L $T0 .cbSavedRegs - = $P $T0 8 + .cbParams + = $ebx $T0 20 - ^ =
STACK WIN 4 6d4a 1c 3 0 4 0 0 0 1 $T2 $esp .cbLocals + .cbSavedRegs + = $T0 .raSearchStart = $eip $T0 ^ = $esp $T0 4 + =
STACK WIN 4 6d4b 18 2 0 4 4 0 0 1 $T2 $esp .cbLocals + .cbSavedRegs + = $T0 .raSearchStart = $eip $T0 ^ = $esp $T0 4 + =
STACK WIN 4 6d66 4b 9 0 4 0 8 0 1 $T0 $ebp = $eip $T0 4 + ^ = $ebp $T0 ^ = $esp $T0 8 + = $L $T0 .cbSavedRegs - = $P $T0 8 + .cbParams + =
STACK WIN 4 6d6c 2f 3 0 4 4 8 0 1 $T0 $ebp = $eip $T0 4 + ^ = $ebp $T0 ^ = $esp $T0 8 + = $L $T0 .cbSavedRegs - = $P $T0 8 + .cbParams + = $ebx $T0 12 - ^ =
STACK WIN 4 6d6d 2b 2 0 4 8 8 0 1 $T0 $ebp = $eip $T0 4 + ^ = $ebp $T0 ^ = $esp $T0 8 + = $L $T0 .cbSavedRegs - = $P $T0 8 + .cbParams + = $ebx $T0 12 - ^ =
STACK WIN 4 6db1 5 0 0 8 0 0 0 1 $T2 $esp .cbLocals + .cbSavedRegs + = $T0 .raSearchStart = $eip $T0 ^ = $esp $T0 4 + =
STACK WIN 4 6db6 34 1 0 4 0 0 0 1 $T2 $esp .cbLocals + .cbSavedRegs + = $T0 .raSearchStart = $eip $T0 ^ = $esp $T0 4 + =
STACK WIN 4 6db7 30 0 0 4 4 0 0 1 $T2 $esp .cbLocals + .cbSavedRegs + = $T0 .raSearchStart = $eip $T0 ^ = $esp $T0 4 + =
STACK WIN 4 6dea 68 b 0 10 0 0 0 1 $T0 $ebp = $eip $T0 4 + ^ = $ebp $T0 ^ = $esp $T0 8 + = $L $T0 .cbSavedRegs - = $P $T0 8 + .cbParams + =
STACK WIN 4 6dee 60 7 0 10 4 0 0 1 $T0 $ebp = $eip $T0 4 + ^ = $ebp $T0 ^ = $esp $T0 8 + = $L $T0 .cbSavedRegs - = $P $T0 8 + .cbParams + = $ebx $T0 4 - ^ =
STACK WIN 4 6def 5e 6 0 10 8 0 0 1 $T0 $ebp = $eip $T0 4 + ^ = $ebp $T0 ^ = $esp $T0 8 + = $L $T0 .cbSavedRegs - = $P $T0 8 + .cbParams + = $ebx $T0 4 - ^ =
STACK WIN 4 6df0 5c 5 0 10 c 0 0 1 $T0 $ebp = $eip $T0 4 + ^ = $ebp $T0 ^ = $esp $T0 8 + = $L $T0 .cbSavedRegs - = $P $T0 8 + .cbParams + = $ebx $T0 4 - ^ =
STACK WIN 4 6e52 1d 3 0 14 0 0 0 1 $T0 $ebp = $eip $T0 4 + ^ = $ebp $T0 ^ = $esp $T0 8 + = $L $T0 .cbSavedRegs - = $P $T0 8 + .cbParams + =
STACK WIN 4 6e6f 2f 9 0 18 0 0 0 1 $T2 $esp .cbLocals + .cbSavedRegs + = $T0 .raSearchStart = $eip $T0 ^ = $esp $T0 4 + =
STACK WIN 4 6e78 25 0 0 18 4 0 0 1 $T2 $esp .cbLocals + .cbSavedRegs + = $T0 .raSearchStart = $eip $T0 ^ = $esp $T0 4 + =
STACK WIN 4 6e9e 21 3 0 10 0 0 0 1 $T0 $ebp = $eip $T0 4 + ^ = $ebp $T0 ^ = $esp $T0 8 + = $L $T0 .cbSavedRegs - = $P $T0 8 + .cbParams + =
STACK WIN 4 6ebf 57 4 0 0 0 0 0 1 $T2 $esp .cbLocals + .cbSavedRegs + = $T0 .raSearchStart = $eip $T0 ^ = $esp $T0 4 + =
STACK WIN 4 6ec0 55 3 0 0 4 0 0 1 $T2 $esp .cbLocals + .cbSavedRegs + = $T0 .raSearchStart = $eip $T0 ^ = $esp $T0 4 + = $ebx $T0 4 - ^ =
STACK WIN 4 6ec1 53 2 0 0 8 0 0 1 $T2 $esp .cbLocals + .cbSavedRegs + = $T0 .raSearchStart = $eip $T0 ^ = $esp $T0 4 + = $ebx $T0 4 - ^ =
STACK WIN 4 6ec7 4c 0 0 0 c 0 0 1 $T2 $esp .cbLocals + .cbSavedRegs + = $T0 .raSearchStart = $eip $T0 ^ = $esp $T0 4 + = $ebx $T0 4 - ^ =
STACK WIN 4 6f16 1d 4 0 10 0 4 0 1 $T0 $ebp = $eip $T0 4 + ^ = $ebp $T0 ^ = $esp $T0 8 + = $L $T0 .cbSavedRegs - = $P $T0 8 + .cbParams + =
STACK WIN 4 6f33 24 0 0 4 0 0 0 1 $T2 $esp .cbLocals + .cbSavedRegs + = $T0 .raSearchStart = $eip $T0 ^ = $esp $T0 4 + =
STACK WIN 4 6f57 28 5 0 18 0 4 0 1 $T0 $ebp = $eip $T0 4 + ^ = $ebp $T0 ^ = $esp $T0 8 + = $L $T0 .cbSavedRegs - = $P $T0 8 + .cbParams + =
STACK WIN 4 6f5c 21 0 0 18 4 4 0 1 $T0 $ebp = $eip $T0 4 + ^ = $ebp $T0 ^ = $esp $T0 8 + = $L $T0 .cbSavedRegs - = $P $T0 8 + .cbParams + =
STACK WIN 4 6f7f 70 a 0 8 0 0 0 1 $T0 $ebp = $eip $T0 4 + ^ = $ebp $T0 ^ = $esp $T0 8 + = $L $T0 .cbSavedRegs - = $P $T0 8 + .cbParams + =
STACK WIN 4 6f83 68 6 0 8 4 0 0 1 $T0 $ebp = $eip $T0 4 + ^ = $ebp $T0 ^ = $esp $T0 8 + = $L $T0 .cbSavedRegs - = $P $T0 8 + .cbParams + =
STACK WIN 4 6f84 64 5 0 8 8 0 0 1 $T0 $ebp = $eip $T0 4 + ^ = $ebp $T0 ^ = $esp $T0 8 + = $L $T0 .cbSavedRegs - = $P $T0 8 + .cbParams + =
STACK WIN 4 6fae 39 0 0 8 c 0 0 1 $T0 $ebp = $eip $T0 4 + ^ = $ebp $T0 ^ = $esp $T0 8 + = $L $T0 .cbSavedRegs - = $P $T0 8 + .cbParams + = $ebx $T0 12 - ^ =
STACK WIN 4 6fef ef 11 0 8 c 1c 0 1 $T0 $ebp = $eip $T0 4 + ^ = $ebp $T0 ^ = $esp $T0 8 + = $L $T0 .cbSavedRegs - = $P $T0 8 + .cbParams + =
STACK WIN 4 70de 44 4 0 4 0 0 0 1 $T2 $esp .cbLocals + .cbSavedRegs + = $T0 .raSearchStart = $eip $T0 ^ = $esp $T0 4 + =
STACK WIN 4 70df 38 3 0 4 4 0 0 1 $T2 $esp .cbLocals + .cbSavedRegs + = $T0 .raSearchStart = $eip $T0 ^ = $esp $T0 4 + = $ebx $T0 4 - ^ =
STACK WIN 4 70e0 36 2 0 4 8 0 0 1 $T2 $esp .cbLocals + .cbSavedRegs + = $T0 .raSearchStart = $eip $T0 ^ = $esp $T0 4 + = $ebx $T0 4 - ^ =
STACK WIN 4 70e6 2f 0 0 4 c 0 0 1 $T2 $esp .cbLocals + .cbSavedRegs + = $T0 .raSearchStart = $eip $T0 ^ = $esp $T0 4 + = $ebx $T0 4 - ^ =
STACK WIN 4 7122 5f b 0 8 0 0 0 1 $T2 $esp .cbLocals + .cbSavedRegs + = $T0 .raSearchStart = $eip $T0 ^ = $esp $T0 4 + =
STACK WIN 4 7123 5b a 0 8 4 0 0 1 $T2 $esp .cbLocals + .cbSavedRegs + = $T0 .raSearchStart = $eip $T0 ^ = $esp $T0 4 + =
STACK WIN 4 7124 57 9 0 8 8 0 0 1 $T2 $esp .cbLocals + .cbSavedRegs + = $T0 .raSearchStart = $eip $T0 ^ = $esp $T0 4 + =
STACK WIN 4 7181 93 11 0 c 0 0 0 1 $T0 $ebp = $eip $T0 4 + ^ = $ebp $T0 ^ = $esp $T0 8 + = $L $T0 .cbSavedRegs - = $P $T0 8 + .cbParams + =
STACK WIN 4 7188 88 a 0 c 4 0 0 1 $T0 $ebp = $eip $T0 4 + ^ = $ebp $T0 ^ = $esp $T0 8 + = $L $T0 .cbSavedRegs - = $P $T0 8 + .cbParams + = $ebx $T0 4 - ^ =
STACK WIN 4 7189 84 9 0 c 8 0 0 1 $T0 $ebp = $eip $T0 4 + ^ = $ebp $T0 ^ = $esp $T0 8 + = $L $T0 .cbSavedRegs - = $P $T0 8 + .cbParams + = $ebx $T0 4 - ^ =
STACK WIN 4 718a 82 8 0 c c 0 0 1 $T0 $ebp = $eip $T0 4 + ^ = $ebp $T0 ^ = $esp $T0 8 + = $L $T0 .cbSavedRegs - = $P $T0 8 + .cbParams + = $ebx $T0 4 - ^ =
STACK WIN 4 7214 72 b 0 8 0 0 0 1 $T0 $ebp = $eip $T0 4 + ^ = $ebp $T0 ^ = $esp $T0 8 + = $L $T0 .cbSavedRegs - = $P $T0 8 + .cbParams + =
STACK WIN 4 7218 6a 7 0 8 4 0 0 1 $T0 $ebp = $eip $T0 4 + ^ = $ebp $T0 ^ = $esp $T0 8 + = $L $T0 .cbSavedRegs - = $P $T0 8 + .cbParams + =
STACK WIN 4 7219 68 6 0 8 8 0 0 1 $T0 $ebp = $eip $T0 4 + ^ = $ebp $T0 ^ = $esp $T0 8 + = $L $T0 .cbSavedRegs - = $P $T0 8 + .cbParams + =
STACK WIN 4 7286 14 0 0 0 0 0 0 1 $T2 $esp .cbLocals + .cbSavedRegs + = $T0 .raSearchStart = $eip $T0 ^ = $esp $T0 4 + =
STACK WIN 4 729a 2d a 0 4 0 0 0 1 $T2 $esp .cbLocals + .cbSavedRegs + = $T0 .raSearchStart = $eip $T0 ^ = $esp $T0 4 + =
STACK WIN 4 729b 29 9 0 4 4 0 0 1 $T2 $esp .cbLocals + .cbSavedRegs + = $T0 .raSearchStart = $eip $T0 ^ = $esp $T0 4 + =
STACK WIN 4 729c 25 8 0 4 8 0 0 1 $T2 $esp .cbLocals + .cbSavedRegs + = $T0 .raSearchStart = $eip $T0 ^ = $esp $T0 4 + =
STACK WIN 4 72c7 1e 7 0 4 0 0 0 1 $T2 $esp .cbLocals + .cbSavedRegs + = $T0 .raSearchStart = $eip $T0 ^ = $esp $T0 4 + =
STACK WIN 4 72c8 1a 6 0 4 4 0 0 1 $T2 $esp .cbLocals + .cbSavedRegs + = $T0 .raSearchStart = $eip $T0 ^ = $esp $T0 4 + =
STACK WIN 4 72e5 192 e 0 c c 14 0 1 $T0 $ebp = $eip $T0 4 + ^ = $ebp $T0 ^ = $esp $T0 8 + = $L $T0 .cbSavedRegs - = $P $T0 8 + .cbParams + =
STACK WIN 4 7477 1e 7 0 4 0 0 0 1 $T2 $esp .cbLocals + .cbSavedRegs + = $T0 .raSearchStart = $eip $T0 ^ = $esp $T0 4 + =
STACK WIN 4 7478 1a 6 0 4 4 0 0 1 $T2 $esp .cbLocals + .cbSavedRegs + = $T0 .raSearchStart = $eip $T0 ^ = $esp $T0 4 + =
STACK WIN 4 7495 2c 4 0 0 0 0 0 1 $T2 $esp .cbLocals + .cbSavedRegs + = $T0 .raSearchStart = $eip $T0 ^ = $esp $T0 4 + =
STACK WIN 4 7496 2a 3 0 0 4 0 0 1 $T2 $esp .cbLocals + .cbSavedRegs + = $T0 .raSearchStart = $eip $T0 ^ = $esp $T0 4 + = $ebx $T0 4 - ^ =
STACK WIN 4 7497 28 2 0 0 8 0 0 1 $T2 $esp .cbLocals + .cbSavedRegs + = $T0 .raSearchStart = $eip $T0 ^ = $esp $T0 4 + = $ebx $T0 4 - ^ =
STACK WIN 4 74c1 2b 3 0 4 0 0 0 1 $T2 $esp .cbLocals + .cbSavedRegs + = $T0 .raSearchStart = $eip $T0 ^ = $esp $T0 4 + =
STACK WIN 4 74c2 27 2 0 4 4 0 0 1 $T2 $esp .cbLocals + .cbSavedRegs + = $T0 .raSearchStart = $eip $T0 ^ = $esp $T0 4 + =
STACK WIN 4 74ec 3d 4 0 c 0 0 0 1 $T2 $esp .cbLocals + .cbSavedRegs + = $T0 .raSearchStart = $eip $T0 ^ = $esp $T0 4 + =
STACK WIN 4 74ed 39 3 0 c 4 0 0 1 $T2 $esp .cbLocals + .cbSavedRegs + = $T0 .raSearchStart = $eip $T0 ^ = $esp $T0 4 + =
STACK WIN 4 74ee 35 2 0 c 8 0 0 1 $T2 $esp .cbLocals + .cbSavedRegs + = $T0 .raSearchStart = $eip $T0 ^ = $esp $T0 4 + =
STACK WIN 4 7529 50 4 0 0 0 0 0 1 $T2 $esp .cbLocals + .cbSavedRegs + = $T0 .raSearchStart = $eip $T0 ^ = $esp $T0 4 + =
STACK WIN 4 752a 4e 3 0 0 4 0 0 1 $T2 $esp .cbLocals + .cbSavedRegs + = $T0 .raSearchStart = $eip $T0 ^ = $esp $T0 4 + = $ebx $T0 4 - ^ =
STACK WIN 4 752b 4c 2 0 0 8 0 0 1 $T2 $esp .cbLocals + .cbSavedRegs + = $T0 .raSearchStart = $eip $T0 ^ = $esp $T0 4 + = $ebx $T0 4 - ^ =
STACK WIN 4 752e 48 0 0 0 c 0 0 1 $T2 $esp .cbLocals + .cbSavedRegs + = $T0 .raSearchStart = $eip $T0 ^ = $esp $T0 4 + = $ebx $T0 4 - ^ =
STACK WIN 4 7545 25 0 0 0 10 0 0 1 $T2 $esp .cbLocals + .cbSavedRegs + = $T0 .raSearchStart = $eip $T0 ^ = $esp $T0 4 + = $ebp $T0 16 - ^ = $ebx $T0 4 - ^ =
STACK WIN 4 7579 47 9 0 0 0 1c 0 1 $T0 $ebp = $eip $T0 4 + ^ = $ebp $T0 ^ = $esp $T0 8 + = $L $T0 .cbSavedRegs - = $P $T0 8 + .cbParams + =
STACK WIN 4 7580 3e 2 0 0 4 1c 0 1 $T0 $ebp = $eip $T0 4 + ^ = $ebp $T0 ^ = $esp $T0 8 + = $L $T0 .cbSavedRegs - = $P $T0 8 + .cbParams + =
STACK WIN 4 75c0 40 7 0 4 0 0 0 1 $T0 $ebp = $eip $T0 4 + ^ = $ebp $T0 ^ = $esp $T0 8 + = $L $T0 .cbSavedRegs - = $P $T0 8 + .cbParams + =
STACK WIN 4 75c4 38 3 0 4 4 0 0 1 $T0 $ebp = $eip $T0 4 + ^ = $ebp $T0 ^ = $esp $T0 8 + = $L $T0 .cbSavedRegs - = $P $T0 8 + .cbParams + =
STACK WIN 4 75c5 36 2 0 4 8 0 0 1 $T0 $ebp = $eip $T0 4 + ^ = $ebp $T0 ^ = $esp $T0 8 + = $L $T0 .cbSavedRegs - = $P $T0 8 + .cbParams + =
STACK WIN 4 7600 41 4 0 4 0 0 0 1 $T2 $esp .cbLocals + .cbSavedRegs + = $T0 .raSearchStart = $eip $T0 ^ = $esp $T0 4 + =
STACK WIN 4 7601 3d 3 0 4 4 0 0 1 $T2 $esp .cbLocals + .cbSavedRegs + = $T0 .raSearchStart = $eip $T0 ^ = $esp $T0 4 + = $ebx $T0 4 - ^ =
STACK WIN 4 7602 3b 2 0 4 8 0 0 1 $T2 $esp .cbLocals + .cbSavedRegs + = $T0 .raSearchStart = $eip $T0 ^ = $esp $T0 4 + = $ebx $T0 4 - ^ =
STACK WIN 4 7605 37 0 0 4 c 0 0 1 $T2 $esp .cbLocals + .cbSavedRegs + = $T0 .raSearchStart = $eip $T0 ^ = $esp $T0 4 + = $ebx $T0 4 - ^ =
STACK WIN 4 7641 b0 b 0 8 0 0 0 1 $T0 $ebp = $eip $T0 4 + ^ = $ebp $T0 ^ = $esp $T0 8 + = $L $T0 .cbSavedRegs - = $P $T0 8 + .cbParams + =
STACK WIN 4 7648 a5 4 0 8 4 0 0 1 $T0 $ebp = $eip $T0 4 + ^ = $ebp $T0 ^ = $esp $T0 8 + = $L $T0 .cbSavedRegs - = $P $T0 8 + .cbParams + = $ebx $T0 4 - ^ =
STACK WIN 4 7649 a1 3 0 8 8 0 0 1 $T0 $ebp = $eip $T0 4 + ^ = $ebp $T0 ^ = $esp $T0 8 + = $L $T0 .cbSavedRegs - = $P $T0 8 + .cbParams + = $ebx $T0 4 - ^ =
STACK WIN 4 764a 9f 2 0 8 c 0 0 1 $T0 $ebp = $eip $T0 4 + ^ = $ebp $T0 ^ = $esp $T0 8 + = $L $T0 .cbSavedRegs - = $P $T0 8 + .cbParams + = $ebx $T0 4 - ^ =
STACK WIN 4 76f1 23 0 0 c 0 0 0 1 $T2 $esp .cbLocals + .cbSavedRegs + = $T0 .raSearchStart = $eip $T0 ^ = $esp $T0 4 + =
STACK WIN 4 7714 49 0 0 4 0 0 0 1 $T2 $esp .cbLocals + .cbSavedRegs + = $T0 .raSearchStart = $eip $T0 ^ = $esp $T0 4 + =
STACK WIN 4 775d 29 7 0 8 0 0 0 1 $T2 $esp .cbLocals + .cbSavedRegs + = $T0 .raSearchStart = $eip $T0 ^ = $esp $T0 4 + =
STACK WIN 4 775e 25 6 0 8 4 0 0 1 $T2 $esp .cbLocals + .cbSavedRegs + = $T0 .raSearchStart = $eip $T0 ^ = $esp $T0 4 + =
STACK WIN 4 7786 25 7 0 4 0 0 0 1 $T2 $esp .cbLocals + .cbSavedRegs + = $T0 .raSearchStart = $eip $T0 ^ = $esp $T0 4 + =
STACK WIN 4 778b 1d 2 0 4 4 0 0 1 $T2 $esp .cbLocals + .cbSavedRegs + = $T0 .raSearchStart = $eip $T0 ^ = $esp $T0 4 + =
STACK WIN 4 77ab 19 0 0 0 0 0 0 1 $T2 $esp .cbLocals + .cbSavedRegs + = $T0 .raSearchStart = $eip $T0 ^ = $esp $T0 4 + =
STACK WIN 4 77c4 41 9 0 4 0 0 0 1 $T2 $esp .cbLocals + .cbSavedRegs + = $T0 .raSearchStart = $eip $T0 ^ = $esp $T0 4 + =
STACK WIN 4 77c5 3d 8 0 4 4 0 0 1 $T2 $esp .cbLocals + .cbSavedRegs + = $T0 .raSearchStart = $eip $T0 ^ = $esp $T0 4 + =
STACK WIN 4 77ca 37 3 0 4 8 0 0 1 $T2 $esp .cbLocals + .cbSavedRegs + = $T0 .raSearchStart = $eip $T0 ^ = $esp $T0 4 + =
STACK WIN 4 7805 1d 3 0 0 0 0 0 1 $T2 $esp .cbLocals + .cbSavedRegs + = $T0 .raSearchStart = $eip $T0 ^ = $esp $T0 4 + =
STACK WIN 4 7806 17 2 0 0 4 0 0 1 $T2 $esp .cbLocals + .cbSavedRegs + = $T0 .raSearchStart = $eip $T0 ^ = $esp $T0 4 + =
STACK WIN 4 7822 140 c 0 8 c 24 0 1 $T0 $ebp = $eip $T0 4 + ^ = $ebp $T0 ^ = $esp $T0 8 + = $L $T0 .cbSavedRegs - = $P $T0 8 + .cbParams + =
STACK WIN 4 7962 b8 21 0 4 0 a4 0 1 $T0 $ebp 116 + = $eip $T0 4 + ^ = $ebp $T0 ^ = $esp $T0 8 + = $L $T0 .cbSavedRegs - = $P $T0 8 + .cbParams + =
STACK WIN 4 7976 9d d 0 4 4 a4 0 1 $T0 $ebp 116 + = $eip $T0 4 + ^ = $ebp $T0 ^ = $esp $T0 8 + = $L $T0 .cbSavedRegs - = $P $T0 8 + .cbParams + =
STACK WIN 4 7a1a 34 7 0 c 0 0 0 1 $T2 $esp .cbLocals + .cbSavedRegs + = $T0 .raSearchStart = $eip $T0 ^ = $esp $T0 4 + =
STACK WIN 4 7a1b 30 6 0 c 4 0 0 1 $T2 $esp .cbLocals + .cbSavedRegs + = $T0 .raSearchStart = $eip $T0 ^ = $esp $T0 4 + =
STACK WIN 4 7a4e 6a 5 0 18 0 0 0 1 $T0 $ebp = $eip $T0 4 + ^ = $ebp $T0 ^ = $esp $T0 8 + = $L $T0 .cbSavedRegs - = $P $T0 8 + .cbParams + =
STACK WIN 4 7ab8 3 0 0 0 0 0 0 1 $T2 $esp .cbLocals + .cbSavedRegs + = $T0 .raSearchStart = $eip $T0 ^ = $esp $T0 4 + =
STACK WIN 4 7abb b 2 0 4 0 0 0 1 $T2 $esp .cbLocals + .cbSavedRegs + = $T0 .raSearchStart = $eip $T0 ^ = $esp $T0 4 + =
STACK WIN 4 7ac6 31 2 0 c 0 0 0 1 $T2 $esp .cbLocals + .cbSavedRegs + = $T0 .raSearchStart = $eip $T0 ^ = $esp $T0 4 + =
STACK WIN 4 7acd 27 0 0 c 4 0 0 1 $T2 $esp .cbLocals + .cbSavedRegs + = $T0 .raSearchStart = $eip $T0 ^ = $esp $T0 4 + =
STACK WIN 4 7ad2 1e 0 0 c 8 0 0 1 $T2 $esp .cbLocals + .cbSavedRegs + = $T0 .raSearchStart = $eip $T0 ^ = $esp $T0 4 + =
STACK WIN 4 7af7 3 0 0 0 0 0 0 1 $T2 $esp .cbLocals + .cbSavedRegs + = $T0 .raSearchStart = $eip $T0 ^ = $esp $T0 4 + =
STACK WIN 4 7afa 16 0 0 0 0 0 0 1 $T2 $esp .cbLocals + .cbSavedRegs + = $T0 .raSearchStart = $eip $T0 ^ = $esp $T0 4 + =
STACK WIN 4 7b10 16 0 0 0 0 0 0 1 $T2 $esp .cbLocals + .cbSavedRegs + = $T0 .raSearchStart = $eip $T0 ^ = $esp $T0 4 + =
STACK WIN 4 7b26 28 0 0 0 0 0 0 1 $T2 $esp .cbLocals + .cbSavedRegs + = $T0 .raSearchStart = $eip $T0 ^ = $esp $T0 4 + =
STACK WIN 4 7b4e 29 0 0 4 0 0 0 1 $T2 $esp .cbLocals + .cbSavedRegs + = $T0 .raSearchStart = $eip $T0 ^ = $esp $T0 4 + =
STACK WIN 4 7b77 17 3 0 0 0 0 0 1 $T2 $esp .cbLocals + .cbSavedRegs + = $T0 .raSearchStart = $eip $T0 ^ = $esp $T0 4 + =
STACK WIN 4 7b78 10 2 0 0 4 0 0 1 $T2 $esp .cbLocals + .cbSavedRegs + = $T0 .raSearchStart = $eip $T0 ^ = $esp $T0 4 + =
STACK WIN 4 7b8e 48 0 0 4 0 0 0 1 $T2 $esp .cbLocals + .cbSavedRegs + = $T0 .raSearchStart = $eip $T0 ^ = $esp $T0 4 + =
STACK WIN 4 7bd6 5d 4 0 0 0 0 0 1 $T2 $esp .cbLocals + .cbSavedRegs + = $T0 .raSearchStart = $eip $T0 ^ = $esp $T0 4 + =
STACK WIN 4 7bda 58 0 0 0 4 0 0 1 $T2 $esp .cbLocals + .cbSavedRegs + = $T0 .raSearchStart = $eip $T0 ^ = $esp $T0 4 + =
STACK WIN 4 7be9 48 0 0 0 8 0 0 1 $T2 $esp .cbLocals + .cbSavedRegs + = $T0 .raSearchStart = $eip $T0 ^ = $esp $T0 4 + = $ebx $T0 8 - ^ =
STACK WIN 4 7bec 44 0 0 0 c 0 0 1 $T2 $esp .cbLocals + .cbSavedRegs + = $T0 .raSearchStart = $eip $T0 ^ = $esp $T0 4 + = $ebx $T0 8 - ^ =
STACK WIN 4 7c33 13a 3 0 10 0 0 0 1 $T0 $ebp = $eip $T0 4 + ^ = $ebp $T0 ^ = $esp $T0 8 + = $L $T0 .cbSavedRegs - = $P $T0 8 + .cbParams + =
STACK WIN 4 7c4c 11d 0 0 10 4 0 0 1 $T0 $ebp = $eip $T0 4 + ^ = $ebp $T0 ^ = $esp $T0 8 + = $L $T0 .cbSavedRegs - = $P $T0 8 + .cbParams + = $ebx $T0 4 - ^ =
STACK WIN 4 7c4d 112 0 0 10 8 0 0 1 $T0 $ebp = $eip $T0 4 + ^ = $ebp $T0 ^ = $esp $T0 8 + = $L $T0 .cbSavedRegs - = $P $T0 8 + .cbParams + = $ebx $T0 4 - ^ =
STACK WIN 4 7c4e 10c 0 0 10 c 0 0 1 $T0 $ebp = $eip $T0 4 + ^ = $ebp $T0 ^ = $esp $T0 8 + = $L $T0 .cbSavedRegs - = $P $T0 8 + .cbParams + = $ebx $T0 4 - ^ =
STACK WIN 4 7d6d cc 15 0 20 0 0 0 1 $T0 $ebp = $eip $T0 4 + ^ = $ebp $T0 ^ = $esp $T0 8 + = $L $T0 .cbSavedRegs - = $P $T0 8 + .cbParams + =
STACK WIN 4 7d77 be b 0 20 4 0 0 1 $T0 $ebp = $eip $T0 4 + ^ = $ebp $T0 ^ = $esp $T0 8 + = $L $T0 .cbSavedRegs - = $P $T0 8 + .cbParams + =
STACK WIN 4 7d82 a7 0 0 20 8 0 0 1 $T0 $ebp = $eip $T0 4 + ^ = $ebp $T0 ^ = $esp $T0 8 + = $L $T0 .cbSavedRegs - = $P $T0 8 + .cbParams + =
STACK WIN 4 7da1 82 0 0 20 c 0 0 1 $T0 $ebp = $eip $T0 4 + ^ = $ebp $T0 ^ = $esp $T0 8 + = $L $T0 .cbSavedRegs - = $P $T0 8 + .cbParams + = $ebx $T0 12 - ^ =
STACK WIN 4 7e39 1c 3 0 4 0 0 0 1 $T2 $esp .cbLocals + .cbSavedRegs + = $T0 .raSearchStart = $eip $T0 ^ = $esp $T0 4 + =
STACK WIN 4 7e3a 18 2 0 4 4 0 0 1 $T2 $esp .cbLocals + .cbSavedRegs + = $T0 .raSearchStart = $eip $T0 ^ = $esp $T0 4 + =
STACK WIN 4 7e55 41 3 0 0 0 0 0 1 $T2 $esp .cbLocals + .cbSavedRegs + = $T0 .raSearchStart = $eip $T0 ^ = $esp $T0 4 + =
STACK WIN 4 7e58 3d 0 0 0 4 0 0 1 $T2 $esp .cbLocals + .cbSavedRegs + = $T0 .raSearchStart = $eip $T0 ^ = $esp $T0 4 + = $ebx $T0 4 - ^ =
STACK WIN 4 7e96 2b 7 0 0 0 0 0 1 $T2 $esp .cbLocals + .cbSavedRegs + = $T0 .raSearchStart = $eip $T0 ^ = $esp $T0 4 + =
STACK WIN 4 7e9d 23 0 0 0 4 0 0 1 $T2 $esp .cbLocals + .cbSavedRegs + = $T0 .raSearchStart = $eip $T0 ^ = $esp $T0 4 + =
STACK WIN 4 7ec1 188 8 0 4 0 4 0 1 $T0 $ebp = $eip $T0 4 + ^ = $ebp $T0 ^ = $esp $T0 8 + = $L $T0 .cbSavedRegs - = $P $T0 8 + .cbParams + =
STACK WIN 4 7ec6 17f 3 0 4 4 4 0 1 $T0 $ebp = $eip $T0 4 + ^ = $ebp $T0 ^ = $esp $T0 8 + = $L $T0 .cbSavedRegs - = $P $T0 8 + .cbParams + = $ebx $T0 8 - ^ =
STACK WIN 4 7ec7 17d 2 0 4 8 4 0 1 $T0 $ebp = $eip $T0 4 + ^ = $ebp $T0 ^ = $esp $T0 8 + = $L $T0 .cbSavedRegs - = $P $T0 8 + .cbParams + = $ebx $T0 8 - ^ =
STACK WIN 4 7ece 175 0 0 4 c 4 0 1 $T0 $ebp = $eip $T0 4 + ^ = $ebp $T0 ^ = $esp $T0 8 + = $L $T0 .cbSavedRegs - = $P $T0 8 + .cbParams + = $ebx $T0 8 - ^ =
STACK WIN 4 8049 17 0 0 8 0 0 0 1 $T2 $esp .cbLocals + .cbSavedRegs + = $T0 .raSearchStart = $eip $T0 ^ = $esp $T0 4 + =
STACK WIN 4 8060 23 1 0 0 0 0 0 1 $T2 $esp .cbLocals + .cbSavedRegs + = $T0 .raSearchStart = $eip $T0 ^ = $esp $T0 4 + =
STACK WIN 4 8061 21 0 0 0 4 0 0 1 $T2 $esp .cbLocals + .cbSavedRegs + = $T0 .raSearchStart = $eip $T0 ^ = $esp $T0 4 + =
STACK WIN 4 8083 1f 1 0 4 0 0 0 1 $T2 $esp .cbLocals + .cbSavedRegs + = $T0 .raSearchStart = $eip $T0 ^ = $esp $T0 4 + =
STACK WIN 4 8084 1b 0 0 4 4 0 0 1 $T2 $esp .cbLocals + .cbSavedRegs + = $T0 .raSearchStart = $eip $T0 ^ = $esp $T0 4 + =
STACK WIN 4 80a2 2f 3 0 4 0 0 0 1 $T2 $esp .cbLocals + .cbSavedRegs + = $T0 .raSearchStart = $eip $T0 ^ = $esp $T0 4 + =
STACK WIN 4 80a3 2b 2 0 4 4 0 0 1 $T2 $esp .cbLocals + .cbSavedRegs + = $T0 .raSearchStart = $eip $T0 ^ = $esp $T0 4 + =
STACK WIN 4 80d1 35 8 0 4 0 0 0 1 $T2 $esp .cbLocals + .cbSavedRegs + = $T0 .raSearchStart = $eip $T0 ^ = $esp $T0 4 + =
STACK WIN 4 80d5 2e 4 0 4 4 0 0 1 $T2 $esp .cbLocals + .cbSavedRegs + = $T0 .raSearchStart = $eip $T0 ^ = $esp $T0 4 + =
STACK WIN 4 80d9 29 0 0 4 8 0 0 1 $T2 $esp .cbLocals + .cbSavedRegs + = $T0 .raSearchStart = $eip $T0 ^ = $esp $T0 4 + =
STACK WIN 4 8106 5a d 0 8 0 4 0 1 $T0 $ebp = $eip $T0 4 + ^ = $ebp $T0 ^ = $esp $T0 8 + = $L $T0 .cbSavedRegs - = $P $T0 8 + .cbParams + =
STACK WIN 4 8110 4c 3 0 8 4 4 0 1 $T0 $ebp = $eip $T0 4 + ^ = $ebp $T0 ^ = $esp $T0 8 + = $L $T0 .cbSavedRegs - = $P $T0 8 + .cbParams + =
STACK WIN 4 8111 48 2 0 8 8 4 0 1 $T0 $ebp = $eip $T0 4 + ^ = $ebp $T0 ^ = $esp $T0 8 + = $L $T0 .cbSavedRegs - = $P $T0 8 + .cbParams + =
STACK WIN 4 8160 a9 11 0 c 0 0 0 1 $T0 $ebp = $eip $T0 4 + ^ = $ebp $T0 ^ = $esp $T0 8 + = $L $T0 .cbSavedRegs - = $P $T0 8 + .cbParams + =
STACK WIN 4 8164 a1 d 0 c 4 0 0 1 $T0 $ebp = $eip $T0 4 + ^ = $ebp $T0 ^ = $esp $T0 8 + = $L $T0 .cbSavedRegs - = $P $T0 8 + .cbParams + = $ebx $T0 4 - ^ =
STACK WIN 4 8168 9c 9 0 c 8 0 0 1 $T0 $ebp = $eip $T0 4 + ^ = $ebp $T0 ^ = $esp $T0 8 + = $L $T0 .cbSavedRegs - = $P $T0 8 + .cbParams + = $ebx $T0 4 - ^ =
STACK WIN 4 8169 98 8 0 c c 0 0 1 $T0 $ebp = $eip $T0 4 + ^ = $ebp $T0 ^ = $esp $T0 8 + = $L $T0 .cbSavedRegs - = $P $T0 8 + .cbParams + = $ebx $T0 4 - ^ =
STACK WIN 4 8209 2f 3 0 8 0 0 0 1 $T2 $esp .cbLocals + .cbSavedRegs + = $T0 .raSearchStart = $eip $T0 ^ = $esp $T0 4 + =
STACK WIN 4 820a 2b 2 0 8 4 0 0 1 $T2 $esp .cbLocals + .cbSavedRegs + = $T0 .raSearchStart = $eip $T0 ^ = $esp $T0 4 + =
STACK WIN 4 8238 94 16 0 4 0 20 0 1 $T0 $ebp = $eip $T0 4 + ^ = $ebp $T0 ^ = $esp $T0 8 + = $L $T0 .cbSavedRegs - = $P $T0 8 + .cbParams + =
STACK WIN 4 8249 7a 5 0 4 4 20 0 1 $T0 $ebp = $eip $T0 4 + ^ = $ebp $T0 ^ = $esp $T0 8 + = $L $T0 .cbSavedRegs - = $P $T0 8 + .cbParams + =
STACK WIN 4 8252 6c 0 0 4 8 20 0 1 $T0 $ebp = $eip $T0 4 + ^ = $ebp $T0 ^ = $esp $T0 8 + = $L $T0 .cbSavedRegs - = $P $T0 8 + .cbParams + =
STACK WIN 4 82cc 1b 9 0 4 0 0 0 1 $T2 $esp .cbLocals + .cbSavedRegs + = $T0 .raSearchStart = $eip $T0 ^ = $esp $T0 4 + =
STACK WIN 4 82cd 17 8 0 4 4 0 0 1 $T2 $esp .cbLocals + .cbSavedRegs + = $T0 .raSearchStart = $eip $T0 ^ = $esp $T0 4 + =
STACK WIN 4 82ce 13 7 0 4 8 0 0 1 $T2 $esp .cbLocals + .cbSavedRegs + = $T0 .raSearchStart = $eip $T0 ^ = $esp $T0 4 + =
STACK WIN 4 82e7 21 0 0 4 0 0 0 1 $T2 $esp .cbLocals + .cbSavedRegs + = $T0 .raSearchStart = $eip $T0 ^ = $esp $T0 4 + =
STACK WIN 4 8308 1fba d 0 0 0 e70 0 1 $T0 $ebp 120 + = $eip $T0 4 + ^ = $ebp $T0 ^ = $esp $T0 8 + = $L $T0 .cbSavedRegs - = $P $T0 8 + .cbParams + =
STACK WIN 4 8314 1fa9 1 0 0 4 e70 0 1 $T0 $ebp 120 + = $eip $T0 4 + ^ = $ebp $T0 ^ = $esp $T0 8 + = $L $T0 .cbSavedRegs - = $P $T0 8 + .cbParams + = $ebx $T0 3700 - ^ =
STACK WIN 4 8315 1fa5 0 0 0 8 e70 0 1 $T0 $ebp 120 + = $eip $T0 4 + ^ = $ebp $T0 ^ = $esp $T0 8 + = $L $T0 .cbSavedRegs - = $P $T0 8 + .cbParams + = $ebx $T0 3700 - ^ =
STACK WIN 4 a2c2 198 8 0 4 0 1c 0 1 $T0 $ebp = $eip $T0 4 + ^ = $ebp $T0 ^ = $esp $T0 8 + = $L $T0 .cbSavedRegs - = $P $T0 8 + .cbParams + =
STACK WIN 4 a2c9 18f 1 0 4 4 1c 0 1 $T0 $ebp = $eip $T0 4 + ^ = $ebp $T0 ^ = $esp $T0 8 + = $L $T0 .cbSavedRegs - = $P $T0 8 + .cbParams + = $ebx $T0 32 - ^ =
STACK WIN 4 a2ca 18b 0 0 4 8 1c 0 1 $T0 $ebp = $eip $T0 4 + ^ = $ebp $T0 ^ = $esp $T0 8 + = $L $T0 .cbSavedRegs - = $P $T0 8 + .cbParams + = $ebx $T0 32 - ^ =
STACK WIN 4 a45a 33c 8 0 4 0 1c 0 1 $T0 $ebp = $eip $T0 4 + ^ = $ebp $T0 ^ = $esp $T0 8 + = $L $T0 .cbSavedRegs - = $P $T0 8 + .cbParams + =
STACK WIN 4 a461 333 1 0 4 4 1c 0 1 $T0 $ebp = $eip $T0 4 + ^ = $ebp $T0 ^ = $esp $T0 8 + = $L $T0 .cbSavedRegs - = $P $T0 8 + .cbParams + = $ebx $T0 32 - ^ =
STACK WIN 4 a462 32f 0 0 4 8 1c 0 1 $T0 $ebp = $eip $T0 4 + ^ = $ebp $T0 ^ = $esp $T0 8 + = $L $T0 .cbSavedRegs - = $P $T0 8 + .cbParams + = $ebx $T0 32 - ^ =
STACK WIN 4 a796 e6 8 0 0 0 1c 0 1 $T0 $ebp = $eip $T0 4 + ^ = $ebp $T0 ^ = $esp $T0 8 + = $L $T0 .cbSavedRegs - = $P $T0 8 + .cbParams + =
STACK WIN 4 a79d dd 1 0 0 4 1c 0 1 $T0 $ebp = $eip $T0 4 + ^ = $ebp $T0 ^ = $esp $T0 8 + = $L $T0 .cbSavedRegs - = $P $T0 8 + .cbParams + = $ebx $T0 32 - ^ =
STACK WIN 4 a79e db 0 0 0 8 1c 0 1 $T0 $ebp = $eip $T0 4 + ^ = $ebp $T0 ^ = $esp $T0 8 + = $L $T0 .cbSavedRegs - = $P $T0 8 + .cbParams + = $ebx $T0 32 - ^ =
STACK WIN 4 a87c 5b 6 0 0 0 1c 0 1 $T0 $ebp = $eip $T0 4 + ^ = $ebp $T0 ^ = $esp $T0 8 + = $L $T0 .cbSavedRegs - = $P $T0 8 + .cbParams + =
STACK WIN 4 a8d7 33 c 0 14 0 0 0 1 $T0 $ebp = $eip $T0 4 + ^ = $ebp $T0 ^ = $esp $T0 8 + = $L $T0 .cbSavedRegs - = $P $T0 8 + .cbParams + =
STACK WIN 4 a8de 28 5 0 14 4 0 0 1 $T0 $ebp = $eip $T0 4 + ^ = $ebp $T0 ^ = $esp $T0 8 + = $L $T0 .cbSavedRegs - = $P $T0 8 + .cbParams + =
STACK WIN 4 a90a 5d c 0 18 c 14 0 1 $T0 $ebp = $eip $T0 4 + ^ = $ebp $T0 ^ = $esp $T0 8 + = $L $T0 .cbSavedRegs - = $P $T0 8 + .cbParams + =
STACK WIN 4 a967 21 1 0 c 0 0 0 1 $T2 $esp .cbLocals + .cbSavedRegs + = $T0 .raSearchStart = $eip $T0 ^ = $esp $T0 4 + =
STACK WIN 4 a968 1f 0 0 c 4 0 0 1 $T2 $esp .cbLocals + .cbSavedRegs + = $T0 .raSearchStart = $eip $T0 ^ = $esp $T0 4 + =
STACK WIN 4 a988 9c 1b 0 4 0 24 0 1 $T0 $ebp = $eip $T0 4 + ^ = $ebp $T0 ^ = $esp $T0 8 + = $L $T0 .cbSavedRegs - = $P $T0 8 + .cbParams + =
STACK WIN 4 a99d 7e 6 0 4 4 24 0 1 $T0 $ebp = $eip $T0 4 + ^ = $ebp $T0 ^ = $esp $T0 8 + = $L $T0 .cbSavedRegs - = $P $T0 8 + .cbParams + = $ebx $T0 40 - ^ =
STACK WIN 4 a9a3 75 0 0 4 8 24 0 1 $T0 $ebp = $eip $T0 4 + ^ = $ebp $T0 ^ = $esp $T0 8 + = $L $T0 .cbSavedRegs - = $P $T0 8 + .cbParams + = $ebx $T0 40 - ^ =
STACK WIN 4 a9a9 39 0 0 4 c 24 0 1 $T0 $ebp = $eip $T0 4 + ^ = $ebp $T0 ^ = $esp $T0 8 + = $L $T0 .cbSavedRegs - = $P $T0 8 + .cbParams + = $ebx $T0 40 - ^ =
STACK WIN 4 aa24 153 a 0 4 0 80 0 1 $T0 $ebp = $eip $T0 4 + ^ = $ebp $T0 ^ = $esp $T0 8 + = $L $T0 .cbSavedRegs - = $P $T0 8 + .cbParams + =
STACK WIN 4 aa2e 147 0 0 4 4 80 0 1 $T0 $ebp = $eip $T0 4 + ^ = $ebp $T0 ^ = $esp $T0 8 + = $L $T0 .cbSavedRegs - = $P $T0 8 + .cbParams + =
STACK WIN 4 ab77 4e c 0 14 c 10 0 1 $T0 $ebp = $eip $T0 4 + ^ = $ebp $T0 ^ = $esp $T0 8 + = $L $T0 .cbSavedRegs - = $P $T0 8 + .cbParams + =
STACK WIN 4 abc5 4e c 0 14 c 10 0 1 $T0 $ebp = $eip $T0 4 + ^ = $ebp $T0 ^ = $esp $T0 8 + = $L $T0 .cbSavedRegs - = $P $T0 8 + .cbParams + =
STACK WIN 4 ac13 28 5 0 10 0 4 0 1 $T0 $ebp = $eip $T0 4 + ^ = $ebp $T0 ^ = $esp $T0 8 + = $L $T0 .cbSavedRegs - = $P $T0 8 + .cbParams + =
STACK WIN 4 ac18 21 0 0 10 4 4 0 1 $T0 $ebp = $eip $T0 4 + ^ = $ebp $T0 ^ = $esp $T0 8 + = $L $T0 .cbSavedRegs - = $P $T0 8 + .cbParams + =
STACK WIN 4 ac3b 14c b 0 10 0 44 0 1 $T0 $ebp = $eip $T0 4 + ^ = $ebp $T0 ^ = $esp $T0 8 + = $L $T0 .cbSavedRegs - = $P $T0 8 + .cbParams + =
STACK WIN 4 ac42 141 4 0 10 4 44 0 1 $T0 $ebp = $eip $T0 4 + ^ = $ebp $T0 ^ = $esp $T0 8 + = $L $T0 .cbSavedRegs - = $P $T0 8 + .cbParams + = $ebx $T0 72 - ^ =
STACK WIN 4 ac43 13d 3 0 10 8 44 0 1 $T0 $ebp = $eip $T0 4 + ^ = $ebp $T0 ^ = $esp $T0 8 + = $L $T0 .cbSavedRegs - = $P $T0 8 + .cbParams + = $ebx $T0 72 - ^ =
STACK WIN 4 ac44 134 2 0 10 c 44 0 1 $T0 $ebp = $eip $T0 4 + ^ = $ebp $T0 ^ = $esp $T0 8 + = $L $T0 .cbSavedRegs - = $P $T0 8 + .cbParams + = $ebx $T0 72 - ^ =
STACK WIN 4 ad87 22 3 0 c 0 0 0 1 $T0 $ebp = $eip $T0 4 + ^ = $ebp $T0 ^ = $esp $T0 8 + = $L $T0 .cbSavedRegs - = $P $T0 8 + .cbParams + =
STACK WIN 4 ada9 14c b 0 10 0 44 0 1 $T0 $ebp = $eip $T0 4 + ^ = $ebp $T0 ^ = $esp $T0 8 + = $L $T0 .cbSavedRegs - = $P $T0 8 + .cbParams + =
STACK WIN 4 adb0 141 4 0 10 4 44 0 1 $T0 $ebp = $eip $T0 4 + ^ = $ebp $T0 ^ = $esp $T0 8 + = $L $T0 .cbSavedRegs - = $P $T0 8 + .cbParams + = $ebx $T0 72 - ^ =
STACK WIN 4 adb1 13d 3 0 10 8 44 0 1 $T0 $ebp = $eip $T0 4 + ^ = $ebp $T0 ^ = $esp $T0 8 + = $L $T0 .cbSavedRegs - = $P $T0 8 + .cbParams + = $ebx $T0 72 - ^ =
STACK WIN 4 adb2 134 2 0 10 c 44 0 1 $T0 $ebp = $eip $T0 4 + ^ = $ebp $T0 ^ = $esp $T0 8 + = $L $T0 .cbSavedRegs - = $P $T0 8 + .cbParams + = $ebx $T0 72 - ^ =
STACK WIN 4 aef5 27 4 0 18 0 0 0 1 $T0 $ebp = $eip $T0 4 + ^ = $ebp $T0 ^ = $esp $T0 8 + = $L $T0 .cbSavedRegs - = $P $T0 8 + .cbParams + =
STACK WIN 4 aef9 21 0 0 18 4 0 0 1 $T0 $ebp = $eip $T0 4 + ^ = $ebp $T0 ^ = $esp $T0 8 + = $L $T0 .cbSavedRegs - = $P $T0 8 + .cbParams + =
STACK WIN 4 af1c 86 c 0 18 c 3c 0 1 $T0 $ebp = $eip $T0 4 + ^ = $ebp $T0 ^ = $esp $T0 8 + = $L $T0 .cbSavedRegs - = $P $T0 8 + .cbParams + =
STACK WIN 4 afa2 a1 a 0 8 0 8 0 1 $T0 $ebp = $eip $T0 4 + ^ = $ebp $T0 ^ = $esp $T0 8 + = $L $T0 .cbSavedRegs - = $P $T0 8 + .cbParams + =
STACK WIN 4 afa8 97 4 0 8 4 8 0 1 $T0 $ebp = $eip $T0 4 + ^ = $ebp $T0 ^ = $esp $T0 8 + = $L $T0 .cbSavedRegs - = $P $T0 8 + .cbParams + = $ebx $T0 12 - ^ =
STACK WIN 4 afa9 95 3 0 8 8 8 0 1 $T0 $ebp = $eip $T0 4 + ^ = $ebp $T0 ^ = $esp $T0 8 + = $L $T0 .cbSavedRegs - = $P $T0 8 + .cbParams + = $ebx $T0 12 - ^ =
STACK WIN 4 afaa 93 2 0 8 c 8 0 1 $T0 $ebp = $eip $T0 4 + ^ = $ebp $T0 ^ = $esp $T0 8 + = $L $T0 .cbSavedRegs - = $P $T0 8 + .cbParams + = $ebx $T0 12 - ^ =
STACK WIN 4 b043 a1 a 0 8 0 8 0 1 $T0 $ebp = $eip $T0 4 + ^ = $ebp $T0 ^ = $esp $T0 8 + = $L $T0 .cbSavedRegs - = $P $T0 8 + .cbParams + =
STACK WIN 4 b049 97 4 0 8 4 8 0 1 $T0 $ebp = $eip $T0 4 + ^ = $ebp $T0 ^ = $esp $T0 8 + = $L $T0 .cbSavedRegs - = $P $T0 8 + .cbParams + = $ebx $T0 12 - ^ =
STACK WIN 4 b04a 95 3 0 8 8 8 0 1 $T0 $ebp = $eip $T0 4 + ^ = $ebp $T0 ^ = $esp $T0 8 + = $L $T0 .cbSavedRegs - = $P $T0 8 + .cbParams + = $ebx $T0 12 - ^ =
STACK WIN 4 b04b 93 2 0 8 c 8 0 1 $T0 $ebp = $eip $T0 4 + ^ = $ebp $T0 ^ = $esp $T0 8 + = $L $T0 .cbSavedRegs - = $P $T0 8 + .cbParams + = $ebx $T0 12 - ^ =
STACK WIN 4 b0e4 28 5 0 c 0 4 0 1 $T0 $ebp = $eip $T0 4 + ^ = $ebp $T0 ^ = $esp $T0 8 + = $L $T0 .cbSavedRegs - = $P $T0 8 + .cbParams + =
STACK WIN 4 b0e9 21 0 0 c 4 4 0 1 $T0 $ebp = $eip $T0 4 + ^ = $ebp $T0 ^ = $esp $T0 8 + = $L $T0 .cbSavedRegs - = $P $T0 8 + .cbParams + =
STACK WIN 4 b10c 28 5 0 10 0 4 0 1 $T0 $ebp = $eip $T0 4 + ^ = $ebp $T0 ^ = $esp $T0 8 + = $L $T0 .cbSavedRegs - = $P $T0 8 + .cbParams + =
STACK WIN 4 b111 21 0 0 10 4 4 0 1 $T0 $ebp = $eip $T0 4 + ^ = $ebp $T0 ^ = $esp $T0 8 + = $L $T0 .cbSavedRegs - = $P $T0 8 + .cbParams + =
STACK WIN 4 b134 4d 10 0 4 0 30 0 1 $T0 $ebp = $eip $T0 4 + ^ = $ebp $T0 ^ = $esp $T0 8 + = $L $T0 .cbSavedRegs - = $P $T0 8 + .cbParams + =
STACK WIN 4 b13b 42 9 0 4 4 30 0 1 $T0 $ebp = $eip $T0 4 + ^ = $ebp $T0 ^ = $esp $T0 8 + = $L $T0 .cbSavedRegs - = $P $T0 8 + .cbParams + = $ebx $T0 52 - ^ =
STACK WIN 4 b13c 3e 8 0 4 8 30 0 1 $T0 $ebp = $eip $T0 4 + ^ = $ebp $T0 ^ = $esp $T0 8 + = $L $T0 .cbSavedRegs - = $P $T0 8 + .cbParams + = $ebx $T0 52 - ^ =
STACK WIN 4 b142 37 2 0 4 c 30 0 1 $T0 $ebp = $eip $T0 4 + ^ = $ebp $T0 ^ = $esp $T0 8 + = $L $T0 .cbSavedRegs - = $P $T0 8 + .cbParams + = $ebx $T0 52 - ^ =
STACK WIN 4 b181 2a 3 0 4 0 0 0 1 $T2 $esp .cbLocals + .cbSavedRegs + = $T0 .raSearchStart = $eip $T0 ^ = $esp $T0 4 + =
STACK WIN 4 b182 26 2 0 4 4 0 0 1 $T2 $esp .cbLocals + .cbSavedRegs + = $T0 .raSearchStart = $eip $T0 ^ = $esp $T0 4 + =
STACK WIN 4 b18b 1c 0 0 4 8 0 0 1 $T2 $esp .cbLocals + .cbSavedRegs + = $T0 .raSearchStart = $eip $T0 ^ = $esp $T0 4 + =
STACK WIN 4 b1ab 637 19 0 10 0 150 0 1 $T0 $ebp 104 + = $eip $T0 4 + ^ = $ebp $T0 ^ = $esp $T0 8 + = $L $T0 .cbSavedRegs - = $P $T0 8 + .cbParams + =
STACK WIN 4 b1bf 61e 5 0 10 4 150 0 1 $T0 $ebp 104 + = $eip $T0 4 + ^ = $ebp $T0 ^ = $esp $T0 8 + = $L $T0 .cbSavedRegs - = $P $T0 8 + .cbParams + = $ebx $T0 340 - ^ =
STACK WIN 4 b1c0 61c 4 0 10 8 150 0 1 $T0 $ebp 104 + = $eip $T0 4 + ^ = $ebp $T0 ^ = $esp $T0 8 + = $L $T0 .cbSavedRegs - = $P $T0 8 + .cbParams + = $ebx $T0 340 - ^ =
STACK WIN 4 b1c4 617 0 0 10 c 150 0 1 $T0 $ebp 104 + = $eip $T0 4 + ^ = $ebp $T0 ^ = $esp $T0 8 + = $L $T0 .cbSavedRegs - = $P $T0 8 + .cbParams + = $ebx $T0 340 - ^ =
STACK WIN 4 b7e2 131 8 0 c 0 8 0 1 $T0 $ebp = $eip $T0 4 + ^ = $ebp $T0 ^ = $esp $T0 8 + = $L $T0 .cbSavedRegs - = $P $T0 8 + .cbParams + =
STACK WIN 4 b7e8 127 2 0 c 4 8 0 1 $T0 $ebp = $eip $T0 4 + ^ = $ebp $T0 ^ = $esp $T0 8 + = $L $T0 .cbSavedRegs - = $P $T0 8 + .cbParams + =
STACK WIN 4 b80c 102 0 0 c 8 8 0 1 $T0 $ebp = $eip $T0 4 + ^ = $ebp $T0 ^ = $esp $T0 8 + = $L $T0 .cbSavedRegs - = $P $T0 8 + .cbParams + = $ebx $T0 16 - ^ =
STACK WIN 4 b810 fd 0 0 c c 8 0 1 $T0 $ebp = $eip $T0 4 + ^ = $ebp $T0 ^ = $esp $T0 8 + = $L $T0 .cbSavedRegs - = $P $T0 8 + .cbParams + = $ebx $T0 16 - ^ =
STACK WIN 4 b913 18 0 0 c 0 0 0 1 $T2 $esp .cbLocals + .cbSavedRegs + = $T0 .raSearchStart = $eip $T0 ^ = $esp $T0 4 + =
STACK WIN 4 b92b 61 d 0 4 0 20 0 1 $T0 $ebp = $eip $T0 4 + ^ = $ebp $T0 ^ = $esp $T0 8 + = $L $T0 .cbSavedRegs - = $P $T0 8 + .cbParams + =
STACK WIN 4 b932 56 6 0 4 4 20 0 1 $T0 $ebp = $eip $T0 4 + ^ = $ebp $T0 ^ = $esp $T0 8 + = $L $T0 .cbSavedRegs - = $P $T0 8 + .cbParams + =
STACK WIN 4 b933 51 5 0 4 8 20 0 1 $T0 $ebp = $eip $T0 4 + ^ = $ebp $T0 ^ = $esp $T0 8 + = $L $T0 .cbSavedRegs - = $P $T0 8 + .cbParams + =
STACK WIN 4 b98c 1f6 c 0 c c 40 0 1 $T0 $ebp = $eip $T0 4 + ^ = $ebp $T0 ^ = $esp $T0 8 + = $L $T0 .cbSavedRegs - = $P $T0 8 + .cbParams + =
STACK WIN 4 bb82 6c f 0 8 0 1c 0 1 $T0 $ebp = $eip $T0 4 + ^ = $ebp $T0 ^ = $esp $T0 8 + = $L $T0 .cbSavedRegs - = $P $T0 8 + .cbParams + =
STACK WIN 4 bb89 63 8 0 8 4 1c 0 1 $T0 $ebp = $eip $T0 4 + ^ = $ebp $T0 ^ = $esp $T0 8 + = $L $T0 .cbSavedRegs - = $P $T0 8 + .cbParams + = $ebx $T0 32 - ^ =
STACK WIN 4 bb91 5a 0 0 8 8 1c 0 1 $T0 $ebp = $eip $T0 4 + ^ = $ebp $T0 ^ = $esp $T0 8 + = $L $T0 .cbSavedRegs - = $P $T0 8 + .cbParams + = $ebx $T0 32 - ^ =
STACK WIN 4 bbee 42 4 0 c 0 0 0 1 $T2 $esp .cbLocals + .cbSavedRegs + = $T0 .raSearchStart = $eip $T0 ^ = $esp $T0 4 + =
STACK WIN 4 bbef 3e 3 0 c 4 0 0 1 $T2 $esp .cbLocals + .cbSavedRegs + = $T0 .raSearchStart = $eip $T0 ^ = $esp $T0 4 + =
STACK WIN 4 bbf0 3a 2 0 c 8 0 0 1 $T2 $esp .cbLocals + .cbSavedRegs + = $T0 .raSearchStart = $eip $T0 ^ = $esp $T0 4 + =
STACK WIN 4 bc30 40 7 0 4 0 0 0 1 $T0 $ebp = $eip $T0 4 + ^ = $ebp $T0 ^ = $esp $T0 8 + = $L $T0 .cbSavedRegs - = $P $T0 8 + .cbParams + =
STACK WIN 4 bc34 38 3 0 4 4 0 0 1 $T0 $ebp = $eip $T0 4 + ^ = $ebp $T0 ^ = $esp $T0 8 + = $L $T0 .cbSavedRegs - = $P $T0 8 + .cbParams + =
STACK WIN 4 bc35 36 2 0 4 8 0 0 1 $T0 $ebp = $eip $T0 4 + ^ = $ebp $T0 ^ = $esp $T0 8 + = $L $T0 .cbSavedRegs - = $P $T0 8 + .cbParams + =
STACK WIN 4 bc70 15f 11 0 c 0 104 0 1 $T0 $ebp 108 + = $eip $T0 4 + ^ = $ebp $T0 ^ = $esp $T0 8 + = $L $T0 .cbSavedRegs - = $P $T0 8 + .cbParams + =
STACK WIN 4 bc7f 149 2 0 c 4 104 0 1 $T0 $ebp 108 + = $eip $T0 4 + ^ = $ebp $T0 ^ = $esp $T0 8 + = $L $T0 .cbSavedRegs - = $P $T0 8 + .cbParams + = $ebx $T0 264 - ^ =
STACK WIN 4 bc80 147 1 0 c 8 104 0 1 $T0 $ebp 108 + = $eip $T0 4 + ^ = $ebp $T0 ^ = $esp $T0 8 + = $L $T0 .cbSavedRegs - = $P $T0 8 + .cbParams + = $ebx $T0 264 - ^ =
STACK WIN 4 bc81 145 0 0 c c 104 0 1 $T0 $ebp 108 + = $eip $T0 4 + ^ = $ebp $T0 ^ = $esp $T0 8 + = $L $T0 .cbSavedRegs - = $P $T0 8 + .cbParams + = $ebx $T0 264 - ^ =
STACK WIN 4 bdcf 3e 0 0 0 0 0 0 1 $T2 $esp .cbLocals + .cbSavedRegs + = $T0 .raSearchStart = $eip $T0 ^ = $esp $T0 4 + =
STACK WIN 4 be0d 45 9 0 0 0 0 0 1 $T2 $esp .cbLocals + .cbSavedRegs + = $T0 .raSearchStart = $eip $T0 ^ = $esp $T0 4 + =
STACK WIN 4 be16 3b 0 0 0 4 0 0 1 $T2 $esp .cbLocals + .cbSavedRegs + = $T0 .raSearchStart = $eip $T0 ^ = $esp $T0 4 + = $ebx $T0 4 - ^ =
STACK WIN 4 be52 35 0 0 0 0 0 0 1 $T2 $esp .cbLocals + .cbSavedRegs + = $T0 .raSearchStart = $eip $T0 ^ = $esp $T0 4 + =
STACK WIN 4 be87 3b 0 0 0 0 0 0 1 $T2 $esp .cbLocals + .cbSavedRegs + = $T0 .raSearchStart = $eip $T0 ^ = $esp $T0 4 + =
STACK WIN 4 be94 2d 0 0 0 4 0 0 1 $T2 $esp .cbLocals + .cbSavedRegs + = $T0 .raSearchStart = $eip $T0 ^ = $esp $T0 4 + = $ebx $T0 4 - ^ =
STACK WIN 4 bec2 1f 0 0 0 0 0 0 1 $T2 $esp .cbLocals + .cbSavedRegs + = $T0 .raSearchStart = $eip $T0 ^ = $esp $T0 4 + =
STACK WIN 4 bee1 58 a 0 4 0 0 0 1 $T2 $esp .cbLocals + .cbSavedRegs + = $T0 .raSearchStart = $eip $T0 ^ = $esp $T0 4 + =
STACK WIN 4 bee2 54 9 0 4 4 0 0 1 $T2 $esp .cbLocals + .cbSavedRegs + = $T0 .raSearchStart = $eip $T0 ^ = $esp $T0 4 + =
STACK WIN 4 beeb 4a 0 0 4 8 0 0 1 $T2 $esp .cbLocals + .cbSavedRegs + = $T0 .raSearchStart = $eip $T0 ^ = $esp $T0 4 + =
STACK WIN 4 bf39 19 0 0 4 0 0 0 1 $T2 $esp .cbLocals + .cbSavedRegs + = $T0 .raSearchStart = $eip $T0 ^ = $esp $T0 4 + =
STACK WIN 4 bf52 45 0 0 4 0 0 0 1 $T2 $esp .cbLocals + .cbSavedRegs + = $T0 .raSearchStart = $eip $T0 ^ = $esp $T0 4 + =
STACK WIN 4 bf97 39 0 0 4 0 0 0 1 $T2 $esp .cbLocals + .cbSavedRegs + = $T0 .raSearchStart = $eip $T0 ^ = $esp $T0 4 + =
STACK WIN 4 bfd0 39 0 0 4 0 0 0 1 $T2 $esp .cbLocals + .cbSavedRegs + = $T0 .raSearchStart = $eip $T0 ^ = $esp $T0 4 + =
STACK WIN 4 c009 34 0 0 8 0 0 0 1 $T2 $esp .cbLocals + .cbSavedRegs + = $T0 .raSearchStart = $eip $T0 ^ = $esp $T0 4 + =
STACK WIN 4 c03d 34 0 0 8 0 0 0 1 $T2 $esp .cbLocals + .cbSavedRegs + = $T0 .raSearchStart = $eip $T0 ^ = $esp $T0 4 + =
STACK WIN 4 c071 35 0 0 8 0 0 0 1 $T2 $esp .cbLocals + .cbSavedRegs + = $T0 .raSearchStart = $eip $T0 ^ = $esp $T0 4 + =
STACK WIN 4 c0a6 28 0 0 8 0 0 0 1 $T2 $esp .cbLocals + .cbSavedRegs + = $T0 .raSearchStart = $eip $T0 ^ = $esp $T0 4 + =
STACK WIN 4 c0ce 28 0 0 8 0 0 0 1 $T2 $esp .cbLocals + .cbSavedRegs + = $T0 .raSearchStart = $eip $T0 ^ = $esp $T0 4 + =
STACK WIN 4 c0f6 1f 8 0 4 0 0 0 1 $T2 $esp .cbLocals + .cbSavedRegs + = $T0 .raSearchStart = $eip $T0 ^ = $esp $T0 4 + =
STACK WIN 4 c0f7 1b 7 0 4 4 0 0 1 $T2 $esp .cbLocals + .cbSavedRegs + = $T0 .raSearchStart = $eip $T0 ^ = $esp $T0 4 + =
STACK WIN 4 c0fc 15 2 0 4 8 0 0 1 $T2 $esp .cbLocals + .cbSavedRegs + = $T0 .raSearchStart = $eip $T0 ^ = $esp $T0 4 + =
STACK WIN 4 c115 35 5 0 14 0 0 0 1 $T0 $ebp = $eip $T0 4 + ^ = $ebp $T0 ^ = $esp $T0 8 + = $L $T0 .cbSavedRegs - = $P $T0 8 + .cbParams + =
STACK WIN 4 c14a 1f 7 0 8 0 0 0 1 $T2 $esp .cbLocals + .cbSavedRegs + = $T0 .raSearchStart = $eip $T0 ^ = $esp $T0 4 + =
STACK WIN 4 c14b 1b 6 0 8 4 0 0 1 $T2 $esp .cbLocals + .cbSavedRegs + = $T0 .raSearchStart = $eip $T0 ^ = $esp $T0 4 + =
STACK WIN 4 c169 3 2 0 0 0 0 0 1 $T2 $esp .cbLocals + .cbSavedRegs + = $T0 .raSearchStart = $eip $T0 ^ = $esp $T0 4 + =
STACK WIN 4 c16c 36 11 0 4 0 30 0 1 $T0 $ebp = $eip $T0 4 + ^ = $ebp $T0 ^ = $esp $T0 8 + = $L $T0 .cbSavedRegs - = $P $T0 8 + .cbParams + =
STACK WIN 4 c173 2b a 0 4 4 30 0 1 $T0 $ebp = $eip $T0 4 + ^ = $ebp $T0 ^ = $esp $T0 8 + = $L $T0 .cbSavedRegs - = $P $T0 8 + .cbParams + =
STACK WIN 4 c1a2 1f 7 0 8 0 0 0 1 $T2 $esp .cbLocals + .cbSavedRegs + = $T0 .raSearchStart = $eip $T0 ^ = $esp $T0 4 + =
STACK WIN 4 c1a3 1b 6 0 8 4 0 0 1 $T2 $esp .cbLocals + .cbSavedRegs + = $T0 .raSearchStart = $eip $T0 ^ = $esp $T0 4 + =
STACK WIN 4 c1c1 18 7 0 4 0 0 0 1 $T2 $esp .cbLocals + .cbSavedRegs + = $T0 .raSearchStart = $eip $T0 ^ = $esp $T0 4 + =
STACK WIN 4 c1c2 14 6 0 4 4 0 0 1 $T2 $esp .cbLocals + .cbSavedRegs + = $T0 .raSearchStart = $eip $T0 ^ = $esp $T0 4 + =
STACK WIN 4 c1d9 24 7 0 8 0 0 0 1 $T2 $esp .cbLocals + .cbSavedRegs + = $T0 .raSearchStart = $eip $T0 ^ = $esp $T0 4 + =
STACK WIN 4 c1da 20 6 0 8 4 0 0 1 $T2 $esp .cbLocals + .cbSavedRegs + = $T0 .raSearchStart = $eip $T0 ^ = $esp $T0 4 + =
STACK WIN 4 c1fd 20 7 0 4 0 0 0 1 $T2 $esp .cbLocals + .cbSavedRegs + = $T0 .raSearchStart = $eip $T0 ^ = $esp $T0 4 + =
STACK WIN 4 c1fe 1c 6 0 4 4 0 0 1 $T2 $esp .cbLocals + .cbSavedRegs + = $T0 .raSearchStart = $eip $T0 ^ = $esp $T0 4 + =
STACK WIN 4 c21d 41 11 0 c 0 30 0 1 $T0 $ebp = $eip $T0 4 + ^ = $ebp $T0 ^ = $esp $T0 8 + = $L $T0 .cbSavedRegs - = $P $T0 8 + .cbParams + =
STACK WIN 4 c224 36 a 0 c 4 30 0 1 $T0 $ebp = $eip $T0 4 + ^ = $ebp $T0 ^ = $esp $T0 8 + = $L $T0 .cbSavedRegs - = $P $T0 8 + .cbParams + =
STACK WIN 4 c25e 2d 7 0 10 0 0 0 1 $T2 $esp .cbLocals + .cbSavedRegs + = $T0 .raSearchStart = $eip $T0 ^ = $esp $T0 4 + =
STACK WIN 4 c25f 29 6 0 10 4 0 0 1 $T2 $esp .cbLocals + .cbSavedRegs + = $T0 .raSearchStart = $eip $T0 ^ = $esp $T0 4 + =
STACK WIN 4 c28b 2ac 0 0 4 0 0 0 1 $T2 $esp .cbLocals + .cbSavedRegs + = $T0 .raSearchStart = $eip $T0 ^ = $esp $T0 4 + =
STACK WIN 4 c537 40 0 0 10 0 0 0 1 $T2 $esp .cbLocals + .cbSavedRegs + = $T0 .raSearchStart = $eip $T0 ^ = $esp $T0 4 + =
STACK WIN 4 c577 73 4 0 10 0 0 0 1 $T0 $ebp = $eip $T0 4 + ^ = $ebp $T0 ^ = $esp $T0 8 + = $L $T0 .cbSavedRegs - = $P $T0 8 + .cbParams + =
STACK WIN 4 c57b 6b 0 0 10 4 0 0 1 $T0 $ebp = $eip $T0 4 + ^ = $ebp $T0 ^ = $esp $T0 8 + = $L $T0 .cbSavedRegs - = $P $T0 8 + .cbParams + =
STACK WIN 4 c5ea 2f 0 0 c 0 0 0 1 $T2 $esp .cbLocals + .cbSavedRegs + = $T0 .raSearchStart = $eip $T0 ^ = $esp $T0 4 + =
STACK WIN 4 c619 39 3 0 18 0 0 0 1 $T0 $ebp = $eip $T0 4 + ^ = $ebp $T0 ^ = $esp $T0 8 + = $L $T0 .cbSavedRegs - = $P $T0 8 + .cbParams + =
STACK WIN 4 c652 38 0 0 c 0 0 0 1 $T2 $esp .cbLocals + .cbSavedRegs + = $T0 .raSearchStart = $eip $T0 ^ = $esp $T0 4 + =
STACK WIN 4 c68a 23 0 0 4 0 0 0 1 $T2 $esp .cbLocals + .cbSavedRegs + = $T0 .raSearchStart = $eip $T0 ^ = $esp $T0 4 + =
STACK WIN 4 c6ad 14 0 0 4 0 0 0 1 $T2 $esp .cbLocals + .cbSavedRegs + = $T0 .raSearchStart = $eip $T0 ^ = $esp $T0 4 + =
STACK WIN 4 c6c1 20 0 0 0 0 0 0 1 $T2 $esp .cbLocals + .cbSavedRegs + = $T0 .raSearchStart = $eip $T0 ^ = $esp $T0 4 + =
STACK WIN 4 c6e1 10 0 0 0 0 0 0 1 $T2 $esp .cbLocals + .cbSavedRegs + = $T0 .raSearchStart = $eip $T0 ^ = $esp $T0 4 + =
STACK WIN 4 c6f1 64 7 0 4 0 0 0 1 $T2 $esp .cbLocals + .cbSavedRegs + = $T0 .raSearchStart = $eip $T0 ^ = $esp $T0 4 + =
STACK WIN 4 c6f8 5a 0 0 4 4 0 0 1 $T2 $esp .cbLocals + .cbSavedRegs + = $T0 .raSearchStart = $eip $T0 ^ = $esp $T0 4 + =
STACK WIN 4 c746 9 0 0 4 8 0 0 1 $T2 $esp .cbLocals + .cbSavedRegs + = $T0 .raSearchStart = $eip $T0 ^ = $esp $T0 4 + =
STACK WIN 4 c755 13 0 0 0 0 0 0 1 $T2 $esp .cbLocals + .cbSavedRegs + = $T0 .raSearchStart = $eip $T0 ^ = $esp $T0 4 + =
STACK WIN 4 c768 13 0 0 0 0 0 0 1 $T2 $esp .cbLocals + .cbSavedRegs + = $T0 .raSearchStart = $eip $T0 ^ = $esp $T0 4 + =
STACK WIN 4 c77b 55 8 0 0 0 8 0 1 $T0 $ebp = $eip $T0 4 + ^ = $ebp $T0 ^ = $esp $T0 8 + = $L $T0 .cbSavedRegs - = $P $T0 8 + .cbParams + =
STACK WIN 4 c781 4d 2 0 0 4 8 0 1 $T0 $ebp = $eip $T0 4 + ^ = $ebp $T0 ^ = $esp $T0 8 + = $L $T0 .cbSavedRegs - = $P $T0 8 + .cbParams + =
STACK WIN 4 c7d0 b 2 0 4 0 0 0 1 $T2 $esp .cbLocals + .cbSavedRegs + = $T0 .raSearchStart = $eip $T0 ^ = $esp $T0 4 + =
STACK WIN 4 c7db 12 0 0 8 0 0 0 1 $T2 $esp .cbLocals + .cbSavedRegs + = $T0 .raSearchStart = $eip $T0 ^ = $esp $T0 4 + =
STACK WIN 4 c7ed 44c c 0 4 0 130 0 1 $T0 $ebp = $eip $T0 4 + ^ = $ebp $T0 ^ = $esp $T0 8 + = $L $T0 .cbSavedRegs - = $P $T0 8 + .cbParams + =
STACK WIN 4 c7f7 43e 2 0 4 4 130 0 1 $T0 $ebp = $eip $T0 4 + ^ = $ebp $T0 ^ = $esp $T0 8 + = $L $T0 .cbSavedRegs - = $P $T0 8 + .cbParams + = $ebx $T0 308 - ^ =
STACK WIN 4 c801 433 0 0 4 8 130 0 1 $T0 $ebp = $eip $T0 4 + ^ = $ebp $T0 ^ = $esp $T0 8 + = $L $T0 .cbSavedRegs - = $P $T0 8 + .cbParams + = $ebx $T0 308 - ^ =
STACK WIN 4 c802 431 0 0 4 c 130 0 1 $T0 $ebp = $eip $T0 4 + ^ = $ebp $T0 ^ = $esp $T0 8 + = $L $T0 .cbSavedRegs - = $P $T0 8 + .cbParams + = $ebx $T0 308 - ^ =
STACK WIN 4 cc39 b7 c 0 c 0 14 0 1 $T0 $ebp = $eip $T0 4 + ^ = $ebp $T0 ^ = $esp $T0 8 + = $L $T0 .cbSavedRegs - = $P $T0 8 + .cbParams + =
STACK WIN 4 cc43 ab 2 0 c 4 14 0 1 $T0 $ebp = $eip $T0 4 + ^ = $ebp $T0 ^ = $esp $T0 8 + = $L $T0 .cbSavedRegs - = $P $T0 8 + .cbParams + = $ebx $T0 24 - ^ =
STACK WIN 4 cc44 a9 1 0 c 8 14 0 1 $T0 $ebp = $eip $T0 4 + ^ = $ebp $T0 ^ = $esp $T0 8 + = $L $T0 .cbSavedRegs - = $P $T0 8 + .cbParams + = $ebx $T0 24 - ^ =
STACK WIN 4 cc45 a7 0 0 c c 14 0 1 $T0 $ebp = $eip $T0 4 + ^ = $ebp $T0 ^ = $esp $T0 8 + = $L $T0 .cbSavedRegs - = $P $T0 8 + .cbParams + = $ebx $T0 24 - ^ =
STACK WIN 4 ccf0 7b f 0 c 0 30 0 1 $T0 $ebp = $eip $T0 4 + ^ = $ebp $T0 ^ = $esp $T0 8 + = $L $T0 .cbSavedRegs - = $P $T0 8 + .cbParams + =
STACK WIN 4 ccfe 6b 1 0 c 4 30 0 1 $T0 $ebp = $eip $T0 4 + ^ = $ebp $T0 ^ = $esp $T0 8 + = $L $T0 .cbSavedRegs - = $P $T0 8 + .cbParams + =
STACK WIN 4 ccff 69 0 0 c 8 30 0 1 $T0 $ebp = $eip $T0 4 + ^ = $ebp $T0 ^ = $esp $T0 8 + = $L $T0 .cbSavedRegs - = $P $T0 8 + .cbParams + =
STACK WIN 4 cd6b aa8 19 0 c 0 194 0 1 $T0 $ebp = $eip $T0 4 + ^ = $ebp $T0 ^ = $esp $T0 8 + = $L $T0 .cbSavedRegs - = $P $T0 8 + .cbParams + =
STACK WIN 4 cd75 a4a f 0 c 4 194 0 1 $T0 $ebp = $eip $T0 4 + ^ = $ebp $T0 ^ = $esp $T0 8 + = $L $T0 .cbSavedRegs - = $P $T0 8 + .cbParams + = $ebx $T0 408 - ^ =
STACK WIN 4 cd76 a48 e 0 c 8 194 0 1 $T0 $ebp = $eip $T0 4 + ^ = $ebp $T0 ^ = $esp $T0 8 + = $L $T0 .cbSavedRegs - = $P $T0 8 + .cbParams + = $ebx $T0 408 - ^ =
STACK WIN 4 cd77 a46 d 0 c c 194 0 1 $T0 $ebp = $eip $T0 4 + ^ = $ebp $T0 ^ = $esp $T0 8 + = $L $T0 .cbSavedRegs - = $P $T0 8 + .cbParams + = $ebx $T0 408 - ^ =
STACK WIN 4 d813 1b4 12 0 8 0 44 0 1 $T0 $ebp = $eip $T0 4 + ^ = $ebp $T0 ^ = $esp $T0 8 + = $L $T0 .cbSavedRegs - = $P $T0 8 + .cbParams + =
STACK WIN 4 d81a e9 b 0 8 4 44 0 1 $T0 $ebp = $eip $T0 4 + ^ = $ebp $T0 ^ = $esp $T0 8 + = $L $T0 .cbSavedRegs - = $P $T0 8 + .cbParams + = $ebx $T0 72 - ^ =
STACK WIN 4 d821 e1 4 0 8 8 44 0 1 $T0 $ebp = $eip $T0 4 + ^ = $ebp $T0 ^ = $esp $T0 8 + = $L $T0 .cbSavedRegs - = $P $T0 8 + .cbParams + = $ebx $T0 72 - ^ =
STACK WIN 4 d822 df 3 0 8 c 44 0 1 $T0 $ebp = $eip $T0 4 + ^ = $ebp $T0 ^ = $esp $T0 8 + = $L $T0 .cbSavedRegs - = $P $T0 8 + .cbParams + = $ebx $T0 72 - ^ =
STACK WIN 4 d9c7 17e 1a 0 c 0 34 0 1 $T0 $ebp = $eip $T0 4 + ^ = $ebp $T0 ^ = $esp $T0 8 + = $L $T0 .cbSavedRegs - = $P $T0 8 + .cbParams + =
STACK WIN 4 d9ce 11f 13 0 c 4 34 0 1 $T0 $ebp = $eip $T0 4 + ^ = $ebp $T0 ^ = $esp $T0 8 + = $L $T0 .cbSavedRegs - = $P $T0 8 + .cbParams + = $ebx $T0 56 - ^ =
STACK WIN 4 d9cf c4 12 0 c 8 34 0 1 $T0 $ebp = $eip $T0 4 + ^ = $ebp $T0 ^ = $esp $T0 8 + = $L $T0 .cbSavedRegs - = $P $T0 8 + .cbParams + = $ebx $T0 56 - ^ =
STACK WIN 4 d9d3 bf e 0 c c 34 0 1 $T0 $ebp = $eip $T0 4 + ^ = $ebp $T0 ^ = $esp $T0 8 + = $L $T0 .cbSavedRegs - = $P $T0 8 + .cbParams + = $ebx $T0 56 - ^ =
STACK WIN 4 db45 a6 14 0 10 0 0 0 1 $T2 $esp .cbLocals + .cbSavedRegs + = $T0 .raSearchStart = $eip $T0 ^ = $esp $T0 4 + =
STACK WIN 4 db46 a2 13 0 10 4 0 0 1 $T2 $esp .cbLocals + .cbSavedRegs + = $T0 .raSearchStart = $eip $T0 ^ = $esp $T0 4 + = $ebx $T0 4 - ^ =
STACK WIN 4 db47 a0 12 0 10 8 0 0 1 $T2 $esp .cbLocals + .cbSavedRegs + = $T0 .raSearchStart = $eip $T0 ^ = $esp $T0 4 + = $ebx $T0 4 - ^ =
STACK WIN 4 db4c 9a d 0 10 c 0 0 1 $T2 $esp .cbLocals + .cbSavedRegs + = $T0 .raSearchStart = $eip $T0 ^ = $esp $T0 4 + = $ebx $T0 4 - ^ =
STACK WIN 4 dbeb 183 7 0 14 0 4 0 1 $T0 $ebp = $eip $T0 4 + ^ = $ebp $T0 ^ = $esp $T0 8 + = $L $T0 .cbSavedRegs - = $P $T0 8 + .cbParams + =
STACK WIN 4 dbf9 cc 0 0 14 4 4 0 1 $T0 $ebp = $eip $T0 4 + ^ = $ebp $T0 ^ = $esp $T0 8 + = $L $T0 .cbSavedRegs - = $P $T0 8 + .cbParams + =
STACK WIN 4 dbfd c7 0 0 14 8 4 0 1 $T0 $ebp = $eip $T0 4 + ^ = $ebp $T0 ^ = $esp $T0 8 + = $L $T0 .cbSavedRegs - = $P $T0 8 + .cbParams + =
STACK WIN 4 dca4 1f 0 0 14 c 4 0 1 $T0 $ebp = $eip $T0 4 + ^ = $ebp $T0 ^ = $esp $T0 8 + = $L $T0 .cbSavedRegs - = $P $T0 8 + .cbParams + = $ebx $T0 16 - ^ =
STACK WIN 4 dd6e 6b a 0 10 0 0 0 1 $T0 $ebp = $eip $T0 4 + ^ = $ebp $T0 ^ = $esp $T0 8 + = $L $T0 .cbSavedRegs - = $P $T0 8 + .cbParams + =
STACK WIN 4 dd72 63 6 0 10 4 0 0 1 $T0 $ebp = $eip $T0 4 + ^ = $ebp $T0 ^ = $esp $T0 8 + = $L $T0 .cbSavedRegs - = $P $T0 8 + .cbParams + = $ebx $T0 4 - ^ =
STACK WIN 4 dd73 61 5 0 10 8 0 0 1 $T0 $ebp = $eip $T0 4 + ^ = $ebp $T0 ^ = $esp $T0 8 + = $L $T0 .cbSavedRegs - = $P $T0 8 + .cbParams + = $ebx $T0 4 - ^ =
STACK WIN 4 dd74 5f 4 0 10 c 0 0 1 $T0 $ebp = $eip $T0 4 + ^ = $ebp $T0 ^ = $esp $T0 8 + = $L $T0 .cbSavedRegs - = $P $T0 8 + .cbParams + = $ebx $T0 4 - ^ =
STACK WIN 4 ddd9 17a 12 0 10 0 38 0 1 $T0 $ebp = $eip $T0 4 + ^ = $ebp $T0 ^ = $esp $T0 8 + = $L $T0 .cbSavedRegs - = $P $T0 8 + .cbParams + =
STACK WIN 4 dde0 96 b 0 10 4 38 0 1 $T0 $ebp = $eip $T0 4 + ^ = $ebp $T0 ^ = $esp $T0 8 + = $L $T0 .cbSavedRegs - = $P $T0 8 + .cbParams + =
STACK WIN 4 dde1 94 a 0 10 8 38 0 1 $T0 $ebp = $eip $T0 4 + ^ = $ebp $T0 ^ = $esp $T0 8 + = $L $T0 .cbSavedRegs - = $P $T0 8 + .cbParams + =
STACK WIN 4 de0d 67 0 0 10 c 38 0 1 $T0 $ebp = $eip $T0 4 + ^ = $ebp $T0 ^ = $esp $T0 8 + = $L $T0 .cbSavedRegs - = $P $T0 8 + .cbParams + = $ebx $T0 68 - ^ =
STACK WIN 4 df53 192 e 0 c c 14 0 1 $T0 $ebp = $eip $T0 4 + ^ = $ebp $T0 ^ = $esp $T0 8 + = $L $T0 .cbSavedRegs - = $P $T0 8 + .cbParams + =
STACK WIN 4 e0e5 21 9 0 4 0 0 0 1 $T2 $esp .cbLocals + .cbSavedRegs + = $T0 .raSearchStart = $eip $T0 ^ = $esp $T0 4 + =
STACK WIN 4 e0e6 1d 8 0 4 4 0 0 1 $T2 $esp .cbLocals + .cbSavedRegs + = $T0 .raSearchStart = $eip $T0 ^ = $esp $T0 4 + =
STACK WIN 4 e0e7 19 7 0 4 8 0 0 1 $T2 $esp .cbLocals + .cbSavedRegs + = $T0 .raSearchStart = $eip $T0 ^ = $esp $T0 4 + =
STACK WIN 4 e106 33 7 0 0 0 0 0 1 $T2 $esp .cbLocals + .cbSavedRegs + = $T0 .raSearchStart = $eip $T0 ^ = $esp $T0 4 + =
STACK WIN 4 e107 31 6 0 0 4 0 0 1 $T2 $esp .cbLocals + .cbSavedRegs + = $T0 .raSearchStart = $eip $T0 ^ = $esp $T0 4 + = $ebx $T0 4 - ^ =
STACK WIN 4 e108 2f 5 0 0 8 0 0 1 $T2 $esp .cbLocals + .cbSavedRegs + = $T0 .raSearchStart = $eip $T0 ^ = $esp $T0 4 + = $ebx $T0 4 - ^ =
STACK WIN 4 e139 30 7 0 4 0 0 0 1 $T2 $esp .cbLocals + .cbSavedRegs + = $T0 .raSearchStart = $eip $T0 ^ = $esp $T0 4 + =
STACK WIN 4 e13a 2c 6 0 4 4 0 0 1 $T2 $esp .cbLocals + .cbSavedRegs + = $T0 .raSearchStart = $eip $T0 ^ = $esp $T0 4 + =
STACK WIN 4 e169 3d 4 0 c 0 0 0 1 $T2 $esp .cbLocals + .cbSavedRegs + = $T0 .raSearchStart = $eip $T0 ^ = $esp $T0 4 + =
STACK WIN 4 e16a 39 3 0 c 4 0 0 1 $T2 $esp .cbLocals + .cbSavedRegs + = $T0 .raSearchStart = $eip $T0 ^ = $esp $T0 4 + =
STACK WIN 4 e16b 35 2 0 c 8 0 0 1 $T2 $esp .cbLocals + .cbSavedRegs + = $T0 .raSearchStart = $eip $T0 ^ = $esp $T0 4 + =
STACK WIN 4 e1a6 33 c 0 14 0 0 0 1 $T0 $ebp = $eip $T0 4 + ^ = $ebp $T0 ^ = $esp $T0 8 + = $L $T0 .cbSavedRegs - = $P $T0 8 + .cbParams + =
STACK WIN 4 e1ad 28 5 0 14 4 0 0 1 $T0 $ebp = $eip $T0 4 + ^ = $ebp $T0 ^ = $esp $T0 8 + = $L $T0 .cbSavedRegs - = $P $T0 8 + .cbParams + =
STACK WIN 4 e1d9 55 9 0 c 0 0 0 1 $T2 $esp .cbLocals + .cbSavedRegs + = $T0 .raSearchStart = $eip $T0 ^ = $esp $T0 4 + =
STACK WIN 4 e1da 51 8 0 c 4 0 0 1 $T2 $esp .cbLocals + .cbSavedRegs + = $T0 .raSearchStart = $eip $T0 ^ = $esp $T0 4 + = $ebx $T0 4 - ^ =
STACK WIN 4 e1db 4f 7 0 c 8 0 0 1 $T2 $esp .cbLocals + .cbSavedRegs + = $T0 .raSearchStart = $eip $T0 ^ = $esp $T0 4 + = $ebx $T0 4 - ^ =
STACK WIN 4 e1dc 4b 6 0 c c 0 0 1 $T2 $esp .cbLocals + .cbSavedRegs + = $T0 .raSearchStart = $eip $T0 ^ = $esp $T0 4 + = $ebx $T0 4 - ^ =
STACK WIN 4 e22e 23 3 0 0 0 0 0 1 $T2 $esp .cbLocals + .cbSavedRegs + = $T0 .raSearchStart = $eip $T0 ^ = $esp $T0 4 + =
STACK WIN 4 e22f 21 2 0 0 4 0 0 1 $T2 $esp .cbLocals + .cbSavedRegs + = $T0 .raSearchStart = $eip $T0 ^ = $esp $T0 4 + =
STACK WIN 4 e251 e 3 0 4 0 0 0 1 $T2 $esp .cbLocals + .cbSavedRegs + = $T0 .raSearchStart = $eip $T0 ^ = $esp $T0 4 + =
STACK WIN 4 e252 a 2 0 4 4 0 0 1 $T2 $esp .cbLocals + .cbSavedRegs + = $T0 .raSearchStart = $eip $T0 ^ = $esp $T0 4 + =
STACK WIN 4 e25f 33 0 0 10 0 0 0 1 $T2 $esp .cbLocals + .cbSavedRegs + = $T0 .raSearchStart = $eip $T0 ^ = $esp $T0 4 + =
STACK WIN 4 e292 40 7 0 4 0 0 0 1 $T0 $ebp = $eip $T0 4 + ^ = $ebp $T0 ^ = $esp $T0 8 + = $L $T0 .cbSavedRegs - = $P $T0 8 + .cbParams + =
STACK WIN 4 e296 38 3 0 4 4 0 0 1 $T0 $ebp = $eip $T0 4 + ^ = $ebp $T0 ^ = $esp $T0 8 + = $L $T0 .cbSavedRegs - = $P $T0 8 + .cbParams + =
STACK WIN 4 e297 36 2 0 4 8 0 0 1 $T0 $ebp = $eip $T0 4 + ^ = $ebp $T0 ^ = $esp $T0 8 + = $L $T0 .cbSavedRegs - = $P $T0 8 + .cbParams + =
STACK WIN 4 e2d2 4e c 0 14 c 10 0 1 $T0 $ebp = $eip $T0 4 + ^ = $ebp $T0 ^ = $esp $T0 8 + = $L $T0 .cbSavedRegs - = $P $T0 8 + .cbParams + =
STACK WIN 4 e320 8f 5 0 c 0 0 0 1 $T0 $ebp = $eip $T0 4 + ^ = $ebp $T0 ^ = $esp $T0 8 + = $L $T0 .cbSavedRegs - = $P $T0 8 + .cbParams + =
STACK WIN 4 e324 87 1 0 c 4 0 0 1 $T0 $ebp = $eip $T0 4 + ^ = $ebp $T0 ^ = $esp $T0 8 + = $L $T0 .cbSavedRegs - = $P $T0 8 + .cbParams + =
STACK WIN 4 e325 83 0 0 c 8 0 0 1 $T0 $ebp = $eip $T0 4 + ^ = $ebp $T0 ^ = $esp $T0 8 + = $L $T0 .cbSavedRegs - = $P $T0 8 + .cbParams + =
STACK WIN 4 e3af 7b 5 0 c 0 0 0 1 $T0 $ebp = $eip $T0 4 + ^ = $ebp $T0 ^ = $esp $T0 8 + = $L $T0 .cbSavedRegs - = $P $T0 8 + .cbParams + =
STACK WIN 4 e3b3 73 1 0 c 4 0 0 1 $T0 $ebp = $eip $T0 4 + ^ = $ebp $T0 ^ = $esp $T0 8 + = $L $T0 .cbSavedRegs - = $P $T0 8 + .cbParams + =
STACK WIN 4 e3b4 71 0 0 c 8 0 0 1 $T0 $ebp = $eip $T0 4 + ^ = $ebp $T0 ^ = $esp $T0 8 + = $L $T0 .cbSavedRegs - = $P $T0 8 + .cbParams + =
STACK WIN 4 e42a 4f 1 0 8 0 0 0 1 $T2 $esp .cbLocals + .cbSavedRegs + = $T0 .raSearchStart = $eip $T0 ^ = $esp $T0 4 + =
STACK WIN 4 e42b 4b 0 0 8 4 0 0 1 $T2 $esp .cbLocals + .cbSavedRegs + = $T0 .raSearchStart = $eip $T0 ^ = $esp $T0 4 + =
STACK WIN 4 e438 3d 0 0 8 8 0 0 1 $T2 $esp .cbLocals + .cbSavedRegs + = $T0 .raSearchStart = $eip $T0 ^ = $esp $T0 4 + =
STACK WIN 4 e479 59 e 0 c 0 0 0 1 $T2 $esp .cbLocals + .cbSavedRegs + = $T0 .raSearchStart = $eip $T0 ^ = $esp $T0 4 + =
STACK WIN 4 e487 48 0 0 c 4 0 0 1 $T2 $esp .cbLocals + .cbSavedRegs + = $T0 .raSearchStart = $eip $T0 ^ = $esp $T0 4 + =
STACK WIN 4 e49d 31 0 0 c 8 0 0 1 $T2 $esp .cbLocals + .cbSavedRegs + = $T0 .raSearchStart = $eip $T0 ^ = $esp $T0 4 + = $ebx $T0 8 - ^ =
STACK WIN 4 e49e 2d 0 0 c c 0 0 1 $T2 $esp .cbLocals + .cbSavedRegs + = $T0 .raSearchStart = $eip $T0 ^ = $esp $T0 4 + = $ebx $T0 8 - ^ =
STACK WIN 4 e4d2 9d d 0 8 0 38 0 1 $T0 $ebp = $eip $T0 4 + ^ = $ebp $T0 ^ = $esp $T0 8 + = $L $T0 .cbSavedRegs - = $P $T0 8 + .cbParams + =
STACK WIN 4 e4d9 92 6 0 8 4 38 0 1 $T0 $ebp = $eip $T0 4 + ^ = $ebp $T0 ^ = $esp $T0 8 + = $L $T0 .cbSavedRegs - = $P $T0 8 + .cbParams + = $ebx $T0 60 - ^ =
STACK WIN 4 e4da 90 5 0 8 8 38 0 1 $T0 $ebp = $eip $T0 4 + ^ = $ebp $T0 ^ = $esp $T0 8 + = $L $T0 .cbSavedRegs - = $P $T0 8 + .cbParams + = $ebx $T0 60 - ^ =
STACK WIN 4 e514 52 0 0 8 c 38 0 1 $T0 $ebp = $eip $T0 4 + ^ = $ebp $T0 ^ = $esp $T0 8 + = $L $T0 .cbSavedRegs - = $P $T0 8 + .cbParams + = $ebx $T0 60 - ^ =
STACK WIN 4 e56f 85 11 0 8 c 18 0 1 $T0 $ebp = $eip $T0 4 + ^ = $ebp $T0 ^ = $esp $T0 8 + = $L $T0 .cbSavedRegs - = $P $T0 8 + .cbParams + =
STACK WIN 4 e5f4 60 c 0 4 0 0 0 1 $T2 $esp .cbLocals + .cbSavedRegs + = $T0 .raSearchStart = $eip $T0 ^ = $esp $T0 4 + =
STACK WIN 4 e5f5 3a b 0 4 4 0 0 1 $T2 $esp .cbLocals + .cbSavedRegs + = $T0 .raSearchStart = $eip $T0 ^ = $esp $T0 4 + = $ebx $T0 4 - ^ =
STACK WIN 4 e5fd 31 3 0 4 8 0 0 1 $T2 $esp .cbLocals + .cbSavedRegs + = $T0 .raSearchStart = $eip $T0 ^ = $esp $T0 4 + = $ebx $T0 4 - ^ =
STACK WIN 4 e5fe 2f 2 0 4 c 0 0 1 $T2 $esp .cbLocals + .cbSavedRegs + = $T0 .raSearchStart = $eip $T0 ^ = $esp $T0 4 + = $ebx $T0 4 - ^ =
STACK WIN 4 e654 2f 7 0 4 0 4 0 1 $T0 $ebp = $eip $T0 4 + ^ = $ebp $T0 ^ = $esp $T0 8 + = $L $T0 .cbSavedRegs - = $P $T0 8 + .cbParams + =
STACK WIN 4 e659 26 2 0 4 4 4 0 1 $T0 $ebp = $eip $T0 4 + ^ = $ebp $T0 ^ = $esp $T0 8 + = $L $T0 .cbSavedRegs - = $P $T0 8 + .cbParams + =
STACK WIN 4 e683 40 3 0 0 0 0 0 1 $T2 $esp .cbLocals + .cbSavedRegs + = $T0 .raSearchStart = $eip $T0 ^ = $esp $T0 4 + =
STACK WIN 4 e684 3e 2 0 0 4 0 0 1 $T2 $esp .cbLocals + .cbSavedRegs + = $T0 .raSearchStart = $eip $T0 ^ = $esp $T0 4 + =
STACK WIN 4 e687 34 0 0 0 8 0 0 1 $T2 $esp .cbLocals + .cbSavedRegs + = $T0 .raSearchStart = $eip $T0 ^ = $esp $T0 4 + =
STACK WIN 4 e6c3 e 3 0 4 0 0 0 1 $T2 $esp .cbLocals + .cbSavedRegs + = $T0 .raSearchStart = $eip $T0 ^ = $esp $T0 4 + =
STACK WIN 4 e6c4 a 2 0 4 4 0 0 1 $T2 $esp .cbLocals + .cbSavedRegs + = $T0 .raSearchStart = $eip $T0 ^ = $esp $T0 4 + =
STACK WIN 4 e6d1 29 6 0 4 0 0 0 1 $T2 $esp .cbLocals + .cbSavedRegs + = $T0 .raSearchStart = $eip $T0 ^ = $esp $T0 4 + =
STACK WIN 4 e6d2 23 5 0 4 4 0 0 1 $T2 $esp .cbLocals + .cbSavedRegs + = $T0 .raSearchStart = $eip $T0 ^ = $esp $T0 4 + =
STACK WIN 4 e6d3 21 4 0 4 8 0 0 1 $T2 $esp .cbLocals + .cbSavedRegs + = $T0 .raSearchStart = $eip $T0 ^ = $esp $T0 4 + =
STACK WIN 4 e6fa 17 0 0 4 0 0 0 1 $T2 $esp .cbLocals + .cbSavedRegs + = $T0 .raSearchStart = $eip $T0 ^ = $esp $T0 4 + =
STACK WIN 4 e711 9 0 0 4 0 0 0 1 $T2 $esp .cbLocals + .cbSavedRegs + = $T0 .raSearchStart = $eip $T0 ^ = $esp $T0 4 + =
STACK WIN 4 e71a 1f 0 0 4 0 0 0 1 $T2 $esp .cbLocals + .cbSavedRegs + = $T0 .raSearchStart = $eip $T0 ^ = $esp $T0 4 + =
STACK WIN 4 e739 70 0 0 4 0 0 0 1 $T2 $esp .cbLocals + .cbSavedRegs + = $T0 .raSearchStart = $eip $T0 ^ = $esp $T0 4 + =
STACK WIN 4 e7a9 dc 0 0 4 0 0 0 1 $T2 $esp .cbLocals + .cbSavedRegs + = $T0 .raSearchStart = $eip $T0 ^ = $esp $T0 4 + =
STACK WIN 4 e885 2a 5 0 8 0 8 0 1 $T0 $ebp = $eip $T0 4 + ^ = $ebp $T0 ^ = $esp $T0 8 + = $L $T0 .cbSavedRegs - = $P $T0 8 + .cbParams + =
STACK WIN 4 e8af 18 4 0 4 0 4 0 1 $T0 $ebp = $eip $T0 4 + ^ = $ebp $T0 ^ = $esp $T0 8 + = $L $T0 .cbSavedRegs - = $P $T0 8 + .cbParams + =
STACK WIN 4 e8c7 cc e 0 4 0 9c 0 1 $T0 $ebp = $eip $T0 4 + ^ = $ebp $T0 ^ = $esp $T0 8 + = $L $T0 .cbSavedRegs - = $P $T0 8 + .cbParams + =
STACK WIN 4 e8d1 be 4 0 4 4 9c 0 1 $T0 $ebp = $eip $T0 4 + ^ = $ebp $T0 ^ = $esp $T0 8 + = $L $T0 .cbSavedRegs - = $P $T0 8 + .cbParams + =
STACK WIN 4 e993 24 2 0 4 0 0 0 1 $T2 $esp .cbLocals + .cbSavedRegs + = $T0 .raSearchStart = $eip $T0 ^ = $esp $T0 4 + =
STACK WIN 4 e9b7 2d 9 0 c 0 0 0 1 $T2 $esp .cbLocals + .cbSavedRegs + = $T0 .raSearchStart = $eip $T0 ^ = $esp $T0 4 + =
STACK WIN 4 e9c0 23 0 0 c 4 0 0 1 $T2 $esp .cbLocals + .cbSavedRegs + = $T0 .raSearchStart = $eip $T0 ^ = $esp $T0 4 + =
STACK WIN 4 e9e4 ec 9 0 8 0 0 0 1 $T2 $esp .cbLocals + .cbSavedRegs + = $T0 .raSearchStart = $eip $T0 ^ = $esp $T0 4 + =
STACK WIN 4 e9e5 e8 8 0 8 4 0 0 1 $T2 $esp .cbLocals + .cbSavedRegs + = $T0 .raSearchStart = $eip $T0 ^ = $esp $T0 4 + = $ebx $T0 4 - ^ =
STACK WIN 4 e9e6 e4 7 0 8 8 0 0 1 $T2 $esp .cbLocals + .cbSavedRegs + = $T0 .raSearchStart = $eip $T0 ^ = $esp $T0 4 + = $ebx $T0 4 - ^ =
STACK WIN 4 e9e7 e2 6 0 8 c 0 0 1 $T2 $esp .cbLocals + .cbSavedRegs + = $T0 .raSearchStart = $eip $T0 ^ = $esp $T0 4 + = $ebx $T0 4 - ^ =
STACK WIN 4 ead0 8b 9 0 8 0 0 0 1 $T2 $esp .cbLocals + .cbSavedRegs + = $T0 .raSearchStart = $eip $T0 ^ = $esp $T0 4 + =
STACK WIN 4 ead1 87 8 0 8 4 0 0 1 $T2 $esp .cbLocals + .cbSavedRegs + = $T0 .raSearchStart = $eip $T0 ^ = $esp $T0 4 + = $ebx $T0 4 - ^ =
STACK WIN 4 ead6 7f 3 0 8 8 0 0 1 $T2 $esp .cbLocals + .cbSavedRegs + = $T0 .raSearchStart = $eip $T0 ^ = $esp $T0 4 + = $ebx $T0 4 - ^ =
STACK WIN 4 ead7 7d 2 0 8 c 0 0 1 $T2 $esp .cbLocals + .cbSavedRegs + = $T0 .raSearchStart = $eip $T0 ^ = $esp $T0 4 + = $ebx $T0 4 - ^ =
STACK WIN 4 eb5b 27 7 0 4 0 10 0 1 $T0 $ebp = $eip $T0 4 + ^ = $ebp $T0 ^ = $esp $T0 8 + = $L $T0 .cbSavedRegs - = $P $T0 8 + .cbParams + =
STACK WIN 4 eb62 1c 0 0 4 4 10 0 1 $T0 $ebp = $eip $T0 4 + ^ = $ebp $T0 ^ = $esp $T0 8 + = $L $T0 .cbSavedRegs - = $P $T0 8 + .cbParams + =
STACK WIN 4 eb82 62 e 0 4 0 9c 0 1 $T0 $ebp = $eip $T0 4 + ^ = $ebp $T0 ^ = $esp $T0 8 + = $L $T0 .cbSavedRegs - = $P $T0 8 + .cbParams + =
STACK WIN 4 eb8c 54 4 0 4 4 9c 0 1 $T0 $ebp = $eip $T0 4 + ^ = $ebp $T0 ^ = $esp $T0 8 + = $L $T0 .cbSavedRegs - = $P $T0 8 + .cbParams + =
STACK WIN 4 ebe4 e8 c 0 4 0 8 0 1 $T0 $ebp = $eip $T0 4 + ^ = $ebp $T0 ^ = $esp $T0 8 + = $L $T0 .cbSavedRegs - = $P $T0 8 + .cbParams + =
STACK WIN 4 ebea de 6 0 4 4 8 0 1 $T0 $ebp = $eip $T0 4 + ^ = $ebp $T0 ^ = $esp $T0 8 + = $L $T0 .cbSavedRegs - = $P $T0 8 + .cbParams + = $ebx $T0 12 - ^ =
STACK WIN 4 ebeb dc 5 0 4 8 8 0 1 $T0 $ebp = $eip $T0 4 + ^ = $ebp $T0 ^ = $esp $T0 8 + = $L $T0 .cbSavedRegs - = $P $T0 8 + .cbParams + = $ebx $T0 12 - ^ =
STACK WIN 4 ebf1 d5 0 0 4 c 8 0 1 $T0 $ebp = $eip $T0 4 + ^ = $ebp $T0 ^ = $esp $T0 8 + = $L $T0 .cbSavedRegs - = $P $T0 8 + .cbParams + = $ebx $T0 12 - ^ =
STACK WIN 4 eccc 22 b 0 4 0 0 0 1 $T2 $esp .cbLocals + .cbSavedRegs + = $T0 .raSearchStart = $eip $T0 ^ = $esp $T0 4 + =
STACK WIN 4 ecd5 16 2 0 4 4 0 0 1 $T2 $esp .cbLocals + .cbSavedRegs + = $T0 .raSearchStart = $eip $T0 ^ = $esp $T0 4 + =
STACK WIN 4 ecee 107 f 0 4 0 80 0 1 $T0 $ebp = $eip $T0 4 + ^ = $ebp $T0 ^ = $esp $T0 8 + = $L $T0 .cbSavedRegs - = $P $T0 8 + .cbParams + =
STACK WIN 4 ecf8 f9 5 0 4 4 80 0 1 $T0 $ebp = $eip $T0 4 + ^ = $ebp $T0 ^ = $esp $T0 8 + = $L $T0 .cbSavedRegs - = $P $T0 8 + .cbParams + =
STACK WIN 4 ecf9 f7 4 0 4 8 80 0 1 $T0 $ebp = $eip $T0 4 + ^ = $ebp $T0 ^ = $esp $T0 8 + = $L $T0 .cbSavedRegs - = $P $T0 8 + .cbParams + =
STACK WIN 4 ed18 3f 0 0 4 c 80 0 1 $T0 $ebp = $eip $T0 4 + ^ = $ebp $T0 ^ = $esp $T0 8 + = $L $T0 .cbSavedRegs - = $P $T0 8 + .cbParams + = $ebx $T0 140 - ^ =
STACK WIN 4 edf5 8c e 0 4 0 1c 0 1 $T0 $ebp = $eip $T0 4 + ^ = $ebp $T0 ^ = $esp $T0 8 + = $L $T0 .cbSavedRegs - = $P $T0 8 + .cbParams + =
STACK WIN 4 edfc 81 7 0 4 4 1c 0 1 $T0 $ebp = $eip $T0 4 + ^ = $ebp $T0 ^ = $esp $T0 8 + = $L $T0 .cbSavedRegs - = $P $T0 8 + .cbParams + = $ebx $T0 32 - ^ =
STACK WIN 4 edfd 7f 6 0 4 8 1c 0 1 $T0 $ebp = $eip $T0 4 + ^ = $ebp $T0 ^ = $esp $T0 8 + = $L $T0 .cbSavedRegs - = $P $T0 8 + .cbParams + = $ebx $T0 32 - ^ =
STACK WIN 4 edfe 7d 5 0 4 c 1c 0 1 $T0 $ebp = $eip $T0 4 + ^ = $ebp $T0 ^ = $esp $T0 8 + = $L $T0 .cbSavedRegs - = $P $T0 8 + .cbParams + = $ebx $T0 32 - ^ =
STACK WIN 4 ee84 264 b 0 8 0 1c 0 1 $T0 $ebp = $eip $T0 4 + ^ = $ebp $T0 ^ = $esp $T0 8 + = $L $T0 .cbSavedRegs - = $P $T0 8 + .cbParams + =
STACK WIN 4 ee8b 1d6 4 0 8 4 1c 0 1 $T0 $ebp = $eip $T0 4 + ^ = $ebp $T0 ^ = $esp $T0 8 + = $L $T0 .cbSavedRegs - = $P $T0 8 + .cbParams + =
STACK WIN 4 ee8f 1cf 0 0 8 8 1c 0 1 $T0 $ebp = $eip $T0 4 + ^ = $ebp $T0 ^ = $esp $T0 8 + = $L $T0 .cbSavedRegs - = $P $T0 8 + .cbParams + =
STACK WIN 4 f0e8 294 b 0 8 0 1c 0 1 $T0 $ebp = $eip $T0 4 + ^ = $ebp $T0 ^ = $esp $T0 8 + = $L $T0 .cbSavedRegs - = $P $T0 8 + .cbParams + =
STACK WIN 4 f0ef 22d 4 0 8 4 1c 0 1 $T0 $ebp = $eip $T0 4 + ^ = $ebp $T0 ^ = $esp $T0 8 + = $L $T0 .cbSavedRegs - = $P $T0 8 + .cbParams + =
STACK WIN 4 f0f3 226 0 0 8 8 1c 0 1 $T0 $ebp = $eip $T0 4 + ^ = $ebp $T0 ^ = $esp $T0 8 + = $L $T0 .cbSavedRegs - = $P $T0 8 + .cbParams + =
STACK WIN 4 f37c 354 b 0 8 0 1c 0 1 $T0 $ebp = $eip $T0 4 + ^ = $ebp $T0 ^ = $esp $T0 8 + = $L $T0 .cbSavedRegs - = $P $T0 8 + .cbParams + =
STACK WIN 4 f383 320 4 0 8 4 1c 0 1 $T0 $ebp = $eip $T0 4 + ^ = $ebp $T0 ^ = $esp $T0 8 + = $L $T0 .cbSavedRegs - = $P $T0 8 + .cbParams + =
STACK WIN 4 f387 319 0 0 8 8 1c 0 1 $T0 $ebp = $eip $T0 4 + ^ = $ebp $T0 ^ = $esp $T0 8 + = $L $T0 .cbSavedRegs - = $P $T0 8 + .cbParams + =
STACK WIN 4 f6d0 fc e 0 8 0 1c 0 1 $T0 $ebp = $eip $T0 4 + ^ = $ebp $T0 ^ = $esp $T0 8 + = $L $T0 .cbSavedRegs - = $P $T0 8 + .cbParams + =
STACK WIN 4 f6d7 f1 7 0 8 4 1c 0 1 $T0 $ebp = $eip $T0 4 + ^ = $ebp $T0 ^ = $esp $T0 8 + = $L $T0 .cbSavedRegs - = $P $T0 8 + .cbParams + = $ebx $T0 32 - ^ =
STACK WIN 4 f6d8 ed 6 0 8 8 1c 0 1 $T0 $ebp = $eip $T0 4 + ^ = $ebp $T0 ^ = $esp $T0 8 + = $L $T0 .cbSavedRegs - = $P $T0 8 + .cbParams + = $ebx $T0 32 - ^ =
STACK WIN 4 f6d9 eb 5 0 8 c 1c 0 1 $T0 $ebp = $eip $T0 4 + ^ = $ebp $T0 ^ = $esp $T0 8 + = $L $T0 .cbSavedRegs - = $P $T0 8 + .cbParams + = $ebx $T0 32 - ^ =
STACK WIN 4 f7cc e 0 0 4 0 0 0 1 $T2 $esp .cbLocals + .cbSavedRegs + = $T0 .raSearchStart = $eip $T0 ^ = $esp $T0 4 + =
STACK WIN 4 f7da f 0 0 4 0 0 0 1 $T2 $esp .cbLocals + .cbSavedRegs + = $T0 .raSearchStart = $eip $T0 ^ = $esp $T0 4 + =
STACK WIN 4 f7e9 ac d 0 4 0 0 0 1 $T2 $esp .cbLocals + .cbSavedRegs + = $T0 .raSearchStart = $eip $T0 ^ = $esp $T0 4 + =
STACK WIN 4 f7ea a8 c 0 4 4 0 0 1 $T2 $esp .cbLocals + .cbSavedRegs + = $T0 .raSearchStart = $eip $T0 ^ = $esp $T0 4 + = $ebx $T0 4 - ^ =
STACK WIN 4 f7eb a6 b 0 4 8 0 0 1 $T2 $esp .cbLocals + .cbSavedRegs + = $T0 .raSearchStart = $eip $T0 ^ = $esp $T0 4 + = $ebx $T0 4 - ^ =
STACK WIN 4 f7f4 9c 2 0 4 c 0 0 1 $T2 $esp .cbLocals + .cbSavedRegs + = $T0 .raSearchStart = $eip $T0 ^ = $esp $T0 4 + = $ebx $T0 4 - ^ =
STACK WIN 4 f895 3f c 0 4 0 0 0 1 $T2 $esp .cbLocals + .cbSavedRegs + = $T0 .raSearchStart = $eip $T0 ^ = $esp $T0 4 + =
STACK WIN 4 f896 3b b 0 4 4 0 0 1 $T2 $esp .cbLocals + .cbSavedRegs + = $T0 .raSearchStart = $eip $T0 ^ = $esp $T0 4 + =
STACK WIN 4 f89f 31 2 0 4 8 0 0 1 $T2 $esp .cbLocals + .cbSavedRegs + = $T0 .raSearchStart = $eip $T0 ^ = $esp $T0 4 + =
STACK WIN 4 f8d4 7e e 0 4 0 0 0 1 $T2 $esp .cbLocals + .cbSavedRegs + = $T0 .raSearchStart = $eip $T0 ^ = $esp $T0 4 + =
STACK WIN 4 f8d5 7a d 0 4 4 0 0 1 $T2 $esp .cbLocals + .cbSavedRegs + = $T0 .raSearchStart = $eip $T0 ^ = $esp $T0 4 + = $ebx $T0 4 - ^ =
STACK WIN 4 f8d6 78 c 0 4 8 0 0 1 $T2 $esp .cbLocals + .cbSavedRegs + = $T0 .raSearchStart = $eip $T0 ^ = $esp $T0 4 + = $ebx $T0 4 - ^ =
STACK WIN 4 f8d7 76 b 0 4 c 0 0 1 $T2 $esp .cbLocals + .cbSavedRegs + = $T0 .raSearchStart = $eip $T0 ^ = $esp $T0 4 + = $ebx $T0 4 - ^ =
STACK WIN 4 f952 88 e 0 4 0 0 0 1 $T2 $esp .cbLocals + .cbSavedRegs + = $T0 .raSearchStart = $eip $T0 ^ = $esp $T0 4 + =
STACK WIN 4 f953 84 d 0 4 4 0 0 1 $T2 $esp .cbLocals + .cbSavedRegs + = $T0 .raSearchStart = $eip $T0 ^ = $esp $T0 4 + = $ebx $T0 4 - ^ =
STACK WIN 4 f954 82 c 0 4 8 0 0 1 $T2 $esp .cbLocals + .cbSavedRegs + = $T0 .raSearchStart = $eip $T0 ^ = $esp $T0 4 + = $ebx $T0 4 - ^ =
STACK WIN 4 f955 80 b 0 4 c 0 0 1 $T2 $esp .cbLocals + .cbSavedRegs + = $T0 .raSearchStart = $eip $T0 ^ = $esp $T0 4 + = $ebx $T0 4 - ^ =
STACK WIN 4 f9da 45 c 0 4 0 0 0 1 $T2 $esp .cbLocals + .cbSavedRegs + = $T0 .raSearchStart = $eip $T0 ^ = $esp $T0 4 + =
STACK WIN 4 f9db 41 b 0 4 4 0 0 1 $T2 $esp .cbLocals + .cbSavedRegs + = $T0 .raSearchStart = $eip $T0 ^ = $esp $T0 4 + =
STACK WIN 4 f9e4 37 2 0 4 8 0 0 1 $T2 $esp .cbLocals + .cbSavedRegs + = $T0 .raSearchStart = $eip $T0 ^ = $esp $T0 4 + =
STACK WIN 4 fa1f c5 f 0 4 0 4 0 1 $T0 $ebp = $eip $T0 4 + ^ = $ebp $T0 ^ = $esp $T0 8 + = $L $T0 .cbSavedRegs - = $P $T0 8 + .cbParams + =
STACK WIN 4 fa24 bc a 0 4 4 4 0 1 $T0 $ebp = $eip $T0 4 + ^ = $ebp $T0 ^ = $esp $T0 8 + = $L $T0 .cbSavedRegs - = $P $T0 8 + .cbParams + =
STACK WIN 4 fa2c b3 2 0 4 8 4 0 1 $T0 $ebp = $eip $T0 4 + ^ = $ebp $T0 ^ = $esp $T0 8 + = $L $T0 .cbSavedRegs - = $P $T0 8 + .cbParams + =
STACK WIN 4 fa51 7b 0 0 4 c 4 0 1 $T0 $ebp = $eip $T0 4 + ^ = $ebp $T0 ^ = $esp $T0 8 + = $L $T0 .cbSavedRegs - = $P $T0 8 + .cbParams + = $ebx $T0 16 - ^ =
STACK WIN 4 fae4 5d 5 0 18 0 0 0 1 $T0 $ebp = $eip $T0 4 + ^ = $ebp $T0 ^ = $esp $T0 8 + = $L $T0 .cbSavedRegs - = $P $T0 8 + .cbParams + =
STACK WIN 4 faed 50 0 0 18 4 0 0 1 $T0 $ebp = $eip $T0 4 + ^ = $ebp $T0 ^ = $esp $T0 8 + = $L $T0 .cbSavedRegs - = $P $T0 8 + .cbParams + =
STACK WIN 4 faf1 3f 0 0 18 8 0 0 1 $T0 $ebp = $eip $T0 4 + ^ = $ebp $T0 ^ = $esp $T0 8 + = $L $T0 .cbSavedRegs - = $P $T0 8 + .cbParams + =
STACK WIN 4 fb41 19 0 0 4 0 0 0 1 $T2 $esp .cbLocals + .cbSavedRegs + = $T0 .raSearchStart = $eip $T0 ^ = $esp $T0 4 + =
STACK WIN 4 fb5a 23 a 0 8 0 0 0 1 $T2 $esp .cbLocals + .cbSavedRegs + = $T0 .raSearchStart = $eip $T0 ^ = $esp $T0 4 + =
STACK WIN 4 fb5f 1b 5 0 8 4 0 0 1 $T2 $esp .cbLocals + .cbSavedRegs + = $T0 .raSearchStart = $eip $T0 ^ = $esp $T0 4 + =
STACK WIN 4 fb7d 23 a 0 8 0 0 0 1 $T2 $esp .cbLocals + .cbSavedRegs + = $T0 .raSearchStart = $eip $T0 ^ = $esp $T0 4 + =
STACK WIN 4 fb82 1b 5 0 8 4 0 0 1 $T2 $esp .cbLocals + .cbSavedRegs + = $T0 .raSearchStart = $eip $T0 ^ = $esp $T0 4 + =
STACK WIN 4 fba0 23 a 0 8 0 0 0 1 $T2 $esp .cbLocals + .cbSavedRegs + = $T0 .raSearchStart = $eip $T0 ^ = $esp $T0 4 + =
STACK WIN 4 fba5 1b 5 0 8 4 0 0 1 $T2 $esp .cbLocals + .cbSavedRegs + = $T0 .raSearchStart = $eip $T0 ^ = $esp $T0 4 + =
STACK WIN 4 fbc3 42 7 0 48 0 64 0 1 $T0 $ebp = $eip $T0 4 + ^ = $ebp $T0 ^ = $esp $T0 8 + = $L $T0 .cbSavedRegs - = $P $T0 8 + .cbParams + =
STACK WIN 4 fbca 37 0 0 48 4 64 0 1 $T0 $ebp = $eip $T0 4 + ^ = $ebp $T0 ^ = $esp $T0 8 + = $L $T0 .cbSavedRegs - = $P $T0 8 + .cbParams + =
STACK WIN 4 fc05 152 9 0 4 0 14 0 1 $T0 $ebp = $eip $T0 4 + ^ = $ebp $T0 ^ = $esp $T0 8 + = $L $T0 .cbSavedRegs - = $P $T0 8 + .cbParams + =
STACK WIN 4 fc0c 147 2 0 4 4 14 0 1 $T0 $ebp = $eip $T0 4 + ^ = $ebp $T0 ^ = $esp $T0 8 + = $L $T0 .cbSavedRegs - = $P $T0 8 + .cbParams + =
STACK WIN 4 fc0f 143 0 0 4 8 14 0 1 $T0 $ebp = $eip $T0 4 + ^ = $ebp $T0 ^ = $esp $T0 8 + = $L $T0 .cbSavedRegs - = $P $T0 8 + .cbParams + =
STACK WIN 4 fc2e 123 0 0 4 c 14 0 1 $T0 $ebp = $eip $T0 4 + ^ = $ebp $T0 ^ = $esp $T0 8 + = $L $T0 .cbSavedRegs - = $P $T0 8 + .cbParams + = $ebx $T0 32 - ^ =
STACK WIN 4 fd57 9d b 0 8 0 0 0 1 $T0 $ebp = $eip $T0 4 + ^ = $ebp $T0 ^ = $esp $T0 8 + = $L $T0 .cbSavedRegs - = $P $T0 8 + .cbParams + =
STACK WIN 4 fd5b 95 7 0 8 4 0 0 1 $T0 $ebp = $eip $T0 4 + ^ = $ebp $T0 ^ = $esp $T0 8 + = $L $T0 .cbSavedRegs - = $P $T0 8 + .cbParams + =
STACK WIN 4 fd5c 93 6 0 8 8 0 0 1 $T0 $ebp = $eip $T0 4 + ^ = $ebp $T0 ^ = $esp $T0 8 + = $L $T0 .cbSavedRegs - = $P $T0 8 + .cbParams + =
STACK WIN 4 fd90 5e 0 0 8 c 0 0 1 $T0 $ebp = $eip $T0 4 + ^ = $ebp $T0 ^ = $esp $T0 8 + = $L $T0 .cbSavedRegs - = $P $T0 8 + .cbParams + = $ebx $T0 12 - ^ =
STACK WIN 4 fdf4 1e 7 0 4 0 0 0 1 $T2 $esp .cbLocals + .cbSavedRegs + = $T0 .raSearchStart = $eip $T0 ^ = $esp $T0 4 + =
STACK WIN 4 fdf5 1a 6 0 4 4 0 0 1 $T2 $esp .cbLocals + .cbSavedRegs + = $T0 .raSearchStart = $eip $T0 ^ = $esp $T0 4 + =
STACK WIN 4 fe12 ab 12 0 8 0 3c 0 1 $T0 $ebp = $eip $T0 4 + ^ = $ebp $T0 ^ = $esp $T0 8 + = $L $T0 .cbSavedRegs - = $P $T0 8 + .cbParams + =
STACK WIN 4 fe23 91 1 0 8 4 3c 0 1 $T0 $ebp = $eip $T0 4 + ^ = $ebp $T0 ^ = $esp $T0 8 + = $L $T0 .cbSavedRegs - = $P $T0 8 + .cbParams + =
STACK WIN 4 fe24 8b 0 0 8 8 3c 0 1 $T0 $ebp = $eip $T0 4 + ^ = $ebp $T0 ^ = $esp $T0 8 + = $L $T0 .cbSavedRegs - = $P $T0 8 + .cbParams + =
STACK WIN 4 febd 8e 14 0 8 0 3c 0 1 $T0 $ebp = $eip $T0 4 + ^ = $ebp $T0 ^ = $esp $T0 8 + = $L $T0 .cbSavedRegs - = $P $T0 8 + .cbParams + =
STACK WIN 4 fece 74 3 0 8 4 3c 0 1 $T0 $ebp = $eip $T0 4 + ^ = $ebp $T0 ^ = $esp $T0 8 + = $L $T0 .cbSavedRegs - = $P $T0 8 + .cbParams + =
STACK WIN 4 fed1 6c 0 0 8 8 3c 0 1 $T0 $ebp = $eip $T0 4 + ^ = $ebp $T0 ^ = $esp $T0 8 + = $L $T0 .cbSavedRegs - = $P $T0 8 + .cbParams + =
STACK WIN 4 ff4b 14c 13 0 8 0 40 0 1 $T0 $ebp = $eip $T0 4 + ^ = $ebp $T0 ^ = $esp $T0 8 + = $L $T0 .cbSavedRegs - = $P $T0 8 + .cbParams + =
STACK WIN 4 ff5c 132 2 0 8 4 40 0 1 $T0 $ebp = $eip $T0 4 + ^ = $ebp $T0 ^ = $esp $T0 8 + = $L $T0 .cbSavedRegs - = $P $T0 8 + .cbParams + = $ebx $T0 68 - ^ =
STACK WIN 4 ff5d 12c 1 0 8 8 40 0 1 $T0 $ebp = $eip $T0 4 + ^ = $ebp $T0 ^ = $esp $T0 8 + = $L $T0 .cbSavedRegs - = $P $T0 8 + .cbParams + = $ebx $T0 68 - ^ =
STACK WIN 4 ff5e 12a 0 0 8 c 40 0 1 $T0 $ebp = $eip $T0 4 + ^ = $ebp $T0 ^ = $esp $T0 8 + = $L $T0 .cbSavedRegs - = $P $T0 8 + .cbParams + = $ebx $T0 68 - ^ =
STACK WIN 4 10097 3a 9 0 4 0 0 0 1 $T2 $esp .cbLocals + .cbSavedRegs + = $T0 .raSearchStart = $eip $T0 ^ = $esp $T0 4 + =
STACK WIN 4 100a0 2e 0 0 4 4 0 0 1 $T2 $esp .cbLocals + .cbSavedRegs + = $T0 .raSearchStart = $eip $T0 ^ = $esp $T0 4 + =
STACK WIN 4 100ab a 0 0 4 8 0 0 1 $T2 $esp .cbLocals + .cbSavedRegs + = $T0 .raSearchStart = $eip $T0 ^ = $esp $T0 4 + =
STACK WIN 4 100d1 6e 3 0 14 0 0 0 1 $T0 $ebp = $eip $T0 4 + ^ = $ebp $T0 ^ = $esp $T0 8 + = $L $T0 .cbSavedRegs - = $P $T0 8 + .cbParams + =
STACK WIN 4 1013f 1 0 0 0 0 0 0 1 $T2 $esp .cbLocals + .cbSavedRegs + = $T0 .raSearchStart = $eip $T0 ^ = $esp $T0 4 + =
STACK WIN 4 10140 63 1c 0 14 0 204 0 1 $T0 $ebp = $eip $T0 4 + ^ = $ebp $T0 ^ = $esp $T0 8 + = $L $T0 .cbSavedRegs - = $P $T0 8 + .cbParams + =
STACK WIN 4 10154 48 8 0 14 4 204 0 1 $T0 $ebp = $eip $T0 4 + ^ = $ebp $T0 ^ = $esp $T0 8 + = $L $T0 .cbSavedRegs - = $P $T0 8 + .cbParams + = $ebx $T0 520 - ^ =
STACK WIN 4 10158 41 4 0 14 8 204 0 1 $T0 $ebp = $eip $T0 4 + ^ = $ebp $T0 ^ = $esp $T0 8 + = $L $T0 .cbSavedRegs - = $P $T0 8 + .cbParams + = $ebx $T0 520 - ^ =
STACK WIN 4 1015c 3c 0 0 14 c 204 0 1 $T0 $ebp = $eip $T0 4 + ^ = $ebp $T0 ^ = $esp $T0 8 + = $L $T0 .cbSavedRegs - = $P $T0 8 + .cbParams + = $ebx $T0 520 - ^ =
STACK WIN 4 101a3 60 1c 0 14 0 204 0 1 $T0 $ebp = $eip $T0 4 + ^ = $ebp $T0 ^ = $esp $T0 8 + = $L $T0 .cbSavedRegs - = $P $T0 8 + .cbParams + =
STACK WIN 4 101b7 45 8 0 14 4 204 0 1 $T0 $ebp = $eip $T0 4 + ^ = $ebp $T0 ^ = $esp $T0 8 + = $L $T0 .cbSavedRegs - = $P $T0 8 + .cbParams + = $ebx $T0 520 - ^ =
STACK WIN 4 101bb 3e 4 0 14 8 204 0 1 $T0 $ebp = $eip $T0 4 + ^ = $ebp $T0 ^ = $esp $T0 8 + = $L $T0 .cbSavedRegs - = $P $T0 8 + .cbParams + = $ebx $T0 520 - ^ =
STACK WIN 4 101bf 39 0 0 14 c 204 0 1 $T0 $ebp = $eip $T0 4 + ^ = $ebp $T0 ^ = $esp $T0 8 + = $L $T0 .cbSavedRegs - = $P $T0 8 + .cbParams + = $ebx $T0 520 - ^ =
STACK WIN 4 10203 4d 3 0 c 0 0 0 1 $T0 $ebp = $eip $T0 4 + ^ = $ebp $T0 ^ = $esp $T0 8 + = $L $T0 .cbSavedRegs - = $P $T0 8 + .cbParams + =
STACK WIN 4 10250 2e 0 0 4 0 0 0 1 $T2 $esp .cbLocals + .cbSavedRegs + = $T0 .raSearchStart = $eip $T0 ^ = $esp $T0 4 + =
STACK WIN 4 1027e 43 0 0 8 0 0 0 1 $T2 $esp .cbLocals + .cbSavedRegs + = $T0 .raSearchStart = $eip $T0 ^ = $esp $T0 4 + =
STACK WIN 4 102c1 2b 0 0 c 0 0 0 1 $T2 $esp .cbLocals + .cbSavedRegs + = $T0 .raSearchStart = $eip $T0 ^ = $esp $T0 4 + =
STACK WIN 4 102ec 50 7 0 8 0 0 0 1 $T2 $esp .cbLocals + .cbSavedRegs + = $T0 .raSearchStart = $eip $T0 ^ = $esp $T0 4 + =
STACK WIN 4 102f1 48 2 0 8 4 0 0 1 $T2 $esp .cbLocals + .cbSavedRegs + = $T0 .raSearchStart = $eip $T0 ^ = $esp $T0 4 + =
STACK WIN 4 1033c 3d 0 0 8 0 0 0 1 $T2 $esp .cbLocals + .cbSavedRegs + = $T0 .raSearchStart = $eip $T0 ^ = $esp $T0 4 + =
STACK WIN 4 10379 53 8 0 c 0 0 0 1 $T2 $esp .cbLocals + .cbSavedRegs + = $T0 .raSearchStart = $eip $T0 ^ = $esp $T0 4 + =
STACK WIN 4 1037f 4a 2 0 c 4 0 0 1 $T2 $esp .cbLocals + .cbSavedRegs + = $T0 .raSearchStart = $eip $T0 ^ = $esp $T0 4 + =
STACK WIN 4 103cc 6f 4 0 c 0 0 0 1 $T2 $esp .cbLocals + .cbSavedRegs + = $T0 .raSearchStart = $eip $T0 ^ = $esp $T0 4 + =
STACK WIN 4 103cd 6b 3 0 c 4 0 0 1 $T2 $esp .cbLocals + .cbSavedRegs + = $T0 .raSearchStart = $eip $T0 ^ = $esp $T0 4 + =
STACK WIN 4 103ce 69 2 0 c 8 0 0 1 $T2 $esp .cbLocals + .cbSavedRegs + = $T0 .raSearchStart = $eip $T0 ^ = $esp $T0 4 + =
STACK WIN 4 1043b 7d a 0 10 0 0 0 1 $T0 $ebp = $eip $T0 4 + ^ = $ebp $T0 ^ = $esp $T0 8 + = $L $T0 .cbSavedRegs - = $P $T0 8 + .cbParams + =
STACK WIN 4 10443 71 2 0 10 4 0 0 1 $T0 $ebp = $eip $T0 4 + ^ = $ebp $T0 ^ = $esp $T0 8 + = $L $T0 .cbSavedRegs - = $P $T0 8 + .cbParams + =
STACK WIN 4 104b8 bf 11 0 14 0 0 0 1 $T0 $ebp = $eip $T0 4 + ^ = $ebp $T0 ^ = $esp $T0 8 + = $L $T0 .cbSavedRegs - = $P $T0 8 + .cbParams + =
STACK WIN 4 104bf 99 a 0 14 4 0 0 1 $T0 $ebp = $eip $T0 4 + ^ = $ebp $T0 ^ = $esp $T0 8 + = $L $T0 .cbSavedRegs - = $P $T0 8 + .cbParams + = $ebx $T0 4 - ^ =
STACK WIN 4 104c0 97 9 0 14 8 0 0 1 $T0 $ebp = $eip $T0 4 + ^ = $ebp $T0 ^ = $esp $T0 8 + = $L $T0 .cbSavedRegs - = $P $T0 8 + .cbParams + = $ebx $T0 4 - ^ =
STACK WIN 4 104c7 8f 2 0 14 c 0 0 1 $T0 $ebp = $eip $T0 4 + ^ = $ebp $T0 ^ = $esp $T0 8 + = $L $T0 .cbSavedRegs - = $P $T0 8 + .cbParams + = $ebx $T0 4 - ^ =
STACK WIN 4 10577 96 c 0 14 0 0 0 1 $T0 $ebp = $eip $T0 4 + ^ = $ebp $T0 ^ = $esp $T0 8 + = $L $T0 .cbSavedRegs - = $P $T0 8 + .cbParams + =
STACK WIN 4 1057b 8e 8 0 14 4 0 0 1 $T0 $ebp = $eip $T0 4 + ^ = $ebp $T0 ^ = $esp $T0 8 + = $L $T0 .cbSavedRegs - = $P $T0 8 + .cbParams + = $ebx $T0 4 - ^ =
STACK WIN 4 1057c 8c 7 0 14 8 0 0 1 $T0 $ebp = $eip $T0 4 + ^ = $ebp $T0 ^ = $esp $T0 8 + = $L $T0 .cbSavedRegs - = $P $T0 8 + .cbParams + = $ebx $T0 4 - ^ =
STACK WIN 4 10584 83 0 0 14 c 0 0 1 $T0 $ebp = $eip $T0 4 + ^ = $ebp $T0 ^ = $esp $T0 8 + = $L $T0 .cbSavedRegs - = $P $T0 8 + .cbParams + = $ebx $T0 4 - ^ =
STACK WIN 4 1060d 8a d 0 c 0 0 0 1 $T0 $ebp = $eip $T0 4 + ^ = $ebp $T0 ^ = $esp $T0 8 + = $L $T0 .cbSavedRegs - = $P $T0 8 + .cbParams + =
STACK WIN 4 10611 82 9 0 c 4 0 0 1 $T0 $ebp = $eip $T0 4 + ^ = $ebp $T0 ^ = $esp $T0 8 + = $L $T0 .cbSavedRegs - = $P $T0 8 + .cbParams + = $ebx $T0 4 - ^ =
STACK WIN 4 10612 80 8 0 c 8 0 0 1 $T0 $ebp = $eip $T0 4 + ^ = $ebp $T0 ^ = $esp $T0 8 + = $L $T0 .cbSavedRegs - = $P $T0 8 + .cbParams + = $ebx $T0 4 - ^ =
STACK WIN 4 10613 7e 7 0 c c 0 0 1 $T0 $ebp = $eip $T0 4 + ^ = $ebp $T0 ^ = $esp $T0 8 + = $L $T0 .cbSavedRegs - = $P $T0 8 + .cbParams + = $ebx $T0 4 - ^ =
STACK WIN 4 10697 2d 0 0 8 0 0 0 1 $T2 $esp .cbLocals + .cbSavedRegs + = $T0 .raSearchStart = $eip $T0 ^ = $esp $T0 4 + =
STACK WIN 4 106c4 4 0 0 0 0 0 0 1 $T2 $esp .cbLocals + .cbSavedRegs + = $T0 .raSearchStart = $eip $T0 ^ = $esp $T0 4 + =
STACK WIN 4 106c8 1d 0 0 0 0 0 0 1 $T2 $esp .cbLocals + .cbSavedRegs + = $T0 .raSearchStart = $eip $T0 ^ = $esp $T0 4 + =
STACK WIN 4 106e5 1c 0 0 0 0 0 0 1 $T2 $esp .cbLocals + .cbSavedRegs + = $T0 .raSearchStart = $eip $T0 ^ = $esp $T0 4 + =
STACK WIN 4 10701 47 0 0 0 0 0 0 1 $T2 $esp .cbLocals + .cbSavedRegs + = $T0 .raSearchStart = $eip $T0 ^ = $esp $T0 4 + =
STACK WIN 4 1072a 6 0 0 0 4 0 0 1 $T2 $esp .cbLocals + .cbSavedRegs + = $T0 .raSearchStart = $eip $T0 ^ = $esp $T0 4 + =
STACK WIN 4 10748 22 0 0 0 0 0 0 1 $T2 $esp .cbLocals + .cbSavedRegs + = $T0 .raSearchStart = $eip $T0 ^ = $esp $T0 4 + =
STACK WIN 4 1076a d 0 0 0 0 0 0 1 $T2 $esp .cbLocals + .cbSavedRegs + = $T0 .raSearchStart = $eip $T0 ^ = $esp $T0 4 + =
STACK WIN 4 10777 34 3 0 0 0 0 0 1 $T2 $esp .cbLocals + .cbSavedRegs + = $T0 .raSearchStart = $eip $T0 ^ = $esp $T0 4 + =
STACK WIN 4 10778 32 2 0 0 4 0 0 1 $T2 $esp .cbLocals + .cbSavedRegs + = $T0 .raSearchStart = $eip $T0 ^ = $esp $T0 4 + =
STACK WIN 4 107ab 268 16 0 14 0 14 0 1 $T0 $ebp = $eip $T0 4 + ^ = $ebp $T0 ^ = $esp $T0 8 + = $L $T0 .cbSavedRegs - = $P $T0 8 + .cbParams + =
STACK WIN 4 107b6 259 b 0 14 4 14 0 1 $T0 $ebp = $eip $T0 4 + ^ = $ebp $T0 ^ = $esp $T0 8 + = $L $T0 .cbSavedRegs - = $P $T0 8 + .cbParams + = $ebx $T0 24 - ^ =
STACK WIN 4 107ba 254 7 0 14 8 14 0 1 $T0 $ebp = $eip $T0 4 + ^ = $ebp $T0 ^ = $esp $T0 8 + = $L $T0 .cbSavedRegs - = $P $T0 8 + .cbParams + = $ebx $T0 24 - ^ =
STACK WIN 4 107bb 252 6 0 14 c 14 0 1 $T0 $ebp = $eip $T0 4 + ^ = $ebp $T0 ^ = $esp $T0 8 + = $L $T0 .cbSavedRegs - = $P $T0 8 + .cbParams + = $ebx $T0 24 - ^ =
STACK WIN 4 10a13 5d 3 0 4 0 0 0 1 $T2 $esp .cbLocals + .cbSavedRegs + = $T0 .raSearchStart = $eip $T0 ^ = $esp $T0 4 + =
STACK WIN 4 10a14 55 2 0 4 4 0 0 1 $T2 $esp .cbLocals + .cbSavedRegs + = $T0 .raSearchStart = $eip $T0 ^ = $esp $T0 4 + = $ebx $T0 4 - ^ =
STACK WIN 4 10a32 36 0 0 4 8 0 0 1 $T2 $esp .cbLocals + .cbSavedRegs + = $T0 .raSearchStart = $eip $T0 ^ = $esp $T0 4 + = $ebx $T0 4 - ^ =
STACK WIN 4 10a33 34 0 0 4 c 0 0 1 $T2 $esp .cbLocals + .cbSavedRegs + = $T0 .raSearchStart = $eip $T0 ^ = $esp $T0 4 + = $ebx $T0 4 - ^ =
STACK WIN 4 10a70 102 15 0 c 0 c 0 1 $T0 $ebp = $eip $T0 4 + ^ = $ebp $T0 ^ = $esp $T0 8 + = $L $T0 .cbSavedRegs - = $P $T0 8 + .cbParams + =
STACK WIN 4 10a77 f7 e 0 c 4 c 0 1 $T0 $ebp = $eip $T0 4 + ^ = $ebp $T0 ^ = $esp $T0 8 + = $L $T0 .cbSavedRegs - = $P $T0 8 + .cbParams + = $ebx $T0 16 - ^ =
STACK WIN 4 10a78 f5 d 0 c 8 c 0 1 $T0 $ebp = $eip $T0 4 + ^ = $ebp $T0 ^ = $esp $T0 8 + = $L $T0 .cbSavedRegs - = $P $T0 8 + .cbParams + = $ebx $T0 16 - ^ =
STACK WIN 4 10a79 f3 c 0 c c c 0 1 $T0 $ebp = $eip $T0 4 + ^ = $ebp $T0 ^ = $esp $T0 8 + = $L $T0 .cbSavedRegs - = $P $T0 8 + .cbParams + = $ebx $T0 16 - ^ =
STACK WIN 4 10b72 aa 10 0 c 0 34 0 1 $T0 $ebp = $eip $T0 4 + ^ = $ebp $T0 ^ = $esp $T0 8 + = $L $T0 .cbSavedRegs - = $P $T0 8 + .cbParams + =
STACK WIN 4 10b79 9f 9 0 c 4 34 0 1 $T0 $ebp = $eip $T0 4 + ^ = $ebp $T0 ^ = $esp $T0 8 + = $L $T0 .cbSavedRegs - = $P $T0 8 + .cbParams + = $ebx $T0 56 - ^ =
STACK WIN 4 10b7f 98 3 0 c 8 34 0 1 $T0 $ebp = $eip $T0 4 + ^ = $ebp $T0 ^ = $esp $T0 8 + = $L $T0 .cbSavedRegs - = $P $T0 8 + .cbParams + = $ebx $T0 56 - ^ =
STACK WIN 4 10b83 93 0 0 c c 34 0 1 $T0 $ebp = $eip $T0 4 + ^ = $ebp $T0 ^ = $esp $T0 8 + = $L $T0 .cbSavedRegs - = $P $T0 8 + .cbParams + = $ebx $T0 56 - ^ =
STACK WIN 4 10c1c 17 0 0 4 0 0 0 1 $T2 $esp .cbLocals + .cbSavedRegs + = $T0 .raSearchStart = $eip $T0 ^ = $esp $T0 4 + =
STACK WIN 4 10c33 b7 f 0 c 0 8 0 1 $T0 $ebp = $eip $T0 4 + ^ = $ebp $T0 ^ = $esp $T0 8 + = $L $T0 .cbSavedRegs - = $P $T0 8 + .cbParams + =
STACK WIN 4 10c4e 7f 0 0 c 4 8 0 1 $T0 $ebp = $eip $T0 4 + ^ = $ebp $T0 ^ = $esp $T0 8 + = $L $T0 .cbSavedRegs - = $P $T0 8 + .cbParams + = $ebx $T0 12 - ^ =
STACK WIN 4 10c4f 7d 0 0 c 8 8 0 1 $T0 $ebp = $eip $T0 4 + ^ = $ebp $T0 ^ = $esp $T0 8 + = $L $T0 .cbSavedRegs - = $P $T0 8 + .cbParams + = $ebx $T0 12 - ^ =
STACK WIN 4 10c55 76 0 0 c c 8 0 1 $T0 $ebp = $eip $T0 4 + ^ = $ebp $T0 ^ = $esp $T0 8 + = $L $T0 .cbSavedRegs - = $P $T0 8 + .cbParams + = $ebx $T0 12 - ^ =
STACK WIN 4 10cea 23 7 0 4 0 0 0 1 $T2 $esp .cbLocals + .cbSavedRegs + = $T0 .raSearchStart = $eip $T0 ^ = $esp $T0 4 + =
STACK WIN 4 10ceb 1f 6 0 4 4 0 0 1 $T2 $esp .cbLocals + .cbSavedRegs + = $T0 .raSearchStart = $eip $T0 ^ = $esp $T0 4 + =
STACK WIN 4 10d0d 1e5 a 0 10 8 14 0 1 $T0 $ebp = $eip $T0 4 + ^ = $ebp $T0 ^ = $esp $T0 8 + = $L $T0 .cbSavedRegs - = $P $T0 8 + .cbParams + =
STACK WIN 4 10d14 1de 3 0 10 c 14 0 1 $T0 $ebp = $eip $T0 4 + ^ = $ebp $T0 ^ = $esp $T0 8 + = $L $T0 .cbSavedRegs - = $P $T0 8 + .cbParams + = $ebx $T0 24 - ^ =
STACK WIN 4 10ef2 1aa 23 0 10 8 4 0 1 $T0 $ebp = $eip $T0 4 + ^ = $ebp $T0 ^ = $esp $T0 8 + = $L $T0 .cbSavedRegs - = $P $T0 8 + .cbParams + =
STACK WIN 4 10ef7 1a5 1e 0 10 c 4 0 1 $T0 $ebp = $eip $T0 4 + ^ = $ebp $T0 ^ = $esp $T0 8 + = $L $T0 .cbSavedRegs - = $P $T0 8 + .cbParams + = $ebx $T0 8 - ^ =
STACK WIN 4 1109c 3c 0 0 c 0 0 0 1 $T2 $esp .cbLocals + .cbSavedRegs + = $T0 .raSearchStart = $eip $T0 ^ = $esp $T0 4 + =
STACK WIN 4 110d8 56 6 0 c 0 0 0 1 $T0 $ebp = $eip $T0 4 + ^ = $ebp $T0 ^ = $esp $T0 8 + = $L $T0 .cbSavedRegs - = $P $T0 8 + .cbParams + =
STACK WIN 4 110dc 4e 2 0 c 4 0 0 1 $T0 $ebp = $eip $T0 4 + ^ = $ebp $T0 ^ = $esp $T0 8 + = $L $T0 .cbSavedRegs - = $P $T0 8 + .cbParams + =
STACK WIN 4 1112e 61 3 0 8 0 0 0 1 $T2 $esp .cbLocals + .cbSavedRegs + = $T0 .raSearchStart = $eip $T0 ^ = $esp $T0 4 + =
STACK WIN 4 1112f 5d 2 0 8 4 0 0 1 $T2 $esp .cbLocals + .cbSavedRegs + = $T0 .raSearchStart = $eip $T0 ^ = $esp $T0 4 + =
STACK WIN 4 1118f 41 0 0 c 0 0 0 1 $T2 $esp .cbLocals + .cbSavedRegs + = $T0 .raSearchStart = $eip $T0 ^ = $esp $T0 4 + =
STACK WIN 4 111d0 56 0 0 8 0 0 0 1 $T2 $esp .cbLocals + .cbSavedRegs + = $T0 .raSearchStart = $eip $T0 ^ = $esp $T0 4 + =
STACK WIN 4 11226 22 7 0 8 0 0 0 1 $T2 $esp .cbLocals + .cbSavedRegs + = $T0 .raSearchStart = $eip $T0 ^ = $esp $T0 4 + =
STACK WIN 4 11227 1e 6 0 8 4 0 0 1 $T2 $esp .cbLocals + .cbSavedRegs + = $T0 .raSearchStart = $eip $T0 ^ = $esp $T0 4 + =
STACK WIN 4 11248 26 7 0 c 0 0 0 1 $T2 $esp .cbLocals + .cbSavedRegs + = $T0 .raSearchStart = $eip $T0 ^ = $esp $T0 4 + =
STACK WIN 4 11249 22 6 0 c 4 0 0 1 $T2 $esp .cbLocals + .cbSavedRegs + = $T0 .raSearchStart = $eip $T0 ^ = $esp $T0 4 + =
STACK WIN 4 1126e 13 0 0 8 0 0 0 1 $T2 $esp .cbLocals + .cbSavedRegs + = $T0 .raSearchStart = $eip $T0 ^ = $esp $T0 4 + =
STACK WIN 4 11281 3a 4 0 0 0 4 0 1 $T0 $ebp = $eip $T0 4 + ^ = $ebp $T0 ^ = $esp $T0 8 + = $L $T0 .cbSavedRegs - = $P $T0 8 + .cbParams + =
STACK WIN 4 112bb 1ce f 0 c 0 14 0 1 $T0 $ebp = $eip $T0 4 + ^ = $ebp $T0 ^ = $esp $T0 8 + = $L $T0 .cbSavedRegs - = $P $T0 8 + .cbParams + =
STACK WIN 4 112c2 1c3 8 0 c 4 14 0 1 $T0 $ebp = $eip $T0 4 + ^ = $ebp $T0 ^ = $esp $T0 8 + = $L $T0 .cbSavedRegs - = $P $T0 8 + .cbParams + = $ebx $T0 24 - ^ =
STACK WIN 4 112c3 1c1 7 0 c 8 14 0 1 $T0 $ebp = $eip $T0 4 + ^ = $ebp $T0 ^ = $esp $T0 8 + = $L $T0 .cbSavedRegs - = $P $T0 8 + .cbParams + = $ebx $T0 24 - ^ =
STACK WIN 4 112c7 1bc 3 0 c c 14 0 1 $T0 $ebp = $eip $T0 4 + ^ = $ebp $T0 ^ = $esp $T0 8 + = $L $T0 .cbSavedRegs - = $P $T0 8 + .cbParams + = $ebx $T0 24 - ^ =
STACK WIN 4 11489 ae 8 0 8 0 0 0 1 $T0 $ebp = $eip $T0 4 + ^ = $ebp $T0 ^ = $esp $T0 8 + = $L $T0 .cbSavedRegs - = $P $T0 8 + .cbParams + =
STACK WIN 4 1148d a6 4 0 8 4 0 0 1 $T0 $ebp = $eip $T0 4 + ^ = $ebp $T0 ^ = $esp $T0 8 + = $L $T0 .cbSavedRegs - = $P $T0 8 + .cbParams + = $ebx $T0 4 - ^ =
STACK WIN 4 1148e a4 3 0 8 8 0 0 1 $T0 $ebp = $eip $T0 4 + ^ = $ebp $T0 ^ = $esp $T0 8 + = $L $T0 .cbSavedRegs - = $P $T0 8 + .cbParams + = $ebx $T0 4 - ^ =
STACK WIN 4 1148f a2 2 0 8 c 0 0 1 $T0 $ebp = $eip $T0 4 + ^ = $ebp $T0 ^ = $esp $T0 8 + = $L $T0 .cbSavedRegs - = $P $T0 8 + .cbParams + = $ebx $T0 4 - ^ =
STACK WIN 4 11537 3b 1 0 4 0 0 0 1 $T2 $esp .cbLocals + .cbSavedRegs + = $T0 .raSearchStart = $eip $T0 ^ = $esp $T0 4 + =
STACK WIN 4 11538 33 0 0 4 4 0 0 1 $T2 $esp .cbLocals + .cbSavedRegs + = $T0 .raSearchStart = $eip $T0 ^ = $esp $T0 4 + =
