MODULE windows x86 6EC68732DA9740D1B19C098300AF98402 testnativexmlhttprequest.pdb
FUNC 1000 6 4 operator delete(void *)
FUNC 1006 15 4 nsCOMPtr_base::assign_assuming_AddRef(nsISupports *)
FUNC 101b 2c 4 fail(char const *,...)
FUNC 1047 12 4 passed(char const *)
FUNC 1059 19 c ScopedXPCOM::QueryInterface(nsID const &,void * *)
FUNC 1072 6 4 ScopedXPCOM::AddRef()
FUNC 1078 6 4 ScopedXPCOM::Release()
FUNC 107e 19 4 nsCOMPtr<nsIDirectoryServiceProvider>::nsCOMPtr<nsIDirectoryServiceProvider>(nsIDirectoryServiceProvider *)
FUNC 1097 78 0 ScopedXPCOM::~ScopedXPCOM()
FUNC 110f 1b 4 nsCOMPtr<nsIFile>::nsCOMPtr<nsIFile>(nsCOMPtr<nsIFile> const &)
FUNC 112a 1a 4 nsCOMPtr<nsIDirectoryServiceProvider2>::nsCOMPtr<nsIDirectoryServiceProvider2>(nsQueryInterface)
FUNC 1144 54 8 NS_GetSpecialDirectory(char const *,nsIFile * *)
FUNC 1198 ce 0 ScopedXPCOM::GetProfileDirectory()
FUNC 1266 de 10 ScopedXPCOM::GetFile(char const *,bool *,nsIFile * *)
FUNC 1344 41 c ScopedXPCOM::GetFiles(char const *,nsISimpleEnumerator * *)
FUNC 1385 2fe 0 TestNativeXMLHttpRequest()
FUNC 1683 5c 8 ScopedXPCOM::ScopedXPCOM(char const *,nsIDirectoryServiceProvider *)
FUNC 16df 37 8 main
FUNC 1716 16 0 nsCOMPtr<nsIDOMDocument>::StartAssignment()
FUNC 172c 40 c CallGetService(char const *,nsID const &,void * *)
FUNC 176c 43 10 CallCreateInstance(char const *,nsISupports *,nsID const &,void * *)
FUNC 17af 2d 4 nsCreateInstanceByContractID::operator()(nsID const &,void * *)
FUNC 17dc 29 4 nsGetServiceByContractIDWithError::operator()(nsID const &,void * *)
FUNC 1805 1a 4 nsQueryInterface::operator()(nsID const &,void * *)
FUNC 181f d 0 nsCOMPtr_base::~nsCOMPtr_base()
FUNC 182c 1b 0 nsCOMPtr_base::assign_with_AddRef(nsISupports *)
FUNC 1847 2a 4 nsCOMPtr_base::assign_from_qi(nsQueryInterface,nsID const &)
FUNC 1871 2d 4 nsCOMPtr_base::assign_from_gs_contractid_with_error(nsGetServiceByContractIDWithError const &,nsID const &)
FUNC 189e 2e 4 nsCOMPtr_base::assign_from_helper(nsCOMPtr_helper const &,nsID const &)
FUNC 18cc 2c 4 nsID::Equals(nsID const &)
FUNC 18f8 45 8 NS_TableDrivenQI(void *,QITableEntry const *,nsID const &,void * *)
FUNC 193d 25 8 nsAString::BeginReading(wchar_t const * *,wchar_t const * *)
FUNC 1962 52 4 nsAString::EqualsLiteral(char const *)
FUNC 19b4 c 4 NS_IsAscii(wchar_t)
FUNC 19c0 49 0 type_info::`vector deleting destructor'(unsigned int)
FUNC 1a10 4b 0 pre_cpp_init
FUNC 1a5b 176 0 __tmainCRTStartup
FUNC 1bd1 e2 0 pre_c_init
FUNC 1cb3 a 0 mainCRTStartup
FUNC 1cbd f 0 __security_check_cookie
FUNC 1ccc 5e 10 __ArrayUnwind(void *,unsigned int,int,void (*)(void *))
FUNC 1d2a 63 10 `eh vector destructor iterator'(void *,unsigned int,int,void (*)(void *))
FUNC 1d8d 3d 4 __CxxUnhandledExceptionFilter(_EXCEPTION_POINTERS *)
FUNC 1dca e 0 __CxxSetUnhandledExceptionFilter
FUNC 1dde a5 4 _onexit
FUNC 1e83 12 4 atexit
FUNC 1e95 24 0 _RTC_Initialize
FUNC 1eb9 24 0 _RTC_Terminate
FUNC 1ef0 29 4 _ValidateImageBase
FUNC 1f20 42 8 _FindPESection
FUNC 1f70 bb 4 _IsNonwritableInCurrentImage
FUNC 2038 45 0 _SEH_prolog4
FUNC 207d 14 0 _SEH_epilog4
FUNC 2091 23 10 _except_handler4
FUNC 20b4 29 0 _setdefaultprecision
FUNC 20dd 3 4 _setargv
FUNC 20e0 94 0 __security_init_cookie
FUNC 2174 104 0 __report_gsfailure
STACK WIN 4 1000 6 0 0 4 0 0 0 1 $T2 $esp .cbLocals + .cbSavedRegs + = $T0 .raSearchStart = $eip $T0 ^ = $esp $T0 4 + =
STACK WIN 4 1006 15 0 0 4 0 0 0 1 $T2 $esp .cbLocals + .cbSavedRegs + = $T0 .raSearchStart = $eip $T0 ^ = $esp $T0 4 + =
STACK WIN 4 101b 2c 0 0 4 0 0 0 1 $T2 $esp .cbLocals + .cbSavedRegs + = $T0 .raSearchStart = $eip $T0 ^ = $esp $T0 4 + =
STACK WIN 4 1047 12 0 0 4 0 0 0 1 $T2 $esp .cbLocals + .cbSavedRegs + = $T0 .raSearchStart = $eip $T0 ^ = $esp $T0 4 + =
STACK WIN 4 1059 19 0 0 c 0 0 0 1 $T2 $esp .cbLocals + .cbSavedRegs + = $T0 .raSearchStart = $eip $T0 ^ = $esp $T0 4 + =
STACK WIN 4 1072 6 0 0 4 0 0 0 1 $T2 $esp .cbLocals + .cbSavedRegs + = $T0 .raSearchStart = $eip $T0 ^ = $esp $T0 4 + =
STACK WIN 4 1078 6 0 0 4 0 0 0 1 $T2 $esp .cbLocals + .cbSavedRegs + = $T0 .raSearchStart = $eip $T0 ^ = $esp $T0 4 + =
STACK WIN 4 107e 19 9 0 4 0 0 0 1 $T2 $esp .cbLocals + .cbSavedRegs + = $T0 .raSearchStart = $eip $T0 ^ = $esp $T0 4 + =
STACK WIN 4 1085 f 2 0 4 4 0 0 1 $T2 $esp .cbLocals + .cbSavedRegs + = $T0 .raSearchStart = $eip $T0 ^ = $esp $T0 4 + =
STACK WIN 4 1097 78 3 0 0 0 0 0 1 $T2 $esp .cbLocals + .cbSavedRegs + = $T0 .raSearchStart = $eip $T0 ^ = $esp $T0 4 + =
STACK WIN 4 1098 72 2 0 0 4 0 0 1 $T2 $esp .cbLocals + .cbSavedRegs + = $T0 .raSearchStart = $eip $T0 ^ = $esp $T0 4 + =
STACK WIN 4 109b 6b 0 0 0 8 0 0 1 $T2 $esp .cbLocals + .cbSavedRegs + = $T0 .raSearchStart = $eip $T0 ^ = $esp $T0 4 + =
STACK WIN 4 110f 1b b 0 4 0 0 0 1 $T2 $esp .cbLocals + .cbSavedRegs + = $T0 .raSearchStart = $eip $T0 ^ = $esp $T0 4 + =
STACK WIN 4 1118 f 2 0 4 4 0 0 1 $T2 $esp .cbLocals + .cbSavedRegs + = $T0 .raSearchStart = $eip $T0 ^ = $esp $T0 4 + =
STACK WIN 4 112a 1a 7 0 4 0 0 0 1 $T2 $esp .cbLocals + .cbSavedRegs + = $T0 .raSearchStart = $eip $T0 ^ = $esp $T0 4 + =
STACK WIN 4 112b 16 6 0 4 4 0 0 1 $T2 $esp .cbLocals + .cbSavedRegs + = $T0 .raSearchStart = $eip $T0 ^ = $esp $T0 4 + =
STACK WIN 4 1144 54 b 0 8 0 10 0 1 $T0 $ebp = $eip $T0 4 + ^ = $ebp $T0 ^ = $esp $T0 8 + = $L $T0 .cbSavedRegs - = $P $T0 8 + .cbParams + =
STACK WIN 4 114f 2f 0 0 8 4 10 0 1 $T0 $ebp = $eip $T0 4 + ^ = $ebp $T0 ^ = $esp $T0 8 + = $L $T0 .cbSavedRegs - = $P $T0 8 + .cbParams + =
STACK WIN 4 1198 ce 9 0 4 0 14 0 1 $T0 $ebp = $eip $T0 4 + ^ = $ebp $T0 ^ = $esp $T0 8 + = $L $T0 .cbSavedRegs - = $P $T0 8 + .cbParams + =
STACK WIN 4 119f c3 2 0 4 4 14 0 1 $T0 $ebp = $eip $T0 4 + ^ = $ebp $T0 ^ = $esp $T0 8 + = $L $T0 .cbSavedRegs - = $P $T0 8 + .cbParams + = $ebx $T0 24 - ^ =
STACK WIN 4 11a0 c1 1 0 4 8 14 0 1 $T0 $ebp = $eip $T0 4 + ^ = $ebp $T0 ^ = $esp $T0 8 + = $L $T0 .cbSavedRegs - = $P $T0 8 + .cbParams + = $ebx $T0 24 - ^ =
STACK WIN 4 11a1 bd 0 0 4 c 14 0 1 $T0 $ebp = $eip $T0 4 + ^ = $ebp $T0 ^ = $esp $T0 8 + = $L $T0 .cbSavedRegs - = $P $T0 8 + .cbParams + = $ebx $T0 24 - ^ =
STACK WIN 4 1266 de a 0 10 0 4 0 1 $T0 $ebp = $eip $T0 4 + ^ = $ebp $T0 ^ = $esp $T0 8 + = $L $T0 .cbSavedRegs - = $P $T0 8 + .cbParams + =
STACK WIN 4 126b d5 5 0 10 4 4 0 1 $T0 $ebp = $eip $T0 4 + ^ = $ebp $T0 ^ = $esp $T0 8 + = $L $T0 .cbSavedRegs - = $P $T0 8 + .cbParams + = $ebx $T0 8 - ^ =
STACK WIN 4 126f d0 1 0 10 8 4 0 1 $T0 $ebp = $eip $T0 4 + ^ = $ebp $T0 ^ = $esp $T0 8 + = $L $T0 .cbSavedRegs - = $P $T0 8 + .cbParams + = $ebx $T0 8 - ^ =
STACK WIN 4 1270 ce 0 0 10 c 4 0 1 $T0 $ebp = $eip $T0 4 + ^ = $ebp $T0 ^ = $esp $T0 8 + = $L $T0 .cbSavedRegs - = $P $T0 8 + .cbParams + = $ebx $T0 8 - ^ =
STACK WIN 4 1344 41 7 0 c 0 0 0 1 $T0 $ebp = $eip $T0 4 + ^ = $ebp $T0 ^ = $esp $T0 8 + = $L $T0 .cbSavedRegs - = $P $T0 8 + .cbParams + =
STACK WIN 4 134b 2f 0 0 c 4 0 0 1 $T0 $ebp = $eip $T0 4 + ^ = $ebp $T0 ^ = $esp $T0 8 + = $L $T0 .cbSavedRegs - = $P $T0 8 + .cbParams + =
STACK WIN 4 1385 2fe 8 0 0 0 54 0 1 $T0 $ebp = $eip $T0 4 + ^ = $ebp $T0 ^ = $esp $T0 8 + = $L $T0 .cbSavedRegs - = $P $T0 8 + .cbParams + =
STACK WIN 4 138c 288 1 0 0 4 54 0 1 $T0 $ebp = $eip $T0 4 + ^ = $ebp $T0 ^ = $esp $T0 8 + = $L $T0 .cbSavedRegs - = $P $T0 8 + .cbParams + = $ebx $T0 88 - ^ =
STACK WIN 4 138d 286 0 0 0 8 54 0 1 $T0 $ebp = $eip $T0 4 + ^ = $ebp $T0 ^ = $esp $T0 8 + = $L $T0 .cbSavedRegs - = $P $T0 8 + .cbParams + = $ebx $T0 88 - ^ =
STACK WIN 4 13e1 231 0 0 0 c 54 0 1 $T0 $ebp = $eip $T0 4 + ^ = $ebp $T0 ^ = $esp $T0 8 + = $L $T0 .cbSavedRegs - = $P $T0 8 + .cbParams + = $ebx $T0 88 - ^ =
STACK WIN 4 1683 5c 3 0 8 0 0 0 1 $T2 $esp .cbLocals + .cbSavedRegs + = $T0 .raSearchStart = $eip $T0 ^ = $esp $T0 4 + =
STACK WIN 4 1684 58 2 0 8 4 0 0 1 $T2 $esp .cbLocals + .cbSavedRegs + = $T0 .raSearchStart = $eip $T0 ^ = $esp $T0 4 + =
STACK WIN 4 1687 52 0 0 8 8 0 0 1 $T2 $esp .cbLocals + .cbSavedRegs + = $T0 .raSearchStart = $eip $T0 ^ = $esp $T0 4 + =
STACK WIN 4 16df 37 7 0 8 0 18 0 1 $T0 $ebp = $eip $T0 4 + ^ = $ebp $T0 ^ = $esp $T0 8 + = $L $T0 .cbSavedRegs - = $P $T0 8 + .cbParams + =
STACK WIN 4 16e6 23 0 0 8 4 18 0 1 $T0 $ebp = $eip $T0 4 + ^ = $ebp $T0 ^ = $esp $T0 8 + = $L $T0 .cbSavedRegs - = $P $T0 8 + .cbParams + =
STACK WIN 4 1716 16 3 0 0 0 0 0 1 $T2 $esp .cbLocals + .cbSavedRegs + = $T0 .raSearchStart = $eip $T0 ^ = $esp $T0 4 + =
STACK WIN 4 1717 14 2 0 0 4 0 0 1 $T2 $esp .cbLocals + .cbSavedRegs + = $T0 .raSearchStart = $eip $T0 ^ = $esp $T0 4 + =
STACK WIN 4 172c 40 9 0 c 0 4 0 1 $T0 $ebp = $eip $T0 4 + ^ = $ebp $T0 ^ = $esp $T0 8 + = $L $T0 .cbSavedRegs - = $P $T0 8 + .cbParams + =
STACK WIN 4 1735 35 0 0 c 4 4 0 1 $T0 $ebp = $eip $T0 4 + ^ = $ebp $T0 ^ = $esp $T0 8 + = $L $T0 .cbSavedRegs - = $P $T0 8 + .cbParams + =
STACK WIN 4 176c 43 9 0 10 0 4 0 1 $T0 $ebp = $eip $T0 4 + ^ = $ebp $T0 ^ = $esp $T0 8 + = $L $T0 .cbSavedRegs - = $P $T0 8 + .cbParams + =
STACK WIN 4 1775 38 0 0 10 4 4 0 1 $T0 $ebp = $eip $T0 4 + ^ = $ebp $T0 ^ = $esp $T0 8 + = $L $T0 .cbSavedRegs - = $P $T0 8 + .cbParams + =
STACK WIN 4 17af 2d 9 0 4 0 0 0 1 $T2 $esp .cbLocals + .cbSavedRegs + = $T0 .raSearchStart = $eip $T0 ^ = $esp $T0 4 + =
STACK WIN 4 17b0 29 8 0 4 4 0 0 1 $T2 $esp .cbLocals + .cbSavedRegs + = $T0 .raSearchStart = $eip $T0 ^ = $esp $T0 4 + =
STACK WIN 4 17b1 27 7 0 4 8 0 0 1 $T2 $esp .cbLocals + .cbSavedRegs + = $T0 .raSearchStart = $eip $T0 ^ = $esp $T0 4 + =
STACK WIN 4 17dc 29 9 0 4 0 0 0 1 $T2 $esp .cbLocals + .cbSavedRegs + = $T0 .raSearchStart = $eip $T0 ^ = $esp $T0 4 + =
STACK WIN 4 17dd 25 8 0 4 4 0 0 1 $T2 $esp .cbLocals + .cbSavedRegs + = $T0 .raSearchStart = $eip $T0 ^ = $esp $T0 4 + =
STACK WIN 4 17de 23 7 0 4 8 0 0 1 $T2 $esp .cbLocals + .cbSavedRegs + = $T0 .raSearchStart = $eip $T0 ^ = $esp $T0 4 + =
STACK WIN 4 1805 1a 0 0 4 0 0 0 1 $T2 $esp .cbLocals + .cbSavedRegs + = $T0 .raSearchStart = $eip $T0 ^ = $esp $T0 4 + =
STACK WIN 4 181f d 0 0 0 0 0 0 1 $T2 $esp .cbLocals + .cbSavedRegs + = $T0 .raSearchStart = $eip $T0 ^ = $esp $T0 4 + =
STACK WIN 4 182c 1b 8 0 0 0 0 0 1 $T2 $esp .cbLocals + .cbSavedRegs + = $T0 .raSearchStart = $eip $T0 ^ = $esp $T0 4 + =
STACK WIN 4 182d 19 7 0 0 4 0 0 1 $T2 $esp .cbLocals + .cbSavedRegs + = $T0 .raSearchStart = $eip $T0 ^ = $esp $T0 4 + =
STACK WIN 4 1832 13 2 0 0 8 0 0 1 $T2 $esp .cbLocals + .cbSavedRegs + = $T0 .raSearchStart = $eip $T0 ^ = $esp $T0 4 + =
STACK WIN 4 1847 2a a 0 4 0 4 0 1 $T0 $ebp = $eip $T0 4 + ^ = $ebp $T0 ^ = $esp $T0 8 + = $L $T0 .cbSavedRegs - = $P $T0 8 + .cbParams + =
STACK WIN 4 184c 21 5 0 4 4 4 0 1 $T0 $ebp = $eip $T0 4 + ^ = $ebp $T0 ^ = $esp $T0 8 + = $L $T0 .cbSavedRegs - = $P $T0 8 + .cbParams + =
STACK WIN 4 1871 2d 6 0 4 0 0 0 1 $T0 $ebp = $eip $T0 4 + ^ = $ebp $T0 ^ = $esp $T0 8 + = $L $T0 .cbSavedRegs - = $P $T0 8 + .cbParams + =
STACK WIN 4 1875 25 2 0 4 4 0 0 1 $T0 $ebp = $eip $T0 4 + ^ = $ebp $T0 ^ = $esp $T0 8 + = $L $T0 .cbSavedRegs - = $P $T0 8 + .cbParams + =
STACK WIN 4 189e 2e 6 0 4 0 0 0 1 $T0 $ebp = $eip $T0 4 + ^ = $ebp $T0 ^ = $esp $T0 8 + = $L $T0 .cbSavedRegs - = $P $T0 8 + .cbParams + =
STACK WIN 4 18a2 26 2 0 4 4 0 0 1 $T0 $ebp = $eip $T0 4 + ^ = $ebp $T0 ^ = $esp $T0 8 + = $L $T0 .cbSavedRegs - = $P $T0 8 + .cbParams + =
STACK WIN 4 18a5 22 0 0 4 8 0 0 1 $T0 $ebp = $eip $T0 4 + ^ = $ebp $T0 ^ = $esp $T0 8 + = $L $T0 .cbSavedRegs - = $P $T0 8 + .cbParams + =
STACK WIN 4 18cc 2c 0 0 4 0 0 0 1 $T2 $esp .cbLocals + .cbSavedRegs + = $T0 .raSearchStart = $eip $T0 ^ = $esp $T0 4 + =
STACK WIN 4 18f8 45 6 0 8 0 0 0 1 $T2 $esp .cbLocals + .cbSavedRegs + = $T0 .raSearchStart = $eip $T0 ^ = $esp $T0 4 + =
STACK WIN 4 18f9 2c 5 0 8 4 0 0 1 $T2 $esp .cbLocals + .cbSavedRegs + = $T0 .raSearchStart = $eip $T0 ^ = $esp $T0 4 + =
STACK WIN 4 18fa 2a 4 0 8 8 0 0 1 $T2 $esp .cbLocals + .cbSavedRegs + = $T0 .raSearchStart = $eip $T0 ^ = $esp $T0 4 + =
STACK WIN 4 193d 25 1 0 8 0 0 0 1 $T2 $esp .cbLocals + .cbSavedRegs + = $T0 .raSearchStart = $eip $T0 ^ = $esp $T0 4 + =
STACK WIN 4 193e 21 0 0 8 4 0 0 1 $T2 $esp .cbLocals + .cbSavedRegs + = $T0 .raSearchStart = $eip $T0 ^ = $esp $T0 4 + =
STACK WIN 4 1962 52 6 0 4 0 8 0 1 $T0 $ebp = $eip $T0 4 + ^ = $ebp $T0 ^ = $esp $T0 8 + = $L $T0 .cbSavedRegs - = $P $T0 8 + .cbParams + =
STACK WIN 4 1968 44 0 0 4 4 8 0 1 $T0 $ebp = $eip $T0 4 + ^ = $ebp $T0 ^ = $esp $T0 8 + = $L $T0 .cbSavedRegs - = $P $T0 8 + .cbParams + =
STACK WIN 4 19b4 c 0 0 4 0 0 0 1 $T2 $esp .cbLocals + .cbSavedRegs + = $T0 .raSearchStart = $eip $T0 ^ = $esp $T0 4 + =
STACK WIN 4 19c0 49 b 0 4 0 0 0 1 $T2 $esp .cbLocals + .cbSavedRegs + = $T0 .raSearchStart = $eip $T0 ^ = $esp $T0 4 + =
STACK WIN 4 19c1 45 a 0 4 4 0 0 1 $T2 $esp .cbLocals + .cbSavedRegs + = $T0 .raSearchStart = $eip $T0 ^ = $esp $T0 4 + = $ebx $T0 4 - ^ =
STACK WIN 4 19c9 3c 2 0 4 8 0 0 1 $T2 $esp .cbLocals + .cbSavedRegs + = $T0 .raSearchStart = $eip $T0 ^ = $esp $T0 4 + = $ebx $T0 4 - ^ =
STACK WIN 4 19ce 21 0 0 4 c 0 0 1 $T2 $esp .cbLocals + .cbSavedRegs + = $T0 .raSearchStart = $eip $T0 ^ = $esp $T0 4 + = $ebx $T0 4 - ^ =
STACK WIN 4 1a10 4b 0 0 0 0 0 0 1 $T2 $esp .cbLocals + .cbSavedRegs + = $T0 .raSearchStart = $eip $T0 ^ = $esp $T0 4 + =
STACK WIN 4 1a5b 176 c 0 0 c 20 0 1 $T0 $ebp = $eip $T0 4 + ^ = $ebp $T0 ^ = $esp $T0 8 + = $L $T0 .cbSavedRegs - = $P $T0 8 + .cbParams + =
STACK WIN 4 1b81 14 0 0 0 c 20 0 1 $T0 $ebp = $T2 $esp = $T1 .raSearchStart = $eip $T1 ^ = $ebp $T0 = $esp $T1 4 + = $L $T0 .cbSavedRegs - = $P $T1 4 + .cbParams + =
STACK WIN 4 1bd1 e2 0 0 0 0 0 0 1 $T2 $esp .cbLocals + .cbSavedRegs + = $T0 .raSearchStart = $eip $T0 ^ = $esp $T0 4 + =
STACK WIN 4 1cb3 a 0 0 0 0 0 0 1 $T2 $esp .cbLocals + .cbSavedRegs + = $T0 .raSearchStart = $eip $T0 ^ = $esp $T0 4 + =
STACK WIN 4 1cbd f 0 0 0 0 0 0 1 $T2 $esp .cbLocals + .cbSavedRegs + = $T0 .raSearchStart = $eip $T0 ^ = $esp $T0 4 + =
STACK WIN 4 1ccc 5e c 0 10 c 24 0 1 $T0 $ebp = $eip $T0 4 + ^ = $ebp $T0 ^ = $esp $T0 8 + = $L $T0 .cbSavedRegs - = $P $T0 8 + .cbParams + =
STACK WIN 4 1cef 23 0 0 10 c 24 0 1 $T0 $ebp = $T2 $esp = $T1 .raSearchStart = $eip $T1 ^ = $ebp $T0 = $esp $T1 4 + = $L $T0 .cbSavedRegs - = $P $T1 4 + .cbParams + =
STACK WIN 4 1d2a 63 c 0 10 c 1c 0 1 $T0 $ebp = $eip $T0 4 + ^ = $ebp $T0 ^ = $esp $T0 8 + = $L $T0 .cbSavedRegs - = $P $T0 8 + .cbParams + =
STACK WIN 4 1d75 17 0 0 10 c 1c 0 1 $T0 $ebp = $T2 $esp = $T1 .raSearchStart = $eip $T1 ^ = $ebp $T0 = $esp $T1 4 + = $L $T0 .cbSavedRegs - = $P $T1 4 + .cbParams + =
STACK WIN 4 1d8d 3d 0 0 4 0 0 0 1 $T2 $esp .cbLocals + .cbSavedRegs + = $T0 .raSearchStart = $eip $T0 ^ = $esp $T0 4 + =
STACK WIN 4 1dca e 0 0 0 0 0 0 1 $T2 $esp .cbLocals + .cbSavedRegs + = $T0 .raSearchStart = $eip $T0 ^ = $esp $T0 4 + =
STACK WIN 4 1dde a5 c 0 4 c 24 0 1 $T0 $ebp = $eip $T0 4 + ^ = $ebp $T0 ^ = $esp $T0 8 + = $L $T0 .cbSavedRegs - = $P $T0 8 + .cbParams + =
STACK WIN 4 1e7a 8 0 0 4 c 24 0 1 $T0 $ebp = $T2 $esp = $T1 .raSearchStart = $eip $T1 ^ = $ebp $T0 = $esp $T1 4 + = $L $T0 .cbSavedRegs - = $P $T1 4 + .cbParams + =
STACK WIN 4 1e83 12 0 0 4 0 0 0 1 $T2 $esp .cbLocals + .cbSavedRegs + = $T0 .raSearchStart = $eip $T0 ^ = $esp $T0 4 + =
STACK WIN 4 1e95 24 2 0 0 0 0 0 1 $T2 $esp .cbLocals + .cbSavedRegs + = $T0 .raSearchStart = $eip $T0 ^ = $esp $T0 4 + =
STACK WIN 4 1e96 22 1 0 0 4 0 0 1 $T2 $esp .cbLocals + .cbSavedRegs + = $T0 .raSearchStart = $eip $T0 ^ = $esp $T0 4 + =
STACK WIN 4 1e97 20 0 0 0 8 0 0 1 $T2 $esp .cbLocals + .cbSavedRegs + = $T0 .raSearchStart = $eip $T0 ^ = $esp $T0 4 + =
STACK WIN 4 1eb9 24 2 0 0 0 0 0 1 $T2 $esp .cbLocals + .cbSavedRegs + = $T0 .raSearchStart = $eip $T0 ^ = $esp $T0 4 + =
STACK WIN 4 1eba 22 1 0 0 4 0 0 1 $T2 $esp .cbLocals + .cbSavedRegs + = $T0 .raSearchStart = $eip $T0 ^ = $esp $T0 4 + =
STACK WIN 4 1ebb 20 0 0 0 8 0 0 1 $T2 $esp .cbLocals + .cbSavedRegs + = $T0 .raSearchStart = $eip $T0 ^ = $esp $T0 4 + =
STACK WIN 4 1ef0 29 0 0 4 0 0 0 1 $T2 $esp .cbLocals + .cbSavedRegs + = $T0 .raSearchStart = $eip $T0 ^ = $esp $T0 4 + =
STACK WIN 4 1f20 42 18 0 8 0 0 0 1 $T2 $esp .cbLocals + .cbSavedRegs + = $T0 .raSearchStart = $eip $T0 ^ = $esp $T0 4 + =
STACK WIN 4 1f2e 33 a 0 8 4 0 0 1 $T2 $esp .cbLocals + .cbSavedRegs + = $T0 .raSearchStart = $eip $T0 ^ = $esp $T0 4 + = $ebx $T0 4 - ^ =
STACK WIN 4 1f2f 31 9 0 8 8 0 0 1 $T2 $esp .cbLocals + .cbSavedRegs + = $T0 .raSearchStart = $eip $T0 ^ = $esp $T0 4 + = $ebx $T0 4 - ^ =
STACK WIN 4 1f38 27 0 0 8 c 0 0 1 $T2 $esp .cbLocals + .cbSavedRegs + = $T0 .raSearchStart = $eip $T0 ^ = $esp $T0 4 + = $ebx $T0 4 - ^ =
STACK WIN 4 1f70 bb 33 0 4 c 18 0 1 $T0 $ebp = $eip $T0 4 + ^ = $ebp $T0 ^ = $esp $T0 8 + = $L $T0 .cbSavedRegs - = $P $T0 8 + .cbParams + =
STACK WIN 4 1f8a a1 19 0 4 10 18 0 1 $T0 $ebp = $eip $T0 4 + ^ = $ebp $T0 ^ = $esp $T0 8 + = $L $T0 .cbSavedRegs - = $P $T0 8 + .cbParams + = $ebx $T0 28 - ^ =
STACK WIN 4 1ff9 14 0 0 4 c 18 0 1 $T0 $ebp = $T2 $esp = $T1 .raSearchStart = $eip $T1 ^ = $ebp $T0 = $esp $T1 4 + = $L $T0 .cbSavedRegs - = $P $T1 4 + .cbParams + = $ebx $T0 28 - ^ =
STACK WIN 4 2091 23 0 0 10 0 0 0 1 $T2 $esp .cbLocals + .cbSavedRegs + = $T0 .raSearchStart = $eip $T0 ^ = $esp $T0 4 + =
STACK WIN 4 20b4 29 1 0 0 0 0 0 1 $T2 $esp .cbLocals + .cbSavedRegs + = $T0 .raSearchStart = $eip $T0 ^ = $esp $T0 4 + =
STACK WIN 4 20b5 27 0 0 0 4 0 0 1 $T2 $esp .cbLocals + .cbSavedRegs + = $T0 .raSearchStart = $eip $T0 ^ = $esp $T0 4 + =
STACK WIN 4 20dd 3 0 0 4 0 0 0 1 $T2 $esp .cbLocals + .cbSavedRegs + = $T0 .raSearchStart = $eip $T0 ^ = $esp $T0 4 + =
STACK WIN 4 20e0 94 15 0 0 0 10 0 1 $T0 $ebp = $eip $T0 4 + ^ = $ebp $T0 ^ = $esp $T0 8 + = $L $T0 .cbSavedRegs - = $P $T0 8 + .cbParams + =
STACK WIN 4 20f4 7e 1 0 0 4 10 0 1 $T0 $ebp = $eip $T0 4 + ^ = $ebp $T0 ^ = $esp $T0 8 + = $L $T0 .cbSavedRegs - = $P $T0 8 + .cbParams + = $ebx $T0 20 - ^ =
STACK WIN 4 20f5 7c 0 0 0 8 10 0 1 $T0 $ebp = $eip $T0 4 + ^ = $ebp $T0 ^ = $esp $T0 8 + = $L $T0 .cbSavedRegs - = $P $T0 8 + .cbParams + = $ebx $T0 20 - ^ =
STACK WIN 4 2111 5f 0 0 0 c 10 0 1 $T0 $ebp = $eip $T0 4 + ^ = $ebp $T0 ^ = $esp $T0 8 + = $L $T0 .cbSavedRegs - = $P $T0 8 + .cbParams + = $ebx $T0 20 - ^ =
STACK WIN 4 2174 104 9 0 0 0 328 0 1 $T0 $ebp = $eip $T0 4 + ^ = $ebp $T0 ^ = $esp $T0 8 + = $L $T0 .cbSavedRegs - = $P $T0 8 + .cbParams + =
STACK WIN 0 1b81 14 0 0 0 0 0 0 0 0
STACK WIN 0 1cef 24 0 0 0 0 0 0 0 0
STACK WIN 0 1d75 18 0 0 0 0 0 0 0 0
STACK WIN 0 1e7a 9 0 0 0 0 0 0 0 0
STACK WIN 0 1ff9 14 0 0 0 0 0 0 0 0
