MODULE windows x86 20F578EE357449D89A77B619C5B3DAE91 testcrasher.pdb
FUNC 1000 6 4 operator delete(void *)
FUNC 1006 1c 4 LockDir
FUNC 1022 4e 0 SaveAppMemory
FUNC 1070 16 0 PureVirtualCall()
FUNC 1086 36 4 Crash
FUNC 10bc 79 8 DumpHasStream
FUNC 1135 f5 4 DumpHasInstructionPointerMemory
FUNC 122a 10c 4 DumpCheckMemory
FUNC 1336 4 0 stdext::exception::what()
FUNC 133a 22 0 stdext::exception::_Raise()
FUNC 135c 1 0 stdext::exception::_Doraise()
FUNC 135d 23 4 std::logic_error::logic_error(std::basic_string<char,std::char_traits<char>,std::allocator<char> > const &)
FUNC 1380 1a 0 std::logic_error::~logic_error()
FUNC 139a e 0 std::logic_error::what()
FUNC 13a8 1d 0 std::logic_error::`scalar deleting destructor'(unsigned int)
FUNC 13c5 9 0 std::logic_error::_Doraise()
FUNC 13ce 23 0 std::length_error::`scalar deleting destructor'(unsigned int)
FUNC 13f1 23 0 std::out_of_range::`scalar deleting destructor'(unsigned int)
FUNC 1414 25 4 std::basic_ostream<char,std::char_traits<char> >::_Sentry_base::_Sentry_base(std::basic_ostream<char,std::char_traits<char> > &)
FUNC 1439 19 0 std::basic_ostream<char,std::char_traits<char> >::_Sentry_base::~_Sentry_base()
FUNC 1452 22 8 std::less<unsigned __int64>::operator()(unsigned __int64 const &,unsigned __int64 const &)
FUNC 1474 1e 0 stdext::exception::`scalar deleting destructor'(unsigned int)
FUNC 1492 41 4 std::basic_ostream<char,std::char_traits<char> >::sentry::sentry(std::basic_ostream<char,std::char_traits<char> > &)
FUNC 14d3 fd 8 std::operator<<<std::char_traits<char> >(std::basic_ostream<char,std::char_traits<char> > &,char const *)
FUNC 15d0 f 0 google_breakpad::LogStream::~LogStream()
FUNC 15df 46 4 google_breakpad::HexString(unsigned int)
FUNC 1625 49 8 google_breakpad::HexString(unsigned __int64)
FUNC 166e 46 4 google_breakpad::HexString(int)
FUNC 16b4 23 4 google_breakpad::ErrnoString(std::basic_string<char,std::char_traits<char>,std::allocator<char> > *)
FUNC 16d7 ff 10 google_breakpad::LogStream::LogStream(std::basic_ostream<char,std::char_traits<char> > &,google_breakpad::LogStream::Severity,char const *,int)
FUNC 17d6 1e 0 google_breakpad::MemoryRegion::`scalar deleting destructor'(unsigned int)
FUNC 17f4 1e 0 google_breakpad::MinidumpObject::`vector deleting destructor'(unsigned int)
FUNC 1812 2a 0 google_breakpad::Swap
FUNC 183c 18 0 google_breakpad::Swap
FUNC 1854 12 0 google_breakpad::Swap
FUNC 1866 22 4 google_breakpad::MinidumpContext::MinidumpContext(google_breakpad::Minidump *)
FUNC 1888 10 0 google_breakpad::MinidumpContext::GetContextCPU()
FUNC 1898 3d 0 google_breakpad::MinidumpContext::FreeContext()
FUNC 18d5 35 4 google_breakpad::MinidumpMemoryRegion::SetDescriptor(MDMemoryDescriptor *)
FUNC 190a 32 4 google_breakpad::MinidumpThread::MinidumpThread(google_breakpad::Minidump *)
FUNC 193c 2b 0 google_breakpad::MinidumpThread::~MinidumpThread()
FUNC 1967 1e 0 std::basic_string<char,std::char_traits<char>,std::allocator<char> >::`scalar deleting destructor'(unsigned int)
FUNC 1985 34 4 google_breakpad::MinidumpException::MinidumpException(google_breakpad::Minidump *)
FUNC 19b9 21 0 google_breakpad::MinidumpException::~MinidumpException()
FUNC 19da 32 4 google_breakpad::MinidumpSystemInfo::MinidumpSystemInfo(google_breakpad::Minidump *)
FUNC 1a0c 2d 0 google_breakpad::MinidumpSystemInfo::~MinidumpSystemInfo()
FUNC 1a39 28 4 std::_Tree<std::_Tmap_traits<unsigned int,google_breakpad::Minidump::MinidumpStreamInfo,std::less<unsigned int>,std::allocator<std::pair<unsigned int const ,google_breakpad::Minidump::MinidumpStreamInfo> >,0> >::const_iterator::operator==(std::_Tree<std::_Tmap_traits<unsigned int,google_breakpad::Minidump::MinidumpStreamInfo,std::less<unsigned int>,std::allocator<std::pair<unsigned int const ,google_breakpad::Minidump::MinidumpStreamInfo> >,0> >::const_iterator const &)
FUNC 1a61 16 0 std::vector<google_breakpad::MinidumpThread,std::allocator<google_breakpad::MinidumpThread> >::size()
FUNC 1a77 13 0 std::vector<MDMemoryDescriptor,std::allocator<MDMemoryDescriptor> >::size()
FUNC 1a8a 16 0 std::vector<google_breakpad::MinidumpMemoryRegion,std::allocator<google_breakpad::MinidumpMemoryRegion> >::size()
FUNC 1aa0 16 0 std::vector<MDRawDirectory,std::allocator<MDRawDirectory> >::size()
FUNC 1ab6 48 0 std::vector<google_breakpad::MinidumpThread,std::allocator<google_breakpad::MinidumpThread> >::_Xlen()
FUNC 1afe 44 4 std::_Tree<std::_Tmap_traits<unsigned __int64,google_breakpad::RangeMap<unsigned __int64,unsigned int>::Range,std::less<unsigned __int64>,std::allocator<std::pair<unsigned __int64 const ,google_breakpad::RangeMap<unsigned __int64,unsigned int>::Range> >,0> >::_Rrotate(std::_Tree_nod<std::_Tmap_traits<unsigned __int64,google_breakpad::RangeMap<unsigned __int64,unsigned int>::Range,std::less<unsigned __int64>,std::allocator<std::pair<unsigned __int64 const ,google_breakpad::RangeMap<unsigned __int64,unsigned int>::Range> >,0> >::_Node *)
FUNC 1b42 65 0 std::_Tree<std::_Tmap_traits<unsigned int,google_breakpad::Minidump::MinidumpStreamInfo,std::less<unsigned int>,std::allocator<std::pair<unsigned int const ,google_breakpad::Minidump::MinidumpStreamInfo> >,0> >::const_iterator::_Dec()
FUNC 1ba7 65 0 std::_Tree<std::_Tmap_traits<unsigned int,google_breakpad::MinidumpThread *,std::less<unsigned int>,std::allocator<std::pair<unsigned int const ,google_breakpad::MinidumpThread *> >,0> >::const_iterator::_Dec()
FUNC 1c0c 51 0 std::_Tree<std::_Tmap_traits<unsigned int,google_breakpad::MinidumpThread *,std::less<unsigned int>,std::allocator<std::pair<unsigned int const ,google_breakpad::MinidumpThread *> >,0> >::const_iterator::_Inc()
FUNC 1c5d 32 14 std::_Tree_nod<std::_Tmap_traits<unsigned int,google_breakpad::MinidumpThread *,std::less<unsigned int>,std::allocator<std::pair<unsigned int const ,google_breakpad::MinidumpThread *> >,0> >::_Node::_Node(std::_Tree_nod<std::_Tmap_traits<unsigned int,google_breakpad::MinidumpThread *,std::less<unsigned int>,std::allocator<std::pair<unsigned int const ,google_breakpad::MinidumpThread *> >,0> >::_Node *,std::_Tree_nod<std::_Tmap_traits<unsigned int,google_breakpad::MinidumpThread *,std::less<unsigned int>,std::allocator<std::pair<unsigned int const ,google_breakpad::MinidumpThread *> >,0> >::_Node *,std::_Tree_nod<std::_Tmap_traits<unsigned int,google_breakpad::MinidumpThread *,std::less<unsigned int>,std::allocator<std::pair<unsigned int const ,google_breakpad::MinidumpThread *> >,0> >::_Node *,std::pair<unsigned int const ,google_breakpad::MinidumpThread *> const &,char)
FUNC 1c8f 31 14 std::_Tree_nod<std::_Tmap_traits<unsigned int,google_breakpad::Minidump::MinidumpStreamInfo,std::less<unsigned int>,std::allocator<std::pair<unsigned int const ,google_breakpad::Minidump::MinidumpStreamInfo> >,0> >::_Node::_Node(std::_Tree_nod<std::_Tmap_traits<unsigned int,google_breakpad::Minidump::MinidumpStreamInfo,std::less<unsigned int>,std::allocator<std::pair<unsigned int const ,google_breakpad::Minidump::MinidumpStreamInfo> >,0> >::_Node *,std::_Tree_nod<std::_Tmap_traits<unsigned int,google_breakpad::Minidump::MinidumpStreamInfo,std::less<unsigned int>,std::allocator<std::pair<unsigned int const ,google_breakpad::Minidump::MinidumpStreamInfo> >,0> >::_Node *,std::_Tree_nod<std::_Tmap_traits<unsigned int,google_breakpad::Minidump::MinidumpStreamInfo,std::less<unsigned int>,std::allocator<std::pair<unsigned int const ,google_breakpad::Minidump::MinidumpStreamInfo> >,0> >::_Node *,std::pair<unsigned int const ,google_breakpad::Minidump::MinidumpStreamInfo> const &,char)
FUNC 1cc0 51 0 std::_Tree<std::_Tmap_traits<unsigned __int64,google_breakpad::RangeMap<unsigned __int64,unsigned int>::Range,std::less<unsigned __int64>,std::allocator<std::pair<unsigned __int64 const ,google_breakpad::RangeMap<unsigned __int64,unsigned int>::Range> >,0> >::const_iterator::_Inc()
FUNC 1d11 3b 8 std::_Allocate<unsigned char>(unsigned int,unsigned char *)
FUNC 1d4c 3e 8 std::_Allocate<google_breakpad::MinidumpThread>(unsigned int,google_breakpad::MinidumpThread *)
FUNC 1d8a 3e 8 std::_Allocate<MDMemoryDescriptor>(unsigned int,MDMemoryDescriptor *)
FUNC 1dc8 3e 8 std::_Allocate<google_breakpad::MinidumpMemoryRegion>(unsigned int,google_breakpad::MinidumpMemoryRegion *)
FUNC 1e06 3e 8 std::_Allocate<MDRawDirectory>(unsigned int,MDRawDirectory *)
FUNC 1e44 3e 8 std::_Allocate<std::_Tree_nod<std::_Tmap_traits<unsigned int,google_breakpad::Minidump::MinidumpStreamInfo,std::less<unsigned int>,std::allocator<std::pair<unsigned int const ,google_breakpad::Minidump::MinidumpStreamInfo> >,0> >::_Node>(unsigned int,std::_Tree_nod<std::_Tmap_traits<unsigned int,google_breakpad::Minidump::MinidumpStreamInfo,std::less<unsigned int>,std::allocator<std::pair<unsigned int const ,google_breakpad::Minidump::MinidumpStreamInfo> >,0> >::_Node *)
FUNC 1e82 3e 8 std::_Allocate<std::_Tree_nod<std::_Tmap_traits<unsigned __int64,google_breakpad::RangeMap<unsigned __int64,unsigned int>::Range,std::less<unsigned __int64>,std::allocator<std::pair<unsigned __int64 const ,google_breakpad::RangeMap<unsigned __int64,unsigned int>::Range> >,0> >::_Node>(unsigned int,std::_Tree_nod<std::_Tmap_traits<unsigned __int64,google_breakpad::RangeMap<unsigned __int64,unsigned int>::Range,std::less<unsigned __int64>,std::allocator<std::pair<unsigned __int64 const ,google_breakpad::RangeMap<unsigned __int64,unsigned int>::Range> >,0> >::_Node *)
FUNC 1ec0 65 0 std::_Tree<std::_Tmap_traits<unsigned __int64,google_breakpad::RangeMap<unsigned __int64,unsigned int>::Range,std::less<unsigned __int64>,std::allocator<std::pair<unsigned __int64 const ,google_breakpad::RangeMap<unsigned __int64,unsigned int>::Range> >,0> >::const_iterator::_Dec()
FUNC 1f25 33 14 std::_Tree_nod<std::_Tmap_traits<unsigned __int64,google_breakpad::RangeMap<unsigned __int64,unsigned int>::Range,std::less<unsigned __int64>,std::allocator<std::pair<unsigned __int64 const ,google_breakpad::RangeMap<unsigned __int64,unsigned int>::Range> >,0> >::_Node::_Node(std::_Tree_nod<std::_Tmap_traits<unsigned __int64,google_breakpad::RangeMap<unsigned __int64,unsigned int>::Range,std::less<unsigned __int64>,std::allocator<std::pair<unsigned __int64 const ,google_breakpad::RangeMap<unsigned __int64,unsigned int>::Range> >,0> >::_Node *,std::_Tree_nod<std::_Tmap_traits<unsigned __int64,google_breakpad::RangeMap<unsigned __int64,unsigned int>::Range,std::less<unsigned __int64>,std::allocator<std::pair<unsigned __int64 const ,google_breakpad::RangeMap<unsigned __int64,unsigned int>::Range> >,0> >::_Node *,std::_Tree_nod<std::_Tmap_traits<unsigned __int64,google_breakpad::RangeMap<unsigned __int64,unsigned int>::Range,std::less<unsigned __int64>,std::allocator<std::pair<unsigned __int64 const ,google_breakpad::RangeMap<unsigned __int64,unsigned int>::Range> >,0> >::_Node *,std::pair<unsigned __int64 const ,google_breakpad::RangeMap<unsigned __int64,unsigned int>::Range> const &,char)
FUNC 1f58 15 8 std::_Construct<MDMemoryDescriptor,MDMemoryDescriptor>(MDMemoryDescriptor *,MDMemoryDescriptor const &)
FUNC 1f6d 1f 10 std::_Fill_n<unsigned char *,unsigned int,unsigned char>(unsigned char *,unsigned int,unsigned char const &,std::_Range_checked_iterator_tag)
FUNC 1f8c 16 0 google_breakpad::MinidumpContext::~MinidumpContext()
FUNC 1fa2 2b 4 google_breakpad::MinidumpMemoryRegion::MinidumpMemoryRegion(google_breakpad::Minidump *)
FUNC 1fd5 1d 0 google_breakpad::MinidumpThread::`scalar deleting destructor'(unsigned int)
FUNC 1ff2 1d 0 google_breakpad::MinidumpException::`scalar deleting destructor'(unsigned int)
FUNC 200f 1d 0 google_breakpad::MinidumpSystemInfo::`vector deleting destructor'(unsigned int)
FUNC 202c 26 4 std::vector<unsigned char,std::allocator<unsigned char> >::operator[](unsigned int)
FUNC 2052 22 4 std::vector<google_breakpad::MinidumpThread,std::allocator<google_breakpad::MinidumpThread> >::operator[](unsigned int)
FUNC 2074 22 4 std::vector<MDMemoryDescriptor,std::allocator<MDMemoryDescriptor> >::operator[](unsigned int)
FUNC 2096 22 4 std::vector<google_breakpad::MinidumpMemoryRegion,std::allocator<google_breakpad::MinidumpMemoryRegion> >::operator[](unsigned int)
FUNC 20b8 22 4 std::vector<MDRawDirectory,std::allocator<MDRawDirectory> >::operator[](unsigned int)
FUNC 20da 26 0 std::_Tree<std::_Tmap_traits<unsigned int,google_breakpad::MinidumpThread *,std::less<unsigned int>,std::allocator<std::pair<unsigned int const ,google_breakpad::MinidumpThread *> >,0> >::const_iterator::operator*()
FUNC 2100 51 0 std::_Tree<std::_Tmap_traits<unsigned int,google_breakpad::Minidump::MinidumpStreamInfo,std::less<unsigned int>,std::allocator<std::pair<unsigned int const ,google_breakpad::Minidump::MinidumpStreamInfo> >,0> >::const_iterator::_Inc()
FUNC 2151 29 4 std::_Tree<std::_Tmap_traits<unsigned int,google_breakpad::MinidumpThread *,std::less<unsigned int>,std::allocator<std::pair<unsigned int const ,google_breakpad::MinidumpThread *> >,0> >::_Lbound(unsigned int const &)
FUNC 217a 29 4 std::_Tree<std::_Tmap_traits<unsigned int,google_breakpad::Minidump::MinidumpStreamInfo,std::less<unsigned int>,std::allocator<std::pair<unsigned int const ,google_breakpad::Minidump::MinidumpStreamInfo> >,0> >::_Lbound(unsigned int const &)
FUNC 21a3 42 4 std::_Tree<std::_Tmap_traits<unsigned int,google_breakpad::MinidumpThread *,std::less<unsigned int>,std::allocator<std::pair<unsigned int const ,google_breakpad::MinidumpThread *> >,0> >::_Lrotate(std::_Tree_nod<std::_Tmap_traits<unsigned int,google_breakpad::MinidumpThread *,std::less<unsigned int>,std::allocator<std::pair<unsigned int const ,google_breakpad::MinidumpThread *> >,0> >::_Node *)
FUNC 21e5 44 4 std::_Tree<std::_Tmap_traits<unsigned int,google_breakpad::MinidumpThread *,std::less<unsigned int>,std::allocator<std::pair<unsigned int const ,google_breakpad::MinidumpThread *> >,0> >::_Rrotate(std::_Tree_nod<std::_Tmap_traits<unsigned int,google_breakpad::MinidumpThread *,std::less<unsigned int>,std::allocator<std::pair<unsigned int const ,google_breakpad::MinidumpThread *> >,0> >::_Node *)
FUNC 2229 42 4 std::_Tree<std::_Tmap_traits<unsigned int,google_breakpad::Minidump::MinidumpStreamInfo,std::less<unsigned int>,std::allocator<std::pair<unsigned int const ,google_breakpad::Minidump::MinidumpStreamInfo> >,0> >::_Lrotate(std::_Tree_nod<std::_Tmap_traits<unsigned int,google_breakpad::Minidump::MinidumpStreamInfo,std::less<unsigned int>,std::allocator<std::pair<unsigned int const ,google_breakpad::Minidump::MinidumpStreamInfo> >,0> >::_Node *)
FUNC 226b 44 4 std::_Tree<std::_Tmap_traits<unsigned int,google_breakpad::Minidump::MinidumpStreamInfo,std::less<unsigned int>,std::allocator<std::pair<unsigned int const ,google_breakpad::Minidump::MinidumpStreamInfo> >,0> >::_Rrotate(std::_Tree_nod<std::_Tmap_traits<unsigned int,google_breakpad::Minidump::MinidumpStreamInfo,std::less<unsigned int>,std::allocator<std::pair<unsigned int const ,google_breakpad::Minidump::MinidumpStreamInfo> >,0> >::_Node *)
FUNC 22af 25 8 std::_Tree<std::_Tmap_traits<unsigned __int64,google_breakpad::RangeMap<unsigned __int64,unsigned int>::Range,std::less<unsigned __int64>,std::allocator<std::pair<unsigned __int64 const ,google_breakpad::RangeMap<unsigned __int64,unsigned int>::Range> >,0> >::const_iterator::const_iterator(std::_Tree_nod<std::_Tmap_traits<unsigned __int64,google_breakpad::RangeMap<unsigned __int64,unsigned int>::Range,std::less<unsigned __int64>,std::allocator<std::pair<unsigned __int64 const ,google_breakpad::RangeMap<unsigned __int64,unsigned int>::Range> >,0> >::_Node *,std::_Tree<std::_Tmap_traits<unsigned __int64,google_breakpad::RangeMap<unsigned __int64,unsigned int>::Range,std::less<unsigned __int64>,std::allocator<std::pair<unsigned __int64 const ,google_breakpad::RangeMap<unsigned __int64,unsigned int>::Range> >,0> > const *)
FUNC 22d4 42 4 std::_Tree<std::_Tmap_traits<unsigned __int64,google_breakpad::RangeMap<unsigned __int64,unsigned int>::Range,std::less<unsigned __int64>,std::allocator<std::pair<unsigned __int64 const ,google_breakpad::RangeMap<unsigned __int64,unsigned int>::Range> >,0> >::_Lrotate(std::_Tree_nod<std::_Tmap_traits<unsigned __int64,google_breakpad::RangeMap<unsigned __int64,unsigned int>::Range,std::less<unsigned __int64>,std::allocator<std::pair<unsigned __int64 const ,google_breakpad::RangeMap<unsigned __int64,unsigned int>::Range> >,0> >::_Node *)
FUNC 2316 25 0 std::_Tree_nod<std::_Tmap_traits<unsigned int,google_breakpad::Minidump::MinidumpStreamInfo,std::less<unsigned int>,std::allocator<std::pair<unsigned int const ,google_breakpad::Minidump::MinidumpStreamInfo> >,0> >::_Node::`scalar deleting destructor'(unsigned int)
FUNC 233b 39 4 std::_Tree<std::_Tmap_traits<unsigned __int64,google_breakpad::RangeMap<unsigned __int64,unsigned int>::Range,std::less<unsigned __int64>,std::allocator<std::pair<unsigned __int64 const ,google_breakpad::RangeMap<unsigned __int64,unsigned int>::Range> >,0> >::_Lbound(unsigned __int64 const &)
FUNC 2374 26 0 std::_Tree<std::_Tmap_traits<unsigned __int64,google_breakpad::RangeMap<unsigned __int64,unsigned int>::Range,std::less<unsigned __int64>,std::allocator<std::pair<unsigned __int64 const ,google_breakpad::RangeMap<unsigned __int64,unsigned int>::Range> >,0> >::const_iterator::operator*()
FUNC 239a 32 14 std::_Tree<std::_Tmap_traits<unsigned __int64,google_breakpad::RangeMap<unsigned __int64,unsigned int>::Range,std::less<unsigned __int64>,std::allocator<std::pair<unsigned __int64 const ,google_breakpad::RangeMap<unsigned __int64,unsigned int>::Range> >,0> >::_Buynode(std::_Tree_nod<std::_Tmap_traits<unsigned __int64,google_breakpad::RangeMap<unsigned __int64,unsigned int>::Range,std::less<unsigned __int64>,std::allocator<std::pair<unsigned __int64 const ,google_breakpad::RangeMap<unsigned __int64,unsigned int>::Range> >,0> >::_Node *,std::_Tree_nod<std::_Tmap_traits<unsigned __int64,google_breakpad::RangeMap<unsigned __int64,unsigned int>::Range,std::less<unsigned __int64>,std::allocator<std::pair<unsigned __int64 const ,google_breakpad::RangeMap<unsigned __int64,unsigned int>::Range> >,0> >::_Node *,std::_Tree_nod<std::_Tmap_traits<unsigned __int64,google_breakpad::RangeMap<unsigned __int64,unsigned int>::Range,std::less<unsigned __int64>,std::allocator<std::pair<unsigned __int64 const ,google_breakpad::RangeMap<unsigned __int64,unsigned int>::Range> >,0> >::_Node *,std::pair<unsigned __int64 const ,google_breakpad::RangeMap<unsigned __int64,unsigned int>::Range> const &,char)
FUNC 23cc 3c 4 google_breakpad::MinidumpThread::MinidumpThread(google_breakpad::MinidumpThread const &)
FUNC 2408 3b 4 google_breakpad::MinidumpMemoryRegion::MinidumpMemoryRegion(google_breakpad::MinidumpMemoryRegion const &)
FUNC 2443 1d 0 google_breakpad::MinidumpContext::`vector deleting destructor'(unsigned int)
FUNC 2460 49 0 google_breakpad::MinidumpContext::GetContextX86()
FUNC 24a9 49 0 google_breakpad::MinidumpContext::GetContextAMD64()
FUNC 24f2 47 0 google_breakpad::MinidumpContext::GetContextARM()
FUNC 2539 4b 0 google_breakpad::MinidumpMemoryRegion::GetBase()
FUNC 2584 46 0 google_breakpad::MinidumpMemoryRegion::GetSize()
FUNC 25ca 97 4 google_breakpad::MinidumpThread::GetThreadID(unsigned int *)
FUNC 2661 ad 4 google_breakpad::MinidumpMemoryList::GetMemoryRegionAtIndex(unsigned int)
FUNC 270e 120 8 google_breakpad::Minidump::ReadBytes(void *,unsigned int)
FUNC 282e c3 4 google_breakpad::Minidump::SeekSet(long)
FUNC 28f1 33 4 std::_Tree<std::_Tmap_traits<unsigned int,google_breakpad::MinidumpThread *,std::less<unsigned int>,std::allocator<std::pair<unsigned int const ,google_breakpad::MinidumpThread *> >,0> >::_Erase(std::_Tree_nod<std::_Tmap_traits<unsigned int,google_breakpad::MinidumpThread *,std::less<unsigned int>,std::allocator<std::pair<unsigned int const ,google_breakpad::MinidumpThread *> >,0> >::_Node *)
FUNC 2924 42 4 std::vector<unsigned char,std::allocator<unsigned char> >::_Buy(unsigned int)
FUNC 2966 48 4 std::vector<google_breakpad::MinidumpThread,std::allocator<google_breakpad::MinidumpThread> >::_Buy(unsigned int)
FUNC 29ae 48 4 std::vector<MDMemoryDescriptor,std::allocator<MDMemoryDescriptor> >::_Buy(unsigned int)
FUNC 29f6 48 4 std::vector<google_breakpad::MinidumpMemoryRegion,std::allocator<google_breakpad::MinidumpMemoryRegion> >::_Buy(unsigned int)
FUNC 2a3e 48 4 std::vector<MDRawDirectory,std::allocator<MDRawDirectory> >::_Buy(unsigned int)
FUNC 2a86 287 8 std::_Tree<std::_Tmap_traits<unsigned int,google_breakpad::MinidumpThread *,std::less<unsigned int>,std::allocator<std::pair<unsigned int const ,google_breakpad::MinidumpThread *> >,0> >::erase(std::_Tree<std::_Tmap_traits<unsigned int,google_breakpad::MinidumpThread *,std::less<unsigned int>,std::allocator<std::pair<unsigned int const ,google_breakpad::MinidumpThread *> >,0> >::iterator)
FUNC 2d0d 2e 0 std::_Tree<std::_Tmap_traits<unsigned int,google_breakpad::MinidumpThread *,std::less<unsigned int>,std::allocator<std::pair<unsigned int const ,google_breakpad::MinidumpThread *> >,0> >::_Buynode()
FUNC 2d3b 32 14 std::_Tree<std::_Tmap_traits<unsigned int,google_breakpad::MinidumpThread *,std::less<unsigned int>,std::allocator<std::pair<unsigned int const ,google_breakpad::MinidumpThread *> >,0> >::_Buynode(std::_Tree_nod<std::_Tmap_traits<unsigned int,google_breakpad::MinidumpThread *,std::less<unsigned int>,std::allocator<std::pair<unsigned int const ,google_breakpad::MinidumpThread *> >,0> >::_Node *,std::_Tree_nod<std::_Tmap_traits<unsigned int,google_breakpad::MinidumpThread *,std::less<unsigned int>,std::allocator<std::pair<unsigned int const ,google_breakpad::MinidumpThread *> >,0> >::_Node *,std::_Tree_nod<std::_Tmap_traits<unsigned int,google_breakpad::MinidumpThread *,std::less<unsigned int>,std::allocator<std::pair<unsigned int const ,google_breakpad::MinidumpThread *> >,0> >::_Node *,std::pair<unsigned int const ,google_breakpad::MinidumpThread *> const &,char)
FUNC 2d6d 2e 0 std::_Tree<std::_Tmap_traits<unsigned int,google_breakpad::Minidump::MinidumpStreamInfo,std::less<unsigned int>,std::allocator<std::pair<unsigned int const ,google_breakpad::Minidump::MinidumpStreamInfo> >,0> >::_Buynode()
FUNC 2d9b 32 14 std::_Tree<std::_Tmap_traits<unsigned int,google_breakpad::Minidump::MinidumpStreamInfo,std::less<unsigned int>,std::allocator<std::pair<unsigned int const ,google_breakpad::Minidump::MinidumpStreamInfo> >,0> >::_Buynode(std::_Tree_nod<std::_Tmap_traits<unsigned int,google_breakpad::Minidump::MinidumpStreamInfo,std::less<unsigned int>,std::allocator<std::pair<unsigned int const ,google_breakpad::Minidump::MinidumpStreamInfo> >,0> >::_Node *,std::_Tree_nod<std::_Tmap_traits<unsigned int,google_breakpad::Minidump::MinidumpStreamInfo,std::less<unsigned int>,std::allocator<std::pair<unsigned int const ,google_breakpad::Minidump::MinidumpStreamInfo> >,0> >::_Node *,std::_Tree_nod<std::_Tmap_traits<unsigned int,google_breakpad::Minidump::MinidumpStreamInfo,std::less<unsigned int>,std::allocator<std::pair<unsigned int const ,google_breakpad::Minidump::MinidumpStreamInfo> >,0> >::_Node *,std::pair<unsigned int const ,google_breakpad::Minidump::MinidumpStreamInfo> const &,char)
FUNC 2dcd 33 4 std::_Tree<std::_Tmap_traits<unsigned __int64,google_breakpad::RangeMap<unsigned __int64,unsigned int>::Range,std::less<unsigned __int64>,std::allocator<std::pair<unsigned __int64 const ,google_breakpad::RangeMap<unsigned __int64,unsigned int>::Range> >,0> >::_Erase(std::_Tree_nod<std::_Tmap_traits<unsigned __int64,google_breakpad::RangeMap<unsigned __int64,unsigned int>::Range,std::less<unsigned __int64>,std::allocator<std::pair<unsigned __int64 const ,google_breakpad::RangeMap<unsigned __int64,unsigned int>::Range> >,0> >::_Node *)
FUNC 2e00 2e 0 std::_Tree<std::_Tmap_traits<unsigned __int64,google_breakpad::RangeMap<unsigned __int64,unsigned int>::Range,std::less<unsigned __int64>,std::allocator<std::pair<unsigned __int64 const ,google_breakpad::RangeMap<unsigned __int64,unsigned int>::Range> >,0> >::_Buynode()
FUNC 2e2e 1b 4 std::_Tree<std::_Tmap_traits<unsigned __int64,google_breakpad::RangeMap<unsigned __int64,unsigned int>::Range,std::less<unsigned __int64>,std::allocator<std::pair<unsigned __int64 const ,google_breakpad::RangeMap<unsigned __int64,unsigned int>::Range> >,0> >::lower_bound(unsigned __int64 const &)
FUNC 2e49 165 c std::_Tree<std::_Tmap_traits<unsigned __int64,google_breakpad::RangeMap<unsigned __int64,unsigned int>::Range,std::less<unsigned __int64>,std::allocator<std::pair<unsigned __int64 const ,google_breakpad::RangeMap<unsigned __int64,unsigned int>::Range> >,0> >::_Insert(bool,std::_Tree_nod<std::_Tmap_traits<unsigned __int64,google_breakpad::RangeMap<unsigned __int64,unsigned int>::Range,std::less<unsigned __int64>,std::allocator<std::pair<unsigned __int64 const ,google_breakpad::RangeMap<unsigned __int64,unsigned int>::Range> >,0> >::_Node *,std::pair<unsigned __int64 const ,google_breakpad::RangeMap<unsigned __int64,unsigned int>::Range> const &)
FUNC 2fae 1a 10 std::_Destroy_range<google_breakpad::MinidumpThread,std::allocator<google_breakpad::MinidumpThread> >(google_breakpad::MinidumpThread *,google_breakpad::MinidumpThread *,std::allocator<google_breakpad::MinidumpThread> &,std::_Nonscalar_ptr_iterator_tag)
FUNC 2fc8 21 18 std::_Uninit_fill_n<MDMemoryDescriptor *,unsigned int,MDMemoryDescriptor,std::allocator<MDMemoryDescriptor> >(MDMemoryDescriptor *,unsigned int,MDMemoryDescriptor const &,std::allocator<MDMemoryDescriptor> &,std::_Nonscalar_ptr_iterator_tag,std::_Range_checked_iterator_tag)
FUNC 2fe9 1a 10 std::_Destroy_range<google_breakpad::MinidumpMemoryRegion,std::allocator<google_breakpad::MinidumpMemoryRegion> >(google_breakpad::MinidumpMemoryRegion *,google_breakpad::MinidumpMemoryRegion *,std::allocator<google_breakpad::MinidumpMemoryRegion> &,std::_Nonscalar_ptr_iterator_tag)
FUNC 3003 2a 18 std::_Uninit_fill_n<MDRawDirectory *,unsigned int,MDRawDirectory,std::allocator<MDRawDirectory> >(MDRawDirectory *,unsigned int,MDRawDirectory const &,std::allocator<MDRawDirectory> &,std::_Nonscalar_ptr_iterator_tag,std::_Range_checked_iterator_tag)
FUNC 302d 22 14 std::_Fill_n<unsigned char *,unsigned int,unsigned char>(unsigned char *,unsigned int,unsigned char const &,std::random_access_iterator_tag,std::_Range_checked_iterator_tag)
FUNC 304f 1b5 0 google_breakpad::MinidumpThread::Read()
FUNC 3204 13d 4 google_breakpad::MinidumpException::Read(unsigned int)
FUNC 3341 110 0 google_breakpad::MinidumpException::GetContext()
FUNC 3451 181 4 google_breakpad::MinidumpSystemInfo::Read(unsigned int)
FUNC 35d2 191 0 google_breakpad::Minidump::Open()
FUNC 3763 21 0 std::basic_ifstream<char,std::char_traits<char> >::`vector deleting destructor'(unsigned int)
FUNC 3784 26 0 std::_Tree<std::_Tmap_traits<unsigned int,google_breakpad::MinidumpThread *,std::less<unsigned int>,std::allocator<std::pair<unsigned int const ,google_breakpad::MinidumpThread *> >,0> >::clear()
FUNC 37aa 1b 4 std::_Tree<std::_Tmap_traits<unsigned int,google_breakpad::MinidumpThread *,std::less<unsigned int>,std::allocator<std::pair<unsigned int const ,google_breakpad::MinidumpThread *> >,0> >::lower_bound(unsigned int const &)
FUNC 37c5 20 0 std::vector<unsigned char,std::allocator<unsigned char> >::_Tidy()
FUNC 37e5 1b 4 std::_Tree<std::_Tmap_traits<unsigned int,google_breakpad::Minidump::MinidumpStreamInfo,std::less<unsigned int>,std::allocator<std::pair<unsigned int const ,google_breakpad::Minidump::MinidumpStreamInfo> >,0> >::lower_bound(unsigned int const &)
FUNC 3800 16 0 std::_Tree<std::_Tmap_traits<unsigned int,google_breakpad::Minidump::MinidumpStreamInfo,std::less<unsigned int>,std::allocator<std::pair<unsigned int const ,google_breakpad::Minidump::MinidumpStreamInfo> >,0> >::begin()
FUNC 3816 aa 10 std::_Tree<std::_Tmap_traits<unsigned int,google_breakpad::MinidumpThread *,std::less<unsigned int>,std::allocator<std::pair<unsigned int const ,google_breakpad::MinidumpThread *> >,0> >::erase(std::_Tree<std::_Tmap_traits<unsigned int,google_breakpad::MinidumpThread *,std::less<unsigned int>,std::allocator<std::pair<unsigned int const ,google_breakpad::MinidumpThread *> >,0> >::iterator,std::_Tree<std::_Tmap_traits<unsigned int,google_breakpad::MinidumpThread *,std::less<unsigned int>,std::allocator<std::pair<unsigned int const ,google_breakpad::MinidumpThread *> >,0> >::iterator)
FUNC 38c0 25 0 std::_Tree<std::_Tmap_traits<unsigned int,google_breakpad::MinidumpThread *,std::less<unsigned int>,std::allocator<std::pair<unsigned int const ,google_breakpad::MinidumpThread *> >,0> >::_Init()
FUNC 38e5 165 c std::_Tree<std::_Tmap_traits<unsigned int,google_breakpad::MinidumpThread *,std::less<unsigned int>,std::allocator<std::pair<unsigned int const ,google_breakpad::MinidumpThread *> >,0> >::_Insert(bool,std::_Tree_nod<std::_Tmap_traits<unsigned int,google_breakpad::MinidumpThread *,std::less<unsigned int>,std::allocator<std::pair<unsigned int const ,google_breakpad::MinidumpThread *> >,0> >::_Node *,std::pair<unsigned int const ,google_breakpad::MinidumpThread *> const &)
FUNC 3a4a 25 0 std::_Tree<std::_Tmap_traits<unsigned int,google_breakpad::Minidump::MinidumpStreamInfo,std::less<unsigned int>,std::allocator<std::pair<unsigned int const ,google_breakpad::Minidump::MinidumpStreamInfo> >,0> >::_Init()
FUNC 3a6f 165 c std::_Tree<std::_Tmap_traits<unsigned int,google_breakpad::Minidump::MinidumpStreamInfo,std::less<unsigned int>,std::allocator<std::pair<unsigned int const ,google_breakpad::Minidump::MinidumpStreamInfo> >,0> >::_Insert(bool,std::_Tree_nod<std::_Tmap_traits<unsigned int,google_breakpad::Minidump::MinidumpStreamInfo,std::less<unsigned int>,std::allocator<std::pair<unsigned int const ,google_breakpad::Minidump::MinidumpStreamInfo> >,0> >::_Node *,std::pair<unsigned int const ,google_breakpad::Minidump::MinidumpStreamInfo> const &)
FUNC 3bd4 287 8 std::_Tree<std::_Tmap_traits<unsigned __int64,google_breakpad::RangeMap<unsigned __int64,unsigned int>::Range,std::less<unsigned __int64>,std::allocator<std::pair<unsigned __int64 const ,google_breakpad::RangeMap<unsigned __int64,unsigned int>::Range> >,0> >::erase(std::_Tree<std::_Tmap_traits<unsigned __int64,google_breakpad::RangeMap<unsigned __int64,unsigned int>::Range,std::less<unsigned __int64>,std::allocator<std::pair<unsigned __int64 const ,google_breakpad::RangeMap<unsigned __int64,unsigned int>::Range> >,0> >::iterator)
FUNC 3e5b 26 0 std::_Tree<std::_Tmap_traits<unsigned __int64,google_breakpad::RangeMap<unsigned __int64,unsigned int>::Range,std::less<unsigned __int64>,std::allocator<std::pair<unsigned __int64 const ,google_breakpad::RangeMap<unsigned __int64,unsigned int>::Range> >,0> >::clear()
FUNC 3e81 25 0 std::_Tree<std::_Tmap_traits<unsigned __int64,google_breakpad::RangeMap<unsigned __int64,unsigned int>::Range,std::less<unsigned __int64>,std::allocator<std::pair<unsigned __int64 const ,google_breakpad::RangeMap<unsigned __int64,unsigned int>::Range> >,0> >::_Init()
FUNC 3ea6 290 8 std::_Tree<std::_Tmap_traits<unsigned int,google_breakpad::Minidump::MinidumpStreamInfo,std::less<unsigned int>,std::allocator<std::pair<unsigned int const ,google_breakpad::Minidump::MinidumpStreamInfo> >,0> >::erase(std::_Tree<std::_Tmap_traits<unsigned int,google_breakpad::Minidump::MinidumpStreamInfo,std::less<unsigned int>,std::allocator<std::pair<unsigned int const ,google_breakpad::Minidump::MinidumpStreamInfo> >,0> >::iterator)
FUNC 4136 f5 10 google_breakpad::RangeMap<unsigned __int64,unsigned int>::RetrieveRange(unsigned __int64 const &,unsigned int *,unsigned __int64 *,unsigned __int64 *)
FUNC 422b 1a c std::_Destroy_range<google_breakpad::MinidumpThread,std::allocator<google_breakpad::MinidumpThread> >(google_breakpad::MinidumpThread *,google_breakpad::MinidumpThread *,std::allocator<google_breakpad::MinidumpThread> &)
FUNC 4245 28 10 stdext::unchecked_uninitialized_fill_n<MDMemoryDescriptor *,unsigned int,MDMemoryDescriptor,std::allocator<MDMemoryDescriptor> >(MDMemoryDescriptor *,unsigned int,MDMemoryDescriptor const &,std::allocator<MDMemoryDescriptor> &)
FUNC 426d 1a c std::_Destroy_range<google_breakpad::MinidumpMemoryRegion,std::allocator<google_breakpad::MinidumpMemoryRegion> >(google_breakpad::MinidumpMemoryRegion *,google_breakpad::MinidumpMemoryRegion *,std::allocator<google_breakpad::MinidumpMemoryRegion> &)
FUNC 4287 28 10 stdext::unchecked_uninitialized_fill_n<MDRawDirectory *,unsigned int,MDRawDirectory,std::allocator<MDRawDirectory> >(MDRawDirectory *,unsigned int,MDRawDirectory const &,std::allocator<MDRawDirectory> &)
FUNC 42af cd 4 std::_Tree<std::_Tmap_traits<unsigned __int64,google_breakpad::RangeMap<unsigned __int64,unsigned int>::Range,std::less<unsigned __int64>,std::allocator<std::pair<unsigned __int64 const ,google_breakpad::RangeMap<unsigned __int64,unsigned int>::Range> >,0> >::insert(std::pair<unsigned __int64 const ,google_breakpad::RangeMap<unsigned __int64,unsigned int>::Range> const &)
FUNC 437c 25 c stdext::unchecked_fill_n<unsigned char *,unsigned int,unsigned char>(unsigned char *,unsigned int,unsigned char const &)
FUNC 43a1 bf 8 google_breakpad::MinidumpMemoryList::GetMemoryRegionForAddress(unsigned __int64)
FUNC 4460 64 4 std::_Tree<std::_Tmap_traits<unsigned int,google_breakpad::Minidump::MinidumpStreamInfo,std::less<unsigned int>,std::allocator<std::pair<unsigned int const ,google_breakpad::Minidump::MinidumpStreamInfo> >,0> >::find(unsigned int const &)
FUNC 44c4 4f 0 std::_Tree<std::_Tmap_traits<unsigned int,google_breakpad::MinidumpThread *,std::less<unsigned int>,std::allocator<std::pair<unsigned int const ,google_breakpad::MinidumpThread *> >,0> >::_Tidy()
FUNC 4513 3c 4 std::_Tree<std::_Tmap_traits<unsigned int,google_breakpad::Minidump::MinidumpStreamInfo,std::less<unsigned int>,std::allocator<std::pair<unsigned int const ,google_breakpad::Minidump::MinidumpStreamInfo> >,0> >::_Erase(std::_Tree_nod<std::_Tmap_traits<unsigned int,google_breakpad::Minidump::MinidumpStreamInfo,std::less<unsigned int>,std::allocator<std::pair<unsigned int const ,google_breakpad::Minidump::MinidumpStreamInfo> >,0> >::_Node *)
FUNC 454f ba 4 std::_Tree<std::_Tmap_traits<unsigned int,google_breakpad::MinidumpThread *,std::less<unsigned int>,std::allocator<std::pair<unsigned int const ,google_breakpad::MinidumpThread *> >,0> >::insert(std::pair<unsigned int const ,google_breakpad::MinidumpThread *> const &)
FUNC 4609 aa 10 std::_Tree<std::_Tmap_traits<unsigned __int64,google_breakpad::RangeMap<unsigned __int64,unsigned int>::Range,std::less<unsigned __int64>,std::allocator<std::pair<unsigned __int64 const ,google_breakpad::RangeMap<unsigned __int64,unsigned int>::Range> >,0> >::erase(std::_Tree<std::_Tmap_traits<unsigned __int64,google_breakpad::RangeMap<unsigned __int64,unsigned int>::Range,std::less<unsigned __int64>,std::allocator<std::pair<unsigned __int64 const ,google_breakpad::RangeMap<unsigned __int64,unsigned int>::Range> >,0> >::iterator,std::_Tree<std::_Tmap_traits<unsigned __int64,google_breakpad::RangeMap<unsigned __int64,unsigned int>::Range,std::less<unsigned __int64>,std::allocator<std::pair<unsigned __int64 const ,google_breakpad::RangeMap<unsigned __int64,unsigned int>::Range> >,0> >::iterator)
FUNC 46b3 22 c std::vector<MDMemoryDescriptor,std::allocator<MDMemoryDescriptor> >::_Ufill(MDMemoryDescriptor *,unsigned int,MDMemoryDescriptor const &)
FUNC 46d5 ba 4 std::_Tree<std::_Tmap_traits<unsigned int,google_breakpad::Minidump::MinidumpStreamInfo,std::less<unsigned int>,std::allocator<std::pair<unsigned int const ,google_breakpad::Minidump::MinidumpStreamInfo> >,0> >::insert(std::pair<unsigned int const ,google_breakpad::Minidump::MinidumpStreamInfo> const &)
FUNC 478f 22 c std::vector<MDRawDirectory,std::allocator<MDRawDirectory> >::_Ufill(MDRawDirectory *,unsigned int,MDRawDirectory const &)
FUNC 47b1 421 c google_breakpad::RangeMap<unsigned __int64,unsigned int>::StoreRange(unsigned __int64 const &,unsigned __int64 const &,unsigned int const &)
FUNC 4bd2 25 18 std::_Uninit_fill_n<google_breakpad::MinidumpThread *,unsigned int,google_breakpad::MinidumpThread,std::allocator<google_breakpad::MinidumpThread> >(google_breakpad::MinidumpThread *,unsigned int,google_breakpad::MinidumpThread const &,std::allocator<google_breakpad::MinidumpThread> &,std::_Nonscalar_ptr_iterator_tag,std::_Range_checked_iterator_tag)
FUNC 4bf7 25 18 std::_Uninit_fill_n<google_breakpad::MinidumpMemoryRegion *,unsigned int,google_breakpad::MinidumpMemoryRegion,std::allocator<google_breakpad::MinidumpMemoryRegion> >(google_breakpad::MinidumpMemoryRegion *,unsigned int,google_breakpad::MinidumpMemoryRegion const &,std::allocator<google_breakpad::MinidumpMemoryRegion> &,std::_Nonscalar_ptr_iterator_tag,std::_Range_checked_iterator_tag)
FUNC 4c1c 201 8 google_breakpad::Minidump::SeekToStreamType(unsigned int,unsigned int *)
FUNC 4e1d 26 0 std::_Tree<std::_Tmap_traits<unsigned int,google_breakpad::Minidump::MinidumpStreamInfo,std::less<unsigned int>,std::allocator<std::pair<unsigned int const ,google_breakpad::Minidump::MinidumpStreamInfo> >,0> >::clear()
FUNC 4e43 156 c std::_Tree<std::_Tmap_traits<unsigned int,google_breakpad::MinidumpThread *,std::less<unsigned int>,std::allocator<std::pair<unsigned int const ,google_breakpad::MinidumpThread *> >,0> >::insert(std::_Tree<std::_Tmap_traits<unsigned int,google_breakpad::MinidumpThread *,std::less<unsigned int>,std::allocator<std::pair<unsigned int const ,google_breakpad::MinidumpThread *> >,0> >::iterator,std::pair<unsigned int const ,google_breakpad::MinidumpThread *> const &)
FUNC 4f99 2e 0 std::vector<google_breakpad::MinidumpThread,std::allocator<google_breakpad::MinidumpThread> >::_Tidy()
FUNC 4fc7 4f 0 std::_Tree<std::_Tmap_traits<unsigned __int64,google_breakpad::RangeMap<unsigned __int64,unsigned int>::Range,std::less<unsigned __int64>,std::allocator<std::pair<unsigned __int64 const ,google_breakpad::RangeMap<unsigned __int64,unsigned int>::Range> >,0> >::_Tidy()
FUNC 5016 2e 0 std::vector<google_breakpad::MinidumpMemoryRegion,std::allocator<google_breakpad::MinidumpMemoryRegion> >::_Tidy()
FUNC 5044 156 c std::_Tree<std::_Tmap_traits<unsigned int,google_breakpad::Minidump::MinidumpStreamInfo,std::less<unsigned int>,std::allocator<std::pair<unsigned int const ,google_breakpad::Minidump::MinidumpStreamInfo> >,0> >::insert(std::_Tree<std::_Tmap_traits<unsigned int,google_breakpad::Minidump::MinidumpStreamInfo,std::less<unsigned int>,std::allocator<std::pair<unsigned int const ,google_breakpad::Minidump::MinidumpStreamInfo> >,0> >::iterator,std::pair<unsigned int const ,google_breakpad::Minidump::MinidumpStreamInfo> const &)
FUNC 519a aa 10 std::_Tree<std::_Tmap_traits<unsigned int,google_breakpad::Minidump::MinidumpStreamInfo,std::less<unsigned int>,std::allocator<std::pair<unsigned int const ,google_breakpad::Minidump::MinidumpStreamInfo> >,0> >::erase(std::_Tree<std::_Tmap_traits<unsigned int,google_breakpad::Minidump::MinidumpStreamInfo,std::less<unsigned int>,std::allocator<std::pair<unsigned int const ,google_breakpad::Minidump::MinidumpStreamInfo> >,0> >::iterator,std::_Tree<std::_Tmap_traits<unsigned int,google_breakpad::Minidump::MinidumpStreamInfo,std::less<unsigned int>,std::allocator<std::pair<unsigned int const ,google_breakpad::Minidump::MinidumpStreamInfo> >,0> >::iterator)
FUNC 5244 1f5 4 google_breakpad::Minidump::GetStream<google_breakpad::MinidumpException>(google_breakpad::MinidumpException * *)
FUNC 5439 1f2 4 google_breakpad::Minidump::GetStream<google_breakpad::MinidumpSystemInfo>(google_breakpad::MinidumpSystemInfo * *)
FUNC 562b 28 10 stdext::unchecked_uninitialized_fill_n<google_breakpad::MinidumpThread *,unsigned int,google_breakpad::MinidumpThread,std::allocator<google_breakpad::MinidumpThread> >(google_breakpad::MinidumpThread *,unsigned int,google_breakpad::MinidumpThread const &,std::allocator<google_breakpad::MinidumpThread> &)
FUNC 5653 28 10 stdext::unchecked_uninitialized_fill_n<google_breakpad::MinidumpMemoryRegion *,unsigned int,google_breakpad::MinidumpMemoryRegion,std::allocator<google_breakpad::MinidumpMemoryRegion> >(google_breakpad::MinidumpMemoryRegion *,unsigned int,google_breakpad::MinidumpMemoryRegion const &,std::allocator<google_breakpad::MinidumpMemoryRegion> &)
FUNC 567b 37 0 google_breakpad::MinidumpMemoryRegion::~MinidumpMemoryRegion()
FUNC 56b2 c 0 google_breakpad::Minidump::GetException()
FUNC 56be c 0 google_breakpad::Minidump::GetSystemInfo()
FUNC 56ca 75 4 std::map<unsigned int,google_breakpad::MinidumpThread *,std::less<unsigned int>,std::allocator<std::pair<unsigned int const ,google_breakpad::MinidumpThread *> > >::operator[](unsigned int const &)
FUNC 573f 7b 4 std::map<unsigned int,google_breakpad::Minidump::MinidumpStreamInfo,std::less<unsigned int>,std::allocator<std::pair<unsigned int const ,google_breakpad::Minidump::MinidumpStreamInfo> > >::operator[](unsigned int const &)
FUNC 57ba 29 8 std::vector<MDMemoryDescriptor,std::allocator<MDMemoryDescriptor> >::_Construct_n(unsigned int,MDMemoryDescriptor const &)
FUNC 57e3 4f 0 std::_Tree<std::_Tmap_traits<unsigned int,google_breakpad::Minidump::MinidumpStreamInfo,std::less<unsigned int>,std::allocator<std::pair<unsigned int const ,google_breakpad::Minidump::MinidumpStreamInfo> >,0> >::_Tidy()
FUNC 5832 29 8 std::vector<MDRawDirectory,std::allocator<MDRawDirectory> >::_Construct_n(unsigned int,MDRawDirectory const &)
FUNC 585b 20 c std::vector<unsigned char,std::allocator<unsigned char> >::_Ufill(unsigned char *,unsigned int,unsigned char const &)
FUNC 587b 22 c std::vector<google_breakpad::MinidumpThread,std::allocator<google_breakpad::MinidumpThread> >::_Ufill(google_breakpad::MinidumpThread *,unsigned int,google_breakpad::MinidumpThread const &)
FUNC 589d 22 c std::vector<google_breakpad::MinidumpMemoryRegion,std::allocator<google_breakpad::MinidumpMemoryRegion> >::_Ufill(google_breakpad::MinidumpMemoryRegion *,unsigned int,google_breakpad::MinidumpMemoryRegion const &)
FUNC 58bf 18d 4 google_breakpad::MinidumpContext::CheckAgainstSystemInfo(unsigned int)
FUNC 5a4c 1d 0 google_breakpad::MinidumpMemoryRegion::`scalar deleting destructor'(unsigned int)
FUNC 5a69 2a 4 google_breakpad::MinidumpThreadList::MinidumpThreadList(google_breakpad::Minidump *)
FUNC 5a93 12 4 google_breakpad::MinidumpThreadList::GetThreadByID(unsigned int)
FUNC 5aa5 18 0 google_breakpad::scoped_ptr<std::vector<google_breakpad::MinidumpThread,std::allocator<google_breakpad::MinidumpThread> > >::~scoped_ptr<std::vector<google_breakpad::MinidumpThread,std::allocator<google_breakpad::MinidumpThread> > >()
FUNC 5abd 27 4 std::vector<MDMemoryDescriptor,std::allocator<MDMemoryDescriptor> >::vector<MDMemoryDescriptor,std::allocator<MDMemoryDescriptor> >(unsigned int)
FUNC 5ae4 18 0 google_breakpad::scoped_ptr<std::vector<MDMemoryDescriptor,std::allocator<MDMemoryDescriptor> > >::~scoped_ptr<std::vector<MDMemoryDescriptor,std::allocator<MDMemoryDescriptor> > >()
FUNC 5afc 18 0 google_breakpad::scoped_ptr<std::vector<google_breakpad::MinidumpMemoryRegion,std::allocator<google_breakpad::MinidumpMemoryRegion> > >::~scoped_ptr<std::vector<google_breakpad::MinidumpMemoryRegion,std::allocator<google_breakpad::MinidumpMemoryRegion> > >()
FUNC 5b14 26 4 std::vector<MDRawDirectory,std::allocator<MDRawDirectory> >::vector<MDRawDirectory,std::allocator<MDRawDirectory> >(unsigned int)
FUNC 5b3a 29 8 std::vector<unsigned char,std::allocator<unsigned char> >::_Construct_n(unsigned int,unsigned char const &)
FUNC 5b63 29 8 std::vector<google_breakpad::MinidumpThread,std::allocator<google_breakpad::MinidumpThread> >::_Construct_n(unsigned int,google_breakpad::MinidumpThread const &)
FUNC 5b8c 29 8 std::vector<google_breakpad::MinidumpMemoryRegion,std::allocator<google_breakpad::MinidumpMemoryRegion> >::_Construct_n(unsigned int,google_breakpad::MinidumpMemoryRegion const &)
FUNC 5bb5 1f2 4 google_breakpad::Minidump::GetStream<google_breakpad::MinidumpThreadList>(google_breakpad::MinidumpThreadList * *)
FUNC 5da7 b48 4 google_breakpad::MinidumpContext::Read(unsigned int)
FUNC 68ef 31 0 google_breakpad::MinidumpThreadList::~MinidumpThreadList()
FUNC 6920 47 4 google_breakpad::MinidumpMemoryList::MinidumpMemoryList(google_breakpad::Minidump *)
FUNC 6967 4a7 0 google_breakpad::Minidump::Read()
FUNC 6e0e c 0 google_breakpad::Minidump::GetThreadList()
FUNC 6e1a 1e 4 std::vector<unsigned char,std::allocator<unsigned char> >::vector<unsigned char,std::allocator<unsigned char> >(unsigned int)
FUNC 6e38 1f2 4 google_breakpad::Minidump::GetStream<google_breakpad::MinidumpMemoryList>(google_breakpad::MinidumpMemoryList * *)
FUNC 702a 1b2 0 google_breakpad::MinidumpMemoryRegion::GetMemory()
FUNC 71dc 1d 0 google_breakpad::MinidumpThreadList::`vector deleting destructor'(unsigned int)
FUNC 71f9 3c5 4 google_breakpad::MinidumpThreadList::Read(unsigned int)
FUNC 75be 51 0 google_breakpad::MinidumpMemoryList::~MinidumpMemoryList()
FUNC 760f 547 4 google_breakpad::MinidumpMemoryList::Read(unsigned int)
FUNC 7b56 56 4 google_breakpad::Minidump::Minidump(std::basic_string<char,std::char_traits<char>,std::allocator<char> > const &)
FUNC 7bac 15 0 google_breakpad::Minidump::path()
FUNC 7bc1 d 0 google_breakpad::Minidump::header()
FUNC 7bce c 0 google_breakpad::Minidump::GetMemoryList()
FUNC 7bda 1cf c google_breakpad::MinidumpMemoryRegion::GetMemoryAtAddressInternal<unsigned char>(unsigned __int64,unsigned char *)
FUNC 7da9 1ed c google_breakpad::MinidumpMemoryRegion::GetMemoryAtAddressInternal<unsigned short>(unsigned __int64,unsigned short *)
FUNC 7f99 1e8 c google_breakpad::MinidumpMemoryRegion::GetMemoryAtAddressInternal<unsigned int>(unsigned __int64,unsigned int *)
FUNC 8181 1ef c google_breakpad::MinidumpMemoryRegion::GetMemoryAtAddressInternal<unsigned __int64>(unsigned __int64,unsigned __int64 *)
FUNC 8370 17 c google_breakpad::MinidumpMemoryRegion::GetMemoryAtAddress(unsigned __int64,unsigned char *)
FUNC 8387 17 c google_breakpad::MinidumpMemoryRegion::GetMemoryAtAddress(unsigned __int64,unsigned short *)
FUNC 839e 17 c google_breakpad::MinidumpMemoryRegion::GetMemoryAtAddress(unsigned __int64,unsigned int *)
FUNC 83b5 17 c google_breakpad::MinidumpMemoryRegion::GetMemoryAtAddress(unsigned __int64,unsigned __int64 *)
FUNC 83cc 1d 0 google_breakpad::MinidumpMemoryList::`scalar deleting destructor'(unsigned int)
FUNC 83e9 96 0 google_breakpad::Minidump::~Minidump()
FUNC 847f 1d 0 google_breakpad::Minidump::`scalar deleting destructor'(unsigned int)
FUNC 849c 60 4 google_breakpad::PathnameStripper::File(std::basic_string<char,std::char_traits<char>,std::allocator<char> > const &)
FUNC 84fc 49 0 type_info::`vector deleting destructor'(unsigned int)
FUNC 854c f 0 __security_check_cookie
FUNC 8562 4d 0 pre_c_init
FUNC 85af 1c3 c _CRT_INIT
FUNC 8772 116 4 __DllMainCRTStartup
FUNC 8888 21 c _DllMainCRTStartup
FUNC 88a9 5e 10 __ArrayUnwind(void *,unsigned int,int,void (*)(void *))
FUNC 8907 63 10 `eh vector destructor iterator'(void *,unsigned int,int,void (*)(void *))
FUNC 896a 104 0 __report_gsfailure
FUNC 8a6e c 0 __clean_type_info_names
FUNC 8a7a a5 4 _onexit
FUNC 8b1f 12 4 atexit
FUNC 8b31 24 0 _RTC_Initialize
FUNC 8b55 24 0 _RTC_Terminate
FUNC 8b80 29 4 _ValidateImageBase
FUNC 8bb0 42 8 _FindPESection
FUNC 8c00 bb 4 _IsNonwritableInCurrentImage
FUNC 8cd4 20 c DllMain
FUNC 8cf4 45 0 _SEH_prolog4
FUNC 8d39 14 0 _SEH_epilog4
FUNC 8d4d 23 10 _except_handler4
FUNC 8d70 94 0 __security_init_cookie
STACK WIN 4 1000 6 0 0 4 0 0 0 1 $T2 $esp .cbLocals + .cbSavedRegs + = $T0 .raSearchStart = $eip $T0 ^ = $esp $T0 4 + =
STACK WIN 4 1006 1c 4 0 4 0 4 0 1 $T0 $ebp = $eip $T0 4 + ^ = $ebp $T0 ^ = $esp $T0 8 + = $L $T0 .cbSavedRegs - = $P $T0 8 + .cbParams + =
STACK WIN 4 1022 4e 0 0 0 0 0 0 1 $T2 $esp .cbLocals + .cbSavedRegs + = $T0 .raSearchStart = $eip $T0 ^ = $esp $T0 4 + =
STACK WIN 4 1031 3e 0 0 0 4 0 0 1 $T2 $esp .cbLocals + .cbSavedRegs + = $T0 .raSearchStart = $eip $T0 ^ = $esp $T0 4 + =
STACK WIN 4 104e 1f 0 0 0 8 0 0 1 $T2 $esp .cbLocals + .cbSavedRegs + = $T0 .raSearchStart = $eip $T0 ^ = $esp $T0 4 + =
STACK WIN 4 1070 16 4 0 0 0 4 0 1 $T0 $ebp = $eip $T0 4 + ^ = $ebp $T0 ^ = $esp $T0 8 + = $L $T0 .cbSavedRegs - = $P $T0 8 + .cbParams + =
STACK WIN 4 1086 36 0 0 4 0 0 0 1 $T2 $esp .cbLocals + .cbSavedRegs + = $T0 .raSearchStart = $eip $T0 ^ = $esp $T0 4 + =
STACK WIN 4 10bc 79 10 0 8 0 7c 0 1 $T0 $ebp = $eip $T0 4 + ^ = $ebp $T0 ^ = $esp $T0 8 + = $L $T0 .cbSavedRegs - = $P $T0 8 + .cbParams + =
STACK WIN 4 1135 f5 10 0 4 0 78 0 1 $T0 $ebp = $eip $T0 4 + ^ = $ebp $T0 ^ = $esp $T0 8 + = $L $T0 .cbSavedRegs - = $P $T0 8 + .cbParams + =
STACK WIN 4 1183 9b 0 0 4 4 78 0 1 $T0 $ebp = $eip $T0 4 + ^ = $ebp $T0 ^ = $esp $T0 8 + = $L $T0 .cbSavedRegs - = $P $T0 8 + .cbParams + =
STACK WIN 4 1184 99 0 0 4 8 78 0 1 $T0 $ebp = $eip $T0 4 + ^ = $ebp $T0 ^ = $esp $T0 8 + = $L $T0 .cbSavedRegs - = $P $T0 8 + .cbParams + =
STACK WIN 4 11f7 19 0 0 4 c 78 0 1 $T0 $ebp = $eip $T0 4 + ^ = $ebp $T0 ^ = $esp $T0 8 + = $L $T0 .cbSavedRegs - = $P $T0 8 + .cbParams + = $ebx $T0 132 - ^ =
STACK WIN 4 122a 10c 10 0 4 0 7c 0 1 $T0 $ebp = $eip $T0 4 + ^ = $ebp $T0 ^ = $esp $T0 8 + = $L $T0 .cbSavedRegs - = $P $T0 8 + .cbParams + =
STACK WIN 4 1278 90 0 0 4 4 7c 0 1 $T0 $ebp = $eip $T0 4 + ^ = $ebp $T0 ^ = $esp $T0 8 + = $L $T0 .cbSavedRegs - = $P $T0 8 + .cbParams + = $ebx $T0 128 - ^ =
STACK WIN 4 1290 77 0 0 4 8 7c 0 1 $T0 $ebp = $eip $T0 4 + ^ = $ebp $T0 ^ = $esp $T0 8 + = $L $T0 .cbSavedRegs - = $P $T0 8 + .cbParams + = $ebx $T0 128 - ^ =
STACK WIN 4 1291 75 0 0 4 c 7c 0 1 $T0 $ebp = $eip $T0 4 + ^ = $ebp $T0 ^ = $esp $T0 8 + = $L $T0 .cbSavedRegs - = $P $T0 8 + .cbParams + = $ebx $T0 128 - ^ =
STACK WIN 4 1336 4 0 0 0 0 0 0 1 $T2 $esp .cbLocals + .cbSavedRegs + = $T0 .raSearchStart = $eip $T0 ^ = $esp $T0 4 + =
STACK WIN 4 133a 22 b 0 0 0 0 0 1 $T2 $esp .cbLocals + .cbSavedRegs + = $T0 .raSearchStart = $eip $T0 ^ = $esp $T0 4 + =
STACK WIN 4 1343 18 2 0 0 4 0 0 1 $T2 $esp .cbLocals + .cbSavedRegs + = $T0 .raSearchStart = $eip $T0 ^ = $esp $T0 4 + =
STACK WIN 4 135c 1 0 0 0 0 0 0 1 $T2 $esp .cbLocals + .cbSavedRegs + = $T0 .raSearchStart = $eip $T0 ^ = $esp $T0 4 + =
STACK WIN 4 135d 23 7 0 4 0 0 0 1 $T2 $esp .cbLocals + .cbSavedRegs + = $T0 .raSearchStart = $eip $T0 ^ = $esp $T0 4 + =
STACK WIN 4 135e 1f 6 0 4 4 0 0 1 $T2 $esp .cbLocals + .cbSavedRegs + = $T0 .raSearchStart = $eip $T0 ^ = $esp $T0 4 + =
STACK WIN 4 1380 1a 3 0 0 0 0 0 1 $T2 $esp .cbLocals + .cbSavedRegs + = $T0 .raSearchStart = $eip $T0 ^ = $esp $T0 4 + =
STACK WIN 4 1381 18 2 0 0 4 0 0 1 $T2 $esp .cbLocals + .cbSavedRegs + = $T0 .raSearchStart = $eip $T0 ^ = $esp $T0 4 + =
STACK WIN 4 139a e 0 0 0 0 0 0 1 $T2 $esp .cbLocals + .cbSavedRegs + = $T0 .raSearchStart = $eip $T0 ^ = $esp $T0 4 + =
STACK WIN 4 13a8 1d 3 0 4 0 0 0 1 $T2 $esp .cbLocals + .cbSavedRegs + = $T0 .raSearchStart = $eip $T0 ^ = $esp $T0 4 + =
STACK WIN 4 13a9 19 2 0 4 4 0 0 1 $T2 $esp .cbLocals + .cbSavedRegs + = $T0 .raSearchStart = $eip $T0 ^ = $esp $T0 4 + =
STACK WIN 4 13c5 9 0 0 0 0 0 0 1 $T2 $esp .cbLocals + .cbSavedRegs + = $T0 .raSearchStart = $eip $T0 ^ = $esp $T0 4 + =
STACK WIN 4 13ce 23 3 0 4 0 0 0 1 $T2 $esp .cbLocals + .cbSavedRegs + = $T0 .raSearchStart = $eip $T0 ^ = $esp $T0 4 + =
STACK WIN 4 13cf 1f 2 0 4 4 0 0 1 $T2 $esp .cbLocals + .cbSavedRegs + = $T0 .raSearchStart = $eip $T0 ^ = $esp $T0 4 + =
STACK WIN 4 13f1 23 3 0 4 0 0 0 1 $T2 $esp .cbLocals + .cbSavedRegs + = $T0 .raSearchStart = $eip $T0 ^ = $esp $T0 4 + =
STACK WIN 4 13f2 1f 2 0 4 4 0 0 1 $T2 $esp .cbLocals + .cbSavedRegs + = $T0 .raSearchStart = $eip $T0 ^ = $esp $T0 4 + =
STACK WIN 4 1414 25 7 0 4 0 0 0 1 $T2 $esp .cbLocals + .cbSavedRegs + = $T0 .raSearchStart = $eip $T0 ^ = $esp $T0 4 + =
STACK WIN 4 1419 1d 2 0 4 4 0 0 1 $T2 $esp .cbLocals + .cbSavedRegs + = $T0 .raSearchStart = $eip $T0 ^ = $esp $T0 4 + =
STACK WIN 4 1439 19 0 0 0 0 0 0 1 $T2 $esp .cbLocals + .cbSavedRegs + = $T0 .raSearchStart = $eip $T0 ^ = $esp $T0 4 + =
STACK WIN 4 1452 22 0 0 8 0 0 0 1 $T2 $esp .cbLocals + .cbSavedRegs + = $T0 .raSearchStart = $eip $T0 ^ = $esp $T0 4 + =
STACK WIN 4 1474 1e 8 0 4 0 0 0 1 $T2 $esp .cbLocals + .cbSavedRegs + = $T0 .raSearchStart = $eip $T0 ^ = $esp $T0 4 + =
STACK WIN 4 147a 15 2 0 4 4 0 0 1 $T2 $esp .cbLocals + .cbSavedRegs + = $T0 .raSearchStart = $eip $T0 ^ = $esp $T0 4 + =
STACK WIN 4 1492 41 9 0 4 0 0 0 1 $T2 $esp .cbLocals + .cbSavedRegs + = $T0 .raSearchStart = $eip $T0 ^ = $esp $T0 4 + =
STACK WIN 4 1493 3d 8 0 4 4 0 0 1 $T2 $esp .cbLocals + .cbSavedRegs + = $T0 .raSearchStart = $eip $T0 ^ = $esp $T0 4 + =
STACK WIN 4 1498 37 3 0 4 8 0 0 1 $T2 $esp .cbLocals + .cbSavedRegs + = $T0 .raSearchStart = $eip $T0 ^ = $esp $T0 4 + =
STACK WIN 4 14d3 fd 9 0 8 0 c 0 1 $T0 $ebp = $eip $T0 4 + ^ = $ebp $T0 ^ = $esp $T0 8 + = $L $T0 .cbSavedRegs - = $P $T0 8 + .cbParams + =
STACK WIN 4 14da cd 2 0 8 4 c 0 1 $T0 $ebp = $eip $T0 4 + ^ = $ebp $T0 ^ = $esp $T0 8 + = $L $T0 .cbSavedRegs - = $P $T0 8 + .cbParams + = $ebx $T0 16 - ^ =
STACK WIN 4 14db cb 1 0 8 8 c 0 1 $T0 $ebp = $eip $T0 4 + ^ = $ebp $T0 ^ = $esp $T0 8 + = $L $T0 .cbSavedRegs - = $P $T0 8 + .cbParams + = $ebx $T0 16 - ^ =
STACK WIN 4 14dc c7 0 0 8 c c 0 1 $T0 $ebp = $eip $T0 4 + ^ = $ebp $T0 ^ = $esp $T0 8 + = $L $T0 .cbSavedRegs - = $P $T0 8 + .cbParams + = $ebx $T0 16 - ^ =
STACK WIN 4 15d0 f 0 0 0 0 0 0 1 $T2 $esp .cbLocals + .cbSavedRegs + = $T0 .raSearchStart = $eip $T0 ^ = $esp $T0 4 + =
STACK WIN 4 15df 46 11 0 8 0 10 0 1 $T0 $ebp = $eip $T0 4 + ^ = $ebp $T0 ^ = $esp $T0 8 + = $L $T0 .cbSavedRegs - = $P $T0 8 + .cbParams + =
STACK WIN 4 15f0 2e 0 0 8 4 10 0 1 $T0 $ebp = $eip $T0 4 + ^ = $ebp $T0 ^ = $esp $T0 8 + = $L $T0 .cbSavedRegs - = $P $T0 8 + .cbParams + =
STACK WIN 4 1625 49 11 0 c 0 18 0 1 $T0 $ebp = $eip $T0 4 + ^ = $ebp $T0 ^ = $esp $T0 8 + = $L $T0 .cbSavedRegs - = $P $T0 8 + .cbParams + =
STACK WIN 4 1636 31 0 0 c 4 18 0 1 $T0 $ebp = $eip $T0 4 + ^ = $ebp $T0 ^ = $esp $T0 8 + = $L $T0 .cbSavedRegs - = $P $T0 8 + .cbParams + =
STACK WIN 4 166e 46 11 0 8 0 18 0 1 $T0 $ebp = $eip $T0 4 + ^ = $ebp $T0 ^ = $esp $T0 8 + = $L $T0 .cbSavedRegs - = $P $T0 8 + .cbParams + =
STACK WIN 4 167f 2e 0 0 8 4 18 0 1 $T0 $ebp = $eip $T0 4 + ^ = $ebp $T0 ^ = $esp $T0 8 + = $L $T0 .cbSavedRegs - = $P $T0 8 + .cbParams + =
STACK WIN 4 16b4 23 1 0 4 0 0 0 1 $T2 $esp .cbLocals + .cbSavedRegs + = $T0 .raSearchStart = $eip $T0 ^ = $esp $T0 4 + =
STACK WIN 4 16b5 21 0 0 4 4 0 0 1 $T2 $esp .cbLocals + .cbSavedRegs + = $T0 .raSearchStart = $eip $T0 ^ = $esp $T0 4 + =
STACK WIN 4 16d7 ff 19 0 10 0 7c 0 1 $T0 $ebp = $eip $T0 4 + ^ = $ebp $T0 ^ = $esp $T0 8 + = $L $T0 .cbSavedRegs - = $P $T0 8 + .cbParams + =
STACK WIN 4 16eb e2 5 0 10 4 7c 0 1 $T0 $ebp = $eip $T0 4 + ^ = $ebp $T0 ^ = $esp $T0 8 + = $L $T0 .cbSavedRegs - = $P $T0 8 + .cbParams + = $ebx $T0 128 - ^ =
STACK WIN 4 16ec de 4 0 10 8 7c 0 1 $T0 $ebp = $eip $T0 4 + ^ = $ebp $T0 ^ = $esp $T0 8 + = $L $T0 .cbSavedRegs - = $P $T0 8 + .cbParams + = $ebx $T0 128 - ^ =
STACK WIN 4 16f0 d9 0 0 10 c 7c 0 1 $T0 $ebp = $eip $T0 4 + ^ = $ebp $T0 ^ = $esp $T0 8 + = $L $T0 .cbSavedRegs - = $P $T0 8 + .cbParams + = $ebx $T0 128 - ^ =
STACK WIN 4 17d6 1e 8 0 4 0 0 0 1 $T2 $esp .cbLocals + .cbSavedRegs + = $T0 .raSearchStart = $eip $T0 ^ = $esp $T0 4 + =
STACK WIN 4 17dc 15 2 0 4 4 0 0 1 $T2 $esp .cbLocals + .cbSavedRegs + = $T0 .raSearchStart = $eip $T0 ^ = $esp $T0 4 + =
STACK WIN 4 17f4 1e 8 0 4 0 0 0 1 $T2 $esp .cbLocals + .cbSavedRegs + = $T0 .raSearchStart = $eip $T0 ^ = $esp $T0 4 + =
STACK WIN 4 17fa 15 2 0 4 4 0 0 1 $T2 $esp .cbLocals + .cbSavedRegs + = $T0 .raSearchStart = $eip $T0 ^ = $esp $T0 4 + =
STACK WIN 4 1812 2a 3 0 0 0 0 0 1 $T2 $esp .cbLocals + .cbSavedRegs + = $T0 .raSearchStart = $eip $T0 ^ = $esp $T0 4 + =
STACK WIN 4 1815 26 0 0 0 4 0 0 1 $T2 $esp .cbLocals + .cbSavedRegs + = $T0 .raSearchStart = $eip $T0 ^ = $esp $T0 4 + =
STACK WIN 4 183c 18 0 0 0 0 0 0 1 $T2 $esp .cbLocals + .cbSavedRegs + = $T0 .raSearchStart = $eip $T0 ^ = $esp $T0 4 + =
STACK WIN 4 1854 12 1 0 0 0 0 0 1 $T2 $esp .cbLocals + .cbSavedRegs + = $T0 .raSearchStart = $eip $T0 ^ = $esp $T0 4 + =
STACK WIN 4 1855 10 0 0 0 4 0 0 1 $T2 $esp .cbLocals + .cbSavedRegs + = $T0 .raSearchStart = $eip $T0 ^ = $esp $T0 4 + =
STACK WIN 4 1866 22 9 0 4 0 0 0 1 $T2 $esp .cbLocals + .cbSavedRegs + = $T0 .raSearchStart = $eip $T0 ^ = $esp $T0 4 + =
STACK WIN 4 186f 16 0 0 4 4 0 0 1 $T2 $esp .cbLocals + .cbSavedRegs + = $T0 .raSearchStart = $eip $T0 ^ = $esp $T0 4 + =
STACK WIN 4 1888 10 0 0 0 0 0 0 1 $T2 $esp .cbLocals + .cbSavedRegs + = $T0 .raSearchStart = $eip $T0 ^ = $esp $T0 4 + =
STACK WIN 4 1898 3d 3 0 0 0 0 0 1 $T2 $esp .cbLocals + .cbSavedRegs + = $T0 .raSearchStart = $eip $T0 ^ = $esp $T0 4 + =
STACK WIN 4 1899 3b 2 0 0 4 0 0 1 $T2 $esp .cbLocals + .cbSavedRegs + = $T0 .raSearchStart = $eip $T0 ^ = $esp $T0 4 + =
STACK WIN 4 18d5 35 8 0 4 0 0 0 1 $T2 $esp .cbLocals + .cbSavedRegs + = $T0 .raSearchStart = $eip $T0 ^ = $esp $T0 4 + =
STACK WIN 4 18dc 2b 1 0 4 4 0 0 1 $T2 $esp .cbLocals + .cbSavedRegs + = $T0 .raSearchStart = $eip $T0 ^ = $esp $T0 4 + =
STACK WIN 4 18dd 26 0 0 4 8 0 0 1 $T2 $esp .cbLocals + .cbSavedRegs + = $T0 .raSearchStart = $eip $T0 ^ = $esp $T0 4 + =
STACK WIN 4 190a 32 7 0 4 0 0 0 1 $T2 $esp .cbLocals + .cbSavedRegs + = $T0 .raSearchStart = $eip $T0 ^ = $esp $T0 4 + =
STACK WIN 4 190f 2a 2 0 4 4 0 0 1 $T2 $esp .cbLocals + .cbSavedRegs + = $T0 .raSearchStart = $eip $T0 ^ = $esp $T0 4 + =
STACK WIN 4 193c 2b 3 0 0 0 0 0 1 $T2 $esp .cbLocals + .cbSavedRegs + = $T0 .raSearchStart = $eip $T0 ^ = $esp $T0 4 + =
STACK WIN 4 193d 29 2 0 0 4 0 0 1 $T2 $esp .cbLocals + .cbSavedRegs + = $T0 .raSearchStart = $eip $T0 ^ = $esp $T0 4 + =
STACK WIN 4 1967 1e 3 0 4 0 0 0 1 $T2 $esp .cbLocals + .cbSavedRegs + = $T0 .raSearchStart = $eip $T0 ^ = $esp $T0 4 + =
STACK WIN 4 1968 1a 2 0 4 4 0 0 1 $T2 $esp .cbLocals + .cbSavedRegs + = $T0 .raSearchStart = $eip $T0 ^ = $esp $T0 4 + =
STACK WIN 4 1985 34 7 0 4 0 0 0 1 $T2 $esp .cbLocals + .cbSavedRegs + = $T0 .raSearchStart = $eip $T0 ^ = $esp $T0 4 + =
STACK WIN 4 198a 2c 2 0 4 4 0 0 1 $T2 $esp .cbLocals + .cbSavedRegs + = $T0 .raSearchStart = $eip $T0 ^ = $esp $T0 4 + =
STACK WIN 4 19b9 21 3 0 0 0 0 0 1 $T2 $esp .cbLocals + .cbSavedRegs + = $T0 .raSearchStart = $eip $T0 ^ = $esp $T0 4 + =
STACK WIN 4 19ba 1f 2 0 0 4 0 0 1 $T2 $esp .cbLocals + .cbSavedRegs + = $T0 .raSearchStart = $eip $T0 ^ = $esp $T0 4 + =
STACK WIN 4 19da 32 7 0 4 0 0 0 1 $T2 $esp .cbLocals + .cbSavedRegs + = $T0 .raSearchStart = $eip $T0 ^ = $esp $T0 4 + =
STACK WIN 4 19df 2a 2 0 4 4 0 0 1 $T2 $esp .cbLocals + .cbSavedRegs + = $T0 .raSearchStart = $eip $T0 ^ = $esp $T0 4 + =
STACK WIN 4 1a0c 2d 3 0 0 0 0 0 1 $T2 $esp .cbLocals + .cbSavedRegs + = $T0 .raSearchStart = $eip $T0 ^ = $esp $T0 4 + =
STACK WIN 4 1a0d 2b 2 0 0 4 0 0 1 $T2 $esp .cbLocals + .cbSavedRegs + = $T0 .raSearchStart = $eip $T0 ^ = $esp $T0 4 + =
STACK WIN 4 1a39 28 3 0 4 0 0 0 1 $T2 $esp .cbLocals + .cbSavedRegs + = $T0 .raSearchStart = $eip $T0 ^ = $esp $T0 4 + =
STACK WIN 4 1a3a 24 2 0 4 4 0 0 1 $T2 $esp .cbLocals + .cbSavedRegs + = $T0 .raSearchStart = $eip $T0 ^ = $esp $T0 4 + =
STACK WIN 4 1a41 17 0 0 4 8 0 0 1 $T2 $esp .cbLocals + .cbSavedRegs + = $T0 .raSearchStart = $eip $T0 ^ = $esp $T0 4 + =
STACK WIN 4 1a61 16 0 0 0 0 0 0 1 $T2 $esp .cbLocals + .cbSavedRegs + = $T0 .raSearchStart = $eip $T0 ^ = $esp $T0 4 + =
STACK WIN 4 1a77 13 0 0 0 0 0 0 1 $T2 $esp .cbLocals + .cbSavedRegs + = $T0 .raSearchStart = $eip $T0 ^ = $esp $T0 4 + =
STACK WIN 4 1a8a 16 0 0 0 0 0 0 1 $T2 $esp .cbLocals + .cbSavedRegs + = $T0 .raSearchStart = $eip $T0 ^ = $esp $T0 4 + =
STACK WIN 4 1aa0 16 0 0 0 0 0 0 1 $T2 $esp .cbLocals + .cbSavedRegs + = $T0 .raSearchStart = $eip $T0 ^ = $esp $T0 4 + =
STACK WIN 4 1ab6 48 7 0 0 0 40 0 1 $T0 $ebp = $eip $T0 4 + ^ = $ebp $T0 ^ = $esp $T0 8 + = $L $T0 .cbSavedRegs - = $P $T0 8 + .cbParams + =
STACK WIN 4 1abd 3f 0 0 0 4 40 0 1 $T0 $ebp = $eip $T0 4 + ^ = $ebp $T0 ^ = $esp $T0 8 + = $L $T0 .cbSavedRegs - = $P $T0 8 + .cbParams + =
STACK WIN 4 1afe 44 7 0 4 0 0 0 1 $T2 $esp .cbLocals + .cbSavedRegs + = $T0 .raSearchStart = $eip $T0 ^ = $esp $T0 4 + =
STACK WIN 4 1b05 1e 0 0 4 4 0 0 1 $T2 $esp .cbLocals + .cbSavedRegs + = $T0 .raSearchStart = $eip $T0 ^ = $esp $T0 4 + =
STACK WIN 4 1b42 65 4 0 0 0 0 0 1 $T2 $esp .cbLocals + .cbSavedRegs + = $T0 .raSearchStart = $eip $T0 ^ = $esp $T0 4 + =
STACK WIN 4 1b43 63 3 0 0 4 0 0 1 $T2 $esp .cbLocals + .cbSavedRegs + = $T0 .raSearchStart = $eip $T0 ^ = $esp $T0 4 + = $ebx $T0 4 - ^ =
STACK WIN 4 1b44 61 2 0 0 8 0 0 1 $T2 $esp .cbLocals + .cbSavedRegs + = $T0 .raSearchStart = $eip $T0 ^ = $esp $T0 4 + = $ebx $T0 4 - ^ =
STACK WIN 4 1b4b 59 0 0 0 c 0 0 1 $T2 $esp .cbLocals + .cbSavedRegs + = $T0 .raSearchStart = $eip $T0 ^ = $esp $T0 4 + = $ebx $T0 4 - ^ =
STACK WIN 4 1ba7 65 4 0 0 0 0 0 1 $T2 $esp .cbLocals + .cbSavedRegs + = $T0 .raSearchStart = $eip $T0 ^ = $esp $T0 4 + =
STACK WIN 4 1ba8 63 3 0 0 4 0 0 1 $T2 $esp .cbLocals + .cbSavedRegs + = $T0 .raSearchStart = $eip $T0 ^ = $esp $T0 4 + = $ebx $T0 4 - ^ =
STACK WIN 4 1ba9 61 2 0 0 8 0 0 1 $T2 $esp .cbLocals + .cbSavedRegs + = $T0 .raSearchStart = $eip $T0 ^ = $esp $T0 4 + = $ebx $T0 4 - ^ =
STACK WIN 4 1bb0 59 0 0 0 c 0 0 1 $T2 $esp .cbLocals + .cbSavedRegs + = $T0 .raSearchStart = $eip $T0 ^ = $esp $T0 4 + = $ebx $T0 4 - ^ =
STACK WIN 4 1c0c 51 4 0 0 0 0 0 1 $T2 $esp .cbLocals + .cbSavedRegs + = $T0 .raSearchStart = $eip $T0 ^ = $esp $T0 4 + =
STACK WIN 4 1c0d 4f 3 0 0 4 0 0 1 $T2 $esp .cbLocals + .cbSavedRegs + = $T0 .raSearchStart = $eip $T0 ^ = $esp $T0 4 + = $ebx $T0 4 - ^ =
STACK WIN 4 1c0e 4d 2 0 0 8 0 0 1 $T2 $esp .cbLocals + .cbSavedRegs + = $T0 .raSearchStart = $eip $T0 ^ = $esp $T0 4 + = $ebx $T0 4 - ^ =
STACK WIN 4 1c15 45 0 0 0 c 0 0 1 $T2 $esp .cbLocals + .cbSavedRegs + = $T0 .raSearchStart = $eip $T0 ^ = $esp $T0 4 + = $ebx $T0 4 - ^ =
STACK WIN 4 1c5d 32 5 0 14 0 0 0 1 $T0 $ebp = $eip $T0 4 + ^ = $ebp $T0 ^ = $esp $T0 8 + = $L $T0 .cbSavedRegs - = $P $T0 8 + .cbParams + =
STACK WIN 4 1c8f 31 5 0 14 0 0 0 1 $T0 $ebp = $eip $T0 4 + ^ = $ebp $T0 ^ = $esp $T0 8 + = $L $T0 .cbSavedRegs - = $P $T0 8 + .cbParams + =
STACK WIN 4 1c9d 1f 0 0 14 4 0 0 1 $T0 $ebp = $eip $T0 4 + ^ = $ebp $T0 ^ = $esp $T0 8 + = $L $T0 .cbSavedRegs - = $P $T0 8 + .cbParams + =
STACK WIN 4 1ca1 13 0 0 14 8 0 0 1 $T0 $ebp = $eip $T0 4 + ^ = $ebp $T0 ^ = $esp $T0 8 + = $L $T0 .cbSavedRegs - = $P $T0 8 + .cbParams + =
STACK WIN 4 1cc0 51 4 0 0 0 0 0 1 $T2 $esp .cbLocals + .cbSavedRegs + = $T0 .raSearchStart = $eip $T0 ^ = $esp $T0 4 + =
STACK WIN 4 1cc1 4f 3 0 0 4 0 0 1 $T2 $esp .cbLocals + .cbSavedRegs + = $T0 .raSearchStart = $eip $T0 ^ = $esp $T0 4 + = $ebx $T0 4 - ^ =
STACK WIN 4 1cc2 4d 2 0 0 8 0 0 1 $T2 $esp .cbLocals + .cbSavedRegs + = $T0 .raSearchStart = $eip $T0 ^ = $esp $T0 4 + = $ebx $T0 4 - ^ =
STACK WIN 4 1cc9 45 0 0 0 c 0 0 1 $T2 $esp .cbLocals + .cbSavedRegs + = $T0 .raSearchStart = $eip $T0 ^ = $esp $T0 4 + = $ebx $T0 4 - ^ =
STACK WIN 4 1d11 3b 6 0 8 0 8 0 1 $T0 $ebp = $eip $T0 4 + ^ = $ebp $T0 ^ = $esp $T0 8 + = $L $T0 .cbSavedRegs - = $P $T0 8 + .cbParams + =
STACK WIN 4 1d17 33 0 0 8 4 8 0 1 $T0 $ebp = $eip $T0 4 + ^ = $ebp $T0 ^ = $esp $T0 8 + = $L $T0 .cbSavedRegs - = $P $T0 8 + .cbParams + =
STACK WIN 4 1d4c 3e 6 0 8 0 8 0 1 $T0 $ebp = $eip $T0 4 + ^ = $ebp $T0 ^ = $esp $T0 8 + = $L $T0 .cbSavedRegs - = $P $T0 8 + .cbParams + =
STACK WIN 4 1d52 36 0 0 8 4 8 0 1 $T0 $ebp = $eip $T0 4 + ^ = $ebp $T0 ^ = $esp $T0 8 + = $L $T0 .cbSavedRegs - = $P $T0 8 + .cbParams + =
STACK WIN 4 1d8a 3e 6 0 8 0 8 0 1 $T0 $ebp = $eip $T0 4 + ^ = $ebp $T0 ^ = $esp $T0 8 + = $L $T0 .cbSavedRegs - = $P $T0 8 + .cbParams + =
STACK WIN 4 1d90 36 0 0 8 4 8 0 1 $T0 $ebp = $eip $T0 4 + ^ = $ebp $T0 ^ = $esp $T0 8 + = $L $T0 .cbSavedRegs - = $P $T0 8 + .cbParams + =
STACK WIN 4 1dc8 3e 6 0 8 0 8 0 1 $T0 $ebp = $eip $T0 4 + ^ = $ebp $T0 ^ = $esp $T0 8 + = $L $T0 .cbSavedRegs - = $P $T0 8 + .cbParams + =
STACK WIN 4 1dce 36 0 0 8 4 8 0 1 $T0 $ebp = $eip $T0 4 + ^ = $ebp $T0 ^ = $esp $T0 8 + = $L $T0 .cbSavedRegs - = $P $T0 8 + .cbParams + =
STACK WIN 4 1e06 3e 6 0 8 0 8 0 1 $T0 $ebp = $eip $T0 4 + ^ = $ebp $T0 ^ = $esp $T0 8 + = $L $T0 .cbSavedRegs - = $P $T0 8 + .cbParams + =
STACK WIN 4 1e0c 36 0 0 8 4 8 0 1 $T0 $ebp = $eip $T0 4 + ^ = $ebp $T0 ^ = $esp $T0 8 + = $L $T0 .cbSavedRegs - = $P $T0 8 + .cbParams + =
STACK WIN 4 1e44 3e 6 0 8 0 8 0 1 $T0 $ebp = $eip $T0 4 + ^ = $ebp $T0 ^ = $esp $T0 8 + = $L $T0 .cbSavedRegs - = $P $T0 8 + .cbParams + =
STACK WIN 4 1e4a 36 0 0 8 4 8 0 1 $T0 $ebp = $eip $T0 4 + ^ = $ebp $T0 ^ = $esp $T0 8 + = $L $T0 .cbSavedRegs - = $P $T0 8 + .cbParams + =
STACK WIN 4 1e82 3e 6 0 8 0 8 0 1 $T0 $ebp = $eip $T0 4 + ^ = $ebp $T0 ^ = $esp $T0 8 + = $L $T0 .cbSavedRegs - = $P $T0 8 + .cbParams + =
STACK WIN 4 1e88 36 0 0 8 4 8 0 1 $T0 $ebp = $eip $T0 4 + ^ = $ebp $T0 ^ = $esp $T0 8 + = $L $T0 .cbSavedRegs - = $P $T0 8 + .cbParams + =
STACK WIN 4 1ec0 65 4 0 0 0 0 0 1 $T2 $esp .cbLocals + .cbSavedRegs + = $T0 .raSearchStart = $eip $T0 ^ = $esp $T0 4 + =
STACK WIN 4 1ec1 63 3 0 0 4 0 0 1 $T2 $esp .cbLocals + .cbSavedRegs + = $T0 .raSearchStart = $eip $T0 ^ = $esp $T0 4 + = $ebx $T0 4 - ^ =
STACK WIN 4 1ec2 61 2 0 0 8 0 0 1 $T2 $esp .cbLocals + .cbSavedRegs + = $T0 .raSearchStart = $eip $T0 ^ = $esp $T0 4 + = $ebx $T0 4 - ^ =
STACK WIN 4 1ec9 59 0 0 0 c 0 0 1 $T2 $esp .cbLocals + .cbSavedRegs + = $T0 .raSearchStart = $eip $T0 ^ = $esp $T0 4 + = $ebx $T0 4 - ^ =
STACK WIN 4 1f25 33 5 0 14 0 0 0 1 $T0 $ebp = $eip $T0 4 + ^ = $ebp $T0 ^ = $esp $T0 8 + = $L $T0 .cbSavedRegs - = $P $T0 8 + .cbParams + =
STACK WIN 4 1f2e 26 0 0 14 4 0 0 1 $T0 $ebp = $eip $T0 4 + ^ = $ebp $T0 ^ = $esp $T0 8 + = $L $T0 .cbSavedRegs - = $P $T0 8 + .cbParams + =
STACK WIN 4 1f37 15 0 0 14 8 0 0 1 $T0 $ebp = $eip $T0 4 + ^ = $ebp $T0 ^ = $esp $T0 8 + = $L $T0 .cbSavedRegs - = $P $T0 8 + .cbParams + =
STACK WIN 4 1f58 15 1 0 8 0 0 0 1 $T2 $esp .cbLocals + .cbSavedRegs + = $T0 .raSearchStart = $eip $T0 ^ = $esp $T0 4 + =
STACK WIN 4 1f59 13 0 0 8 4 0 0 1 $T2 $esp .cbLocals + .cbSavedRegs + = $T0 .raSearchStart = $eip $T0 ^ = $esp $T0 4 + =
STACK WIN 4 1f62 9 0 0 8 8 0 0 1 $T2 $esp .cbLocals + .cbSavedRegs + = $T0 .raSearchStart = $eip $T0 ^ = $esp $T0 4 + =
STACK WIN 4 1f6d 1f 3 0 10 0 0 0 1 $T0 $ebp = $eip $T0 4 + ^ = $ebp $T0 ^ = $esp $T0 8 + = $L $T0 .cbSavedRegs - = $P $T0 8 + .cbParams + =
STACK WIN 4 1f8c 16 3 0 0 0 0 0 1 $T2 $esp .cbLocals + .cbSavedRegs + = $T0 .raSearchStart = $eip $T0 ^ = $esp $T0 4 + =
STACK WIN 4 1f8d 14 2 0 0 4 0 0 1 $T2 $esp .cbLocals + .cbSavedRegs + = $T0 .raSearchStart = $eip $T0 ^ = $esp $T0 4 + =
STACK WIN 4 1fa2 2b 2 0 4 0 0 0 1 $T2 $esp .cbLocals + .cbSavedRegs + = $T0 .raSearchStart = $eip $T0 ^ = $esp $T0 4 + =
STACK WIN 4 1fcd 8 0 0 0 0 0 0 1 $T2 $esp .cbLocals + .cbSavedRegs + = $T0 .raSearchStart = $eip $T0 ^ = $esp $T0 4 + =
STACK WIN 4 1fd5 1d 3 0 4 0 0 0 1 $T2 $esp .cbLocals + .cbSavedRegs + = $T0 .raSearchStart = $eip $T0 ^ = $esp $T0 4 + =
STACK WIN 4 1fd6 19 2 0 4 4 0 0 1 $T2 $esp .cbLocals + .cbSavedRegs + = $T0 .raSearchStart = $eip $T0 ^ = $esp $T0 4 + =
STACK WIN 4 1ff2 1d 3 0 4 0 0 0 1 $T2 $esp .cbLocals + .cbSavedRegs + = $T0 .raSearchStart = $eip $T0 ^ = $esp $T0 4 + =
STACK WIN 4 1ff3 19 2 0 4 4 0 0 1 $T2 $esp .cbLocals + .cbSavedRegs + = $T0 .raSearchStart = $eip $T0 ^ = $esp $T0 4 + =
STACK WIN 4 200f 1d 3 0 4 0 0 0 1 $T2 $esp .cbLocals + .cbSavedRegs + = $T0 .raSearchStart = $eip $T0 ^ = $esp $T0 4 + =
STACK WIN 4 2010 19 2 0 4 4 0 0 1 $T2 $esp .cbLocals + .cbSavedRegs + = $T0 .raSearchStart = $eip $T0 ^ = $esp $T0 4 + =
STACK WIN 4 202c 26 3 0 4 0 0 0 1 $T2 $esp .cbLocals + .cbSavedRegs + = $T0 .raSearchStart = $eip $T0 ^ = $esp $T0 4 + =
STACK WIN 4 202d 22 2 0 4 4 0 0 1 $T2 $esp .cbLocals + .cbSavedRegs + = $T0 .raSearchStart = $eip $T0 ^ = $esp $T0 4 + =
STACK WIN 4 2052 22 3 0 4 0 0 0 1 $T2 $esp .cbLocals + .cbSavedRegs + = $T0 .raSearchStart = $eip $T0 ^ = $esp $T0 4 + =
STACK WIN 4 2053 1e 2 0 4 4 0 0 1 $T2 $esp .cbLocals + .cbSavedRegs + = $T0 .raSearchStart = $eip $T0 ^ = $esp $T0 4 + =
STACK WIN 4 2074 22 3 0 4 0 0 0 1 $T2 $esp .cbLocals + .cbSavedRegs + = $T0 .raSearchStart = $eip $T0 ^ = $esp $T0 4 + =
STACK WIN 4 2075 1e 2 0 4 4 0 0 1 $T2 $esp .cbLocals + .cbSavedRegs + = $T0 .raSearchStart = $eip $T0 ^ = $esp $T0 4 + =
STACK WIN 4 2096 22 3 0 4 0 0 0 1 $T2 $esp .cbLocals + .cbSavedRegs + = $T0 .raSearchStart = $eip $T0 ^ = $esp $T0 4 + =
STACK WIN 4 2097 1e 2 0 4 4 0 0 1 $T2 $esp .cbLocals + .cbSavedRegs + = $T0 .raSearchStart = $eip $T0 ^ = $esp $T0 4 + =
STACK WIN 4 20b8 22 3 0 4 0 0 0 1 $T2 $esp .cbLocals + .cbSavedRegs + = $T0 .raSearchStart = $eip $T0 ^ = $esp $T0 4 + =
STACK WIN 4 20b9 1e 2 0 4 4 0 0 1 $T2 $esp .cbLocals + .cbSavedRegs + = $T0 .raSearchStart = $eip $T0 ^ = $esp $T0 4 + =
STACK WIN 4 20da 26 3 0 0 0 0 0 1 $T2 $esp .cbLocals + .cbSavedRegs + = $T0 .raSearchStart = $eip $T0 ^ = $esp $T0 4 + =
STACK WIN 4 20db 24 2 0 0 4 0 0 1 $T2 $esp .cbLocals + .cbSavedRegs + = $T0 .raSearchStart = $eip $T0 ^ = $esp $T0 4 + =
STACK WIN 4 20e1 1a 0 0 0 8 0 0 1 $T2 $esp .cbLocals + .cbSavedRegs + = $T0 .raSearchStart = $eip $T0 ^ = $esp $T0 4 + =
STACK WIN 4 2100 51 4 0 0 0 0 0 1 $T2 $esp .cbLocals + .cbSavedRegs + = $T0 .raSearchStart = $eip $T0 ^ = $esp $T0 4 + =
STACK WIN 4 2101 4f 3 0 0 4 0 0 1 $T2 $esp .cbLocals + .cbSavedRegs + = $T0 .raSearchStart = $eip $T0 ^ = $esp $T0 4 + = $ebx $T0 4 - ^ =
STACK WIN 4 2102 4d 2 0 0 8 0 0 1 $T2 $esp .cbLocals + .cbSavedRegs + = $T0 .raSearchStart = $eip $T0 ^ = $esp $T0 4 + = $ebx $T0 4 - ^ =
STACK WIN 4 2109 45 0 0 0 c 0 0 1 $T2 $esp .cbLocals + .cbSavedRegs + = $T0 .raSearchStart = $eip $T0 ^ = $esp $T0 4 + = $ebx $T0 4 - ^ =
STACK WIN 4 2151 29 0 0 4 0 0 0 1 $T2 $esp .cbLocals + .cbSavedRegs + = $T0 .raSearchStart = $eip $T0 ^ = $esp $T0 4 + =
STACK WIN 4 217a 29 0 0 4 0 0 0 1 $T2 $esp .cbLocals + .cbSavedRegs + = $T0 .raSearchStart = $eip $T0 ^ = $esp $T0 4 + =
STACK WIN 4 21a3 42 8 0 4 0 0 0 1 $T2 $esp .cbLocals + .cbSavedRegs + = $T0 .raSearchStart = $eip $T0 ^ = $esp $T0 4 + =
STACK WIN 4 21ab 1d 0 0 4 4 0 0 1 $T2 $esp .cbLocals + .cbSavedRegs + = $T0 .raSearchStart = $eip $T0 ^ = $esp $T0 4 + =
STACK WIN 4 21e5 44 7 0 4 0 0 0 1 $T2 $esp .cbLocals + .cbSavedRegs + = $T0 .raSearchStart = $eip $T0 ^ = $esp $T0 4 + =
STACK WIN 4 21ec 1e 0 0 4 4 0 0 1 $T2 $esp .cbLocals + .cbSavedRegs + = $T0 .raSearchStart = $eip $T0 ^ = $esp $T0 4 + =
STACK WIN 4 2229 42 8 0 4 0 0 0 1 $T2 $esp .cbLocals + .cbSavedRegs + = $T0 .raSearchStart = $eip $T0 ^ = $esp $T0 4 + =
STACK WIN 4 2231 1d 0 0 4 4 0 0 1 $T2 $esp .cbLocals + .cbSavedRegs + = $T0 .raSearchStart = $eip $T0 ^ = $esp $T0 4 + =
STACK WIN 4 226b 44 7 0 4 0 0 0 1 $T2 $esp .cbLocals + .cbSavedRegs + = $T0 .raSearchStart = $eip $T0 ^ = $esp $T0 4 + =
STACK WIN 4 2272 1e 0 0 4 4 0 0 1 $T2 $esp .cbLocals + .cbSavedRegs + = $T0 .raSearchStart = $eip $T0 ^ = $esp $T0 4 + =
STACK WIN 4 22af 25 7 0 8 0 0 0 1 $T2 $esp .cbLocals + .cbSavedRegs + = $T0 .raSearchStart = $eip $T0 ^ = $esp $T0 4 + =
STACK WIN 4 22b4 1d 2 0 8 4 0 0 1 $T2 $esp .cbLocals + .cbSavedRegs + = $T0 .raSearchStart = $eip $T0 ^ = $esp $T0 4 + =
STACK WIN 4 22ba 14 0 0 8 8 0 0 1 $T2 $esp .cbLocals + .cbSavedRegs + = $T0 .raSearchStart = $eip $T0 ^ = $esp $T0 4 + =
STACK WIN 4 22d4 42 8 0 4 0 0 0 1 $T2 $esp .cbLocals + .cbSavedRegs + = $T0 .raSearchStart = $eip $T0 ^ = $esp $T0 4 + =
STACK WIN 4 22dc 1d 0 0 4 4 0 0 1 $T2 $esp .cbLocals + .cbSavedRegs + = $T0 .raSearchStart = $eip $T0 ^ = $esp $T0 4 + =
STACK WIN 4 2316 25 3 0 4 0 0 0 1 $T2 $esp .cbLocals + .cbSavedRegs + = $T0 .raSearchStart = $eip $T0 ^ = $esp $T0 4 + =
STACK WIN 4 2317 21 2 0 4 4 0 0 1 $T2 $esp .cbLocals + .cbSavedRegs + = $T0 .raSearchStart = $eip $T0 ^ = $esp $T0 4 + =
STACK WIN 4 233b 39 5 0 4 0 0 0 1 $T2 $esp .cbLocals + .cbSavedRegs + = $T0 .raSearchStart = $eip $T0 ^ = $esp $T0 4 + =
STACK WIN 4 233c 35 4 0 4 4 0 0 1 $T2 $esp .cbLocals + .cbSavedRegs + = $T0 .raSearchStart = $eip $T0 ^ = $esp $T0 4 + = $ebx $T0 4 - ^ =
STACK WIN 4 233d 31 3 0 4 8 0 0 1 $T2 $esp .cbLocals + .cbSavedRegs + = $T0 .raSearchStart = $eip $T0 ^ = $esp $T0 4 + = $ebx $T0 4 - ^ =
STACK WIN 4 233e 2f 2 0 4 c 0 0 1 $T2 $esp .cbLocals + .cbSavedRegs + = $T0 .raSearchStart = $eip $T0 ^ = $esp $T0 4 + = $ebx $T0 4 - ^ =
STACK WIN 4 2374 26 3 0 0 0 0 0 1 $T2 $esp .cbLocals + .cbSavedRegs + = $T0 .raSearchStart = $eip $T0 ^ = $esp $T0 4 + =
STACK WIN 4 2375 24 2 0 0 4 0 0 1 $T2 $esp .cbLocals + .cbSavedRegs + = $T0 .raSearchStart = $eip $T0 ^ = $esp $T0 4 + =
STACK WIN 4 237b 1a 0 0 0 8 0 0 1 $T2 $esp .cbLocals + .cbSavedRegs + = $T0 .raSearchStart = $eip $T0 ^ = $esp $T0 4 + =
STACK WIN 4 239a 32 4 0 14 0 0 0 1 $T0 $ebp = $eip $T0 4 + ^ = $ebp $T0 ^ = $esp $T0 8 + = $L $T0 .cbSavedRegs - = $P $T0 8 + .cbParams + =
STACK WIN 4 239e 2a 0 0 14 4 0 0 1 $T0 $ebp = $eip $T0 4 + ^ = $ebp $T0 ^ = $esp $T0 8 + = $L $T0 .cbSavedRegs - = $P $T0 8 + .cbParams + =
STACK WIN 4 23cc 3c 6 0 4 0 0 0 1 $T2 $esp .cbLocals + .cbSavedRegs + = $T0 .raSearchStart = $eip $T0 ^ = $esp $T0 4 + =
STACK WIN 4 23d3 32 0 0 4 4 0 0 1 $T2 $esp .cbLocals + .cbSavedRegs + = $T0 .raSearchStart = $eip $T0 ^ = $esp $T0 4 + =
STACK WIN 4 23dd 24 0 0 4 8 0 0 1 $T2 $esp .cbLocals + .cbSavedRegs + = $T0 .raSearchStart = $eip $T0 ^ = $esp $T0 4 + =
STACK WIN 4 2408 3b 2 0 4 0 0 0 1 $T2 $esp .cbLocals + .cbSavedRegs + = $T0 .raSearchStart = $eip $T0 ^ = $esp $T0 4 + =
STACK WIN 4 2443 1d 3 0 4 0 0 0 1 $T2 $esp .cbLocals + .cbSavedRegs + = $T0 .raSearchStart = $eip $T0 ^ = $esp $T0 4 + =
STACK WIN 4 2444 19 2 0 4 4 0 0 1 $T2 $esp .cbLocals + .cbSavedRegs + = $T0 .raSearchStart = $eip $T0 ^ = $esp $T0 4 + =
STACK WIN 4 2460 49 4 0 0 0 4 0 1 $T0 $ebp = $eip $T0 4 + ^ = $ebp $T0 ^ = $esp $T0 8 + = $L $T0 .cbSavedRegs - = $P $T0 8 + .cbParams + =
STACK WIN 4 24a9 49 4 0 0 0 4 0 1 $T0 $ebp = $eip $T0 4 + ^ = $ebp $T0 ^ = $esp $T0 8 + = $L $T0 .cbSavedRegs - = $P $T0 8 + .cbParams + =
STACK WIN 4 24f2 47 4 0 0 0 4 0 1 $T0 $ebp = $eip $T0 4 + ^ = $ebp $T0 ^ = $esp $T0 8 + = $L $T0 .cbSavedRegs - = $P $T0 8 + .cbParams + =
STACK WIN 4 2539 4b 4 0 0 0 4 0 1 $T0 $ebp = $eip $T0 4 + ^ = $ebp $T0 ^ = $esp $T0 8 + = $L $T0 .cbSavedRegs - = $P $T0 8 + .cbParams + =
STACK WIN 4 2584 46 4 0 0 0 4 0 1 $T0 $ebp = $eip $T0 4 + ^ = $ebp $T0 ^ = $esp $T0 8 + = $L $T0 .cbSavedRegs - = $P $T0 8 + .cbParams + =
STACK WIN 4 25ca 97 12 0 4 0 4 0 1 $T0 $ebp = $eip $T0 4 + ^ = $ebp $T0 ^ = $esp $T0 8 + = $L $T0 .cbSavedRegs - = $P $T0 8 + .cbParams + =
STACK WIN 4 25d3 8a 9 0 4 4 4 0 1 $T0 $ebp = $eip $T0 4 + ^ = $ebp $T0 ^ = $esp $T0 8 + = $L $T0 .cbSavedRegs - = $P $T0 8 + .cbParams + = $ebx $T0 8 - ^ =
STACK WIN 4 25d9 83 3 0 4 8 4 0 1 $T0 $ebp = $eip $T0 4 + ^ = $ebp $T0 ^ = $esp $T0 8 + = $L $T0 .cbSavedRegs - = $P $T0 8 + .cbParams + = $ebx $T0 8 - ^ =
STACK WIN 4 25da 81 2 0 4 c 4 0 1 $T0 $ebp = $eip $T0 4 + ^ = $ebp $T0 ^ = $esp $T0 8 + = $L $T0 .cbSavedRegs - = $P $T0 8 + .cbParams + = $ebx $T0 8 - ^ =
STACK WIN 4 2661 ad 6 0 4 0 0 0 1 $T0 $ebp = $eip $T0 4 + ^ = $ebp $T0 ^ = $esp $T0 8 + = $L $T0 .cbSavedRegs - = $P $T0 8 + .cbParams + =
STACK WIN 4 2665 a5 2 0 4 4 0 0 1 $T0 $ebp = $eip $T0 4 + ^ = $ebp $T0 ^ = $esp $T0 8 + = $L $T0 .cbSavedRegs - = $P $T0 8 + .cbParams + =
STACK WIN 4 26a2 67 0 0 4 8 0 0 1 $T0 $ebp = $eip $T0 4 + ^ = $ebp $T0 ^ = $esp $T0 8 + = $L $T0 .cbSavedRegs - = $P $T0 8 + .cbParams + =
STACK WIN 4 270e 120 14 0 8 0 24 0 1 $T0 $ebp = $eip $T0 4 + ^ = $ebp $T0 ^ = $esp $T0 8 + = $L $T0 .cbSavedRegs - = $P $T0 8 + .cbParams + =
STACK WIN 4 2722 103 0 0 8 4 24 0 1 $T0 $ebp = $eip $T0 4 + ^ = $ebp $T0 ^ = $esp $T0 8 + = $L $T0 .cbSavedRegs - = $P $T0 8 + .cbParams + =
STACK WIN 4 282e c3 11 0 4 0 24 0 1 $T0 $ebp = $eip $T0 4 + ^ = $ebp $T0 ^ = $esp $T0 8 + = $L $T0 .cbSavedRegs - = $P $T0 8 + .cbParams + =
STACK WIN 4 283f a9 0 0 4 4 24 0 1 $T0 $ebp = $eip $T0 4 + ^ = $ebp $T0 ^ = $esp $T0 8 + = $L $T0 .cbSavedRegs - = $P $T0 8 + .cbParams + =
STACK WIN 4 28f1 33 d 0 4 0 0 0 1 $T2 $esp .cbLocals + .cbSavedRegs + = $T0 .raSearchStart = $eip $T0 ^ = $esp $T0 4 + =
STACK WIN 4 28f2 2f c 0 4 4 0 0 1 $T2 $esp .cbLocals + .cbSavedRegs + = $T0 .raSearchStart = $eip $T0 ^ = $esp $T0 4 + = $ebx $T0 4 - ^ =
STACK WIN 4 28f3 2d b 0 4 8 0 0 1 $T2 $esp .cbLocals + .cbSavedRegs + = $T0 .raSearchStart = $eip $T0 ^ = $esp $T0 4 + = $ebx $T0 4 - ^ =
STACK WIN 4 28f4 2b a 0 4 c 0 0 1 $T2 $esp .cbLocals + .cbSavedRegs + = $T0 .raSearchStart = $eip $T0 ^ = $esp $T0 4 + = $ebx $T0 4 - ^ =
STACK WIN 4 2924 42 c 0 4 0 0 0 1 $T2 $esp .cbLocals + .cbSavedRegs + = $T0 .raSearchStart = $eip $T0 ^ = $esp $T0 4 + =
STACK WIN 4 2925 3e b 0 4 4 0 0 1 $T2 $esp .cbLocals + .cbSavedRegs + = $T0 .raSearchStart = $eip $T0 ^ = $esp $T0 4 + =
STACK WIN 4 2928 3a 8 0 4 8 0 0 1 $T2 $esp .cbLocals + .cbSavedRegs + = $T0 .raSearchStart = $eip $T0 ^ = $esp $T0 4 + =
STACK WIN 4 2966 48 c 0 4 0 0 0 1 $T2 $esp .cbLocals + .cbSavedRegs + = $T0 .raSearchStart = $eip $T0 ^ = $esp $T0 4 + =
STACK WIN 4 2967 44 b 0 4 4 0 0 1 $T2 $esp .cbLocals + .cbSavedRegs + = $T0 .raSearchStart = $eip $T0 ^ = $esp $T0 4 + =
STACK WIN 4 296a 40 8 0 4 8 0 0 1 $T2 $esp .cbLocals + .cbSavedRegs + = $T0 .raSearchStart = $eip $T0 ^ = $esp $T0 4 + =
STACK WIN 4 29ae 48 c 0 4 0 0 0 1 $T2 $esp .cbLocals + .cbSavedRegs + = $T0 .raSearchStart = $eip $T0 ^ = $esp $T0 4 + =
STACK WIN 4 29af 44 b 0 4 4 0 0 1 $T2 $esp .cbLocals + .cbSavedRegs + = $T0 .raSearchStart = $eip $T0 ^ = $esp $T0 4 + =
STACK WIN 4 29b2 40 8 0 4 8 0 0 1 $T2 $esp .cbLocals + .cbSavedRegs + = $T0 .raSearchStart = $eip $T0 ^ = $esp $T0 4 + =
STACK WIN 4 29f6 48 c 0 4 0 0 0 1 $T2 $esp .cbLocals + .cbSavedRegs + = $T0 .raSearchStart = $eip $T0 ^ = $esp $T0 4 + =
STACK WIN 4 29f7 44 b 0 4 4 0 0 1 $T2 $esp .cbLocals + .cbSavedRegs + = $T0 .raSearchStart = $eip $T0 ^ = $esp $T0 4 + =
STACK WIN 4 29fa 40 8 0 4 8 0 0 1 $T2 $esp .cbLocals + .cbSavedRegs + = $T0 .raSearchStart = $eip $T0 ^ = $esp $T0 4 + =
STACK WIN 4 2a3e 48 c 0 4 0 0 0 1 $T2 $esp .cbLocals + .cbSavedRegs + = $T0 .raSearchStart = $eip $T0 ^ = $esp $T0 4 + =
STACK WIN 4 2a3f 44 b 0 4 4 0 0 1 $T2 $esp .cbLocals + .cbSavedRegs + = $T0 .raSearchStart = $eip $T0 ^ = $esp $T0 4 + =
STACK WIN 4 2a42 40 8 0 4 8 0 0 1 $T2 $esp .cbLocals + .cbSavedRegs + = $T0 .raSearchStart = $eip $T0 ^ = $esp $T0 4 + =
STACK WIN 4 2a86 287 13 0 c 0 44 0 1 $T0 $ebp = $eip $T0 4 + ^ = $ebp $T0 ^ = $esp $T0 8 + = $L $T0 .cbSavedRegs - = $P $T0 8 + .cbParams + =
STACK WIN 4 2a8d 268 c 0 c 4 44 0 1 $T0 $ebp = $eip $T0 4 + ^ = $ebp $T0 ^ = $esp $T0 8 + = $L $T0 .cbSavedRegs - = $P $T0 8 + .cbParams + = $ebx $T0 72 - ^ =
STACK WIN 4 2a95 25f 4 0 c 8 44 0 1 $T0 $ebp = $eip $T0 4 + ^ = $ebp $T0 ^ = $esp $T0 8 + = $L $T0 .cbSavedRegs - = $P $T0 8 + .cbParams + = $ebx $T0 72 - ^ =
STACK WIN 4 2a96 25d 3 0 c c 44 0 1 $T0 $ebp = $eip $T0 4 + ^ = $ebp $T0 ^ = $esp $T0 8 + = $L $T0 .cbSavedRegs - = $P $T0 8 + .cbParams + = $ebx $T0 72 - ^ =
STACK WIN 4 2d0d 2e 1 0 0 0 0 0 1 $T2 $esp .cbLocals + .cbSavedRegs + = $T0 .raSearchStart = $eip $T0 ^ = $esp $T0 4 + =
STACK WIN 4 2d0e 2c 0 0 0 4 0 0 1 $T2 $esp .cbLocals + .cbSavedRegs + = $T0 .raSearchStart = $eip $T0 ^ = $esp $T0 4 + = $ebx $T0 4 - ^ =
STACK WIN 4 2d3b 32 4 0 14 0 0 0 1 $T0 $ebp = $eip $T0 4 + ^ = $ebp $T0 ^ = $esp $T0 8 + = $L $T0 .cbSavedRegs - = $P $T0 8 + .cbParams + =
STACK WIN 4 2d3f 2a 0 0 14 4 0 0 1 $T0 $ebp = $eip $T0 4 + ^ = $ebp $T0 ^ = $esp $T0 8 + = $L $T0 .cbSavedRegs - = $P $T0 8 + .cbParams + =
STACK WIN 4 2d6d 2e 1 0 0 0 0 0 1 $T2 $esp .cbLocals + .cbSavedRegs + = $T0 .raSearchStart = $eip $T0 ^ = $esp $T0 4 + =
STACK WIN 4 2d6e 2c 0 0 0 4 0 0 1 $T2 $esp .cbLocals + .cbSavedRegs + = $T0 .raSearchStart = $eip $T0 ^ = $esp $T0 4 + = $ebx $T0 4 - ^ =
STACK WIN 4 2d9b 32 4 0 14 0 0 0 1 $T0 $ebp = $eip $T0 4 + ^ = $ebp $T0 ^ = $esp $T0 8 + = $L $T0 .cbSavedRegs - = $P $T0 8 + .cbParams + =
STACK WIN 4 2d9f 2a 0 0 14 4 0 0 1 $T0 $ebp = $eip $T0 4 + ^ = $ebp $T0 ^ = $esp $T0 8 + = $L $T0 .cbSavedRegs - = $P $T0 8 + .cbParams + =
STACK WIN 4 2dcd 33 d 0 4 0 0 0 1 $T2 $esp .cbLocals + .cbSavedRegs + = $T0 .raSearchStart = $eip $T0 ^ = $esp $T0 4 + =
STACK WIN 4 2dce 2f c 0 4 4 0 0 1 $T2 $esp .cbLocals + .cbSavedRegs + = $T0 .raSearchStart = $eip $T0 ^ = $esp $T0 4 + = $ebx $T0 4 - ^ =
STACK WIN 4 2dcf 2d b 0 4 8 0 0 1 $T2 $esp .cbLocals + .cbSavedRegs + = $T0 .raSearchStart = $eip $T0 ^ = $esp $T0 4 + = $ebx $T0 4 - ^ =
STACK WIN 4 2dd0 2b a 0 4 c 0 0 1 $T2 $esp .cbLocals + .cbSavedRegs + = $T0 .raSearchStart = $eip $T0 ^ = $esp $T0 4 + = $ebx $T0 4 - ^ =
STACK WIN 4 2e00 2e 1 0 0 0 0 0 1 $T2 $esp .cbLocals + .cbSavedRegs + = $T0 .raSearchStart = $eip $T0 ^ = $esp $T0 4 + =
STACK WIN 4 2e01 2c 0 0 0 4 0 0 1 $T2 $esp .cbLocals + .cbSavedRegs + = $T0 .raSearchStart = $eip $T0 ^ = $esp $T0 4 + = $ebx $T0 4 - ^ =
STACK WIN 4 2e2e 1b 0 0 8 0 0 0 1 $T2 $esp .cbLocals + .cbSavedRegs + = $T0 .raSearchStart = $eip $T0 ^ = $esp $T0 4 + =
STACK WIN 4 2e49 165 b 0 10 0 40 0 1 $T0 $ebp = $eip $T0 4 + ^ = $ebp $T0 ^ = $esp $T0 8 + = $L $T0 .cbSavedRegs - = $P $T0 8 + .cbParams + =
STACK WIN 4 2e50 15a 4 0 10 4 40 0 1 $T0 $ebp = $eip $T0 4 + ^ = $ebp $T0 ^ = $esp $T0 8 + = $L $T0 .cbSavedRegs - = $P $T0 8 + .cbParams + = $ebx $T0 68 - ^ =
STACK WIN 4 2e51 158 3 0 10 8 40 0 1 $T0 $ebp = $eip $T0 4 + ^ = $ebp $T0 ^ = $esp $T0 8 + = $L $T0 .cbSavedRegs - = $P $T0 8 + .cbParams + = $ebx $T0 68 - ^ =
STACK WIN 4 2e52 156 2 0 10 c 40 0 1 $T0 $ebp = $eip $T0 4 + ^ = $ebp $T0 ^ = $esp $T0 8 + = $L $T0 .cbSavedRegs - = $P $T0 8 + .cbParams + = $ebx $T0 68 - ^ =
STACK WIN 4 2fae 1a 1 0 10 0 0 0 1 $T2 $esp .cbLocals + .cbSavedRegs + = $T0 .raSearchStart = $eip $T0 ^ = $esp $T0 4 + =
STACK WIN 4 2faf 18 0 0 10 4 0 0 1 $T2 $esp .cbLocals + .cbSavedRegs + = $T0 .raSearchStart = $eip $T0 ^ = $esp $T0 4 + =
STACK WIN 4 2fc8 21 3 0 18 0 0 0 1 $T0 $ebp = $eip $T0 4 + ^ = $ebp $T0 ^ = $esp $T0 8 + = $L $T0 .cbSavedRegs - = $P $T0 8 + .cbParams + =
STACK WIN 4 2fe9 1a 1 0 10 0 0 0 1 $T2 $esp .cbLocals + .cbSavedRegs + = $T0 .raSearchStart = $eip $T0 ^ = $esp $T0 4 + =
STACK WIN 4 2fea 18 0 0 10 4 0 0 1 $T2 $esp .cbLocals + .cbSavedRegs + = $T0 .raSearchStart = $eip $T0 ^ = $esp $T0 4 + =
STACK WIN 4 3003 2a 3 0 18 0 0 0 1 $T0 $ebp = $eip $T0 4 + ^ = $ebp $T0 ^ = $esp $T0 8 + = $L $T0 .cbSavedRegs - = $P $T0 8 + .cbParams + =
STACK WIN 4 300e 1d 0 0 18 4 0 0 1 $T0 $ebp = $eip $T0 4 + ^ = $ebp $T0 ^ = $esp $T0 8 + = $L $T0 .cbSavedRegs - = $P $T0 8 + .cbParams + =
STACK WIN 4 300f 1b 0 0 18 8 0 0 1 $T0 $ebp = $eip $T0 4 + ^ = $ebp $T0 ^ = $esp $T0 8 + = $L $T0 .cbSavedRegs - = $P $T0 8 + .cbParams + =
STACK WIN 4 302d 22 5 0 14 0 4 0 1 $T0 $ebp = $eip $T0 4 + ^ = $ebp $T0 ^ = $esp $T0 8 + = $L $T0 .cbSavedRegs - = $P $T0 8 + .cbParams + =
STACK WIN 4 3032 1b 0 0 14 4 4 0 1 $T0 $ebp = $eip $T0 4 + ^ = $ebp $T0 ^ = $esp $T0 8 + = $L $T0 .cbSavedRegs - = $P $T0 8 + .cbParams + =
STACK WIN 4 304f 1b5 a 0 0 0 3c 0 1 $T0 $ebp = $eip $T0 4 + ^ = $ebp $T0 ^ = $esp $T0 8 + = $L $T0 .cbSavedRegs - = $P $T0 8 + .cbParams + =
STACK WIN 4 3056 1ac 3 0 0 4 3c 0 1 $T0 $ebp = $eip $T0 4 + ^ = $ebp $T0 ^ = $esp $T0 8 + = $L $T0 .cbSavedRegs - = $P $T0 8 + .cbParams + =
STACK WIN 4 3057 1aa 2 0 0 8 3c 0 1 $T0 $ebp = $eip $T0 4 + ^ = $ebp $T0 ^ = $esp $T0 8 + = $L $T0 .cbSavedRegs - = $P $T0 8 + .cbParams + =
STACK WIN 4 312c d4 0 0 0 c 3c 0 1 $T0 $ebp = $eip $T0 4 + ^ = $ebp $T0 ^ = $esp $T0 8 + = $L $T0 .cbSavedRegs - = $P $T0 8 + .cbParams + = $ebx $T0 72 - ^ =
STACK WIN 4 3204 13d 8 0 4 0 4 0 1 $T0 $ebp = $eip $T0 4 + ^ = $ebp $T0 ^ = $esp $T0 8 + = $L $T0 .cbSavedRegs - = $P $T0 8 + .cbParams + =
STACK WIN 4 3209 134 3 0 4 4 4 0 1 $T0 $ebp = $eip $T0 4 + ^ = $ebp $T0 ^ = $esp $T0 8 + = $L $T0 .cbSavedRegs - = $P $T0 8 + .cbParams + =
STACK WIN 4 320a 132 2 0 4 8 4 0 1 $T0 $ebp = $eip $T0 4 + ^ = $ebp $T0 ^ = $esp $T0 8 + = $L $T0 .cbSavedRegs - = $P $T0 8 + .cbParams + =
STACK WIN 4 328b b0 0 0 4 c 4 0 1 $T0 $ebp = $eip $T0 4 + ^ = $ebp $T0 ^ = $esp $T0 8 + = $L $T0 .cbSavedRegs - = $P $T0 8 + .cbParams + = $ebx $T0 16 - ^ =
STACK WIN 4 3341 110 7 0 0 0 4 0 1 $T0 $ebp = $eip $T0 4 + ^ = $ebp $T0 ^ = $esp $T0 8 + = $L $T0 .cbSavedRegs - = $P $T0 8 + .cbParams + =
STACK WIN 4 3346 109 2 0 0 4 4 0 1 $T0 $ebp = $eip $T0 4 + ^ = $ebp $T0 ^ = $esp $T0 8 + = $L $T0 .cbSavedRegs - = $P $T0 8 + .cbParams + =
STACK WIN 4 338d c1 0 0 0 8 4 0 1 $T0 $ebp = $eip $T0 4 + ^ = $ebp $T0 ^ = $esp $T0 8 + = $L $T0 .cbSavedRegs - = $P $T0 8 + .cbParams + =
STACK WIN 4 3451 181 8 0 4 0 4 0 1 $T0 $ebp = $eip $T0 4 + ^ = $ebp $T0 ^ = $esp $T0 8 + = $L $T0 .cbSavedRegs - = $P $T0 8 + .cbParams + =
STACK WIN 4 3456 178 3 0 4 4 4 0 1 $T0 $ebp = $eip $T0 4 + ^ = $ebp $T0 ^ = $esp $T0 8 + = $L $T0 .cbSavedRegs - = $P $T0 8 + .cbParams + = $ebx $T0 8 - ^ =
STACK WIN 4 3457 176 2 0 4 8 4 0 1 $T0 $ebp = $eip $T0 4 + ^ = $ebp $T0 ^ = $esp $T0 8 + = $L $T0 .cbSavedRegs - = $P $T0 8 + .cbParams + = $ebx $T0 8 - ^ =
STACK WIN 4 34e3 e9 0 0 4 c 4 0 1 $T0 $ebp = $eip $T0 4 + ^ = $ebp $T0 ^ = $esp $T0 8 + = $L $T0 .cbSavedRegs - = $P $T0 8 + .cbParams + = $ebx $T0 8 - ^ =
STACK WIN 4 35d2 191 12 0 0 0 24 0 1 $T0 $ebp = $eip $T0 4 + ^ = $ebp $T0 ^ = $esp $T0 8 + = $L $T0 .cbSavedRegs - = $P $T0 8 + .cbParams + =
STACK WIN 4 35e3 179 1 0 0 4 24 0 1 $T0 $ebp = $eip $T0 4 + ^ = $ebp $T0 ^ = $esp $T0 8 + = $L $T0 .cbSavedRegs - = $P $T0 8 + .cbParams + = $ebx $T0 40 - ^ =
STACK WIN 4 35e4 175 0 0 0 8 24 0 1 $T0 $ebp = $eip $T0 4 + ^ = $ebp $T0 ^ = $esp $T0 8 + = $L $T0 .cbSavedRegs - = $P $T0 8 + .cbParams + = $ebx $T0 40 - ^ =
STACK WIN 4 3637 11e 0 0 0 c 24 0 1 $T0 $ebp = $eip $T0 4 + ^ = $ebp $T0 ^ = $esp $T0 8 + = $L $T0 .cbSavedRegs - = $P $T0 8 + .cbParams + = $ebx $T0 40 - ^ =
STACK WIN 4 3763 21 1 0 4 0 0 0 1 $T2 $esp .cbLocals + .cbSavedRegs + = $T0 .raSearchStart = $eip $T0 ^ = $esp $T0 4 + =
STACK WIN 4 3764 1d 0 0 4 4 0 0 1 $T2 $esp .cbLocals + .cbSavedRegs + = $T0 .raSearchStart = $eip $T0 ^ = $esp $T0 4 + =
STACK WIN 4 3784 26 4 0 0 0 0 0 1 $T2 $esp .cbLocals + .cbSavedRegs + = $T0 .raSearchStart = $eip $T0 ^ = $esp $T0 4 + =
STACK WIN 4 3785 24 3 0 0 4 0 0 1 $T2 $esp .cbLocals + .cbSavedRegs + = $T0 .raSearchStart = $eip $T0 ^ = $esp $T0 4 + =
STACK WIN 4 3786 1f 2 0 0 8 0 0 1 $T2 $esp .cbLocals + .cbSavedRegs + = $T0 .raSearchStart = $eip $T0 ^ = $esp $T0 4 + =
STACK WIN 4 37aa 1b 0 0 8 0 0 0 1 $T2 $esp .cbLocals + .cbSavedRegs + = $T0 .raSearchStart = $eip $T0 ^ = $esp $T0 4 + =
STACK WIN 4 37c5 20 3 0 0 0 0 0 1 $T2 $esp .cbLocals + .cbSavedRegs + = $T0 .raSearchStart = $eip $T0 ^ = $esp $T0 4 + =
STACK WIN 4 37c6 1e 2 0 0 4 0 0 1 $T2 $esp .cbLocals + .cbSavedRegs + = $T0 .raSearchStart = $eip $T0 ^ = $esp $T0 4 + =
STACK WIN 4 37e5 1b 0 0 8 0 0 0 1 $T2 $esp .cbLocals + .cbSavedRegs + = $T0 .raSearchStart = $eip $T0 ^ = $esp $T0 4 + =
STACK WIN 4 3800 16 0 0 4 0 0 0 1 $T2 $esp .cbLocals + .cbSavedRegs + = $T0 .raSearchStart = $eip $T0 ^ = $esp $T0 4 + =
STACK WIN 4 3816 aa 8 0 14 0 8 0 1 $T0 $ebp = $eip $T0 4 + ^ = $ebp $T0 ^ = $esp $T0 8 + = $L $T0 .cbSavedRegs - = $P $T0 8 + .cbParams + =
STACK WIN 4 381c a0 2 0 14 4 8 0 1 $T0 $ebp = $eip $T0 4 + ^ = $ebp $T0 ^ = $esp $T0 8 + = $L $T0 .cbSavedRegs - = $P $T0 8 + .cbParams + =
STACK WIN 4 387f 2e 0 0 14 8 8 0 1 $T0 $ebp = $eip $T0 4 + ^ = $ebp $T0 ^ = $esp $T0 8 + = $L $T0 .cbSavedRegs - = $P $T0 8 + .cbParams + = $ebx $T0 16 - ^ =
STACK WIN 4 3880 2c 0 0 14 c 8 0 1 $T0 $ebp = $eip $T0 4 + ^ = $ebp $T0 ^ = $esp $T0 8 + = $L $T0 .cbSavedRegs - = $P $T0 8 + .cbParams + = $ebx $T0 16 - ^ =
STACK WIN 4 38c0 25 3 0 0 0 0 0 1 $T2 $esp .cbLocals + .cbSavedRegs + = $T0 .raSearchStart = $eip $T0 ^ = $esp $T0 4 + =
STACK WIN 4 38c1 23 2 0 0 4 0 0 1 $T2 $esp .cbLocals + .cbSavedRegs + = $T0 .raSearchStart = $eip $T0 ^ = $esp $T0 4 + =
STACK WIN 4 38e5 165 b 0 10 0 40 0 1 $T0 $ebp = $eip $T0 4 + ^ = $ebp $T0 ^ = $esp $T0 8 + = $L $T0 .cbSavedRegs - = $P $T0 8 + .cbParams + =
STACK WIN 4 38ec 15a 4 0 10 4 40 0 1 $T0 $ebp = $eip $T0 4 + ^ = $ebp $T0 ^ = $esp $T0 8 + = $L $T0 .cbSavedRegs - = $P $T0 8 + .cbParams + = $ebx $T0 68 - ^ =
STACK WIN 4 38ed 158 3 0 10 8 40 0 1 $T0 $ebp = $eip $T0 4 + ^ = $ebp $T0 ^ = $esp $T0 8 + = $L $T0 .cbSavedRegs - = $P $T0 8 + .cbParams + = $ebx $T0 68 - ^ =
STACK WIN 4 38ee 156 2 0 10 c 40 0 1 $T0 $ebp = $eip $T0 4 + ^ = $ebp $T0 ^ = $esp $T0 8 + = $L $T0 .cbSavedRegs - = $P $T0 8 + .cbParams + = $ebx $T0 68 - ^ =
STACK WIN 4 3a4a 25 3 0 0 0 0 0 1 $T2 $esp .cbLocals + .cbSavedRegs + = $T0 .raSearchStart = $eip $T0 ^ = $esp $T0 4 + =
STACK WIN 4 3a4b 23 2 0 0 4 0 0 1 $T2 $esp .cbLocals + .cbSavedRegs + = $T0 .raSearchStart = $eip $T0 ^ = $esp $T0 4 + =
STACK WIN 4 3a6f 165 b 0 10 0 40 0 1 $T0 $ebp = $eip $T0 4 + ^ = $ebp $T0 ^ = $esp $T0 8 + = $L $T0 .cbSavedRegs - = $P $T0 8 + .cbParams + =
STACK WIN 4 3a76 15a 4 0 10 4 40 0 1 $T0 $ebp = $eip $T0 4 + ^ = $ebp $T0 ^ = $esp $T0 8 + = $L $T0 .cbSavedRegs - = $P $T0 8 + .cbParams + = $ebx $T0 68 - ^ =
STACK WIN 4 3a77 158 3 0 10 8 40 0 1 $T0 $ebp = $eip $T0 4 + ^ = $ebp $T0 ^ = $esp $T0 8 + = $L $T0 .cbSavedRegs - = $P $T0 8 + .cbParams + = $ebx $T0 68 - ^ =
STACK WIN 4 3a78 156 2 0 10 c 40 0 1 $T0 $ebp = $eip $T0 4 + ^ = $ebp $T0 ^ = $esp $T0 8 + = $L $T0 .cbSavedRegs - = $P $T0 8 + .cbParams + = $ebx $T0 68 - ^ =
STACK WIN 4 3bd4 287 13 0 c 0 44 0 1 $T0 $ebp = $eip $T0 4 + ^ = $ebp $T0 ^ = $esp $T0 8 + = $L $T0 .cbSavedRegs - = $P $T0 8 + .cbParams + =
STACK WIN 4 3bdb 268 c 0 c 4 44 0 1 $T0 $ebp = $eip $T0 4 + ^ = $ebp $T0 ^ = $esp $T0 8 + = $L $T0 .cbSavedRegs - = $P $T0 8 + .cbParams + = $ebx $T0 72 - ^ =
STACK WIN 4 3be3 25f 4 0 c 8 44 0 1 $T0 $ebp = $eip $T0 4 + ^ = $ebp $T0 ^ = $esp $T0 8 + = $L $T0 .cbSavedRegs - = $P $T0 8 + .cbParams + = $ebx $T0 72 - ^ =
STACK WIN 4 3be4 25d 3 0 c c 44 0 1 $T0 $ebp = $eip $T0 4 + ^ = $ebp $T0 ^ = $esp $T0 8 + = $L $T0 .cbSavedRegs - = $P $T0 8 + .cbParams + = $ebx $T0 72 - ^ =
STACK WIN 4 3e5b 26 4 0 0 0 0 0 1 $T2 $esp .cbLocals + .cbSavedRegs + = $T0 .raSearchStart = $eip $T0 ^ = $esp $T0 4 + =
STACK WIN 4 3e5c 24 3 0 0 4 0 0 1 $T2 $esp .cbLocals + .cbSavedRegs + = $T0 .raSearchStart = $eip $T0 ^ = $esp $T0 4 + =
STACK WIN 4 3e5d 1f 2 0 0 8 0 0 1 $T2 $esp .cbLocals + .cbSavedRegs + = $T0 .raSearchStart = $eip $T0 ^ = $esp $T0 4 + =
STACK WIN 4 3e81 25 3 0 0 0 0 0 1 $T2 $esp .cbLocals + .cbSavedRegs + = $T0 .raSearchStart = $eip $T0 ^ = $esp $T0 4 + =
STACK WIN 4 3e82 23 2 0 0 4 0 0 1 $T2 $esp .cbLocals + .cbSavedRegs + = $T0 .raSearchStart = $eip $T0 ^ = $esp $T0 4 + =
STACK WIN 4 3ea6 290 13 0 c 0 44 0 1 $T0 $ebp = $eip $T0 4 + ^ = $ebp $T0 ^ = $esp $T0 8 + = $L $T0 .cbSavedRegs - = $P $T0 8 + .cbParams + =
STACK WIN 4 3ead 271 c 0 c 4 44 0 1 $T0 $ebp = $eip $T0 4 + ^ = $ebp $T0 ^ = $esp $T0 8 + = $L $T0 .cbSavedRegs - = $P $T0 8 + .cbParams + = $ebx $T0 72 - ^ =
STACK WIN 4 3eb5 268 4 0 c 8 44 0 1 $T0 $ebp = $eip $T0 4 + ^ = $ebp $T0 ^ = $esp $T0 8 + = $L $T0 .cbSavedRegs - = $P $T0 8 + .cbParams + = $ebx $T0 72 - ^ =
STACK WIN 4 3eb6 266 3 0 c c 44 0 1 $T0 $ebp = $eip $T0 4 + ^ = $ebp $T0 ^ = $esp $T0 8 + = $L $T0 .cbSavedRegs - = $P $T0 8 + .cbParams + = $ebx $T0 72 - ^ =
STACK WIN 4 4136 f5 14 0 10 0 10 0 1 $T0 $ebp = $eip $T0 4 + ^ = $ebp $T0 ^ = $esp $T0 8 + = $L $T0 .cbSavedRegs - = $P $T0 8 + .cbParams + =
STACK WIN 4 4141 e6 9 0 10 4 10 0 1 $T0 $ebp = $eip $T0 4 + ^ = $ebp $T0 ^ = $esp $T0 8 + = $L $T0 .cbSavedRegs - = $P $T0 8 + .cbParams + = $ebx $T0 20 - ^ =
STACK WIN 4 4147 df 3 0 10 8 10 0 1 $T0 $ebp = $eip $T0 4 + ^ = $ebp $T0 ^ = $esp $T0 8 + = $L $T0 .cbSavedRegs - = $P $T0 8 + .cbParams + = $ebx $T0 20 - ^ =
STACK WIN 4 4148 dd 2 0 10 c 10 0 1 $T0 $ebp = $eip $T0 4 + ^ = $ebp $T0 ^ = $esp $T0 8 + = $L $T0 .cbSavedRegs - = $P $T0 8 + .cbParams + = $ebx $T0 20 - ^ =
STACK WIN 4 422b 1a 4 0 c 0 4 0 1 $T0 $ebp = $eip $T0 4 + ^ = $ebp $T0 ^ = $esp $T0 8 + = $L $T0 .cbSavedRegs - = $P $T0 8 + .cbParams + =
STACK WIN 4 4245 28 5 0 10 0 4 0 1 $T0 $ebp = $eip $T0 4 + ^ = $ebp $T0 ^ = $esp $T0 8 + = $L $T0 .cbSavedRegs - = $P $T0 8 + .cbParams + =
STACK WIN 4 424a 21 0 0 10 4 4 0 1 $T0 $ebp = $eip $T0 4 + ^ = $ebp $T0 ^ = $esp $T0 8 + = $L $T0 .cbSavedRegs - = $P $T0 8 + .cbParams + =
STACK WIN 4 426d 1a 4 0 c 0 4 0 1 $T0 $ebp = $eip $T0 4 + ^ = $ebp $T0 ^ = $esp $T0 8 + = $L $T0 .cbSavedRegs - = $P $T0 8 + .cbParams + =
STACK WIN 4 4287 28 5 0 10 0 4 0 1 $T0 $ebp = $eip $T0 4 + ^ = $ebp $T0 ^ = $esp $T0 8 + = $L $T0 .cbSavedRegs - = $P $T0 8 + .cbParams + =
STACK WIN 4 428c 21 0 0 10 4 4 0 1 $T0 $ebp = $eip $T0 4 + ^ = $ebp $T0 ^ = $esp $T0 8 + = $L $T0 .cbSavedRegs - = $P $T0 8 + .cbParams + =
STACK WIN 4 42af cd b 0 8 0 14 0 1 $T0 $ebp = $eip $T0 4 + ^ = $ebp $T0 ^ = $esp $T0 8 + = $L $T0 .cbSavedRegs - = $P $T0 8 + .cbParams + =
STACK WIN 4 42b6 c2 4 0 8 4 14 0 1 $T0 $ebp = $eip $T0 4 + ^ = $ebp $T0 ^ = $esp $T0 8 + = $L $T0 .cbSavedRegs - = $P $T0 8 + .cbParams + = $ebx $T0 24 - ^ =
STACK WIN 4 42b7 c0 3 0 8 8 14 0 1 $T0 $ebp = $eip $T0 4 + ^ = $ebp $T0 ^ = $esp $T0 8 + = $L $T0 .cbSavedRegs - = $P $T0 8 + .cbParams + = $ebx $T0 24 - ^ =
STACK WIN 4 42b8 be 2 0 8 c 14 0 1 $T0 $ebp = $eip $T0 4 + ^ = $ebp $T0 ^ = $esp $T0 8 + = $L $T0 .cbSavedRegs - = $P $T0 8 + .cbParams + = $ebx $T0 24 - ^ =
STACK WIN 4 437c 25 5 0 c 0 4 0 1 $T0 $ebp = $eip $T0 4 + ^ = $ebp $T0 ^ = $esp $T0 8 + = $L $T0 .cbSavedRegs - = $P $T0 8 + .cbParams + =
STACK WIN 4 4381 1e 0 0 c 4 4 0 1 $T0 $ebp = $eip $T0 4 + ^ = $ebp $T0 ^ = $esp $T0 8 + = $L $T0 .cbSavedRegs - = $P $T0 8 + .cbParams + =
STACK WIN 4 43a1 bf 9 0 8 0 20 0 1 $T0 $ebp = $eip $T0 4 + ^ = $ebp $T0 ^ = $esp $T0 8 + = $L $T0 .cbSavedRegs - = $P $T0 8 + .cbParams + =
STACK WIN 4 43a8 b4 2 0 8 4 20 0 1 $T0 $ebp = $eip $T0 4 + ^ = $ebp $T0 ^ = $esp $T0 8 + = $L $T0 .cbSavedRegs - = $P $T0 8 + .cbParams + =
STACK WIN 4 4460 64 12 0 8 0 10 0 1 $T0 $ebp = $eip $T0 4 + ^ = $ebp $T0 ^ = $esp $T0 8 + = $L $T0 .cbSavedRegs - = $P $T0 8 + .cbParams + =
STACK WIN 4 4467 59 b 0 8 4 10 0 1 $T0 $ebp = $eip $T0 4 + ^ = $ebp $T0 ^ = $esp $T0 8 + = $L $T0 .cbSavedRegs - = $P $T0 8 + .cbParams + =
STACK WIN 4 4468 52 a 0 8 8 10 0 1 $T0 $ebp = $eip $T0 4 + ^ = $ebp $T0 ^ = $esp $T0 8 + = $L $T0 .cbSavedRegs - = $P $T0 8 + .cbParams + =
STACK WIN 4 44c4 4f 9 0 0 0 10 0 1 $T0 $ebp = $eip $T0 4 + ^ = $ebp $T0 ^ = $esp $T0 8 + = $L $T0 .cbSavedRegs - = $P $T0 8 + .cbParams + =
STACK WIN 4 44cb 46 2 0 0 4 10 0 1 $T0 $ebp = $eip $T0 4 + ^ = $ebp $T0 ^ = $esp $T0 8 + = $L $T0 .cbSavedRegs - = $P $T0 8 + .cbParams + =
STACK WIN 4 4513 3c d 0 4 0 0 0 1 $T2 $esp .cbLocals + .cbSavedRegs + = $T0 .raSearchStart = $eip $T0 ^ = $esp $T0 4 + =
STACK WIN 4 4514 38 c 0 4 4 0 0 1 $T2 $esp .cbLocals + .cbSavedRegs + = $T0 .raSearchStart = $eip $T0 ^ = $esp $T0 4 + = $ebx $T0 4 - ^ =
STACK WIN 4 4515 36 b 0 4 8 0 0 1 $T2 $esp .cbLocals + .cbSavedRegs + = $T0 .raSearchStart = $eip $T0 ^ = $esp $T0 4 + = $ebx $T0 4 - ^ =
STACK WIN 4 4516 34 a 0 4 c 0 0 1 $T2 $esp .cbLocals + .cbSavedRegs + = $T0 .raSearchStart = $eip $T0 ^ = $esp $T0 4 + = $ebx $T0 4 - ^ =
STACK WIN 4 454f ba d 0 8 0 14 0 1 $T0 $ebp = $eip $T0 4 + ^ = $ebp $T0 ^ = $esp $T0 8 + = $L $T0 .cbSavedRegs - = $P $T0 8 + .cbParams + =
STACK WIN 4 4556 af 6 0 8 4 14 0 1 $T0 $ebp = $eip $T0 4 + ^ = $ebp $T0 ^ = $esp $T0 8 + = $L $T0 .cbSavedRegs - = $P $T0 8 + .cbParams + = $ebx $T0 24 - ^ =
STACK WIN 4 455a a5 2 0 8 8 14 0 1 $T0 $ebp = $eip $T0 4 + ^ = $ebp $T0 ^ = $esp $T0 8 + = $L $T0 .cbSavedRegs - = $P $T0 8 + .cbParams + = $ebx $T0 24 - ^ =
STACK WIN 4 4567 97 0 0 8 c 14 0 1 $T0 $ebp = $eip $T0 4 + ^ = $ebp $T0 ^ = $esp $T0 8 + = $L $T0 .cbSavedRegs - = $P $T0 8 + .cbParams + = $ebx $T0 24 - ^ =
STACK WIN 4 4609 aa 8 0 14 0 8 0 1 $T0 $ebp = $eip $T0 4 + ^ = $ebp $T0 ^ = $esp $T0 8 + = $L $T0 .cbSavedRegs - = $P $T0 8 + .cbParams + =
STACK WIN 4 460f a0 2 0 14 4 8 0 1 $T0 $ebp = $eip $T0 4 + ^ = $ebp $T0 ^ = $esp $T0 8 + = $L $T0 .cbSavedRegs - = $P $T0 8 + .cbParams + =
STACK WIN 4 4672 2e 0 0 14 8 8 0 1 $T0 $ebp = $eip $T0 4 + ^ = $ebp $T0 ^ = $esp $T0 8 + = $L $T0 .cbSavedRegs - = $P $T0 8 + .cbParams + = $ebx $T0 16 - ^ =
STACK WIN 4 4673 2c 0 0 14 c 8 0 1 $T0 $ebp = $eip $T0 4 + ^ = $ebp $T0 ^ = $esp $T0 8 + = $L $T0 .cbSavedRegs - = $P $T0 8 + .cbParams + = $ebx $T0 16 - ^ =
STACK WIN 4 46b3 22 3 0 c 0 0 0 1 $T0 $ebp = $eip $T0 4 + ^ = $ebp $T0 ^ = $esp $T0 8 + = $L $T0 .cbSavedRegs - = $P $T0 8 + .cbParams + =
STACK WIN 4 46d5 ba d 0 8 0 14 0 1 $T0 $ebp = $eip $T0 4 + ^ = $ebp $T0 ^ = $esp $T0 8 + = $L $T0 .cbSavedRegs - = $P $T0 8 + .cbParams + =
STACK WIN 4 46dc af 6 0 8 4 14 0 1 $T0 $ebp = $eip $T0 4 + ^ = $ebp $T0 ^ = $esp $T0 8 + = $L $T0 .cbSavedRegs - = $P $T0 8 + .cbParams + = $ebx $T0 24 - ^ =
STACK WIN 4 46e0 a5 2 0 8 8 14 0 1 $T0 $ebp = $eip $T0 4 + ^ = $ebp $T0 ^ = $esp $T0 8 + = $L $T0 .cbSavedRegs - = $P $T0 8 + .cbParams + = $ebx $T0 24 - ^ =
STACK WIN 4 46ed 97 0 0 8 c 14 0 1 $T0 $ebp = $eip $T0 4 + ^ = $ebp $T0 ^ = $esp $T0 8 + = $L $T0 .cbSavedRegs - = $P $T0 8 + .cbParams + = $ebx $T0 24 - ^ =
STACK WIN 4 478f 22 3 0 c 0 0 0 1 $T0 $ebp = $eip $T0 4 + ^ = $ebp $T0 ^ = $esp $T0 8 + = $L $T0 .cbSavedRegs - = $P $T0 8 + .cbParams + =
STACK WIN 4 47b1 421 20 0 c 0 a0 0 1 $T0 $ebp 108 + = $eip $T0 4 + ^ = $ebp $T0 ^ = $esp $T0 8 + = $L $T0 .cbSavedRegs - = $P $T0 8 + .cbParams + =
STACK WIN 4 47c1 40a 10 0 c 4 a0 0 1 $T0 $ebp 108 + = $eip $T0 4 + ^ = $ebp $T0 ^ = $esp $T0 8 + = $L $T0 .cbSavedRegs - = $P $T0 8 + .cbParams + = $ebx $T0 164 - ^ =
STACK WIN 4 47c2 408 f 0 c 8 a0 0 1 $T0 $ebp 108 + = $eip $T0 4 + ^ = $ebp $T0 ^ = $esp $T0 8 + = $L $T0 .cbSavedRegs - = $P $T0 8 + .cbParams + = $ebx $T0 164 - ^ =
STACK WIN 4 47cb 3fe 6 0 c c a0 0 1 $T0 $ebp 108 + = $eip $T0 4 + ^ = $ebp $T0 ^ = $esp $T0 8 + = $L $T0 .cbSavedRegs - = $P $T0 8 + .cbParams + = $ebx $T0 164 - ^ =
STACK WIN 4 4bd2 25 3 0 18 0 0 0 1 $T0 $ebp = $eip $T0 4 + ^ = $ebp $T0 ^ = $esp $T0 8 + = $L $T0 .cbSavedRegs - = $P $T0 8 + .cbParams + =
STACK WIN 4 4bf7 25 3 0 18 0 0 0 1 $T0 $ebp = $eip $T0 4 + ^ = $ebp $T0 ^ = $esp $T0 8 + = $L $T0 .cbSavedRegs - = $P $T0 8 + .cbParams + =
STACK WIN 4 4c1c 201 14 0 8 0 10 0 1 $T0 $ebp = $eip $T0 4 + ^ = $ebp $T0 ^ = $esp $T0 8 + = $L $T0 .cbSavedRegs - = $P $T0 8 + .cbParams + =
STACK WIN 4 4c27 1f2 9 0 8 4 10 0 1 $T0 $ebp = $eip $T0 4 + ^ = $ebp $T0 ^ = $esp $T0 8 + = $L $T0 .cbSavedRegs - = $P $T0 8 + .cbParams + = $ebx $T0 20 - ^ =
STACK WIN 4 4c2d 1eb 3 0 8 8 10 0 1 $T0 $ebp = $eip $T0 4 + ^ = $ebp $T0 ^ = $esp $T0 8 + = $L $T0 .cbSavedRegs - = $P $T0 8 + .cbParams + = $ebx $T0 20 - ^ =
STACK WIN 4 4c2e 1e9 2 0 8 c 10 0 1 $T0 $ebp = $eip $T0 4 + ^ = $ebp $T0 ^ = $esp $T0 8 + = $L $T0 .cbSavedRegs - = $P $T0 8 + .cbParams + = $ebx $T0 20 - ^ =
STACK WIN 4 4e1d 26 4 0 0 0 0 0 1 $T2 $esp .cbLocals + .cbSavedRegs + = $T0 .raSearchStart = $eip $T0 ^ = $esp $T0 4 + =
STACK WIN 4 4e1e 24 3 0 0 4 0 0 1 $T2 $esp .cbLocals + .cbSavedRegs + = $T0 .raSearchStart = $eip $T0 ^ = $esp $T0 4 + =
STACK WIN 4 4e1f 1f 2 0 0 8 0 0 1 $T2 $esp .cbLocals + .cbSavedRegs + = $T0 .raSearchStart = $eip $T0 ^ = $esp $T0 4 + =
STACK WIN 4 4e43 156 9 0 10 0 c 0 1 $T0 $ebp = $eip $T0 4 + ^ = $ebp $T0 ^ = $esp $T0 8 + = $L $T0 .cbSavedRegs - = $P $T0 8 + .cbParams + =
STACK WIN 4 4e4a 14b 2 0 10 4 c 0 1 $T0 $ebp = $eip $T0 4 + ^ = $ebp $T0 ^ = $esp $T0 8 + = $L $T0 .cbSavedRegs - = $P $T0 8 + .cbParams + =
STACK WIN 4 4e6e 126 0 0 10 8 c 0 1 $T0 $ebp = $eip $T0 4 + ^ = $ebp $T0 ^ = $esp $T0 8 + = $L $T0 .cbSavedRegs - = $P $T0 8 + .cbParams + = $ebx $T0 20 - ^ =
STACK WIN 4 4e6f 124 0 0 10 c c 0 1 $T0 $ebp = $eip $T0 4 + ^ = $ebp $T0 ^ = $esp $T0 8 + = $L $T0 .cbSavedRegs - = $P $T0 8 + .cbParams + = $ebx $T0 20 - ^ =
STACK WIN 4 4f99 2e 3 0 0 0 0 0 1 $T2 $esp .cbLocals + .cbSavedRegs + = $T0 .raSearchStart = $eip $T0 ^ = $esp $T0 4 + =
STACK WIN 4 4f9a 2c 2 0 0 4 0 0 1 $T2 $esp .cbLocals + .cbSavedRegs + = $T0 .raSearchStart = $eip $T0 ^ = $esp $T0 4 + =
STACK WIN 4 4fc7 4f 9 0 0 0 10 0 1 $T0 $ebp = $eip $T0 4 + ^ = $ebp $T0 ^ = $esp $T0 8 + = $L $T0 .cbSavedRegs - = $P $T0 8 + .cbParams + =
STACK WIN 4 4fce 46 2 0 0 4 10 0 1 $T0 $ebp = $eip $T0 4 + ^ = $ebp $T0 ^ = $esp $T0 8 + = $L $T0 .cbSavedRegs - = $P $T0 8 + .cbParams + =
STACK WIN 4 5016 2e 3 0 0 0 0 0 1 $T2 $esp .cbLocals + .cbSavedRegs + = $T0 .raSearchStart = $eip $T0 ^ = $esp $T0 4 + =
STACK WIN 4 5017 2c 2 0 0 4 0 0 1 $T2 $esp .cbLocals + .cbSavedRegs + = $T0 .raSearchStart = $eip $T0 ^ = $esp $T0 4 + =
STACK WIN 4 5044 156 9 0 10 0 c 0 1 $T0 $ebp = $eip $T0 4 + ^ = $ebp $T0 ^ = $esp $T0 8 + = $L $T0 .cbSavedRegs - = $P $T0 8 + .cbParams + =
STACK WIN 4 504b 14b 2 0 10 4 c 0 1 $T0 $ebp = $eip $T0 4 + ^ = $ebp $T0 ^ = $esp $T0 8 + = $L $T0 .cbSavedRegs - = $P $T0 8 + .cbParams + =
STACK WIN 4 506f 126 0 0 10 8 c 0 1 $T0 $ebp = $eip $T0 4 + ^ = $ebp $T0 ^ = $esp $T0 8 + = $L $T0 .cbSavedRegs - = $P $T0 8 + .cbParams + = $ebx $T0 20 - ^ =
STACK WIN 4 5070 124 0 0 10 c c 0 1 $T0 $ebp = $eip $T0 4 + ^ = $ebp $T0 ^ = $esp $T0 8 + = $L $T0 .cbSavedRegs - = $P $T0 8 + .cbParams + = $ebx $T0 20 - ^ =
STACK WIN 4 519a aa 8 0 14 0 8 0 1 $T0 $ebp = $eip $T0 4 + ^ = $ebp $T0 ^ = $esp $T0 8 + = $L $T0 .cbSavedRegs - = $P $T0 8 + .cbParams + =
STACK WIN 4 51a0 a0 2 0 14 4 8 0 1 $T0 $ebp = $eip $T0 4 + ^ = $ebp $T0 ^ = $esp $T0 8 + = $L $T0 .cbSavedRegs - = $P $T0 8 + .cbParams + =
STACK WIN 4 5203 2e 0 0 14 8 8 0 1 $T0 $ebp = $eip $T0 4 + ^ = $ebp $T0 ^ = $esp $T0 8 + = $L $T0 .cbSavedRegs - = $P $T0 8 + .cbParams + = $ebx $T0 16 - ^ =
STACK WIN 4 5204 2c 0 0 14 c 8 0 1 $T0 $ebp = $eip $T0 4 + ^ = $ebp $T0 ^ = $esp $T0 8 + = $L $T0 .cbSavedRegs - = $P $T0 8 + .cbParams + = $ebx $T0 16 - ^ =
STACK WIN 4 5244 1f5 19 0 4 0 18 0 1 $T0 $ebp = $eip $T0 4 + ^ = $ebp $T0 ^ = $esp $T0 8 + = $L $T0 .cbSavedRegs - = $P $T0 8 + .cbParams + =
STACK WIN 4 5253 1e2 a 0 4 4 18 0 1 $T0 $ebp = $eip $T0 4 + ^ = $ebp $T0 ^ = $esp $T0 8 + = $L $T0 .cbSavedRegs - = $P $T0 8 + .cbParams + = $ebx $T0 28 - ^ =
STACK WIN 4 5254 1e0 9 0 4 8 18 0 1 $T0 $ebp = $eip $T0 4 + ^ = $ebp $T0 ^ = $esp $T0 8 + = $L $T0 .cbSavedRegs - = $P $T0 8 + .cbParams + = $ebx $T0 28 - ^ =
STACK WIN 4 5255 1de 8 0 4 c 18 0 1 $T0 $ebp = $eip $T0 4 + ^ = $ebp $T0 ^ = $esp $T0 8 + = $L $T0 .cbSavedRegs - = $P $T0 8 + .cbParams + = $ebx $T0 28 - ^ =
STACK WIN 4 5439 1f2 19 0 4 0 18 0 1 $T0 $ebp = $eip $T0 4 + ^ = $ebp $T0 ^ = $esp $T0 8 + = $L $T0 .cbSavedRegs - = $P $T0 8 + .cbParams + =
STACK WIN 4 5448 1df a 0 4 4 18 0 1 $T0 $ebp = $eip $T0 4 + ^ = $ebp $T0 ^ = $esp $T0 8 + = $L $T0 .cbSavedRegs - = $P $T0 8 + .cbParams + = $ebx $T0 28 - ^ =
STACK WIN 4 5449 1dd 9 0 4 8 18 0 1 $T0 $ebp = $eip $T0 4 + ^ = $ebp $T0 ^ = $esp $T0 8 + = $L $T0 .cbSavedRegs - = $P $T0 8 + .cbParams + = $ebx $T0 28 - ^ =
STACK WIN 4 544a 1db 8 0 4 c 18 0 1 $T0 $ebp = $eip $T0 4 + ^ = $ebp $T0 ^ = $esp $T0 8 + = $L $T0 .cbSavedRegs - = $P $T0 8 + .cbParams + = $ebx $T0 28 - ^ =
STACK WIN 4 562b 28 5 0 10 0 4 0 1 $T0 $ebp = $eip $T0 4 + ^ = $ebp $T0 ^ = $esp $T0 8 + = $L $T0 .cbSavedRegs - = $P $T0 8 + .cbParams + =
STACK WIN 4 5630 21 0 0 10 4 4 0 1 $T0 $ebp = $eip $T0 4 + ^ = $ebp $T0 ^ = $esp $T0 8 + = $L $T0 .cbSavedRegs - = $P $T0 8 + .cbParams + =
STACK WIN 4 5653 28 5 0 10 0 4 0 1 $T0 $ebp = $eip $T0 4 + ^ = $ebp $T0 ^ = $esp $T0 8 + = $L $T0 .cbSavedRegs - = $P $T0 8 + .cbParams + =
STACK WIN 4 5658 21 0 0 10 4 4 0 1 $T0 $ebp = $eip $T0 4 + ^ = $ebp $T0 ^ = $esp $T0 8 + = $L $T0 .cbSavedRegs - = $P $T0 8 + .cbParams + =
STACK WIN 4 567b 37 3 0 0 0 0 0 1 $T2 $esp .cbLocals + .cbSavedRegs + = $T0 .raSearchStart = $eip $T0 ^ = $esp $T0 4 + =
STACK WIN 4 567c 35 2 0 0 4 0 0 1 $T2 $esp .cbLocals + .cbSavedRegs + = $T0 .raSearchStart = $eip $T0 ^ = $esp $T0 4 + =
STACK WIN 4 567f 2b 0 0 0 8 0 0 1 $T2 $esp .cbLocals + .cbSavedRegs + = $T0 .raSearchStart = $eip $T0 ^ = $esp $T0 4 + =
STACK WIN 4 56b2 c 1 0 0 0 4 0 1 $T2 $esp .cbLocals + .cbSavedRegs + = $T0 .raSearchStart = $eip $T0 ^ = $esp $T0 4 + =
STACK WIN 4 56be c 1 0 0 0 4 0 1 $T2 $esp .cbLocals + .cbSavedRegs + = $T0 .raSearchStart = $eip $T0 ^ = $esp $T0 4 + =
STACK WIN 4 56ca 75 12 0 4 0 18 0 1 $T0 $ebp = $eip $T0 4 + ^ = $ebp $T0 ^ = $esp $T0 8 + = $L $T0 .cbSavedRegs - = $P $T0 8 + .cbParams + =
STACK WIN 4 56d1 6a b 0 4 4 18 0 1 $T0 $ebp = $eip $T0 4 + ^ = $ebp $T0 ^ = $esp $T0 8 + = $L $T0 .cbSavedRegs - = $P $T0 8 + .cbParams + =
STACK WIN 4 56d5 62 7 0 4 8 18 0 1 $T0 $ebp = $eip $T0 4 + ^ = $ebp $T0 ^ = $esp $T0 8 + = $L $T0 .cbSavedRegs - = $P $T0 8 + .cbParams + =
STACK WIN 4 573f 7b 12 0 4 0 1c 0 1 $T0 $ebp = $eip $T0 4 + ^ = $ebp $T0 ^ = $esp $T0 8 + = $L $T0 .cbSavedRegs - = $P $T0 8 + .cbParams + =
STACK WIN 4 5746 70 b 0 4 4 1c 0 1 $T0 $ebp = $eip $T0 4 + ^ = $ebp $T0 ^ = $esp $T0 8 + = $L $T0 .cbSavedRegs - = $P $T0 8 + .cbParams + =
STACK WIN 4 574a 68 7 0 4 8 1c 0 1 $T0 $ebp = $eip $T0 4 + ^ = $ebp $T0 ^ = $esp $T0 8 + = $L $T0 .cbSavedRegs - = $P $T0 8 + .cbParams + =
STACK WIN 4 57ba 29 7 0 8 0 0 0 1 $T2 $esp .cbLocals + .cbSavedRegs + = $T0 .raSearchStart = $eip $T0 ^ = $esp $T0 4 + =
STACK WIN 4 57bb 25 6 0 8 4 0 0 1 $T2 $esp .cbLocals + .cbSavedRegs + = $T0 .raSearchStart = $eip $T0 ^ = $esp $T0 4 + =
STACK WIN 4 57e3 4f 9 0 0 0 10 0 1 $T0 $ebp = $eip $T0 4 + ^ = $ebp $T0 ^ = $esp $T0 8 + = $L $T0 .cbSavedRegs - = $P $T0 8 + .cbParams + =
STACK WIN 4 57ea 46 2 0 0 4 10 0 1 $T0 $ebp = $eip $T0 4 + ^ = $ebp $T0 ^ = $esp $T0 8 + = $L $T0 .cbSavedRegs - = $P $T0 8 + .cbParams + =
STACK WIN 4 5832 29 7 0 8 0 0 0 1 $T2 $esp .cbLocals + .cbSavedRegs + = $T0 .raSearchStart = $eip $T0 ^ = $esp $T0 4 + =
STACK WIN 4 5833 25 6 0 8 4 0 0 1 $T2 $esp .cbLocals + .cbSavedRegs + = $T0 .raSearchStart = $eip $T0 ^ = $esp $T0 4 + =
STACK WIN 4 585b 20 6 0 c 0 0 0 1 $T2 $esp .cbLocals + .cbSavedRegs + = $T0 .raSearchStart = $eip $T0 ^ = $esp $T0 4 + =
STACK WIN 4 585c 1c 5 0 c 4 0 0 1 $T2 $esp .cbLocals + .cbSavedRegs + = $T0 .raSearchStart = $eip $T0 ^ = $esp $T0 4 + =
STACK WIN 4 5861 16 0 0 c 8 0 0 1 $T2 $esp .cbLocals + .cbSavedRegs + = $T0 .raSearchStart = $eip $T0 ^ = $esp $T0 4 + =
STACK WIN 4 587b 22 3 0 c 0 0 0 1 $T0 $ebp = $eip $T0 4 + ^ = $ebp $T0 ^ = $esp $T0 8 + = $L $T0 .cbSavedRegs - = $P $T0 8 + .cbParams + =
STACK WIN 4 589d 22 3 0 c 0 0 0 1 $T0 $ebp = $eip $T0 4 + ^ = $ebp $T0 ^ = $esp $T0 8 + = $L $T0 .cbSavedRegs - = $P $T0 8 + .cbParams + =
STACK WIN 4 58bf 18d a 0 4 0 40 0 1 $T0 $ebp = $eip $T0 4 + ^ = $ebp $T0 ^ = $esp $T0 8 + = $L $T0 .cbSavedRegs - = $P $T0 8 + .cbParams + =
STACK WIN 4 58c9 17f 0 0 4 4 40 0 1 $T0 $ebp = $eip $T0 4 + ^ = $ebp $T0 ^ = $esp $T0 8 + = $L $T0 .cbSavedRegs - = $P $T0 8 + .cbParams + =
STACK WIN 4 5954 e5 0 0 4 8 40 0 1 $T0 $ebp = $eip $T0 4 + ^ = $ebp $T0 ^ = $esp $T0 8 + = $L $T0 .cbSavedRegs - = $P $T0 8 + .cbParams + = $ebx $T0 72 - ^ =
STACK WIN 4 595b da 0 0 4 c 40 0 1 $T0 $ebp = $eip $T0 4 + ^ = $ebp $T0 ^ = $esp $T0 8 + = $L $T0 .cbSavedRegs - = $P $T0 8 + .cbParams + = $ebx $T0 72 - ^ =
STACK WIN 4 5a4c 1d 3 0 4 0 0 0 1 $T2 $esp .cbLocals + .cbSavedRegs + = $T0 .raSearchStart = $eip $T0 ^ = $esp $T0 4 + =
STACK WIN 4 5a4d 19 2 0 4 4 0 0 1 $T2 $esp .cbLocals + .cbSavedRegs + = $T0 .raSearchStart = $eip $T0 ^ = $esp $T0 4 + =
STACK WIN 4 5a69 2a 7 0 4 0 0 0 1 $T2 $esp .cbLocals + .cbSavedRegs + = $T0 .raSearchStart = $eip $T0 ^ = $esp $T0 4 + =
STACK WIN 4 5a6e 22 2 0 4 4 0 0 1 $T2 $esp .cbLocals + .cbSavedRegs + = $T0 .raSearchStart = $eip $T0 ^ = $esp $T0 4 + =
STACK WIN 4 5a93 12 0 0 4 0 0 0 1 $T2 $esp .cbLocals + .cbSavedRegs + = $T0 .raSearchStart = $eip $T0 ^ = $esp $T0 4 + =
STACK WIN 4 5aa5 18 1 0 0 0 0 0 1 $T2 $esp .cbLocals + .cbSavedRegs + = $T0 .raSearchStart = $eip $T0 ^ = $esp $T0 4 + =
STACK WIN 4 5aa6 16 0 0 0 4 0 0 1 $T2 $esp .cbLocals + .cbSavedRegs + = $T0 .raSearchStart = $eip $T0 ^ = $esp $T0 4 + =
STACK WIN 4 5abd 27 1a 0 4 0 10 0 1 $T0 $ebp = $eip $T0 4 + ^ = $ebp $T0 ^ = $esp $T0 8 + = $L $T0 .cbSavedRegs - = $P $T0 8 + .cbParams + =
STACK WIN 4 5ac4 1c 13 0 4 4 10 0 1 $T0 $ebp = $eip $T0 4 + ^ = $ebp $T0 ^ = $esp $T0 8 + = $L $T0 .cbSavedRegs - = $P $T0 8 + .cbParams + =
STACK WIN 4 5ac5 18 12 0 4 8 10 0 1 $T0 $ebp = $eip $T0 4 + ^ = $ebp $T0 ^ = $esp $T0 8 + = $L $T0 .cbSavedRegs - = $P $T0 8 + .cbParams + =
STACK WIN 4 5ae4 18 1 0 0 0 0 0 1 $T2 $esp .cbLocals + .cbSavedRegs + = $T0 .raSearchStart = $eip $T0 ^ = $esp $T0 4 + =
STACK WIN 4 5ae5 16 0 0 0 4 0 0 1 $T2 $esp .cbLocals + .cbSavedRegs + = $T0 .raSearchStart = $eip $T0 ^ = $esp $T0 4 + =
STACK WIN 4 5afc 18 1 0 0 0 0 0 1 $T2 $esp .cbLocals + .cbSavedRegs + = $T0 .raSearchStart = $eip $T0 ^ = $esp $T0 4 + =
STACK WIN 4 5afd 16 0 0 0 4 0 0 1 $T2 $esp .cbLocals + .cbSavedRegs + = $T0 .raSearchStart = $eip $T0 ^ = $esp $T0 4 + =
STACK WIN 4 5b14 26 19 0 4 0 c 0 1 $T0 $ebp = $eip $T0 4 + ^ = $ebp $T0 ^ = $esp $T0 8 + = $L $T0 .cbSavedRegs - = $P $T0 8 + .cbParams + =
STACK WIN 4 5b1b 1b 12 0 4 4 c 0 1 $T0 $ebp = $eip $T0 4 + ^ = $ebp $T0 ^ = $esp $T0 8 + = $L $T0 .cbSavedRegs - = $P $T0 8 + .cbParams + =
STACK WIN 4 5b1c 17 11 0 4 8 c 0 1 $T0 $ebp = $eip $T0 4 + ^ = $ebp $T0 ^ = $esp $T0 8 + = $L $T0 .cbSavedRegs - = $P $T0 8 + .cbParams + =
STACK WIN 4 5b3a 29 7 0 8 0 0 0 1 $T2 $esp .cbLocals + .cbSavedRegs + = $T0 .raSearchStart = $eip $T0 ^ = $esp $T0 4 + =
STACK WIN 4 5b3b 25 6 0 8 4 0 0 1 $T2 $esp .cbLocals + .cbSavedRegs + = $T0 .raSearchStart = $eip $T0 ^ = $esp $T0 4 + =
STACK WIN 4 5b63 29 7 0 8 0 0 0 1 $T2 $esp .cbLocals + .cbSavedRegs + = $T0 .raSearchStart = $eip $T0 ^ = $esp $T0 4 + =
STACK WIN 4 5b64 25 6 0 8 4 0 0 1 $T2 $esp .cbLocals + .cbSavedRegs + = $T0 .raSearchStart = $eip $T0 ^ = $esp $T0 4 + =
STACK WIN 4 5b8c 29 7 0 8 0 0 0 1 $T2 $esp .cbLocals + .cbSavedRegs + = $T0 .raSearchStart = $eip $T0 ^ = $esp $T0 4 + =
STACK WIN 4 5b8d 25 6 0 8 4 0 0 1 $T2 $esp .cbLocals + .cbSavedRegs + = $T0 .raSearchStart = $eip $T0 ^ = $esp $T0 4 + =
STACK WIN 4 5bb5 1f2 19 0 4 0 18 0 1 $T0 $ebp = $eip $T0 4 + ^ = $ebp $T0 ^ = $esp $T0 8 + = $L $T0 .cbSavedRegs - = $P $T0 8 + .cbParams + =
STACK WIN 4 5bc4 1df a 0 4 4 18 0 1 $T0 $ebp = $eip $T0 4 + ^ = $ebp $T0 ^ = $esp $T0 8 + = $L $T0 .cbSavedRegs - = $P $T0 8 + .cbParams + = $ebx $T0 28 - ^ =
STACK WIN 4 5bc5 1dd 9 0 4 8 18 0 1 $T0 $ebp = $eip $T0 4 + ^ = $ebp $T0 ^ = $esp $T0 8 + = $L $T0 .cbSavedRegs - = $P $T0 8 + .cbParams + = $ebx $T0 28 - ^ =
STACK WIN 4 5bc6 1db 8 0 4 c 18 0 1 $T0 $ebp = $eip $T0 4 + ^ = $ebp $T0 ^ = $esp $T0 8 + = $L $T0 .cbSavedRegs - = $P $T0 8 + .cbParams + = $ebx $T0 28 - ^ =
STACK WIN 4 5da7 b48 e 0 4 0 58 0 1 $T0 $ebp = $eip $T0 4 + ^ = $ebp $T0 ^ = $esp $T0 8 + = $L $T0 .cbSavedRegs - = $P $T0 8 + .cbParams + =
STACK WIN 4 5dae b3d 7 0 4 4 58 0 1 $T0 $ebp = $eip $T0 4 + ^ = $ebp $T0 ^ = $esp $T0 8 + = $L $T0 .cbSavedRegs - = $P $T0 8 + .cbParams + = $ebx $T0 92 - ^ =
STACK WIN 4 5daf b3b 6 0 4 8 58 0 1 $T0 $ebp = $eip $T0 4 + ^ = $ebp $T0 ^ = $esp $T0 8 + = $L $T0 .cbSavedRegs - = $P $T0 8 + .cbParams + = $ebx $T0 92 - ^ =
STACK WIN 4 5db0 b39 5 0 4 c 58 0 1 $T0 $ebp = $eip $T0 4 + ^ = $ebp $T0 ^ = $esp $T0 8 + = $L $T0 .cbSavedRegs - = $P $T0 8 + .cbParams + = $ebx $T0 92 - ^ =
STACK WIN 4 68ef 31 3 0 0 0 0 0 1 $T2 $esp .cbLocals + .cbSavedRegs + = $T0 .raSearchStart = $eip $T0 ^ = $esp $T0 4 + =
STACK WIN 4 68f0 2f 2 0 0 4 0 0 1 $T2 $esp .cbLocals + .cbSavedRegs + = $T0 .raSearchStart = $eip $T0 ^ = $esp $T0 4 + =
STACK WIN 4 68f3 25 0 0 0 8 0 0 1 $T2 $esp .cbLocals + .cbSavedRegs + = $T0 .raSearchStart = $eip $T0 ^ = $esp $T0 4 + =
STACK WIN 4 6920 47 7 0 4 0 0 0 1 $T2 $esp .cbLocals + .cbSavedRegs + = $T0 .raSearchStart = $eip $T0 ^ = $esp $T0 4 + =
STACK WIN 4 6925 3f 2 0 4 4 0 0 1 $T2 $esp .cbLocals + .cbSavedRegs + = $T0 .raSearchStart = $eip $T0 ^ = $esp $T0 4 + =
STACK WIN 4 6928 39 0 0 4 8 0 0 1 $T2 $esp .cbLocals + .cbSavedRegs + = $T0 .raSearchStart = $eip $T0 ^ = $esp $T0 4 + =
STACK WIN 4 6967 4a7 a 0 0 0 74 0 1 $T0 $ebp = $eip $T0 4 + ^ = $ebp $T0 ^ = $esp $T0 8 + = $L $T0 .cbSavedRegs - = $P $T0 8 + .cbParams + =
STACK WIN 4 696e 44e 3 0 0 4 74 0 1 $T0 $ebp = $eip $T0 4 + ^ = $ebp $T0 ^ = $esp $T0 8 + = $L $T0 .cbSavedRegs - = $P $T0 8 + .cbParams + =
STACK WIN 4 696f 44c 2 0 0 8 74 0 1 $T0 $ebp = $eip $T0 4 + ^ = $ebp $T0 ^ = $esp $T0 8 + = $L $T0 .cbSavedRegs - = $P $T0 8 + .cbParams + =
STACK WIN 4 6a0e 3ac 0 0 0 c 74 0 1 $T0 $ebp = $eip $T0 4 + ^ = $ebp $T0 ^ = $esp $T0 8 + = $L $T0 .cbSavedRegs - = $P $T0 8 + .cbParams + = $ebx $T0 128 - ^ =
STACK WIN 4 6e0e c 1 0 0 0 4 0 1 $T2 $esp .cbLocals + .cbSavedRegs + = $T0 .raSearchStart = $eip $T0 ^ = $esp $T0 4 + =
STACK WIN 4 6e1a 1e e 0 4 0 4 0 1 $T0 $ebp = $eip $T0 4 + ^ = $ebp $T0 ^ = $esp $T0 8 + = $L $T0 .cbSavedRegs - = $P $T0 8 + .cbParams + =
STACK WIN 4 6e1f 15 9 0 4 4 4 0 1 $T0 $ebp = $eip $T0 4 + ^ = $ebp $T0 ^ = $esp $T0 8 + = $L $T0 .cbSavedRegs - = $P $T0 8 + .cbParams + =
STACK WIN 4 6e38 1f2 19 0 4 0 18 0 1 $T0 $ebp = $eip $T0 4 + ^ = $ebp $T0 ^ = $esp $T0 8 + = $L $T0 .cbSavedRegs - = $P $T0 8 + .cbParams + =
STACK WIN 4 6e47 1df a 0 4 4 18 0 1 $T0 $ebp = $eip $T0 4 + ^ = $ebp $T0 ^ = $esp $T0 8 + = $L $T0 .cbSavedRegs - = $P $T0 8 + .cbParams + = $ebx $T0 28 - ^ =
STACK WIN 4 6e48 1dd 9 0 4 8 18 0 1 $T0 $ebp = $eip $T0 4 + ^ = $ebp $T0 ^ = $esp $T0 8 + = $L $T0 .cbSavedRegs - = $P $T0 8 + .cbParams + = $ebx $T0 28 - ^ =
STACK WIN 4 6e49 1db 8 0 4 c 18 0 1 $T0 $ebp = $eip $T0 4 + ^ = $ebp $T0 ^ = $esp $T0 8 + = $L $T0 .cbSavedRegs - = $P $T0 8 + .cbParams + = $ebx $T0 28 - ^ =
STACK WIN 4 702a 1b2 9 0 0 0 8 0 1 $T0 $ebp = $eip $T0 4 + ^ = $ebp $T0 ^ = $esp $T0 8 + = $L $T0 .cbSavedRegs - = $P $T0 8 + .cbParams + =
STACK WIN 4 7030 1aa 3 0 0 4 8 0 1 $T0 $ebp = $eip $T0 4 + ^ = $ebp $T0 ^ = $esp $T0 8 + = $L $T0 .cbSavedRegs - = $P $T0 8 + .cbParams + = $ebx $T0 12 - ^ =
STACK WIN 4 7031 1a8 2 0 0 8 8 0 1 $T0 $ebp = $eip $T0 4 + ^ = $ebp $T0 ^ = $esp $T0 8 + = $L $T0 .cbSavedRegs - = $P $T0 8 + .cbParams + = $ebx $T0 12 - ^ =
STACK WIN 4 7075 163 0 0 0 c 8 0 1 $T0 $ebp = $eip $T0 4 + ^ = $ebp $T0 ^ = $esp $T0 8 + = $L $T0 .cbSavedRegs - = $P $T0 8 + .cbParams + = $ebx $T0 12 - ^ =
STACK WIN 4 71dc 1d 3 0 4 0 0 0 1 $T2 $esp .cbLocals + .cbSavedRegs + = $T0 .raSearchStart = $eip $T0 ^ = $esp $T0 4 + =
STACK WIN 4 71dd 19 2 0 4 4 0 0 1 $T2 $esp .cbLocals + .cbSavedRegs + = $T0 .raSearchStart = $eip $T0 ^ = $esp $T0 4 + =
STACK WIN 4 71f9 3c5 b 0 4 0 70 0 1 $T0 $ebp = $eip $T0 4 + ^ = $ebp $T0 ^ = $esp $T0 8 + = $L $T0 .cbSavedRegs - = $P $T0 8 + .cbParams + =
STACK WIN 4 7200 2b6 4 0 4 4 70 0 1 $T0 $ebp = $eip $T0 4 + ^ = $ebp $T0 ^ = $esp $T0 8 + = $L $T0 .cbSavedRegs - = $P $T0 8 + .cbParams + = $ebx $T0 116 - ^ =
STACK WIN 4 7201 2b4 3 0 4 8 70 0 1 $T0 $ebp = $eip $T0 4 + ^ = $ebp $T0 ^ = $esp $T0 8 + = $L $T0 .cbSavedRegs - = $P $T0 8 + .cbParams + = $ebx $T0 116 - ^ =
STACK WIN 4 7202 2b2 2 0 4 c 70 0 1 $T0 $ebp = $eip $T0 4 + ^ = $ebp $T0 ^ = $esp $T0 8 + = $L $T0 .cbSavedRegs - = $P $T0 8 + .cbParams + = $ebx $T0 116 - ^ =
STACK WIN 4 75be 51 a 0 0 0 0 0 1 $T2 $esp .cbLocals + .cbSavedRegs + = $T0 .raSearchStart = $eip $T0 ^ = $esp $T0 4 + =
STACK WIN 4 75bf 4f 9 0 0 4 0 0 1 $T2 $esp .cbLocals + .cbSavedRegs + = $T0 .raSearchStart = $eip $T0 ^ = $esp $T0 4 + = $ebx $T0 4 - ^ =
STACK WIN 4 75c6 47 2 0 0 8 0 0 1 $T2 $esp .cbLocals + .cbSavedRegs + = $T0 .raSearchStart = $eip $T0 ^ = $esp $T0 4 + = $ebx $T0 4 - ^ =
STACK WIN 4 75c9 3d 0 0 0 c 0 0 1 $T2 $esp .cbLocals + .cbSavedRegs + = $T0 .raSearchStart = $eip $T0 ^ = $esp $T0 4 + = $ebx $T0 4 - ^ =
STACK WIN 4 760f 547 15 0 4 0 5c 0 1 $T0 $ebp = $eip $T0 4 + ^ = $ebp $T0 ^ = $esp $T0 8 + = $L $T0 .cbSavedRegs - = $P $T0 8 + .cbParams + =
STACK WIN 4 761a 3bf a 0 4 4 5c 0 1 $T0 $ebp = $eip $T0 4 + ^ = $ebp $T0 ^ = $esp $T0 8 + = $L $T0 .cbSavedRegs - = $P $T0 8 + .cbParams + = $ebx $T0 96 - ^ =
STACK WIN 4 7621 3b7 3 0 4 8 5c 0 1 $T0 $ebp = $eip $T0 4 + ^ = $ebp $T0 ^ = $esp $T0 8 + = $L $T0 .cbSavedRegs - = $P $T0 8 + .cbParams + = $ebx $T0 96 - ^ =
STACK WIN 4 7622 3b5 2 0 4 c 5c 0 1 $T0 $ebp = $eip $T0 4 + ^ = $ebp $T0 ^ = $esp $T0 8 + = $L $T0 .cbSavedRegs - = $P $T0 8 + .cbParams + = $ebx $T0 96 - ^ =
STACK WIN 4 7b56 56 4 0 4 0 0 0 1 $T2 $esp .cbLocals + .cbSavedRegs + = $T0 .raSearchStart = $eip $T0 ^ = $esp $T0 4 + =
STACK WIN 4 7b57 52 3 0 4 4 0 0 1 $T2 $esp .cbLocals + .cbSavedRegs + = $T0 .raSearchStart = $eip $T0 ^ = $esp $T0 4 + =
STACK WIN 4 7b58 46 2 0 4 8 0 0 1 $T2 $esp .cbLocals + .cbSavedRegs + = $T0 .raSearchStart = $eip $T0 ^ = $esp $T0 4 + =
STACK WIN 4 7bac 15 0 0 4 0 0 0 1 $T2 $esp .cbLocals + .cbSavedRegs + = $T0 .raSearchStart = $eip $T0 ^ = $esp $T0 4 + =
STACK WIN 4 7bc1 d 0 0 0 0 0 0 1 $T2 $esp .cbLocals + .cbSavedRegs + = $T0 .raSearchStart = $eip $T0 ^ = $esp $T0 4 + =
STACK WIN 4 7bce c 1 0 0 0 4 0 1 $T2 $esp .cbLocals + .cbSavedRegs + = $T0 .raSearchStart = $eip $T0 ^ = $esp $T0 4 + =
STACK WIN 4 7bda 1cf 13 0 c 0 5c 0 1 $T0 $ebp = $eip $T0 4 + ^ = $ebp $T0 ^ = $esp $T0 8 + = $L $T0 .cbSavedRegs - = $P $T0 8 + .cbParams + =
STACK WIN 4 7be5 1c0 8 0 c 4 5c 0 1 $T0 $ebp = $eip $T0 4 + ^ = $ebp $T0 ^ = $esp $T0 8 + = $L $T0 .cbSavedRegs - = $P $T0 8 + .cbParams + =
STACK WIN 4 7be6 1be 7 0 c 8 5c 0 1 $T0 $ebp = $eip $T0 4 + ^ = $ebp $T0 ^ = $esp $T0 8 + = $L $T0 .cbSavedRegs - = $P $T0 8 + .cbParams + =
STACK WIN 4 7c74 12f 0 0 c c 5c 0 1 $T0 $ebp = $eip $T0 4 + ^ = $ebp $T0 ^ = $esp $T0 8 + = $L $T0 .cbSavedRegs - = $P $T0 8 + .cbParams + = $ebx $T0 104 - ^ =
STACK WIN 4 7da9 1ed 13 0 c 0 5c 0 1 $T0 $ebp = $eip $T0 4 + ^ = $ebp $T0 ^ = $esp $T0 8 + = $L $T0 .cbSavedRegs - = $P $T0 8 + .cbParams + =
STACK WIN 4 7db4 1de 8 0 c 4 5c 0 1 $T0 $ebp = $eip $T0 4 + ^ = $ebp $T0 ^ = $esp $T0 8 + = $L $T0 .cbSavedRegs - = $P $T0 8 + .cbParams + =
STACK WIN 4 7db5 1dc 7 0 c 8 5c 0 1 $T0 $ebp = $eip $T0 4 + ^ = $ebp $T0 ^ = $esp $T0 8 + = $L $T0 .cbSavedRegs - = $P $T0 8 + .cbParams + =
STACK WIN 4 7e47 149 0 0 c c 5c 0 1 $T0 $ebp = $eip $T0 4 + ^ = $ebp $T0 ^ = $esp $T0 8 + = $L $T0 .cbSavedRegs - = $P $T0 8 + .cbParams + = $ebx $T0 104 - ^ =
STACK WIN 4 7f99 1e8 13 0 c 0 5c 0 1 $T0 $ebp = $eip $T0 4 + ^ = $ebp $T0 ^ = $esp $T0 8 + = $L $T0 .cbSavedRegs - = $P $T0 8 + .cbParams + =
STACK WIN 4 7fa4 1d9 8 0 c 4 5c 0 1 $T0 $ebp = $eip $T0 4 + ^ = $ebp $T0 ^ = $esp $T0 8 + = $L $T0 .cbSavedRegs - = $P $T0 8 + .cbParams + =
STACK WIN 4 7fa5 1d7 7 0 c 8 5c 0 1 $T0 $ebp = $eip $T0 4 + ^ = $ebp $T0 ^ = $esp $T0 8 + = $L $T0 .cbSavedRegs - = $P $T0 8 + .cbParams + =
STACK WIN 4 8033 148 0 0 c c 5c 0 1 $T0 $ebp = $eip $T0 4 + ^ = $ebp $T0 ^ = $esp $T0 8 + = $L $T0 .cbSavedRegs - = $P $T0 8 + .cbParams + = $ebx $T0 104 - ^ =
STACK WIN 4 8181 1ef 12 0 c 0 5c 0 1 $T0 $ebp = $eip $T0 4 + ^ = $ebp $T0 ^ = $esp $T0 8 + = $L $T0 .cbSavedRegs - = $P $T0 8 + .cbParams + =
STACK WIN 4 8188 1e4 b 0 c 4 5c 0 1 $T0 $ebp = $eip $T0 4 + ^ = $ebp $T0 ^ = $esp $T0 8 + = $L $T0 .cbSavedRegs - = $P $T0 8 + .cbParams + = $ebx $T0 96 - ^ =
STACK WIN 4 8189 1e2 a 0 c 8 5c 0 1 $T0 $ebp = $eip $T0 4 + ^ = $ebp $T0 ^ = $esp $T0 8 + = $L $T0 .cbSavedRegs - = $P $T0 8 + .cbParams + = $ebx $T0 96 - ^ =
STACK WIN 4 8191 1d9 2 0 c c 5c 0 1 $T0 $ebp = $eip $T0 4 + ^ = $ebp $T0 ^ = $esp $T0 8 + = $L $T0 .cbSavedRegs - = $P $T0 8 + .cbParams + = $ebx $T0 96 - ^ =
STACK WIN 4 8370 17 0 0 c 0 0 0 1 $T2 $esp .cbLocals + .cbSavedRegs + = $T0 .raSearchStart = $eip $T0 ^ = $esp $T0 4 + =
STACK WIN 4 8387 17 0 0 c 0 0 0 1 $T2 $esp .cbLocals + .cbSavedRegs + = $T0 .raSearchStart = $eip $T0 ^ = $esp $T0 4 + =
STACK WIN 4 839e 17 0 0 c 0 0 0 1 $T2 $esp .cbLocals + .cbSavedRegs + = $T0 .raSearchStart = $eip $T0 ^ = $esp $T0 4 + =
STACK WIN 4 83b5 17 0 0 c 0 0 0 1 $T2 $esp .cbLocals + .cbSavedRegs + = $T0 .raSearchStart = $eip $T0 ^ = $esp $T0 4 + =
STACK WIN 4 83cc 1d 3 0 4 0 0 0 1 $T2 $esp .cbLocals + .cbSavedRegs + = $T0 .raSearchStart = $eip $T0 ^ = $esp $T0 4 + =
STACK WIN 4 83cd 19 2 0 4 4 0 0 1 $T2 $esp .cbLocals + .cbSavedRegs + = $T0 .raSearchStart = $eip $T0 ^ = $esp $T0 4 + =
STACK WIN 4 83e9 96 8 0 0 0 4 0 1 $T0 $ebp = $eip $T0 4 + ^ = $ebp $T0 ^ = $esp $T0 8 + = $L $T0 .cbSavedRegs - = $P $T0 8 + .cbParams + =
STACK WIN 4 83ee 8f 3 0 0 4 4 0 1 $T0 $ebp = $eip $T0 4 + ^ = $ebp $T0 ^ = $esp $T0 8 + = $L $T0 .cbSavedRegs - = $P $T0 8 + .cbParams + = $ebx $T0 8 - ^ =
STACK WIN 4 83ef 8d 2 0 0 8 4 0 1 $T0 $ebp = $eip $T0 4 + ^ = $ebp $T0 ^ = $esp $T0 8 + = $L $T0 .cbSavedRegs - = $P $T0 8 + .cbParams + = $ebx $T0 8 - ^ =
STACK WIN 4 83f7 84 0 0 0 c 4 0 1 $T0 $ebp = $eip $T0 4 + ^ = $ebp $T0 ^ = $esp $T0 8 + = $L $T0 .cbSavedRegs - = $P $T0 8 + .cbParams + = $ebx $T0 8 - ^ =
STACK WIN 4 847f 1d 3 0 4 0 0 0 1 $T2 $esp .cbLocals + .cbSavedRegs + = $T0 .raSearchStart = $eip $T0 ^ = $esp $T0 4 + =
STACK WIN 4 8480 19 2 0 4 4 0 0 1 $T2 $esp .cbLocals + .cbSavedRegs + = $T0 .raSearchStart = $eip $T0 ^ = $esp $T0 4 + =
STACK WIN 4 849c 60 c 0 8 0 0 0 1 $T0 $ebp = $eip $T0 4 + ^ = $ebp $T0 ^ = $esp $T0 8 + = $L $T0 .cbSavedRegs - = $P $T0 8 + .cbParams + =
STACK WIN 4 84a8 52 0 0 8 4 0 0 1 $T0 $ebp = $eip $T0 4 + ^ = $ebp $T0 ^ = $esp $T0 8 + = $L $T0 .cbSavedRegs - = $P $T0 8 + .cbParams + =
STACK WIN 4 84fc 49 b 0 4 0 0 0 1 $T2 $esp .cbLocals + .cbSavedRegs + = $T0 .raSearchStart = $eip $T0 ^ = $esp $T0 4 + =
STACK WIN 4 84fd 45 a 0 4 4 0 0 1 $T2 $esp .cbLocals + .cbSavedRegs + = $T0 .raSearchStart = $eip $T0 ^ = $esp $T0 4 + = $ebx $T0 4 - ^ =
STACK WIN 4 8505 3c 2 0 4 8 0 0 1 $T2 $esp .cbLocals + .cbSavedRegs + = $T0 .raSearchStart = $eip $T0 ^ = $esp $T0 4 + = $ebx $T0 4 - ^ =
STACK WIN 4 850a 21 0 0 4 c 0 0 1 $T2 $esp .cbLocals + .cbSavedRegs + = $T0 .raSearchStart = $eip $T0 ^ = $esp $T0 4 + = $ebx $T0 4 - ^ =
STACK WIN 4 854c f 0 0 0 0 0 0 1 $T2 $esp .cbLocals + .cbSavedRegs + = $T0 .raSearchStart = $eip $T0 ^ = $esp $T0 4 + =
STACK WIN 4 8562 4d 1 0 0 0 0 0 1 $T2 $esp .cbLocals + .cbSavedRegs + = $T0 .raSearchStart = $eip $T0 ^ = $esp $T0 4 + =
STACK WIN 4 8563 4b 0 0 0 4 0 0 1 $T2 $esp .cbLocals + .cbSavedRegs + = $T0 .raSearchStart = $eip $T0 ^ = $esp $T0 4 + =
STACK WIN 4 85af 1c3 5 0 c 0 0 0 1 $T2 $esp .cbLocals + .cbSavedRegs + = $T0 .raSearchStart = $eip $T0 ^ = $esp $T0 4 + =
STACK WIN 4 85b4 1bb 0 0 c 4 0 0 1 $T2 $esp .cbLocals + .cbSavedRegs + = $T0 .raSearchStart = $eip $T0 ^ = $esp $T0 4 + = $ebp $T0 4 - ^ =
STACK WIN 4 85d4 19a 0 0 c 8 0 0 1 $T2 $esp .cbLocals + .cbSavedRegs + = $T0 .raSearchStart = $eip $T0 ^ = $esp $T0 4 + = $ebp $T0 4 - ^ = $ebx $T0 8 - ^ =
STACK WIN 4 85d5 198 0 0 c c 0 0 1 $T2 $esp .cbLocals + .cbSavedRegs + = $T0 .raSearchStart = $eip $T0 ^ = $esp $T0 4 + = $ebp $T0 4 - ^ = $ebx $T0 8 - ^ =
STACK WIN 4 85d6 196 0 0 c 10 0 0 1 $T2 $esp .cbLocals + .cbSavedRegs + = $T0 .raSearchStart = $eip $T0 ^ = $esp $T0 4 + = $ebp $T0 4 - ^ = $ebx $T0 8 - ^ =
STACK WIN 4 8772 116 13 0 4 c 20 0 1 $T0 $ebp = $eip $T0 4 + ^ = $ebp $T0 ^ = $esp $T0 8 + = $L $T0 .cbSavedRegs - = $P $T0 8 + .cbParams + =
STACK WIN 4 8849 14 0 0 4 c 20 0 1 $T0 $ebp = $T2 $esp = $T1 .raSearchStart = $eip $T1 ^ = $ebp $T0 = $esp $T1 4 + = $L $T0 .cbSavedRegs - = $P $T1 4 + .cbParams + =
STACK WIN 4 887d a 0 0 4 c 20 0 1 $T0 $ebp = $T2 $esp = $T1 .raSearchStart = $eip $T1 ^ = $ebp $T0 = $esp $T1 4 + = $L $T0 .cbSavedRegs - = $P $T1 4 + .cbParams + =
STACK WIN 4 8888 21 0 0 c 0 0 0 1 $T2 $esp .cbLocals + .cbSavedRegs + = $T0 .raSearchStart = $eip $T0 ^ = $esp $T0 4 + =
STACK WIN 4 88a9 5e c 0 10 c 24 0 1 $T0 $ebp = $eip $T0 4 + ^ = $ebp $T0 ^ = $esp $T0 8 + = $L $T0 .cbSavedRegs - = $P $T0 8 + .cbParams + =
STACK WIN 4 88cc 23 0 0 10 c 24 0 1 $T0 $ebp = $T2 $esp = $T1 .raSearchStart = $eip $T1 ^ = $ebp $T0 = $esp $T1 4 + = $L $T0 .cbSavedRegs - = $P $T1 4 + .cbParams + =
STACK WIN 4 8907 63 c 0 10 c 1c 0 1 $T0 $ebp = $eip $T0 4 + ^ = $ebp $T0 ^ = $esp $T0 8 + = $L $T0 .cbSavedRegs - = $P $T0 8 + .cbParams + =
STACK WIN 4 8952 17 0 0 10 c 1c 0 1 $T0 $ebp = $T2 $esp = $T1 .raSearchStart = $eip $T1 ^ = $ebp $T0 = $esp $T1 4 + = $L $T0 .cbSavedRegs - = $P $T1 4 + .cbParams + =
STACK WIN 4 896a 104 9 0 0 0 328 0 1 $T0 $ebp = $eip $T0 4 + ^ = $ebp $T0 ^ = $esp $T0 8 + = $L $T0 .cbSavedRegs - = $P $T0 8 + .cbParams + =
STACK WIN 4 8a6e c 0 0 0 0 0 0 1 $T2 $esp .cbLocals + .cbSavedRegs + = $T0 .raSearchStart = $eip $T0 ^ = $esp $T0 4 + =
STACK WIN 4 8a7a a5 c 0 4 c 24 0 1 $T0 $ebp = $eip $T0 4 + ^ = $ebp $T0 ^ = $esp $T0 8 + = $L $T0 .cbSavedRegs - = $P $T0 8 + .cbParams + =
STACK WIN 4 8b16 8 0 0 4 c 24 0 1 $T0 $ebp = $T2 $esp = $T1 .raSearchStart = $eip $T1 ^ = $ebp $T0 = $esp $T1 4 + = $L $T0 .cbSavedRegs - = $P $T1 4 + .cbParams + =
STACK WIN 4 8b1f 12 0 0 4 0 0 0 1 $T2 $esp .cbLocals + .cbSavedRegs + = $T0 .raSearchStart = $eip $T0 ^ = $esp $T0 4 + =
STACK WIN 4 8b31 24 2 0 0 0 0 0 1 $T2 $esp .cbLocals + .cbSavedRegs + = $T0 .raSearchStart = $eip $T0 ^ = $esp $T0 4 + =
STACK WIN 4 8b32 22 1 0 0 4 0 0 1 $T2 $esp .cbLocals + .cbSavedRegs + = $T0 .raSearchStart = $eip $T0 ^ = $esp $T0 4 + =
STACK WIN 4 8b33 20 0 0 0 8 0 0 1 $T2 $esp .cbLocals + .cbSavedRegs + = $T0 .raSearchStart = $eip $T0 ^ = $esp $T0 4 + =
STACK WIN 4 8b55 24 2 0 0 0 0 0 1 $T2 $esp .cbLocals + .cbSavedRegs + = $T0 .raSearchStart = $eip $T0 ^ = $esp $T0 4 + =
STACK WIN 4 8b56 22 1 0 0 4 0 0 1 $T2 $esp .cbLocals + .cbSavedRegs + = $T0 .raSearchStart = $eip $T0 ^ = $esp $T0 4 + =
STACK WIN 4 8b57 20 0 0 0 8 0 0 1 $T2 $esp .cbLocals + .cbSavedRegs + = $T0 .raSearchStart = $eip $T0 ^ = $esp $T0 4 + =
STACK WIN 4 8b80 29 0 0 4 0 0 0 1 $T2 $esp .cbLocals + .cbSavedRegs + = $T0 .raSearchStart = $eip $T0 ^ = $esp $T0 4 + =
STACK WIN 4 8bb0 42 18 0 8 0 0 0 1 $T2 $esp .cbLocals + .cbSavedRegs + = $T0 .raSearchStart = $eip $T0 ^ = $esp $T0 4 + =
STACK WIN 4 8bbe 33 a 0 8 4 0 0 1 $T2 $esp .cbLocals + .cbSavedRegs + = $T0 .raSearchStart = $eip $T0 ^ = $esp $T0 4 + = $ebx $T0 4 - ^ =
STACK WIN 4 8bbf 31 9 0 8 8 0 0 1 $T2 $esp .cbLocals + .cbSavedRegs + = $T0 .raSearchStart = $eip $T0 ^ = $esp $T0 4 + = $ebx $T0 4 - ^ =
STACK WIN 4 8bc8 27 0 0 8 c 0 0 1 $T2 $esp .cbLocals + .cbSavedRegs + = $T0 .raSearchStart = $eip $T0 ^ = $esp $T0 4 + = $ebx $T0 4 - ^ =
STACK WIN 4 8c00 bb 33 0 4 c 18 0 1 $T0 $ebp = $eip $T0 4 + ^ = $ebp $T0 ^ = $esp $T0 8 + = $L $T0 .cbSavedRegs - = $P $T0 8 + .cbParams + =
STACK WIN 4 8c1a a1 19 0 4 10 18 0 1 $T0 $ebp = $eip $T0 4 + ^ = $ebp $T0 ^ = $esp $T0 8 + = $L $T0 .cbSavedRegs - = $P $T0 8 + .cbParams + = $ebx $T0 28 - ^ =
STACK WIN 4 8c89 14 0 0 4 c 18 0 1 $T0 $ebp = $T2 $esp = $T1 .raSearchStart = $eip $T1 ^ = $ebp $T0 = $esp $T1 4 + = $L $T0 .cbSavedRegs - = $P $T1 4 + .cbParams + = $ebx $T0 28 - ^ =
STACK WIN 4 8cd4 20 0 0 c 0 0 0 1 $T2 $esp .cbLocals + .cbSavedRegs + = $T0 .raSearchStart = $eip $T0 ^ = $esp $T0 4 + =
STACK WIN 4 8d4d 23 0 0 10 0 0 0 1 $T2 $esp .cbLocals + .cbSavedRegs + = $T0 .raSearchStart = $eip $T0 ^ = $esp $T0 4 + =
STACK WIN 4 8d70 94 15 0 0 0 10 0 1 $T0 $ebp = $eip $T0 4 + ^ = $ebp $T0 ^ = $esp $T0 8 + = $L $T0 .cbSavedRegs - = $P $T0 8 + .cbParams + =
STACK WIN 4 8d84 7e 1 0 0 4 10 0 1 $T0 $ebp = $eip $T0 4 + ^ = $ebp $T0 ^ = $esp $T0 8 + = $L $T0 .cbSavedRegs - = $P $T0 8 + .cbParams + = $ebx $T0 20 - ^ =
STACK WIN 4 8d85 7c 0 0 0 8 10 0 1 $T0 $ebp = $eip $T0 4 + ^ = $ebp $T0 ^ = $esp $T0 8 + = $L $T0 .cbSavedRegs - = $P $T0 8 + .cbParams + = $ebx $T0 20 - ^ =
STACK WIN 4 8da1 5f 0 0 0 c 10 0 1 $T0 $ebp = $eip $T0 4 + ^ = $ebp $T0 ^ = $esp $T0 8 + = $L $T0 .cbSavedRegs - = $P $T0 8 + .cbParams + = $ebx $T0 20 - ^ =
STACK WIN 0 8849 14 0 0 0 0 0 0 0 0
STACK WIN 0 887d b 0 0 0 0 0 0 0 0
STACK WIN 0 88cc 24 0 0 0 0 0 0 0 0
STACK WIN 0 8952 18 0 0 0 0 0 0 0 0
STACK WIN 0 8b16 9 0 0 0 0 0 0 0 0
STACK WIN 0 8c89 14 0 0 0 0 0 0 0 0
