MODULE windows x86 2FAA6D63F4564F6FAFA14DE47461E3B72 teststreamloader.pdb
FUNC 1000 6 4 operator delete(void *)
FUNC 1006 15 4 nsCOMPtr_base::assign_assuming_AddRef(nsISupports *)
FUNC 101b 12 4 nsQuitPumpingEvent::AddRef()
FUNC 102d 28 4 nsQuitPumpingEvent::Release()
FUNC 1055 19 c nsQuitPumpingEvent::QueryInterface(nsID const &,void * *)
FUNC 106e d 4 MyStreamLoaderObserver::AddRef()
FUNC 107b 20 4 MyStreamLoaderObserver::Release()
FUNC 109b 19 c MyStreamLoaderObserver::QueryInterface(nsID const &,void * *)
FUNC 10b4 19 4 nsCOMPtr<nsIRunnable>::nsCOMPtr<nsIRunnable>(nsIRunnable *)
FUNC 10cd 16 0 nsCOMPtr<nsIURI>::StartAssignment()
FUNC 10e3 1b 0 do_GetCurrentThread()
FUNC 10fe c 4 nsQuitPumpingEvent::Run()
FUNC 110a 44 0 PumpEvents
FUNC 114e 3e 8 net_EnsureIOService(nsIIOService * *,nsCOMPtr<nsIIOService> &)
FUNC 118c 6d 8 NS_NewStreamLoader(nsIStreamLoader * *,nsIStreamLoaderObserver *)
FUNC 11f9 5e 18 MyStreamLoaderObserver::OnStreamComplete(nsIStreamLoader *,nsISupports *,unsigned int,unsigned int,unsigned char const *)
FUNC 1257 1d3 8 main
FUNC 142a 2c 4 nsID::Equals(nsID const &)
FUNC 1456 45 8 NS_TableDrivenQI(void *,QITableEntry const *,nsID const &,void * *)
FUNC 149b d 0 nsCOMPtr_base::~nsCOMPtr_base()
FUNC 14a8 2d 4 nsCOMPtr_base::assign_from_gs_contractid_with_error(nsGetServiceByContractIDWithError const &,nsID const &)
FUNC 14d5 2e 4 nsCOMPtr_base::assign_from_helper(nsCOMPtr_helper const &,nsID const &)
FUNC 1503 40 c CallGetService(char const *,nsID const &,void * *)
FUNC 1543 43 10 CallCreateInstance(char const *,nsISupports *,nsID const &,void * *)
FUNC 1586 2d 4 nsCreateInstanceByContractID::operator()(nsID const &,void * *)
FUNC 15b3 29 4 nsGetServiceByContractIDWithError::operator()(nsID const &,void * *)
FUNC 15dc 4e 4 NS_GetCurrentThread(nsIThread * *)
FUNC 162a 4e 4 NS_GetMainThread(nsIThread * *)
FUNC 1678 3d 8 NS_DispatchToMainThread(nsIRunnable *,unsigned int)
FUNC 16b5 7e 8 NS_ProcessPendingEvents(nsIThread *,unsigned int)
FUNC 1733 4d 8 NS_ProcessNextEvent(nsIThread *,bool)
FUNC 1780 49 0 type_info::`vector deleting destructor'(unsigned int)
FUNC 17c9 4b 0 pre_cpp_init
FUNC 1814 176 0 __tmainCRTStartup
FUNC 198a e2 0 pre_c_init
FUNC 1a6c a 0 mainCRTStartup
FUNC 1a76 5e 10 __ArrayUnwind(void *,unsigned int,int,void (*)(void *))
FUNC 1ad4 63 10 `eh vector destructor iterator'(void *,unsigned int,int,void (*)(void *))
FUNC 1b37 3d 4 __CxxUnhandledExceptionFilter(_EXCEPTION_POINTERS *)
FUNC 1b74 e 0 __CxxSetUnhandledExceptionFilter
FUNC 1b88 a5 4 _onexit
FUNC 1c2d 12 4 atexit
FUNC 1c3f 24 0 _RTC_Initialize
FUNC 1c63 24 0 _RTC_Terminate
FUNC 1c90 29 4 _ValidateImageBase
FUNC 1cc0 42 8 _FindPESection
FUNC 1d10 bb 4 _IsNonwritableInCurrentImage
FUNC 1dd8 45 0 _SEH_prolog4
FUNC 1e1d 14 0 _SEH_epilog4
FUNC 1e31 23 10 _except_handler4
FUNC 1e54 29 0 _setdefaultprecision
FUNC 1e7d 3 0 _setargv
FUNC 1e80 94 0 __security_init_cookie
FUNC 1f32 f 0 __security_check_cookie
FUNC 1f54 104 0 __report_gsfailure
STACK WIN 4 1000 6 0 0 4 0 0 0 1 $T2 $esp .cbLocals + .cbSavedRegs + = $T0 .raSearchStart = $eip $T0 ^ = $esp $T0 4 + =
STACK WIN 4 1006 15 0 0 4 0 0 0 1 $T2 $esp .cbLocals + .cbSavedRegs + = $T0 .raSearchStart = $eip $T0 ^ = $esp $T0 4 + =
STACK WIN 4 101b 12 0 0 4 0 0 0 1 $T2 $esp .cbLocals + .cbSavedRegs + = $T0 .raSearchStart = $eip $T0 ^ = $esp $T0 4 + =
STACK WIN 4 102d 28 8 0 4 0 0 0 1 $T2 $esp .cbLocals + .cbSavedRegs + = $T0 .raSearchStart = $eip $T0 ^ = $esp $T0 4 + =
STACK WIN 4 1035 b 0 0 4 4 0 0 1 $T2 $esp .cbLocals + .cbSavedRegs + = $T0 .raSearchStart = $eip $T0 ^ = $esp $T0 4 + =
STACK WIN 4 1055 19 0 0 c 0 0 0 1 $T2 $esp .cbLocals + .cbSavedRegs + = $T0 .raSearchStart = $eip $T0 ^ = $esp $T0 4 + =
STACK WIN 4 106e d 0 0 4 0 0 0 1 $T2 $esp .cbLocals + .cbSavedRegs + = $T0 .raSearchStart = $eip $T0 ^ = $esp $T0 4 + =
STACK WIN 4 107b 20 0 0 4 0 0 0 1 $T2 $esp .cbLocals + .cbSavedRegs + = $T0 .raSearchStart = $eip $T0 ^ = $esp $T0 4 + =
STACK WIN 4 109b 19 0 0 c 0 0 0 1 $T2 $esp .cbLocals + .cbSavedRegs + = $T0 .raSearchStart = $eip $T0 ^ = $esp $T0 4 + =
STACK WIN 4 10b4 19 9 0 4 0 0 0 1 $T2 $esp .cbLocals + .cbSavedRegs + = $T0 .raSearchStart = $eip $T0 ^ = $esp $T0 4 + =
STACK WIN 4 10bb f 2 0 4 4 0 0 1 $T2 $esp .cbLocals + .cbSavedRegs + = $T0 .raSearchStart = $eip $T0 ^ = $esp $T0 4 + =
STACK WIN 4 10cd 16 3 0 0 0 0 0 1 $T2 $esp .cbLocals + .cbSavedRegs + = $T0 .raSearchStart = $eip $T0 ^ = $esp $T0 4 + =
STACK WIN 4 10ce 14 2 0 0 4 0 0 1 $T2 $esp .cbLocals + .cbSavedRegs + = $T0 .raSearchStart = $eip $T0 ^ = $esp $T0 4 + =
STACK WIN 4 10e3 1b 4 0 4 0 4 0 1 $T0 $ebp = $eip $T0 4 + ^ = $ebp $T0 ^ = $esp $T0 8 + = $L $T0 .cbSavedRegs - = $P $T0 8 + .cbParams + =
STACK WIN 4 10fe c 0 0 4 0 0 0 1 $T2 $esp .cbLocals + .cbSavedRegs + = $T0 .raSearchStart = $eip $T0 ^ = $esp $T0 4 + =
STACK WIN 4 110a 44 5 0 0 0 8 0 1 $T0 $ebp = $eip $T0 4 + ^ = $ebp $T0 ^ = $esp $T0 8 + = $L $T0 .cbSavedRegs - = $P $T0 8 + .cbParams + =
STACK WIN 4 114e 3e b 0 8 0 c 0 1 $T0 $ebp = $eip $T0 4 + ^ = $ebp $T0 ^ = $esp $T0 8 + = $L $T0 .cbSavedRegs - = $P $T0 8 + .cbParams + =
STACK WIN 4 1159 31 0 0 8 4 c 0 1 $T0 $ebp = $eip $T0 4 + ^ = $ebp $T0 ^ = $esp $T0 8 + = $L $T0 .cbSavedRegs - = $P $T0 8 + .cbParams + =
STACK WIN 4 1162 24 0 0 8 8 c 0 1 $T0 $ebp = $eip $T0 4 + ^ = $ebp $T0 ^ = $esp $T0 8 + = $L $T0 .cbSavedRegs - = $P $T0 8 + .cbParams + =
STACK WIN 4 118c 6d f 0 8 0 18 0 1 $T0 $ebp = $eip $T0 4 + ^ = $ebp $T0 ^ = $esp $T0 8 + = $L $T0 .cbSavedRegs - = $P $T0 8 + .cbParams + =
STACK WIN 4 119b 5c 0 0 8 4 18 0 1 $T0 $ebp = $eip $T0 4 + ^ = $ebp $T0 ^ = $esp $T0 8 + = $L $T0 .cbSavedRegs - = $P $T0 8 + .cbParams + =
STACK WIN 4 11f9 5e 4 0 18 0 4 0 1 $T0 $ebp = $eip $T0 4 + ^ = $ebp $T0 ^ = $esp $T0 8 + = $L $T0 .cbSavedRegs - = $P $T0 8 + .cbParams + =
STACK WIN 4 1257 1d3 6 0 8 0 30 0 1 $T0 $ebp = $eip $T0 4 + ^ = $ebp $T0 ^ = $esp $T0 8 + = $L $T0 .cbSavedRegs - = $P $T0 8 + .cbParams + =
STACK WIN 4 127b 1ad 0 0 8 4 30 0 1 $T0 $ebp = $eip $T0 4 + ^ = $ebp $T0 ^ = $esp $T0 8 + = $L $T0 .cbSavedRegs - = $P $T0 8 + .cbParams + =
STACK WIN 4 127c 1ab 0 0 8 8 30 0 1 $T0 $ebp = $eip $T0 4 + ^ = $ebp $T0 ^ = $esp $T0 8 + = $L $T0 .cbSavedRegs - = $P $T0 8 + .cbParams + =
STACK WIN 4 129f 187 0 0 8 c 30 0 1 $T0 $ebp = $eip $T0 4 + ^ = $ebp $T0 ^ = $esp $T0 8 + = $L $T0 .cbSavedRegs - = $P $T0 8 + .cbParams + = $ebx $T0 60 - ^ =
STACK WIN 4 142a 2c 0 0 4 0 0 0 1 $T2 $esp .cbLocals + .cbSavedRegs + = $T0 .raSearchStart = $eip $T0 ^ = $esp $T0 4 + =
STACK WIN 4 1456 45 6 0 8 0 0 0 1 $T2 $esp .cbLocals + .cbSavedRegs + = $T0 .raSearchStart = $eip $T0 ^ = $esp $T0 4 + =
STACK WIN 4 1457 2c 5 0 8 4 0 0 1 $T2 $esp .cbLocals + .cbSavedRegs + = $T0 .raSearchStart = $eip $T0 ^ = $esp $T0 4 + =
STACK WIN 4 1458 2a 4 0 8 8 0 0 1 $T2 $esp .cbLocals + .cbSavedRegs + = $T0 .raSearchStart = $eip $T0 ^ = $esp $T0 4 + =
STACK WIN 4 149b d 0 0 0 0 0 0 1 $T2 $esp .cbLocals + .cbSavedRegs + = $T0 .raSearchStart = $eip $T0 ^ = $esp $T0 4 + =
STACK WIN 4 14a8 2d 6 0 4 0 0 0 1 $T0 $ebp = $eip $T0 4 + ^ = $ebp $T0 ^ = $esp $T0 8 + = $L $T0 .cbSavedRegs - = $P $T0 8 + .cbParams + =
STACK WIN 4 14ac 25 2 0 4 4 0 0 1 $T0 $ebp = $eip $T0 4 + ^ = $ebp $T0 ^ = $esp $T0 8 + = $L $T0 .cbSavedRegs - = $P $T0 8 + .cbParams + =
STACK WIN 4 14d5 2e 6 0 4 0 0 0 1 $T0 $ebp = $eip $T0 4 + ^ = $ebp $T0 ^ = $esp $T0 8 + = $L $T0 .cbSavedRegs - = $P $T0 8 + .cbParams + =
STACK WIN 4 14d9 26 2 0 4 4 0 0 1 $T0 $ebp = $eip $T0 4 + ^ = $ebp $T0 ^ = $esp $T0 8 + = $L $T0 .cbSavedRegs - = $P $T0 8 + .cbParams + =
STACK WIN 4 14dc 22 0 0 4 8 0 0 1 $T0 $ebp = $eip $T0 4 + ^ = $ebp $T0 ^ = $esp $T0 8 + = $L $T0 .cbSavedRegs - = $P $T0 8 + .cbParams + =
STACK WIN 4 1503 40 9 0 c 0 4 0 1 $T0 $ebp = $eip $T0 4 + ^ = $ebp $T0 ^ = $esp $T0 8 + = $L $T0 .cbSavedRegs - = $P $T0 8 + .cbParams + =
STACK WIN 4 150c 35 0 0 c 4 4 0 1 $T0 $ebp = $eip $T0 4 + ^ = $ebp $T0 ^ = $esp $T0 8 + = $L $T0 .cbSavedRegs - = $P $T0 8 + .cbParams + =
STACK WIN 4 1543 43 9 0 10 0 4 0 1 $T0 $ebp = $eip $T0 4 + ^ = $ebp $T0 ^ = $esp $T0 8 + = $L $T0 .cbSavedRegs - = $P $T0 8 + .cbParams + =
STACK WIN 4 154c 38 0 0 10 4 4 0 1 $T0 $ebp = $eip $T0 4 + ^ = $ebp $T0 ^ = $esp $T0 8 + = $L $T0 .cbSavedRegs - = $P $T0 8 + .cbParams + =
STACK WIN 4 1586 2d 9 0 4 0 0 0 1 $T2 $esp .cbLocals + .cbSavedRegs + = $T0 .raSearchStart = $eip $T0 ^ = $esp $T0 4 + =
STACK WIN 4 1587 29 8 0 4 4 0 0 1 $T2 $esp .cbLocals + .cbSavedRegs + = $T0 .raSearchStart = $eip $T0 ^ = $esp $T0 4 + =
STACK WIN 4 1588 27 7 0 4 8 0 0 1 $T2 $esp .cbLocals + .cbSavedRegs + = $T0 .raSearchStart = $eip $T0 ^ = $esp $T0 4 + =
STACK WIN 4 15b3 29 9 0 4 0 0 0 1 $T2 $esp .cbLocals + .cbSavedRegs + = $T0 .raSearchStart = $eip $T0 ^ = $esp $T0 4 + =
STACK WIN 4 15b4 25 8 0 4 4 0 0 1 $T2 $esp .cbLocals + .cbSavedRegs + = $T0 .raSearchStart = $eip $T0 ^ = $esp $T0 4 + =
STACK WIN 4 15b5 23 7 0 4 8 0 0 1 $T2 $esp .cbLocals + .cbSavedRegs + = $T0 .raSearchStart = $eip $T0 ^ = $esp $T0 4 + =
STACK WIN 4 15dc 4e b 0 4 0 10 0 1 $T0 $ebp = $eip $T0 4 + ^ = $ebp $T0 ^ = $esp $T0 8 + = $L $T0 .cbSavedRegs - = $P $T0 8 + .cbParams + =
STACK WIN 4 15e7 2f 0 0 4 4 10 0 1 $T0 $ebp = $eip $T0 4 + ^ = $ebp $T0 ^ = $esp $T0 8 + = $L $T0 .cbSavedRegs - = $P $T0 8 + .cbParams + =
STACK WIN 4 162a 4e b 0 4 0 10 0 1 $T0 $ebp = $eip $T0 4 + ^ = $ebp $T0 ^ = $esp $T0 8 + = $L $T0 .cbSavedRegs - = $P $T0 8 + .cbParams + =
STACK WIN 4 1635 2f 0 0 4 4 10 0 1 $T0 $ebp = $eip $T0 4 + ^ = $ebp $T0 ^ = $esp $T0 8 + = $L $T0 .cbSavedRegs - = $P $T0 8 + .cbParams + =
STACK WIN 4 1678 3d 9 0 8 0 4 0 1 $T0 $ebp = $eip $T0 4 + ^ = $ebp $T0 ^ = $esp $T0 8 + = $L $T0 .cbSavedRegs - = $P $T0 8 + .cbParams + =
STACK WIN 4 1681 1f 0 0 8 4 4 0 1 $T0 $ebp = $eip $T0 4 + ^ = $ebp $T0 ^ = $esp $T0 8 + = $L $T0 .cbSavedRegs - = $P $T0 8 + .cbParams + =
STACK WIN 4 16b5 7e c 0 8 0 c 0 1 $T0 $ebp = $eip $T0 4 + ^ = $ebp $T0 ^ = $esp $T0 8 + = $L $T0 .cbSavedRegs - = $P $T0 8 + .cbParams + =
STACK WIN 4 16c0 6f 1 0 8 4 c 0 1 $T0 $ebp = $eip $T0 4 + ^ = $ebp $T0 ^ = $esp $T0 8 + = $L $T0 .cbSavedRegs - = $P $T0 8 + .cbParams + =
STACK WIN 4 16c1 6d 0 0 8 8 c 0 1 $T0 $ebp = $eip $T0 4 + ^ = $ebp $T0 ^ = $esp $T0 8 + = $L $T0 .cbSavedRegs - = $P $T0 8 + .cbParams + =
STACK WIN 4 16f1 3c 0 0 8 c c 0 1 $T0 $ebp = $eip $T0 4 + ^ = $ebp $T0 ^ = $esp $T0 8 + = $L $T0 .cbSavedRegs - = $P $T0 8 + .cbParams + = $ebx $T0 24 - ^ =
STACK WIN 4 1733 4d 8 0 8 0 4 0 1 $T0 $ebp = $eip $T0 4 + ^ = $ebp $T0 ^ = $esp $T0 8 + = $L $T0 .cbSavedRegs - = $P $T0 8 + .cbParams + =
STACK WIN 4 173b 29 0 0 8 4 4 0 1 $T0 $ebp = $eip $T0 4 + ^ = $ebp $T0 ^ = $esp $T0 8 + = $L $T0 .cbSavedRegs - = $P $T0 8 + .cbParams + = $ebx $T0 8 - ^ =
STACK WIN 4 1780 49 b 0 4 0 0 0 1 $T2 $esp .cbLocals + .cbSavedRegs + = $T0 .raSearchStart = $eip $T0 ^ = $esp $T0 4 + =
STACK WIN 4 1781 45 a 0 4 4 0 0 1 $T2 $esp .cbLocals + .cbSavedRegs + = $T0 .raSearchStart = $eip $T0 ^ = $esp $T0 4 + = $ebx $T0 4 - ^ =
STACK WIN 4 1789 3c 2 0 4 8 0 0 1 $T2 $esp .cbLocals + .cbSavedRegs + = $T0 .raSearchStart = $eip $T0 ^ = $esp $T0 4 + = $ebx $T0 4 - ^ =
STACK WIN 4 178e 21 0 0 4 c 0 0 1 $T2 $esp .cbLocals + .cbSavedRegs + = $T0 .raSearchStart = $eip $T0 ^ = $esp $T0 4 + = $ebx $T0 4 - ^ =
STACK WIN 4 17c9 4b 0 0 0 0 0 0 1 $T2 $esp .cbLocals + .cbSavedRegs + = $T0 .raSearchStart = $eip $T0 ^ = $esp $T0 4 + =
STACK WIN 4 1814 176 c 0 0 c 20 0 1 $T0 $ebp = $eip $T0 4 + ^ = $ebp $T0 ^ = $esp $T0 8 + = $L $T0 .cbSavedRegs - = $P $T0 8 + .cbParams + =
STACK WIN 4 193a 14 0 0 0 c 20 0 1 $T0 $ebp = $T2 $esp = $T1 .raSearchStart = $eip $T1 ^ = $ebp $T0 = $esp $T1 4 + = $L $T0 .cbSavedRegs - = $P $T1 4 + .cbParams + =
STACK WIN 4 198a e2 0 0 0 0 0 0 1 $T2 $esp .cbLocals + .cbSavedRegs + = $T0 .raSearchStart = $eip $T0 ^ = $esp $T0 4 + =
STACK WIN 4 1a6c a 0 0 0 0 0 0 1 $T2 $esp .cbLocals + .cbSavedRegs + = $T0 .raSearchStart = $eip $T0 ^ = $esp $T0 4 + =
STACK WIN 4 1a76 5e c 0 10 c 24 0 1 $T0 $ebp = $eip $T0 4 + ^ = $ebp $T0 ^ = $esp $T0 8 + = $L $T0 .cbSavedRegs - = $P $T0 8 + .cbParams + =
STACK WIN 4 1a99 23 0 0 10 c 24 0 1 $T0 $ebp = $T2 $esp = $T1 .raSearchStart = $eip $T1 ^ = $ebp $T0 = $esp $T1 4 + = $L $T0 .cbSavedRegs - = $P $T1 4 + .cbParams + =
STACK WIN 4 1ad4 63 c 0 10 c 1c 0 1 $T0 $ebp = $eip $T0 4 + ^ = $ebp $T0 ^ = $esp $T0 8 + = $L $T0 .cbSavedRegs - = $P $T0 8 + .cbParams + =
STACK WIN 4 1b1f 17 0 0 10 c 1c 0 1 $T0 $ebp = $T2 $esp = $T1 .raSearchStart = $eip $T1 ^ = $ebp $T0 = $esp $T1 4 + = $L $T0 .cbSavedRegs - = $P $T1 4 + .cbParams + =
STACK WIN 4 1b37 3d 0 0 4 0 0 0 1 $T2 $esp .cbLocals + .cbSavedRegs + = $T0 .raSearchStart = $eip $T0 ^ = $esp $T0 4 + =
STACK WIN 4 1b74 e 0 0 0 0 0 0 1 $T2 $esp .cbLocals + .cbSavedRegs + = $T0 .raSearchStart = $eip $T0 ^ = $esp $T0 4 + =
STACK WIN 4 1b88 a5 c 0 4 c 24 0 1 $T0 $ebp = $eip $T0 4 + ^ = $ebp $T0 ^ = $esp $T0 8 + = $L $T0 .cbSavedRegs - = $P $T0 8 + .cbParams + =
STACK WIN 4 1c24 8 0 0 4 c 24 0 1 $T0 $ebp = $T2 $esp = $T1 .raSearchStart = $eip $T1 ^ = $ebp $T0 = $esp $T1 4 + = $L $T0 .cbSavedRegs - = $P $T1 4 + .cbParams + =
STACK WIN 4 1c2d 12 0 0 4 0 0 0 1 $T2 $esp .cbLocals + .cbSavedRegs + = $T0 .raSearchStart = $eip $T0 ^ = $esp $T0 4 + =
STACK WIN 4 1c3f 24 2 0 0 0 0 0 1 $T2 $esp .cbLocals + .cbSavedRegs + = $T0 .raSearchStart = $eip $T0 ^ = $esp $T0 4 + =
STACK WIN 4 1c40 22 1 0 0 4 0 0 1 $T2 $esp .cbLocals + .cbSavedRegs + = $T0 .raSearchStart = $eip $T0 ^ = $esp $T0 4 + =
STACK WIN 4 1c41 20 0 0 0 8 0 0 1 $T2 $esp .cbLocals + .cbSavedRegs + = $T0 .raSearchStart = $eip $T0 ^ = $esp $T0 4 + =
STACK WIN 4 1c63 24 2 0 0 0 0 0 1 $T2 $esp .cbLocals + .cbSavedRegs + = $T0 .raSearchStart = $eip $T0 ^ = $esp $T0 4 + =
STACK WIN 4 1c64 22 1 0 0 4 0 0 1 $T2 $esp .cbLocals + .cbSavedRegs + = $T0 .raSearchStart = $eip $T0 ^ = $esp $T0 4 + =
STACK WIN 4 1c65 20 0 0 0 8 0 0 1 $T2 $esp .cbLocals + .cbSavedRegs + = $T0 .raSearchStart = $eip $T0 ^ = $esp $T0 4 + =
STACK WIN 4 1c90 29 0 0 4 0 0 0 1 $T2 $esp .cbLocals + .cbSavedRegs + = $T0 .raSearchStart = $eip $T0 ^ = $esp $T0 4 + =
STACK WIN 4 1cc0 42 18 0 8 0 0 0 1 $T2 $esp .cbLocals + .cbSavedRegs + = $T0 .raSearchStart = $eip $T0 ^ = $esp $T0 4 + =
STACK WIN 4 1cce 33 a 0 8 4 0 0 1 $T2 $esp .cbLocals + .cbSavedRegs + = $T0 .raSearchStart = $eip $T0 ^ = $esp $T0 4 + = $ebx $T0 4 - ^ =
STACK WIN 4 1ccf 31 9 0 8 8 0 0 1 $T2 $esp .cbLocals + .cbSavedRegs + = $T0 .raSearchStart = $eip $T0 ^ = $esp $T0 4 + = $ebx $T0 4 - ^ =
STACK WIN 4 1cd8 27 0 0 8 c 0 0 1 $T2 $esp .cbLocals + .cbSavedRegs + = $T0 .raSearchStart = $eip $T0 ^ = $esp $T0 4 + = $ebx $T0 4 - ^ =
STACK WIN 4 1d10 bb 33 0 4 c 18 0 1 $T0 $ebp = $eip $T0 4 + ^ = $ebp $T0 ^ = $esp $T0 8 + = $L $T0 .cbSavedRegs - = $P $T0 8 + .cbParams + =
STACK WIN 4 1d2a a1 19 0 4 10 18 0 1 $T0 $ebp = $eip $T0 4 + ^ = $ebp $T0 ^ = $esp $T0 8 + = $L $T0 .cbSavedRegs - = $P $T0 8 + .cbParams + = $ebx $T0 28 - ^ =
STACK WIN 4 1d99 14 0 0 4 c 18 0 1 $T0 $ebp = $T2 $esp = $T1 .raSearchStart = $eip $T1 ^ = $ebp $T0 = $esp $T1 4 + = $L $T0 .cbSavedRegs - = $P $T1 4 + .cbParams + = $ebx $T0 28 - ^ =
STACK WIN 4 1e31 23 0 0 10 0 0 0 1 $T2 $esp .cbLocals + .cbSavedRegs + = $T0 .raSearchStart = $eip $T0 ^ = $esp $T0 4 + =
STACK WIN 4 1e54 29 1 0 0 0 0 0 1 $T2 $esp .cbLocals + .cbSavedRegs + = $T0 .raSearchStart = $eip $T0 ^ = $esp $T0 4 + =
STACK WIN 4 1e55 27 0 0 0 4 0 0 1 $T2 $esp .cbLocals + .cbSavedRegs + = $T0 .raSearchStart = $eip $T0 ^ = $esp $T0 4 + =
STACK WIN 4 1e7d 3 0 0 0 0 0 0 1 $T2 $esp .cbLocals + .cbSavedRegs + = $T0 .raSearchStart = $eip $T0 ^ = $esp $T0 4 + =
STACK WIN 4 1e80 94 15 0 0 0 10 0 1 $T0 $ebp = $eip $T0 4 + ^ = $ebp $T0 ^ = $esp $T0 8 + = $L $T0 .cbSavedRegs - = $P $T0 8 + .cbParams + =
STACK WIN 4 1e94 7e 1 0 0 4 10 0 1 $T0 $ebp = $eip $T0 4 + ^ = $ebp $T0 ^ = $esp $T0 8 + = $L $T0 .cbSavedRegs - = $P $T0 8 + .cbParams + = $ebx $T0 20 - ^ =
STACK WIN 4 1e95 7c 0 0 0 8 10 0 1 $T0 $ebp = $eip $T0 4 + ^ = $ebp $T0 ^ = $esp $T0 8 + = $L $T0 .cbSavedRegs - = $P $T0 8 + .cbParams + = $ebx $T0 20 - ^ =
STACK WIN 4 1eb1 5f 0 0 0 c 10 0 1 $T0 $ebp = $eip $T0 4 + ^ = $ebp $T0 ^ = $esp $T0 8 + = $L $T0 .cbSavedRegs - = $P $T0 8 + .cbParams + = $ebx $T0 20 - ^ =
STACK WIN 4 1f32 f 0 0 0 0 0 0 1 $T2 $esp .cbLocals + .cbSavedRegs + = $T0 .raSearchStart = $eip $T0 ^ = $esp $T0 4 + =
STACK WIN 4 1f54 104 9 0 0 0 328 0 1 $T0 $ebp = $eip $T0 4 + ^ = $ebp $T0 ^ = $esp $T0 8 + = $L $T0 .cbSavedRegs - = $P $T0 8 + .cbParams + =
STACK WIN 0 193a 14 0 0 0 0 0 0 0 0
STACK WIN 0 1a99 24 0 0 0 0 0 0 0 0
STACK WIN 0 1b1f 18 0 0 0 0 0 0 0 0
STACK WIN 0 1c24 9 0 0 0 0 0 0 0 0
STACK WIN 0 1d99 14 0 0 0 0 0 0 0 0
