MODULE windows x86 A604277EE8104A6D869864FF15D38CF51 freebl3.pdb
FUNC 1000 1c 0 FREEBL_GetVector
FUNC 1020 f2 8 RNG_GetNoise
FUNC 1120 1ca c EnumSystemFilesInFolder
FUNC 12f0 bd 0 EnumSystemFiles
FUNC 13b0 a 4 CountFiles
FUNC 13c0 7c 4 ReadSingleFile
FUNC 1440 8b 4 ReadOneFile
FUNC 14d0 f8 4 RNG_FileForRNG
FUNC 15d0 5a 0 rng_systemFromNoise
FUNC 1630 ac 4 ReadFiles
FUNC 16e0 78 0 ReadSystemFiles
FUNC 1760 219 0 RNG_SystemInfoForRNG
FUNC 1980 122 8 RNG_SystemRNG
FUNC 1ab0 30 4 SHA1_Begin
FUNC 1ae0 11b3 0 shaCompress
FUNC 2ca0 e 0 SHA1_NewContext
FUNC 2cb0 27 8 SHA1_DestroyContext
FUNC 2ce0 6 4 SHA1_FlattenSize
FUNC 2cf0 16 8 SHA1_Flatten
FUNC 2d10 24 8 SHA1_Resurrect
FUNC 2d40 14 8 SHA1_Clone
FUNC 2d60 d 4 SHA1_TraceState
FUNC 2d70 a0 c SHA1_Update
FUNC 2e10 82 10 SHA1_End
FUNC 2ea0 95 c SHA1_HashBuf
FUNC 2f40 2c 8 SHA1_Hash
FUNC 2f70 1e 0 MD2_NewContext
FUNC 2f90 15 8 MD2_DestroyContext
FUNC 2fb0 18 4 MD2_Begin
FUNC 2fd0 506 0 md2_compress
FUNC 34e0 a7 c MD2_Update
FUNC 3590 82 10 MD2_End
FUNC 3620 6 4 MD2_FlattenSize
FUNC 3630 17 8 MD2_Flatten
FUNC 3650 31 8 MD2_Resurrect
FUNC 3690 15 8 MD2_Clone
FUNC 36b0 c4 8 MD2_Hash
FUNC 3780 1e 0 MD5_NewContext
FUNC 37a0 13 8 MD5_DestroyContext
FUNC 37c0 2e 4 MD5_Begin
FUNC 37f0 735 4 md5_compress
FUNC 3f30 ad c MD5_Update
FUNC 3fe0 9b 10 MD5_End
FUNC 4080 6 4 MD5_FlattenSize
FUNC 4090 16 8 MD5_Flatten
FUNC 40b0 30 8 MD5_Resurrect
FUNC 40e0 14 8 MD5_Clone
FUNC 4100 78 c MD5_HashBuf
FUNC 4180 2c 8 MD5_Hash
FUNC 41b0 2b 4 SHA256_Begin
FUNC 41e0 2791 0 SHA256_Compress
FUNC 6980 bb c SHA256_Update
FUNC 6a40 fc 10 SHA256_End
FUNC 6b40 8d c SHA256_HashBuf
FUNC 6bd0 2c 8 SHA256_Hash
FUNC 6c00 6 4 SHA256_FlattenSize
FUNC 6c10 16 8 SHA224_Flatten
FUNC 6c30 23 8 SHA256_Resurrect
FUNC 6c60 14 8 SHA224_Clone
FUNC 6c80 e 0 SHA256_NewContext
FUNC 6c90 15 8 SHA224_DestroyContext
FUNC 6cb0 2b 4 SHA224_Begin
FUNC 6ce0 5 c SHA224_Update
FUNC 6cf0 17 10 SHA224_End
FUNC 6d10 8d c SHA224_HashBuf
FUNC 6da0 2c 8 SHA224_Hash
FUNC 6dd0 15 8 SHA512_DestroyContext
FUNC 6df0 2b 4 SHA512_Begin
FUNC 6e20 11b9 0 SHA512_Compress
FUNC 7fe0 c1 c SHA512_Update
FUNC 80b0 185 10 SHA512_End
FUNC 8240 8d c SHA512_HashBuf
FUNC 82d0 2c 8 SHA512_Hash
FUNC 8300 1 4 SHA256_TraceState
FUNC 8310 23 8 SHA512_Resurrect
FUNC 8340 14 8 SHA512_Clone
FUNC 8360 e 0 SHA384_NewContext
FUNC 8370 2b 4 SHA384_Begin
FUNC 83a0 5 c SHA384_Update
FUNC 83b0 17 10 SHA384_End
FUNC 83d0 8d c SHA384_HashBuf
FUNC 8460 2c 8 SHA384_Hash
FUNC 8490 6 4 SHA384_FlattenSize
FUNC 84a0 16 8 SHA512_Flatten
FUNC 84c0 3c 8 HMAC_Destroy
FUNC 8500 15d 14 HMAC_Init
FUNC 8660 4d 10 HMAC_Create
FUNC 86b0 28 4 HMAC_Begin
FUNC 86e0 12 c HMAC_Update
FUNC 8700 92 10 HMAC_Finish
FUNC 87a0 7e 4 HMAC_Clone
FUNC 8820 3 4 null_hash_clone_context
FUNC 8830 b 10 null_hash_end
FUNC 8840 24 4 HASH_GetRawHashObject
FUNC 8870 e 0 RC2_AllocateContext
FUNC 8880 2b 8 RC2_DestroyContext
FUNC 88b0 8b7 0 rc2_Encrypt1Block
FUNC 9170 93b 4 rc2_Decrypt1Block
FUNC 9ab0 ae 10 rc2_EncryptECB
FUNC 9b60 a5 10 rc2_DecryptECB
FUNC 9c10 e2 10 rc2_EncryptCBC
FUNC 9d00 e0 10 rc2_DecryptCBC
FUNC 9de0 61 18 RC2_Encrypt
FUNC 9e50 61 18 RC2_Decrypt
FUNC 9ec0 145 1c RC2_InitContext
FUNC a010 5a 14 RC2_CreateContext
FUNC a070 e 0 RC4_AllocateContext
FUNC a080 109 1c RC4_InitContext
FUNC a190 49 8 RC4_CreateContext
FUNC a1e0 15 8 RC4_DestroyContext
FUNC a200 4d8 c rc4_unrolled
FUNC a6e0 39 18 RC4_Encrypt
FUNC a720 10 14 RC5_CreateContext
FUNC a730 c 8 RC5_DestroyContext
FUNC a740 35 10 DES_ECB
FUNC a780 51 10 DES_EDE3_ECB
FUNC a7e0 76 10 DES_CBCEn
FUNC a860 8e 10 DES_CBCDe
FUNC a8f0 92 10 DES_EDE3CBCEn
FUNC a990 be 10 DES_EDE3CBCDe
FUNC aa50 e 0 DES_AllocateContext
FUNC aa60 1f4 1c DES_InitContext
FUNC ac60 48 10 DES_CreateContext
FUNC acb0 2b 8 DES_DestroyContext
FUNC ace0 5b 18 DES_Encrypt
FUNC ad40 5b 18 DES_Decrypt
FUNC ada0 1ee c DES_MakeSchedule
FUNC af90 9e7 c DES_Do1Block
FUNC b980 df c prng_Hash_df
FUNC ba60 41 0 prng_instantiate
FUNC bab0 11f 10 prng_reseed
FUNC bbd0 b7 8 prng_Hashgen
FUNC bc90 5bc c prng_generateNewBytes
FUNC c250 119 0 rng_init
FUNC c370 8e 0 prng_freeRNGContext
FUNC c400 22 0 RNG_RNGInit
FUNC c430 100 8 RNG_RandomUpdate
FUNC c530 167 4 prng_GenerateGlobalRandomBytes
FUNC c6a0 1c 8 RNG_GenerateGlobalRandomBytes
FUNC c6c0 4a 0 RNG_RNGShutdown
FUNC c710 cb 18 PRNGTEST_Instantiate
FUNC c7e0 3b 10 PRNGTEST_Reseed
FUNC c820 3a 10 PRNGTEST_Generate
FUNC c860 17 0 PRNGTEST_Uninstantiate
FUNC c880 10e 4 rijndael_key_expansion7
FUNC c990 2e0 4 rijndael_key_expansion
FUNC cc70 1f8 4 rijndael_invkey_expansion
FUNC ce70 2c5 c rijndael_encryptBlock128
FUNC d140 28d c rijndael_decryptBlock128
FUNC d3d0 4 c rijndael_encryptBlock
FUNC d3e0 4f 1c rijndael_encryptECB
FUNC d430 fb 1c rijndael_encryptCBC
FUNC d530 4f 1c rijndael_decryptECB
FUNC d580 fe 1c rijndael_decryptCBC
FUNC d680 e 0 AES_AllocateContext
FUNC d690 142 1c AES_InitContext
FUNC d7e0 90 18 AES_Decrypt
FUNC d870 50 18 AES_CreateContext
FUNC d8c0 e 0 AESKeyWrap_AllocateContext
FUNC d8d0 58 1c AESKeyWrap_InitContext
FUNC d930 4a 10 AESKeyWrap_CreateContext
FUNC d980 29 8 AESKeyWrap_DestroyContext
FUNC d9b0 5d 0 increment_and_xor
FUNC da10 a3 0 xor_and_decrement
FUNC dac0 1c3 18 AESKeyWrap_Encrypt
FUNC dc90 259 18 AESKeyWrap_Decrypt
FUNC def0 c74 8 camellia_setup128
FUNC eb70 127c 8 camellia_setup256
FUNC fdf0 6d 8 camellia_setup192
FUNC fe60 ada c camellia_encrypt128
FUNC 10940 ada c camellia_decrypt128
FUNC 11420 e88 c camellia_encrypt256
FUNC 122c0 e88 c camellia_decrypt256
FUNC 13150 55 c camellia_key_expansion
FUNC 131b0 5c 18 camellia_encryptECB
FUNC 13210 111 18 camellia_encryptCBC
FUNC 13330 5c 18 camellia_decryptECB
FUNC 13390 157 18 camellia_decryptCBC
FUNC 134f0 e 0 Camellia_AllocateContext
FUNC 13500 b2 1c Camellia_InitContext
FUNC 135c0 106 14 Camellia_CreateContext
FUNC 136d0 2b 8 Camellia_DestroyContext
FUNC 13700 81 18 Camellia_Decrypt
FUNC 13790 49e 8 DH_GenParam
FUNC 13c30 35b 8 DH_NewKey
FUNC 13f90 250 14 DH_Derive
FUNC 141e0 3e3 18 KEA_Derive
FUNC 145d0 1ed c KEA_Verify
FUNC 147c0 29 4 ec_point_at_infinity
FUNC 147f0 361 14 ec_points_mul
FUNC 14b60 2ca 10 ec_NewKey
FUNC 14e30 5 10 EC_NewKeyFromSeed
FUNC 14e40 1ea 8 ec_GenerateRandomPrivateKey
FUNC 15030 57 8 EC_NewKey
FUNC 15090 1cd 8 EC_ValidatePublicKey
FUNC 15260 1f4 14 ECDH_Derive
FUNC 15460 4fa 14 ECDSA_SignDigestWithSeed
FUNC 15960 5c c ECDSA_SignDigest
FUNC 159c0 4e3 c ECDSA_VerifyDigest
FUNC 15eb0 47 0 getPQseed
FUNC 15f00 83 4 generate_h_candidate
FUNC 15f90 236 c addToSeedThenSHA
FUNC 161d0 1bb 8 makeQfromSeed
FUNC 16390 41b 10 makePfromQandSeed
FUNC 167b0 195 c makeGfromH
FUNC 16950 5cd 10 PQG_ParamGenSeedLen
FUNC 16f20 4de c PQG_VerifyParams
FUNC 17400 46 4 PQG_DestroyParams
FUNC 17450 3b 4 PQG_DestroyVerify
FUNC 17490 40 c PQG_ParamGen
FUNC 174d0 14b c fips186Change_ReduceModQForDSA
FUNC 17620 1f c FIPS186Change_ReduceModQForDSA
FUNC 17640 11 c RC5_Decrypt
FUNC 17660 9d c dsa_GenerateGlobalRandomBytes
FUNC 17700 45 0 translate_mpi_error
FUNC 17750 2b6 c dsa_NewKeyExtended
FUNC 17a10 de c DSA_NewRandom
FUNC 17af0 6f 8 DSA_NewKey
FUNC 17b60 2b c DSA_NewKeyFromSeed
FUNC 17b90 383 c dsa_SignDigest
FUNC 17f20 e9 c DSA_SignDigest
FUNC 18010 1e 10 DSA_SignDigestWithSeed
FUNC 18030 49d c DSA_VerifyDigest
FUNC 184d0 56b 1c rsa_build_from_primes
FUNC 18a40 10c 0 generate_prime
FUNC 18b50 2e3 8 RSA_NewKey
FUNC 18e40 21 4 rsa_is_prime
FUNC 18e70 553 18 rsa_get_primes_from_exponents
FUNC 193d0 3c0 4 RSA_PopulatePrivateKey
FUNC 19790 2e2 c RSA_PublicKeyOp
FUNC 19a80 d7 c rsa_PrivateKeyOpNoCRT
FUNC 19b60 3a3 8 rsa_PrivateKeyOpCRTNoCheck
FUNC 19f10 177 8 rsa_PrivateKeyOpCRTCheckedPubKey
FUNC 1a090 4f 0 init_blinding_params_list
FUNC 1a0e0 1ab 10 generate_blinding_params
FUNC 1a290 39f 14 get_blinding_params
FUNC 1a630 381 c rsa_PrivateKeyOp
FUNC 1a9c0 19 c RSA_PrivateKeyOp
FUNC 1a9e0 19 c RSA_PrivateKeyOpDoubleChecked
FUNC 1aa00 74 4 swap_in_key_value
FUNC 1aa80 683 4 RSA_PrivateKeyCheck
FUNC 1b110 2b 0 BL_Init
FUNC 1b140 c1 0 RSA_Cleanup
FUNC 1b210 5 0 BL_Cleanup
FUNC 1b220 a 4 BL_SetForkState
FUNC 1b230 70 4 mkCheckFileName
FUNC 1b2a0 1e 4 decodeInt
FUNC 1b2c0 85 0 readItem
FUNC 1b350 2b2 4 BLAPI_SHVerifyFile
FUNC 1b610 34 8 BLAPI_SHVerify
FUNC 1b650 3e 4 BLAPI_VerifySelf
FUNC 1b690 1e2 18 TLS_P_hash
FUNC 1b880 e6 14 TLS_PRF
FUNC 1b970 ad6 8 SEED_set_key
FUNC 1c460 dca c SEED_encrypt
FUNC 1d230 dca c SEED_decrypt
FUNC 1e000 387 18 SEED_cbc_encrypt
FUNC 1e390 e 0 SEED_AllocateContext
FUNC 1e3a0 95 1c SEED_InitContext
FUNC 1e440 48 10 SEED_CreateContext
FUNC 1e490 2b 8 SEED_DestroyContext
FUNC 1e4c0 7e 18 SEED_Encrypt
FUNC 1e540 7d 18 SEED_Decrypt
FUNC 1e5c0 4b 0 hashSECItem
FUNC 1e610 12d 10 hashPublicParams
FUNC 1e740 655 28 JPAKE_Sign
FUNC 1eda0 5f2 20 JPAKE_Verify
FUNC 1f3a0 17a 10 jpake_Round2Base
FUNC 1f520 420 28 JPAKE_Round2
FUNC 1f940 40c 20 JPAKE_Final
FUNC 1fd50 36 8 mpp_divis_d
FUNC 1fd90 4f 4 mpp_random
FUNC 1fde0 8e 8 mpp_fermat
FUNC 1fe70 22b 8 mpp_pprime
FUNC 200a0 6c 14 mpp_sieve
FUNC 20110 52 10 s_mpp_divp
FUNC 20170 53 8 mpp_divis_primes
FUNC 201d0 38d 10 mpp_make_prime
FUNC 20560 a3 8 s_mp_redc
FUNC 20610 1c4 10 s_mp_mul_mont
FUNC 207e0 3d c s_mp_to_mont
FUNC 20820 133d 24 mp_exptmod_i
FUNC 21b60 94 10 mpi_to_weave
FUNC 21c00 5b 10 weave_to_mpi
FUNC 21c60 7ec 24 mp_exptmod_safe_i
FUNC 22450 248 10 mp_exptmod
FUNC 226a0 38 c mpl_rsh
FUNC 226e0 36 c mpl_lsh
FUNC 22720 7f c mpl_set_bit
FUNC 227a0 36 8 mpl_get_bit
FUNC 227e0 86 c mpl_get_bits
FUNC 22870 48 4 mpl_significant_bits
FUNC 228c0 5c 8 mp_init_size
FUNC 22920 66 8 mp_init_copy
FUNC 22990 e9 8 mp_copy
FUNC 22a80 4b 4 mp_clear
FUNC 22ad0 2e 4 mp_zero
FUNC 22b00 37 8 mp_set
FUNC 22b40 24 4 mp_cmp_z
FUNC 22b70 12 4 mp_isodd
FUNC 22b90 24 4 mp_iseven
FUNC 22bc0 89 4 mp_trailing_zeros
FUNC 22c50 43 4 s_mp_invmod_radix
FUNC 22ca0 81 8 s_mp_grow
FUNC 22d30 49 8 s_mp_pad
FUNC 22d80 3d 8 s_mp_exch
FUNC 22dc0 76 8 s_mp_lshd
FUNC 22e40 d0 8 s_mp_mul_2d
FUNC 22f10 63 8 s_mp_rshd
FUNC 22f80 59 4 s_mp_mul_2
FUNC 22fe0 68 8 s_mp_mod_2d
FUNC 23050 a7 8 s_mp_div_2d
FUNC 23100 4e c s_mp_norm
FUNC 23150 6e 8 s_mp_add_d
FUNC 231c0 78 8 s_mp_sub_d
FUNC 23240 139 c s_mp_add_3arg
FUNC 23380 9f 8 s_mp_sub
FUNC 23420 116 c s_mp_sub_3arg
FUNC 23540 91 8 s_mp_2expt
FUNC 235e0 98 8 s_mp_cmp
FUNC 23680 26 8 s_mp_cmp_d
FUNC 236b0 4f 4 s_mp_ispow2d
FUNC 23700 7c 8 s_mp_tovalue
FUNC 23780 135 c mp_read_unsigned_octets
FUNC 238c0 69 4 mp_unsigned_octet_size
FUNC 23930 ad c mp_to_unsigned_octets
FUNC 239e0 c8 c mp_to_fixlen_octets
FUNC 23ab0 14 4 mp_init
FUNC 23ad0 45 8 mp_exch
FUNC 23b20 31 8 mp_mul_2
FUNC 23b60 4c 8 mp_neg
FUNC 23bb0 6e c mp_add
FUNC 23c20 bb c mp_sub
FUNC 23ce0 1d5 c mp_mul
FUNC 23ec0 15a 8 mp_sqr
FUNC 24020 62 10 mp_div_2d
FUNC 24090 17 8 mp_2expt
FUNC 240b0 30 8 mp_cmp_d
FUNC 240e0 3f 8 mp_cmp
FUNC 24120 232 c s_mp_almost_inverse
FUNC 24360 11a 10 s_mp_fixup_reciprocal
FUNC 24480 108 c s_mp_invmod_odd_m
FUNC 24590 267 c s_mp_invmod_2d
FUNC 24800 aa 8 s_mp_mul_d
FUNC 248b0 177 c s_mp_div_d
FUNC 24a30 83 4 s_mp_sqr
FUNC 24ac0 124 c s_mp_reduce
FUNC 24bf0 49 4 s_mp_ispow2
FUNC 24c40 59 8 mp_set_int
FUNC 24ca0 44 8 mp_set_ulong
FUNC 24cf0 e0 c mp_add_d
FUNC 24dd0 e9 c mp_sub_d
FUNC 24ec0 e7 10 mp_div_d
FUNC 24fb0 35 8 mp_div_2
FUNC 24ff0 5f c mp_mod_d
FUNC 25050 a6 8 mp_cmp_int
FUNC 25100 27a c mp_gcd
FUNC 25380 fc c mp_read_radix
FUNC 25480 306 c s_mp_div
FUNC 25790 1ea 10 mp_div
FUNC 25980 99 c mp_mod
FUNC 25a20 1b8 8 mp_sqrt
FUNC 25be0 47 10 mp_addmod
FUNC 25c30 47 10 mp_submod
FUNC 25c80 47 10 mp_mulmod
FUNC 25cd0 3e c mp_sqrmod
FUNC 25d10 285 10 s_mp_exptmod
FUNC 25fa0 297 c s_mp_invmod_even_m
FUNC 26240 88 c mp_invmod
FUNC 262d0 8f 10 s_mpv_mul_d
FUNC 26360 9c 10 s_mpv_mul_d_add
FUNC 26400 c4 10 s_mpv_mul_d_add_prop
FUNC 264d0 d7 c s_mpv_sqr_add_prop
FUNC 265b0 20 14 s_mpv_div_2dx1d
FUNC 265d0 72 0 getIntelCacheEntryLineSize
FUNC 26650 1cf 4 getIntelCacheLineSize
FUNC 26820 5c 0 getOtherCacheLineSize
FUNC 26880 13e 0 s_mpi_is_sse2
FUNC 269c0 126 0 s_mpi_getProcessorLineSize
FUNC 26af0 18 c ECPoint_validate
FUNC 26b10 77 4 ECGroup_free
FUNC 26b90 ae 0 ECGroup_new
FUNC 26c40 f1 1c ECGroup_consGFp_mont
FUNC 26d40 228 8 ecgroup_fromNameAndHex
FUNC 26f70 54 4 ECGroup_fromName
FUNC 26fd0 73 4 EC_FreeCurveParams
FUNC 27050 d9 4 ECCurveParams_dup
FUNC 27130 23 4 EC_GetNamedCurveParams
FUNC 27160 198 18 ECPoint_mul
FUNC 27300 697 1c ec_pts_mul_simul_w2
FUNC 279a0 138 1c ECPoints_mul
FUNC 27ae0 33 4 GFMethod_free
FUNC 27b20 45 10 ec_GFp_add
FUNC 27b70 3b c ec_GFp_neg
FUNC 27bb0 94 10 ec_GFp_sub
FUNC 27c50 192 10 ec_GFp_add_3
FUNC 27df0 230 10 ec_GFp_add_4
FUNC 28020 2c0 10 ec_GFp_add_5
FUNC 282e0 350 10 ec_GFp_add_6
FUNC 28630 129 10 ec_GFp_sub_3
FUNC 28760 1b4 10 ec_GFp_sub_4
FUNC 28920 204 10 ec_GFp_sub_5
FUNC 28b30 280 10 ec_GFp_sub_6
FUNC 28db0 1b c ec_GFp_mod
FUNC 28dd0 20 10 ec_GFp_mul
FUNC 28df0 1b c ec_GFp_sqr
FUNC 28e10 8c 10 ec_GFp_div
FUNC 28ea0 68 0 GFMethod_new
FUNC 28f10 12c 4 GFMethod_consGFp
FUNC 29040 27 8 ec_GFp_pt_is_inf_aff
FUNC 29070 1a 8 ec_GFp_pt_set_inf_aff
FUNC 29090 401 1c ec_GFp_pt_add_aff
FUNC 294a0 7d 1c ec_GFp_pt_sub_aff
FUNC 29520 24 14 ec_GFp_pt_dbl_aff
FUNC 29550 2a8 c ec_GFp_validate_point
FUNC 29800 e c ec_GFp_pt_is_inf_jac
FUNC 29810 10 c ec_GFp_pt_set_inf_jac
FUNC 29820 4e6 1c ec_GFp_pt_dbl_jac
FUNC 29d10 7e 18 ec_GFp_pt_aff2jac
FUNC 29d90 191 18 ec_GFp_pt_jac2aff
FUNC 29f30 40a 24 ec_GFp_pt_add_jac_aff
FUNC 2a340 701 1c ec_GFp_pts_mul_jac
FUNC 2aa50 98 10 ec_GFp_mul_mont
FUNC 2aaf0 19 c ec_GFp_sqr_mont
FUNC 2ab10 3e c ec_GFp_enc_mont
FUNC 2ab50 2e c ec_GFp_dec_mont
FUNC 2ab80 1f 4 ec_GFp_extra_free_mont
FUNC 2aba0 69 10 ec_GFp_div_mont
FUNC 2ac10 99 4 GFMethod_consGFp_mont
FUNC 2acb0 112 10 ec_compute_wNAF
FUNC 2add0 234 28 ec_GFp_pt_dbl_jm
FUNC 2b010 34c 30 ec_GFp_pt_add_jm_aff
FUNC 2b360 41b 18 ec_GFp_pt_mul_jm_wNAF
FUNC 2b7dc f 0 __security_check_cookie
FUNC 2b800 2b 0 _alloca_probe
FUNC 2b830 9 0 _ftol2_sse
FUNC 2b839 13 0 _ftol2_pentium4
FUNC 2b84c 1a 0 _ftol2_sse_excpt
FUNC 2b866 75 0 _ftol2
FUNC 2b8db 4d 0 pre_c_init
FUNC 2b928 1c3 c _CRT_INIT
FUNC 2baeb 116 4 __DllMainCRTStartup
FUNC 2bc01 21 c _DllMainCRTStartup
FUNC 2bc22 104 0 __report_gsfailure
FUNC 2bd26 50 0 has_osfxsr_set
FUNC 2bd76 60 0 _get_sse2_info
FUNC 2bdd6 d 0 __sse2_available_init
FUNC 2bde3 c 0 __clean_type_info_names
FUNC 2bdef a5 4 _onexit
FUNC 2be94 12 4 atexit
FUNC 2bea6 24 0 _RTC_Initialize
FUNC 2beca 24 0 _RTC_Terminate
FUNC 2bef0 29 4 _ValidateImageBase
FUNC 2bf20 42 8 _FindPESection
FUNC 2bf70 bb 4 _IsNonwritableInCurrentImage
FUNC 2c044 20 c DllMain
FUNC 2c064 45 0 _SEH_prolog4
FUNC 2c0a9 14 0 _SEH_epilog4
FUNC 2c0bd 23 10 _except_handler4
FUNC 2c0e0 94 0 __security_init_cookie
STACK WIN 4 1000 1c 1 0 0 0 4 0 1 $T2 $esp .cbLocals + .cbSavedRegs + = $T0 .raSearchStart = $eip $T0 ^ = $esp $T0 4 + =
STACK WIN 4 1020 f2 4 0 8 0 c 0 1 $T2 $esp .cbLocals + .cbSavedRegs + = $T0 .raSearchStart = $eip $T0 ^ = $esp $T0 4 + =
STACK WIN 4 1024 ea 0 0 8 4 c 0 1 $T2 $esp .cbLocals + .cbSavedRegs + = $T0 .raSearchStart = $eip $T0 ^ = $esp $T0 4 + =
STACK WIN 4 1056 b7 0 0 8 8 c 0 1 $T2 $esp .cbLocals + .cbSavedRegs + = $T0 .raSearchStart = $eip $T0 ^ = $esp $T0 4 + =
STACK WIN 4 1060 a9 0 0 8 c c 0 1 $T2 $esp .cbLocals + .cbSavedRegs + = $T0 .raSearchStart = $eip $T0 ^ = $esp $T0 4 + = $ebp $T0 24 - ^ =
STACK WIN 4 1084 84 0 0 8 10 c 0 1 $T2 $esp .cbLocals + .cbSavedRegs + = $T0 .raSearchStart = $eip $T0 ^ = $esp $T0 4 + = $ebp $T0 24 - ^ = $ebx $T0 28 - ^ =
STACK WIN 4 1120 1ca 26 0 c 0 468 0 1 $T2 $esp .cbLocals + .cbSavedRegs + = $T0 .raSearchStart = $eip $T0 ^ = $esp $T0 4 + =
STACK WIN 4 113c 1a0 a 0 c 4 468 0 1 $T2 $esp .cbLocals + .cbSavedRegs + = $T0 .raSearchStart = $eip $T0 ^ = $esp $T0 4 + =
STACK WIN 4 1146 195 0 0 c 8 468 0 1 $T2 $esp .cbLocals + .cbSavedRegs + = $T0 .raSearchStart = $eip $T0 ^ = $esp $T0 4 + =
STACK WIN 4 1160 173 0 0 c c 468 0 1 $T2 $esp .cbLocals + .cbSavedRegs + = $T0 .raSearchStart = $eip $T0 ^ = $esp $T0 4 + = $ebx $T0 1140 - ^ =
STACK WIN 4 1167 16b 0 0 c 10 468 0 1 $T2 $esp .cbLocals + .cbSavedRegs + = $T0 .raSearchStart = $eip $T0 ^ = $esp $T0 4 + = $ebp $T0 1144 - ^ = $ebx $T0 1140 - ^ =
STACK WIN 4 12f0 bd 14 0 0 0 20c 0 1 $T2 $esp .cbLocals + .cbSavedRegs + = $T0 .raSearchStart = $eip $T0 ^ = $esp $T0 4 + =
STACK WIN 4 1340 5a 0 0 0 4 20c 0 1 $T2 $esp .cbLocals + .cbSavedRegs + = $T0 .raSearchStart = $eip $T0 ^ = $esp $T0 4 + =
STACK WIN 4 1341 58 0 0 0 8 20c 0 1 $T2 $esp .cbLocals + .cbSavedRegs + = $T0 .raSearchStart = $eip $T0 ^ = $esp $T0 4 + =
STACK WIN 4 13b0 a 0 0 4 0 0 0 1 $T2 $esp .cbLocals + .cbSavedRegs + = $T0 .raSearchStart = $eip $T0 ^ = $esp $T0 4 + =
STACK WIN 4 13c0 7c 1c 0 4 0 404 0 1 $T2 $esp .cbLocals + .cbSavedRegs + = $T0 .raSearchStart = $eip $T0 ^ = $esp $T0 4 + =
STACK WIN 4 13dc 52 0 0 4 4 404 0 1 $T2 $esp .cbLocals + .cbSavedRegs + = $T0 .raSearchStart = $eip $T0 ^ = $esp $T0 4 + =
STACK WIN 4 13f1 2e 0 0 4 8 404 0 1 $T2 $esp .cbLocals + .cbSavedRegs + = $T0 .raSearchStart = $eip $T0 ^ = $esp $T0 4 + =
STACK WIN 4 1440 8b 14 0 4 0 108 0 1 $T2 $esp .cbLocals + .cbSavedRegs + = $T0 .raSearchStart = $eip $T0 ^ = $esp $T0 4 + =
STACK WIN 4 14d0 f8 15 0 4 0 434 0 1 $T2 $esp .cbLocals + .cbSavedRegs + = $T0 .raSearchStart = $eip $T0 ^ = $esp $T0 4 + =
STACK WIN 4 14e5 d5 0 0 4 4 434 0 1 $T2 $esp .cbLocals + .cbSavedRegs + = $T0 .raSearchStart = $eip $T0 ^ = $esp $T0 4 + =
STACK WIN 4 1512 a0 0 0 4 8 434 0 1 $T2 $esp .cbLocals + .cbSavedRegs + = $T0 .raSearchStart = $eip $T0 ^ = $esp $T0 4 + =
STACK WIN 4 1534 63 0 0 4 c 434 0 1 $T2 $esp .cbLocals + .cbSavedRegs + = $T0 .raSearchStart = $eip $T0 ^ = $esp $T0 4 + = $ebx $T0 1124 - ^ =
STACK WIN 4 15d0 5a c 0 0 0 4 0 1 $T2 $esp .cbLocals + .cbSavedRegs + = $T0 .raSearchStart = $eip $T0 ^ = $esp $T0 4 + =
STACK WIN 4 15d2 56 a 0 0 4 4 0 1 $T2 $esp .cbLocals + .cbSavedRegs + = $T0 .raSearchStart = $eip $T0 ^ = $esp $T0 4 + = $ebp $T0 8 - ^ =
STACK WIN 4 15d3 54 9 0 0 8 4 0 1 $T2 $esp .cbLocals + .cbSavedRegs + = $T0 .raSearchStart = $eip $T0 ^ = $esp $T0 4 + = $ebp $T0 8 - ^ =
STACK WIN 4 15da 4c 2 0 0 c 4 0 1 $T2 $esp .cbLocals + .cbSavedRegs + = $T0 .raSearchStart = $eip $T0 ^ = $esp $T0 4 + = $ebp $T0 8 - ^ =
STACK WIN 4 15e3 42 0 0 0 10 4 0 1 $T2 $esp .cbLocals + .cbSavedRegs + = $T0 .raSearchStart = $eip $T0 ^ = $esp $T0 4 + = $ebp $T0 8 - ^ = $ebx $T0 20 - ^ =
STACK WIN 4 1630 ac 14 0 4 0 108 0 1 $T2 $esp .cbLocals + .cbSavedRegs + = $T0 .raSearchStart = $eip $T0 ^ = $esp $T0 4 + =
STACK WIN 4 166d 39 0 0 4 4 108 0 1 $T2 $esp .cbLocals + .cbSavedRegs + = $T0 .raSearchStart = $eip $T0 ^ = $esp $T0 4 + =
STACK WIN 4 16e0 78 1 0 0 0 0 0 1 $T2 $esp .cbLocals + .cbSavedRegs + = $T0 .raSearchStart = $eip $T0 ^ = $esp $T0 4 + =
STACK WIN 4 16e1 76 0 0 0 4 0 0 1 $T2 $esp .cbLocals + .cbSavedRegs + = $T0 .raSearchStart = $eip $T0 ^ = $esp $T0 4 + = $ebx $T0 4 - ^ =
STACK WIN 4 1760 219 14 0 0 0 1c8 0 1 $T2 $esp .cbLocals + .cbSavedRegs + = $T0 .raSearchStart = $eip $T0 ^ = $esp $T0 4 + =
STACK WIN 4 1980 122 5 0 8 0 8 0 1 $T2 $esp .cbLocals + .cbSavedRegs + = $T0 .raSearchStart = $eip $T0 ^ = $esp $T0 4 + =
STACK WIN 4 1984 11a 1 0 8 4 8 0 1 $T2 $esp .cbLocals + .cbSavedRegs + = $T0 .raSearchStart = $eip $T0 ^ = $esp $T0 4 + = $ebx $T0 12 - ^ =
STACK WIN 4 1985 118 0 0 8 8 8 0 1 $T2 $esp .cbLocals + .cbSavedRegs + = $T0 .raSearchStart = $eip $T0 ^ = $esp $T0 4 + = $ebp $T0 16 - ^ = $ebx $T0 12 - ^ =
STACK WIN 4 19b2 e8 0 0 8 c 8 0 1 $T2 $esp .cbLocals + .cbSavedRegs + = $T0 .raSearchStart = $eip $T0 ^ = $esp $T0 4 + = $ebp $T0 16 - ^ = $ebx $T0 12 - ^ =
STACK WIN 4 1a0a 88 0 0 8 10 8 0 1 $T2 $esp .cbLocals + .cbSavedRegs + = $T0 .raSearchStart = $eip $T0 ^ = $esp $T0 4 + = $ebp $T0 16 - ^ = $ebx $T0 12 - ^ =
STACK WIN 4 1ab0 30 0 0 4 0 0 0 1 $T2 $esp .cbLocals + .cbSavedRegs + = $T0 .raSearchStart = $eip $T0 ^ = $esp $T0 4 + =
STACK WIN 4 1ae0 11b3 a 0 0 0 14 0 1 $T2 $esp .cbLocals + .cbSavedRegs + = $T0 .raSearchStart = $eip $T0 ^ = $esp $T0 4 + =
STACK WIN 4 1ae7 11a8 3 0 0 4 14 0 1 $T2 $esp .cbLocals + .cbSavedRegs + = $T0 .raSearchStart = $eip $T0 ^ = $esp $T0 4 + = $ebx $T0 24 - ^ =
STACK WIN 4 1ae8 11a6 2 0 0 8 14 0 1 $T2 $esp .cbLocals + .cbSavedRegs + = $T0 .raSearchStart = $eip $T0 ^ = $esp $T0 4 + = $ebp $T0 28 - ^ = $ebx $T0 24 - ^ =
STACK WIN 4 1ae9 11a4 1 0 0 c 14 0 1 $T2 $esp .cbLocals + .cbSavedRegs + = $T0 .raSearchStart = $eip $T0 ^ = $esp $T0 4 + = $ebp $T0 28 - ^ = $ebx $T0 24 - ^ =
STACK WIN 4 1aea 11a2 0 0 0 10 14 0 1 $T2 $esp .cbLocals + .cbSavedRegs + = $T0 .raSearchStart = $eip $T0 ^ = $esp $T0 4 + = $ebp $T0 28 - ^ = $ebx $T0 24 - ^ =
STACK WIN 4 2ca0 e 0 0 0 0 0 0 1 $T2 $esp .cbLocals + .cbSavedRegs + = $T0 .raSearchStart = $eip $T0 ^ = $esp $T0 4 + =
STACK WIN 4 2cb0 27 1 0 8 0 0 0 1 $T2 $esp .cbLocals + .cbSavedRegs + = $T0 .raSearchStart = $eip $T0 ^ = $esp $T0 4 + =
STACK WIN 4 2cb1 25 0 0 8 4 0 0 1 $T2 $esp .cbLocals + .cbSavedRegs + = $T0 .raSearchStart = $eip $T0 ^ = $esp $T0 4 + =
STACK WIN 4 2ce0 6 0 0 4 0 0 0 1 $T2 $esp .cbLocals + .cbSavedRegs + = $T0 .raSearchStart = $eip $T0 ^ = $esp $T0 4 + =
STACK WIN 4 2cf0 16 6 0 8 0 0 0 1 $T2 $esp .cbLocals + .cbSavedRegs + = $T0 .raSearchStart = $eip $T0 ^ = $esp $T0 4 + =
STACK WIN 4 2cf1 14 5 0 8 4 0 0 1 $T2 $esp .cbLocals + .cbSavedRegs + = $T0 .raSearchStart = $eip $T0 ^ = $esp $T0 4 + =
STACK WIN 4 2cf6 c 0 0 8 8 0 0 1 $T2 $esp .cbLocals + .cbSavedRegs + = $T0 .raSearchStart = $eip $T0 ^ = $esp $T0 4 + =
STACK WIN 4 2d10 24 0 0 8 0 0 0 1 $T2 $esp .cbLocals + .cbSavedRegs + = $T0 .raSearchStart = $eip $T0 ^ = $esp $T0 4 + =
STACK WIN 4 2d23 10 0 0 8 4 0 0 1 $T2 $esp .cbLocals + .cbSavedRegs + = $T0 .raSearchStart = $eip $T0 ^ = $esp $T0 4 + =
STACK WIN 4 2d28 a 0 0 8 8 0 0 1 $T2 $esp .cbLocals + .cbSavedRegs + = $T0 .raSearchStart = $eip $T0 ^ = $esp $T0 4 + =
STACK WIN 4 2d40 14 6 0 8 0 0 0 1 $T2 $esp .cbLocals + .cbSavedRegs + = $T0 .raSearchStart = $eip $T0 ^ = $esp $T0 4 + =
STACK WIN 4 2d41 12 5 0 8 4 0 0 1 $T2 $esp .cbLocals + .cbSavedRegs + = $T0 .raSearchStart = $eip $T0 ^ = $esp $T0 4 + =
STACK WIN 4 2d46 c 0 0 8 8 0 0 1 $T2 $esp .cbLocals + .cbSavedRegs + = $T0 .raSearchStart = $eip $T0 ^ = $esp $T0 4 + =
STACK WIN 4 2d60 d 0 0 4 0 0 0 1 $T2 $esp .cbLocals + .cbSavedRegs + = $T0 .raSearchStart = $eip $T0 ^ = $esp $T0 4 + =
STACK WIN 4 2d70 a0 1 0 c 0 0 0 1 $T2 $esp .cbLocals + .cbSavedRegs + = $T0 .raSearchStart = $eip $T0 ^ = $esp $T0 4 + =
STACK WIN 4 2d71 98 0 0 c 4 0 0 1 $T2 $esp .cbLocals + .cbSavedRegs + = $T0 .raSearchStart = $eip $T0 ^ = $esp $T0 4 + =
STACK WIN 4 2d82 86 0 0 c 8 0 0 1 $T2 $esp .cbLocals + .cbSavedRegs + = $T0 .raSearchStart = $eip $T0 ^ = $esp $T0 4 + = $ebx $T0 8 - ^ =
STACK WIN 4 2d8c 7b 0 0 c c 0 0 1 $T2 $esp .cbLocals + .cbSavedRegs + = $T0 .raSearchStart = $eip $T0 ^ = $esp $T0 4 + = $ebp $T0 12 - ^ = $ebx $T0 8 - ^ =
STACK WIN 4 2d8d 79 0 0 c 10 0 0 1 $T2 $esp .cbLocals + .cbSavedRegs + = $T0 .raSearchStart = $eip $T0 ^ = $esp $T0 4 + = $ebp $T0 12 - ^ = $ebx $T0 8 - ^ =
STACK WIN 4 2e10 82 a 0 10 0 0 0 1 $T2 $esp .cbLocals + .cbSavedRegs + = $T0 .raSearchStart = $eip $T0 ^ = $esp $T0 4 + =
STACK WIN 4 2e11 80 9 0 10 4 0 0 1 $T2 $esp .cbLocals + .cbSavedRegs + = $T0 .raSearchStart = $eip $T0 ^ = $esp $T0 4 + = $ebx $T0 4 - ^ =
STACK WIN 4 2e12 75 8 0 10 8 0 0 1 $T2 $esp .cbLocals + .cbSavedRegs + = $T0 .raSearchStart = $eip $T0 ^ = $esp $T0 4 + = $ebx $T0 4 - ^ =
STACK WIN 4 2e1a 6a 0 0 10 c 0 0 1 $T2 $esp .cbLocals + .cbSavedRegs + = $T0 .raSearchStart = $eip $T0 ^ = $esp $T0 4 + = $ebx $T0 4 - ^ =
STACK WIN 4 2ea0 95 1e 0 c 0 a8 0 1 $T2 $esp .cbLocals + .cbSavedRegs + = $T0 .raSearchStart = $eip $T0 ^ = $esp $T0 4 + =
STACK WIN 4 2ebe 67 0 0 c 4 a8 0 1 $T2 $esp .cbLocals + .cbSavedRegs + = $T0 .raSearchStart = $eip $T0 ^ = $esp $T0 4 + =
STACK WIN 4 2f40 2c 7 0 8 0 0 0 1 $T2 $esp .cbLocals + .cbSavedRegs + = $T0 .raSearchStart = $eip $T0 ^ = $esp $T0 4 + =
STACK WIN 4 2f47 24 0 0 8 4 0 0 1 $T2 $esp .cbLocals + .cbSavedRegs + = $T0 .raSearchStart = $eip $T0 ^ = $esp $T0 4 + =
STACK WIN 4 2f70 1e 0 0 0 0 0 0 1 $T2 $esp .cbLocals + .cbSavedRegs + = $T0 .raSearchStart = $eip $T0 ^ = $esp $T0 4 + =
STACK WIN 4 2f90 15 0 0 8 0 0 0 1 $T2 $esp .cbLocals + .cbSavedRegs + = $T0 .raSearchStart = $eip $T0 ^ = $esp $T0 4 + =
STACK WIN 4 2fb0 18 1 0 4 0 0 0 1 $T2 $esp .cbLocals + .cbSavedRegs + = $T0 .raSearchStart = $eip $T0 ^ = $esp $T0 4 + =
STACK WIN 4 2fb1 16 0 0 4 4 0 0 1 $T2 $esp .cbLocals + .cbSavedRegs + = $T0 .raSearchStart = $eip $T0 ^ = $esp $T0 4 + =
STACK WIN 4 2fd0 506 d 0 0 0 0 0 1 $T2 $esp .cbLocals + .cbSavedRegs + = $T0 .raSearchStart = $eip $T0 ^ = $esp $T0 4 + =
STACK WIN 4 2fd8 200 5 0 0 4 0 0 1 $T2 $esp .cbLocals + .cbSavedRegs + = $T0 .raSearchStart = $eip $T0 ^ = $esp $T0 4 + = $ebx $T0 4 - ^ =
STACK WIN 4 2fdd 1f6 0 0 0 8 0 0 1 $T2 $esp .cbLocals + .cbSavedRegs + = $T0 .raSearchStart = $eip $T0 ^ = $esp $T0 4 + = $ebx $T0 4 - ^ =
STACK WIN 4 34e0 a7 11 0 c 0 0 0 1 $T2 $esp .cbLocals + .cbSavedRegs + = $T0 .raSearchStart = $eip $T0 ^ = $esp $T0 4 + =
STACK WIN 4 34e1 a5 10 0 c 4 0 0 1 $T2 $esp .cbLocals + .cbSavedRegs + = $T0 .raSearchStart = $eip $T0 ^ = $esp $T0 4 + = $ebx $T0 4 - ^ =
STACK WIN 4 34e6 9f b 0 c 8 0 0 1 $T2 $esp .cbLocals + .cbSavedRegs + = $T0 .raSearchStart = $eip $T0 ^ = $esp $T0 4 + = $ebp $T0 8 - ^ = $ebx $T0 4 - ^ =
STACK WIN 4 34e7 9d a 0 c c 0 0 1 $T2 $esp .cbLocals + .cbSavedRegs + = $T0 .raSearchStart = $eip $T0 ^ = $esp $T0 4 + = $ebp $T0 8 - ^ = $ebx $T0 4 - ^ =
STACK WIN 4 34f1 8f 0 0 c 10 0 0 1 $T2 $esp .cbLocals + .cbSavedRegs + = $T0 .raSearchStart = $eip $T0 ^ = $esp $T0 4 + = $ebp $T0 8 - ^ = $ebx $T0 4 - ^ =
STACK WIN 4 3590 82 0 0 10 0 0 0 1 $T2 $esp .cbLocals + .cbSavedRegs + = $T0 .raSearchStart = $eip $T0 ^ = $esp $T0 4 + =
STACK WIN 4 35a6 6b 0 0 10 4 0 0 1 $T2 $esp .cbLocals + .cbSavedRegs + = $T0 .raSearchStart = $eip $T0 ^ = $esp $T0 4 + =
STACK WIN 4 3620 6 0 0 4 0 0 0 1 $T2 $esp .cbLocals + .cbSavedRegs + = $T0 .raSearchStart = $eip $T0 ^ = $esp $T0 4 + =
STACK WIN 4 3630 17 6 0 8 0 0 0 1 $T2 $esp .cbLocals + .cbSavedRegs + = $T0 .raSearchStart = $eip $T0 ^ = $esp $T0 4 + =
STACK WIN 4 3631 15 5 0 8 4 0 0 1 $T2 $esp .cbLocals + .cbSavedRegs + = $T0 .raSearchStart = $eip $T0 ^ = $esp $T0 4 + =
STACK WIN 4 3636 d 0 0 8 8 0 0 1 $T2 $esp .cbLocals + .cbSavedRegs + = $T0 .raSearchStart = $eip $T0 ^ = $esp $T0 4 + =
STACK WIN 4 3650 31 0 0 8 0 0 0 1 $T2 $esp .cbLocals + .cbSavedRegs + = $T0 .raSearchStart = $eip $T0 ^ = $esp $T0 4 + =
STACK WIN 4 366f 11 0 0 8 4 0 0 1 $T2 $esp .cbLocals + .cbSavedRegs + = $T0 .raSearchStart = $eip $T0 ^ = $esp $T0 4 + =
STACK WIN 4 3674 b 0 0 8 8 0 0 1 $T2 $esp .cbLocals + .cbSavedRegs + = $T0 .raSearchStart = $eip $T0 ^ = $esp $T0 4 + =
STACK WIN 4 3690 15 6 0 8 0 0 0 1 $T2 $esp .cbLocals + .cbSavedRegs + = $T0 .raSearchStart = $eip $T0 ^ = $esp $T0 4 + =
STACK WIN 4 3691 13 5 0 8 4 0 0 1 $T2 $esp .cbLocals + .cbSavedRegs + = $T0 .raSearchStart = $eip $T0 ^ = $esp $T0 4 + =
STACK WIN 4 3696 d 0 0 8 8 0 0 1 $T2 $esp .cbLocals + .cbSavedRegs + = $T0 .raSearchStart = $eip $T0 ^ = $esp $T0 4 + =
STACK WIN 4 36b0 c4 1 0 8 0 0 0 1 $T2 $esp .cbLocals + .cbSavedRegs + = $T0 .raSearchStart = $eip $T0 ^ = $esp $T0 4 + =
STACK WIN 4 36b1 c2 0 0 8 4 0 0 1 $T2 $esp .cbLocals + .cbSavedRegs + = $T0 .raSearchStart = $eip $T0 ^ = $esp $T0 4 + =
STACK WIN 4 36de 92 0 0 8 8 0 0 1 $T2 $esp .cbLocals + .cbSavedRegs + = $T0 .raSearchStart = $eip $T0 ^ = $esp $T0 4 + =
STACK WIN 4 3780 1e 0 0 0 0 0 0 1 $T2 $esp .cbLocals + .cbSavedRegs + = $T0 .raSearchStart = $eip $T0 ^ = $esp $T0 4 + =
STACK WIN 4 37a0 13 0 0 8 0 0 0 1 $T2 $esp .cbLocals + .cbSavedRegs + = $T0 .raSearchStart = $eip $T0 ^ = $esp $T0 4 + =
STACK WIN 4 37c0 2e 0 0 4 0 0 0 1 $T2 $esp .cbLocals + .cbSavedRegs + = $T0 .raSearchStart = $eip $T0 ^ = $esp $T0 4 + =
STACK WIN 4 37f0 735 8 0 4 0 3c 0 1 $T2 $esp .cbLocals + .cbSavedRegs + = $T0 .raSearchStart = $eip $T0 ^ = $esp $T0 4 + =
STACK WIN 4 37f4 72d 4 0 4 4 3c 0 1 $T2 $esp .cbLocals + .cbSavedRegs + = $T0 .raSearchStart = $eip $T0 ^ = $esp $T0 4 + = $ebx $T0 64 - ^ =
STACK WIN 4 37fc 71b 0 0 4 8 3c 0 1 $T2 $esp .cbLocals + .cbSavedRegs + = $T0 .raSearchStart = $eip $T0 ^ = $esp $T0 4 + = $ebp $T0 68 - ^ = $ebx $T0 64 - ^ =
STACK WIN 4 37fd 719 0 0 4 c 3c 0 1 $T2 $esp .cbLocals + .cbSavedRegs + = $T0 .raSearchStart = $eip $T0 ^ = $esp $T0 4 + = $ebp $T0 68 - ^ = $ebx $T0 64 - ^ =
STACK WIN 4 3801 714 0 0 4 10 3c 0 1 $T2 $esp .cbLocals + .cbSavedRegs + = $T0 .raSearchStart = $eip $T0 ^ = $esp $T0 4 + = $ebp $T0 68 - ^ = $ebx $T0 64 - ^ =
STACK WIN 4 3f30 ad f 0 c 0 0 0 1 $T2 $esp .cbLocals + .cbSavedRegs + = $T0 .raSearchStart = $eip $T0 ^ = $esp $T0 4 + =
STACK WIN 4 3f31 ab e 0 c 4 0 0 1 $T2 $esp .cbLocals + .cbSavedRegs + = $T0 .raSearchStart = $eip $T0 ^ = $esp $T0 4 + = $ebx $T0 4 - ^ =
STACK WIN 4 3f32 a9 d 0 c 8 0 0 1 $T2 $esp .cbLocals + .cbSavedRegs + = $T0 .raSearchStart = $eip $T0 ^ = $esp $T0 4 + = $ebp $T0 8 - ^ = $ebx $T0 4 - ^ =
STACK WIN 4 3f3a a0 5 0 c c 0 0 1 $T2 $esp .cbLocals + .cbSavedRegs + = $T0 .raSearchStart = $eip $T0 ^ = $esp $T0 4 + = $ebp $T0 8 - ^ = $ebx $T0 4 - ^ =
STACK WIN 4 3f3f 9a 0 0 c 10 0 0 1 $T2 $esp .cbLocals + .cbSavedRegs + = $T0 .raSearchStart = $eip $T0 ^ = $esp $T0 4 + = $ebp $T0 8 - ^ = $ebx $T0 4 - ^ =
STACK WIN 4 3fe0 9b 2 0 10 0 0 0 1 $T2 $esp .cbLocals + .cbSavedRegs + = $T0 .raSearchStart = $eip $T0 ^ = $esp $T0 4 + =
STACK WIN 4 3fe1 99 1 0 10 4 0 0 1 $T2 $esp .cbLocals + .cbSavedRegs + = $T0 .raSearchStart = $eip $T0 ^ = $esp $T0 4 + = $ebx $T0 4 - ^ =
STACK WIN 4 3fe2 94 0 0 10 8 0 0 1 $T2 $esp .cbLocals + .cbSavedRegs + = $T0 .raSearchStart = $eip $T0 ^ = $esp $T0 4 + = $ebx $T0 4 - ^ =
STACK WIN 4 4005 70 0 0 10 c 0 0 1 $T2 $esp .cbLocals + .cbSavedRegs + = $T0 .raSearchStart = $eip $T0 ^ = $esp $T0 4 + = $ebx $T0 4 - ^ =
STACK WIN 4 4080 6 0 0 4 0 0 0 1 $T2 $esp .cbLocals + .cbSavedRegs + = $T0 .raSearchStart = $eip $T0 ^ = $esp $T0 4 + =
STACK WIN 4 4090 16 6 0 8 0 0 0 1 $T2 $esp .cbLocals + .cbSavedRegs + = $T0 .raSearchStart = $eip $T0 ^ = $esp $T0 4 + =
STACK WIN 4 4091 14 5 0 8 4 0 0 1 $T2 $esp .cbLocals + .cbSavedRegs + = $T0 .raSearchStart = $eip $T0 ^ = $esp $T0 4 + =
STACK WIN 4 4096 c 0 0 8 8 0 0 1 $T2 $esp .cbLocals + .cbSavedRegs + = $T0 .raSearchStart = $eip $T0 ^ = $esp $T0 4 + =
STACK WIN 4 40b0 30 0 0 8 0 0 0 1 $T2 $esp .cbLocals + .cbSavedRegs + = $T0 .raSearchStart = $eip $T0 ^ = $esp $T0 4 + =
STACK WIN 4 40cf 10 0 0 8 4 0 0 1 $T2 $esp .cbLocals + .cbSavedRegs + = $T0 .raSearchStart = $eip $T0 ^ = $esp $T0 4 + =
STACK WIN 4 40d4 a 0 0 8 8 0 0 1 $T2 $esp .cbLocals + .cbSavedRegs + = $T0 .raSearchStart = $eip $T0 ^ = $esp $T0 4 + =
STACK WIN 4 40e0 14 6 0 8 0 0 0 1 $T2 $esp .cbLocals + .cbSavedRegs + = $T0 .raSearchStart = $eip $T0 ^ = $esp $T0 4 + =
STACK WIN 4 40e1 12 5 0 8 4 0 0 1 $T2 $esp .cbLocals + .cbSavedRegs + = $T0 .raSearchStart = $eip $T0 ^ = $esp $T0 4 + =
STACK WIN 4 40e6 c 0 0 8 8 0 0 1 $T2 $esp .cbLocals + .cbSavedRegs + = $T0 .raSearchStart = $eip $T0 ^ = $esp $T0 4 + =
STACK WIN 4 4100 78 15 0 c 0 60 0 1 $T2 $esp .cbLocals + .cbSavedRegs + = $T0 .raSearchStart = $eip $T0 ^ = $esp $T0 4 + =
STACK WIN 4 4115 56 0 0 c 4 60 0 1 $T2 $esp .cbLocals + .cbSavedRegs + = $T0 .raSearchStart = $eip $T0 ^ = $esp $T0 4 + =
STACK WIN 4 4180 2c 7 0 8 0 0 0 1 $T2 $esp .cbLocals + .cbSavedRegs + = $T0 .raSearchStart = $eip $T0 ^ = $esp $T0 4 + =
STACK WIN 4 4187 24 0 0 8 4 0 0 1 $T2 $esp .cbLocals + .cbSavedRegs + = $T0 .raSearchStart = $eip $T0 ^ = $esp $T0 4 + =
STACK WIN 4 41b0 2b 6 0 4 0 0 0 1 $T2 $esp .cbLocals + .cbSavedRegs + = $T0 .raSearchStart = $eip $T0 ^ = $esp $T0 4 + =
STACK WIN 4 41b1 29 5 0 4 4 0 0 1 $T2 $esp .cbLocals + .cbSavedRegs + = $T0 .raSearchStart = $eip $T0 ^ = $esp $T0 4 + =
STACK WIN 4 41b6 23 0 0 4 8 0 0 1 $T2 $esp .cbLocals + .cbSavedRegs + = $T0 .raSearchStart = $eip $T0 ^ = $esp $T0 4 + =
STACK WIN 4 41e0 2791 7 0 0 0 58 0 1 $T2 $esp .cbLocals + .cbSavedRegs + = $T0 .raSearchStart = $eip $T0 ^ = $esp $T0 4 + =
STACK WIN 4 41e4 2789 3 0 0 4 58 0 1 $T2 $esp .cbLocals + .cbSavedRegs + = $T0 .raSearchStart = $eip $T0 ^ = $esp $T0 4 + = $ebx $T0 92 - ^ =
STACK WIN 4 41e5 2781 2 0 0 8 58 0 1 $T2 $esp .cbLocals + .cbSavedRegs + = $T0 .raSearchStart = $eip $T0 ^ = $esp $T0 4 + = $ebp $T0 96 - ^ = $ebx $T0 92 - ^ =
STACK WIN 4 41e6 277d 1 0 0 c 58 0 1 $T2 $esp .cbLocals + .cbSavedRegs + = $T0 .raSearchStart = $eip $T0 ^ = $esp $T0 4 + = $ebp $T0 96 - ^ = $ebx $T0 92 - ^ =
STACK WIN 4 41e7 276f 0 0 0 10 58 0 1 $T2 $esp .cbLocals + .cbSavedRegs + = $T0 .raSearchStart = $eip $T0 ^ = $esp $T0 4 + = $ebp $T0 96 - ^ = $ebx $T0 92 - ^ =
STACK WIN 4 6980 bb 11 0 c 0 0 0 1 $T2 $esp .cbLocals + .cbSavedRegs + = $T0 .raSearchStart = $eip $T0 ^ = $esp $T0 4 + =
STACK WIN 4 6981 b9 10 0 c 4 0 0 1 $T2 $esp .cbLocals + .cbSavedRegs + = $T0 .raSearchStart = $eip $T0 ^ = $esp $T0 4 + = $ebx $T0 4 - ^ =
STACK WIN 4 6986 b3 b 0 c 8 0 0 1 $T2 $esp .cbLocals + .cbSavedRegs + = $T0 .raSearchStart = $eip $T0 ^ = $esp $T0 4 + = $ebp $T0 8 - ^ = $ebx $T0 4 - ^ =
STACK WIN 4 6991 a7 0 0 c c 0 0 1 $T2 $esp .cbLocals + .cbSavedRegs + = $T0 .raSearchStart = $eip $T0 ^ = $esp $T0 4 + = $ebp $T0 8 - ^ = $ebx $T0 4 - ^ =
STACK WIN 4 69b4 72 0 0 c 10 0 0 1 $T2 $esp .cbLocals + .cbSavedRegs + = $T0 .raSearchStart = $eip $T0 ^ = $esp $T0 4 + = $ebp $T0 8 - ^ = $ebx $T0 4 - ^ =
STACK WIN 4 6a40 fc 1 0 10 0 0 0 1 $T2 $esp .cbLocals + .cbSavedRegs + = $T0 .raSearchStart = $eip $T0 ^ = $esp $T0 4 + =
STACK WIN 4 6a41 fa 0 0 10 4 0 0 1 $T2 $esp .cbLocals + .cbSavedRegs + = $T0 .raSearchStart = $eip $T0 ^ = $esp $T0 4 + =
STACK WIN 4 6a60 b8 0 0 10 8 0 0 1 $T2 $esp .cbLocals + .cbSavedRegs + = $T0 .raSearchStart = $eip $T0 ^ = $esp $T0 4 + = $ebx $T0 8 - ^ =
STACK WIN 4 6a61 b0 0 0 10 c 0 0 1 $T2 $esp .cbLocals + .cbSavedRegs + = $T0 .raSearchStart = $eip $T0 ^ = $esp $T0 4 + = $ebx $T0 8 - ^ =
STACK WIN 4 6b40 8d 26 0 c 0 130 0 1 $T2 $esp .cbLocals + .cbSavedRegs + = $T0 .raSearchStart = $eip $T0 ^ = $esp $T0 4 + =
STACK WIN 4 6b55 68 11 0 c 4 130 0 1 $T2 $esp .cbLocals + .cbSavedRegs + = $T0 .raSearchStart = $eip $T0 ^ = $esp $T0 4 + = $ebx $T0 308 - ^ =
STACK WIN 4 6b5d 5f 9 0 c 8 130 0 1 $T2 $esp .cbLocals + .cbSavedRegs + = $T0 .raSearchStart = $eip $T0 ^ = $esp $T0 4 + = $ebp $T0 312 - ^ = $ebx $T0 308 - ^ =
STACK WIN 4 6b65 56 1 0 c c 130 0 1 $T2 $esp .cbLocals + .cbSavedRegs + = $T0 .raSearchStart = $eip $T0 ^ = $esp $T0 4 + = $ebp $T0 312 - ^ = $ebx $T0 308 - ^ =
STACK WIN 4 6b66 54 0 0 c 10 130 0 1 $T2 $esp .cbLocals + .cbSavedRegs + = $T0 .raSearchStart = $eip $T0 ^ = $esp $T0 4 + = $ebp $T0 312 - ^ = $ebx $T0 308 - ^ =
STACK WIN 4 6bd0 2c 7 0 8 0 0 0 1 $T2 $esp .cbLocals + .cbSavedRegs + = $T0 .raSearchStart = $eip $T0 ^ = $esp $T0 4 + =
STACK WIN 4 6bd7 24 0 0 8 4 0 0 1 $T2 $esp .cbLocals + .cbSavedRegs + = $T0 .raSearchStart = $eip $T0 ^ = $esp $T0 4 + =
STACK WIN 4 6c00 6 0 0 4 0 0 0 1 $T2 $esp .cbLocals + .cbSavedRegs + = $T0 .raSearchStart = $eip $T0 ^ = $esp $T0 4 + =
STACK WIN 4 6c10 16 6 0 8 0 0 0 1 $T2 $esp .cbLocals + .cbSavedRegs + = $T0 .raSearchStart = $eip $T0 ^ = $esp $T0 4 + =
STACK WIN 4 6c11 14 5 0 8 4 0 0 1 $T2 $esp .cbLocals + .cbSavedRegs + = $T0 .raSearchStart = $eip $T0 ^ = $esp $T0 4 + =
STACK WIN 4 6c16 c 0 0 8 8 0 0 1 $T2 $esp .cbLocals + .cbSavedRegs + = $T0 .raSearchStart = $eip $T0 ^ = $esp $T0 4 + =
STACK WIN 4 6c30 23 0 0 8 0 0 0 1 $T2 $esp .cbLocals + .cbSavedRegs + = $T0 .raSearchStart = $eip $T0 ^ = $esp $T0 4 + =
STACK WIN 4 6c42 10 0 0 8 4 0 0 1 $T2 $esp .cbLocals + .cbSavedRegs + = $T0 .raSearchStart = $eip $T0 ^ = $esp $T0 4 + =
STACK WIN 4 6c47 a 0 0 8 8 0 0 1 $T2 $esp .cbLocals + .cbSavedRegs + = $T0 .raSearchStart = $eip $T0 ^ = $esp $T0 4 + =
STACK WIN 4 6c60 14 6 0 8 0 0 0 1 $T2 $esp .cbLocals + .cbSavedRegs + = $T0 .raSearchStart = $eip $T0 ^ = $esp $T0 4 + =
STACK WIN 4 6c61 12 5 0 8 4 0 0 1 $T2 $esp .cbLocals + .cbSavedRegs + = $T0 .raSearchStart = $eip $T0 ^ = $esp $T0 4 + =
STACK WIN 4 6c66 c 0 0 8 8 0 0 1 $T2 $esp .cbLocals + .cbSavedRegs + = $T0 .raSearchStart = $eip $T0 ^ = $esp $T0 4 + =
STACK WIN 4 6c80 e 0 0 0 0 0 0 1 $T2 $esp .cbLocals + .cbSavedRegs + = $T0 .raSearchStart = $eip $T0 ^ = $esp $T0 4 + =
STACK WIN 4 6c90 15 0 0 8 0 0 0 1 $T2 $esp .cbLocals + .cbSavedRegs + = $T0 .raSearchStart = $eip $T0 ^ = $esp $T0 4 + =
STACK WIN 4 6cb0 2b 6 0 4 0 0 0 1 $T2 $esp .cbLocals + .cbSavedRegs + = $T0 .raSearchStart = $eip $T0 ^ = $esp $T0 4 + =
STACK WIN 4 6cb1 29 5 0 4 4 0 0 1 $T2 $esp .cbLocals + .cbSavedRegs + = $T0 .raSearchStart = $eip $T0 ^ = $esp $T0 4 + =
STACK WIN 4 6cb6 23 0 0 4 8 0 0 1 $T2 $esp .cbLocals + .cbSavedRegs + = $T0 .raSearchStart = $eip $T0 ^ = $esp $T0 4 + =
STACK WIN 4 6ce0 5 0 0 c 0 0 0 1 $T2 $esp .cbLocals + .cbSavedRegs + = $T0 .raSearchStart = $eip $T0 ^ = $esp $T0 4 + =
STACK WIN 4 6cf0 17 0 0 10 0 0 0 1 $T2 $esp .cbLocals + .cbSavedRegs + = $T0 .raSearchStart = $eip $T0 ^ = $esp $T0 4 + =
STACK WIN 4 6d10 8d 26 0 c 0 130 0 1 $T2 $esp .cbLocals + .cbSavedRegs + = $T0 .raSearchStart = $eip $T0 ^ = $esp $T0 4 + =
STACK WIN 4 6d25 68 11 0 c 4 130 0 1 $T2 $esp .cbLocals + .cbSavedRegs + = $T0 .raSearchStart = $eip $T0 ^ = $esp $T0 4 + = $ebx $T0 308 - ^ =
STACK WIN 4 6d2d 5f 9 0 c 8 130 0 1 $T2 $esp .cbLocals + .cbSavedRegs + = $T0 .raSearchStart = $eip $T0 ^ = $esp $T0 4 + = $ebp $T0 312 - ^ = $ebx $T0 308 - ^ =
STACK WIN 4 6d35 56 1 0 c c 130 0 1 $T2 $esp .cbLocals + .cbSavedRegs + = $T0 .raSearchStart = $eip $T0 ^ = $esp $T0 4 + = $ebp $T0 312 - ^ = $ebx $T0 308 - ^ =
STACK WIN 4 6d36 54 0 0 c 10 130 0 1 $T2 $esp .cbLocals + .cbSavedRegs + = $T0 .raSearchStart = $eip $T0 ^ = $esp $T0 4 + = $ebp $T0 312 - ^ = $ebx $T0 308 - ^ =
STACK WIN 4 6da0 2c 7 0 8 0 0 0 1 $T2 $esp .cbLocals + .cbSavedRegs + = $T0 .raSearchStart = $eip $T0 ^ = $esp $T0 4 + =
STACK WIN 4 6da7 24 0 0 8 4 0 0 1 $T2 $esp .cbLocals + .cbSavedRegs + = $T0 .raSearchStart = $eip $T0 ^ = $esp $T0 4 + =
STACK WIN 4 6dd0 15 0 0 8 0 0 0 1 $T2 $esp .cbLocals + .cbSavedRegs + = $T0 .raSearchStart = $eip $T0 ^ = $esp $T0 4 + =
STACK WIN 4 6df0 2b 6 0 4 0 0 0 1 $T2 $esp .cbLocals + .cbSavedRegs + = $T0 .raSearchStart = $eip $T0 ^ = $esp $T0 4 + =
STACK WIN 4 6df1 29 5 0 4 4 0 0 1 $T2 $esp .cbLocals + .cbSavedRegs + = $T0 .raSearchStart = $eip $T0 ^ = $esp $T0 4 + =
STACK WIN 4 6df6 23 0 0 4 8 0 0 1 $T2 $esp .cbLocals + .cbSavedRegs + = $T0 .raSearchStart = $eip $T0 ^ = $esp $T0 4 + =
STACK WIN 4 6e20 11b9 a 0 0 0 94 0 1 $T2 $esp .cbLocals + .cbSavedRegs + = $T0 .raSearchStart = $eip $T0 ^ = $esp $T0 4 + =
STACK WIN 4 6e27 116d 3 0 0 4 94 0 1 $T2 $esp .cbLocals + .cbSavedRegs + = $T0 .raSearchStart = $eip $T0 ^ = $esp $T0 4 + = $ebx $T0 152 - ^ =
STACK WIN 4 6e28 1163 2 0 0 8 94 0 1 $T2 $esp .cbLocals + .cbSavedRegs + = $T0 .raSearchStart = $eip $T0 ^ = $esp $T0 4 + = $ebp $T0 156 - ^ = $ebx $T0 152 - ^ =
STACK WIN 4 6e29 114b 1 0 0 c 94 0 1 $T2 $esp .cbLocals + .cbSavedRegs + = $T0 .raSearchStart = $eip $T0 ^ = $esp $T0 4 + = $ebp $T0 156 - ^ = $ebx $T0 152 - ^ =
STACK WIN 4 6e2a 1141 0 0 0 10 94 0 1 $T2 $esp .cbLocals + .cbSavedRegs + = $T0 .raSearchStart = $eip $T0 ^ = $esp $T0 4 + = $ebp $T0 156 - ^ = $ebx $T0 152 - ^ =
STACK WIN 4 7fe0 c1 1 0 c 0 0 0 1 $T2 $esp .cbLocals + .cbSavedRegs + = $T0 .raSearchStart = $eip $T0 ^ = $esp $T0 4 + =
STACK WIN 4 7fe1 bf 0 0 c 4 0 0 1 $T2 $esp .cbLocals + .cbSavedRegs + = $T0 .raSearchStart = $eip $T0 ^ = $esp $T0 4 + = $ebp $T0 4 - ^ =
STACK WIN 4 7fee b1 0 0 c 8 0 0 1 $T2 $esp .cbLocals + .cbSavedRegs + = $T0 .raSearchStart = $eip $T0 ^ = $esp $T0 4 + = $ebp $T0 4 - ^ = $ebx $T0 8 - ^ =
STACK WIN 4 7ff9 a5 0 0 c c 0 0 1 $T2 $esp .cbLocals + .cbSavedRegs + = $T0 .raSearchStart = $eip $T0 ^ = $esp $T0 4 + = $ebp $T0 4 - ^ = $ebx $T0 8 - ^ =
STACK WIN 4 8014 78 0 0 c 10 0 0 1 $T2 $esp .cbLocals + .cbSavedRegs + = $T0 .raSearchStart = $eip $T0 ^ = $esp $T0 4 + = $ebp $T0 4 - ^ = $ebx $T0 8 - ^ =
STACK WIN 4 80b0 185 1 0 10 0 0 0 1 $T2 $esp .cbLocals + .cbSavedRegs + = $T0 .raSearchStart = $eip $T0 ^ = $esp $T0 4 + =
STACK WIN 4 80b1 183 0 0 10 4 0 0 1 $T2 $esp .cbLocals + .cbSavedRegs + = $T0 .raSearchStart = $eip $T0 ^ = $esp $T0 4 + =
STACK WIN 4 80d4 13d 0 0 10 8 0 0 1 $T2 $esp .cbLocals + .cbSavedRegs + = $T0 .raSearchStart = $eip $T0 ^ = $esp $T0 4 + = $ebx $T0 8 - ^ =
STACK WIN 4 80d5 135 0 0 10 c 0 0 1 $T2 $esp .cbLocals + .cbSavedRegs + = $T0 .raSearchStart = $eip $T0 ^ = $esp $T0 4 + = $ebx $T0 8 - ^ =
STACK WIN 4 8240 8d 26 0 c 0 2d0 0 1 $T2 $esp .cbLocals + .cbSavedRegs + = $T0 .raSearchStart = $eip $T0 ^ = $esp $T0 4 + =
STACK WIN 4 8255 68 11 0 c 4 2d0 0 1 $T2 $esp .cbLocals + .cbSavedRegs + = $T0 .raSearchStart = $eip $T0 ^ = $esp $T0 4 + = $ebx $T0 724 - ^ =
STACK WIN 4 825d 5f 9 0 c 8 2d0 0 1 $T2 $esp .cbLocals + .cbSavedRegs + = $T0 .raSearchStart = $eip $T0 ^ = $esp $T0 4 + = $ebp $T0 728 - ^ = $ebx $T0 724 - ^ =
STACK WIN 4 8265 56 1 0 c c 2d0 0 1 $T2 $esp .cbLocals + .cbSavedRegs + = $T0 .raSearchStart = $eip $T0 ^ = $esp $T0 4 + = $ebp $T0 728 - ^ = $ebx $T0 724 - ^ =
STACK WIN 4 8266 54 0 0 c 10 2d0 0 1 $T2 $esp .cbLocals + .cbSavedRegs + = $T0 .raSearchStart = $eip $T0 ^ = $esp $T0 4 + = $ebp $T0 728 - ^ = $ebx $T0 724 - ^ =
STACK WIN 4 82d0 2c 7 0 8 0 0 0 1 $T2 $esp .cbLocals + .cbSavedRegs + = $T0 .raSearchStart = $eip $T0 ^ = $esp $T0 4 + =
STACK WIN 4 82d7 24 0 0 8 4 0 0 1 $T2 $esp .cbLocals + .cbSavedRegs + = $T0 .raSearchStart = $eip $T0 ^ = $esp $T0 4 + =
STACK WIN 4 8300 1 0 0 4 0 0 0 1 $T2 $esp .cbLocals + .cbSavedRegs + = $T0 .raSearchStart = $eip $T0 ^ = $esp $T0 4 + =
STACK WIN 4 8310 23 0 0 8 0 0 0 1 $T2 $esp .cbLocals + .cbSavedRegs + = $T0 .raSearchStart = $eip $T0 ^ = $esp $T0 4 + =
STACK WIN 4 8322 10 0 0 8 4 0 0 1 $T2 $esp .cbLocals + .cbSavedRegs + = $T0 .raSearchStart = $eip $T0 ^ = $esp $T0 4 + =
STACK WIN 4 8327 a 0 0 8 8 0 0 1 $T2 $esp .cbLocals + .cbSavedRegs + = $T0 .raSearchStart = $eip $T0 ^ = $esp $T0 4 + =
STACK WIN 4 8340 14 6 0 8 0 0 0 1 $T2 $esp .cbLocals + .cbSavedRegs + = $T0 .raSearchStart = $eip $T0 ^ = $esp $T0 4 + =
STACK WIN 4 8341 12 5 0 8 4 0 0 1 $T2 $esp .cbLocals + .cbSavedRegs + = $T0 .raSearchStart = $eip $T0 ^ = $esp $T0 4 + =
STACK WIN 4 8346 c 0 0 8 8 0 0 1 $T2 $esp .cbLocals + .cbSavedRegs + = $T0 .raSearchStart = $eip $T0 ^ = $esp $T0 4 + =
STACK WIN 4 8360 e 0 0 0 0 0 0 1 $T2 $esp .cbLocals + .cbSavedRegs + = $T0 .raSearchStart = $eip $T0 ^ = $esp $T0 4 + =
STACK WIN 4 8370 2b 6 0 4 0 0 0 1 $T2 $esp .cbLocals + .cbSavedRegs + = $T0 .raSearchStart = $eip $T0 ^ = $esp $T0 4 + =
STACK WIN 4 8371 29 5 0 4 4 0 0 1 $T2 $esp .cbLocals + .cbSavedRegs + = $T0 .raSearchStart = $eip $T0 ^ = $esp $T0 4 + =
STACK WIN 4 8376 23 0 0 4 8 0 0 1 $T2 $esp .cbLocals + .cbSavedRegs + = $T0 .raSearchStart = $eip $T0 ^ = $esp $T0 4 + =
STACK WIN 4 83a0 5 0 0 c 0 0 0 1 $T2 $esp .cbLocals + .cbSavedRegs + = $T0 .raSearchStart = $eip $T0 ^ = $esp $T0 4 + =
STACK WIN 4 83b0 17 0 0 10 0 0 0 1 $T2 $esp .cbLocals + .cbSavedRegs + = $T0 .raSearchStart = $eip $T0 ^ = $esp $T0 4 + =
STACK WIN 4 83d0 8d 26 0 c 0 2d0 0 1 $T2 $esp .cbLocals + .cbSavedRegs + = $T0 .raSearchStart = $eip $T0 ^ = $esp $T0 4 + =
STACK WIN 4 83e5 68 11 0 c 4 2d0 0 1 $T2 $esp .cbLocals + .cbSavedRegs + = $T0 .raSearchStart = $eip $T0 ^ = $esp $T0 4 + = $ebx $T0 724 - ^ =
STACK WIN 4 83ed 5f 9 0 c 8 2d0 0 1 $T2 $esp .cbLocals + .cbSavedRegs + = $T0 .raSearchStart = $eip $T0 ^ = $esp $T0 4 + = $ebp $T0 728 - ^ = $ebx $T0 724 - ^ =
STACK WIN 4 83f5 56 1 0 c c 2d0 0 1 $T2 $esp .cbLocals + .cbSavedRegs + = $T0 .raSearchStart = $eip $T0 ^ = $esp $T0 4 + = $ebp $T0 728 - ^ = $ebx $T0 724 - ^ =
STACK WIN 4 83f6 54 0 0 c 10 2d0 0 1 $T2 $esp .cbLocals + .cbSavedRegs + = $T0 .raSearchStart = $eip $T0 ^ = $esp $T0 4 + = $ebp $T0 728 - ^ = $ebx $T0 724 - ^ =
STACK WIN 4 8460 2c 7 0 8 0 0 0 1 $T2 $esp .cbLocals + .cbSavedRegs + = $T0 .raSearchStart = $eip $T0 ^ = $esp $T0 4 + =
STACK WIN 4 8467 24 0 0 8 4 0 0 1 $T2 $esp .cbLocals + .cbSavedRegs + = $T0 .raSearchStart = $eip $T0 ^ = $esp $T0 4 + =
STACK WIN 4 8490 6 0 0 4 0 0 0 1 $T2 $esp .cbLocals + .cbSavedRegs + = $T0 .raSearchStart = $eip $T0 ^ = $esp $T0 4 + =
STACK WIN 4 84a0 16 6 0 8 0 0 0 1 $T2 $esp .cbLocals + .cbSavedRegs + = $T0 .raSearchStart = $eip $T0 ^ = $esp $T0 4 + =
STACK WIN 4 84a1 14 5 0 8 4 0 0 1 $T2 $esp .cbLocals + .cbSavedRegs + = $T0 .raSearchStart = $eip $T0 ^ = $esp $T0 4 + =
STACK WIN 4 84a6 c 0 0 8 8 0 0 1 $T2 $esp .cbLocals + .cbSavedRegs + = $T0 .raSearchStart = $eip $T0 ^ = $esp $T0 4 + =
STACK WIN 4 84c0 3c 1 0 8 0 0 0 1 $T2 $esp .cbLocals + .cbSavedRegs + = $T0 .raSearchStart = $eip $T0 ^ = $esp $T0 4 + =
STACK WIN 4 84c1 3a 0 0 8 4 0 0 1 $T2 $esp .cbLocals + .cbSavedRegs + = $T0 .raSearchStart = $eip $T0 ^ = $esp $T0 4 + =
STACK WIN 4 8500 15d 1d 0 14 0 44 0 1 $T2 $esp .cbLocals + .cbSavedRegs + = $T0 .raSearchStart = $eip $T0 ^ = $esp $T0 4 + =
STACK WIN 4 8518 138 5 0 14 4 44 0 1 $T2 $esp .cbLocals + .cbSavedRegs + = $T0 .raSearchStart = $eip $T0 ^ = $esp $T0 4 + = $ebp $T0 72 - ^ =
STACK WIN 4 851d 132 0 0 14 8 44 0 1 $T2 $esp .cbLocals + .cbSavedRegs + = $T0 .raSearchStart = $eip $T0 ^ = $esp $T0 4 + = $ebp $T0 72 - ^ =
STACK WIN 4 8560 ee 0 0 14 c 44 0 1 $T2 $esp .cbLocals + .cbSavedRegs + = $T0 .raSearchStart = $eip $T0 ^ = $esp $T0 4 + = $ebp $T0 72 - ^ =
STACK WIN 4 8606 47 0 0 14 10 44 0 1 $T2 $esp .cbLocals + .cbSavedRegs + = $T0 .raSearchStart = $eip $T0 ^ = $esp $T0 4 + = $ebp $T0 72 - ^ = $ebx $T0 84 - ^ =
STACK WIN 4 8660 4d 1 0 10 0 0 0 1 $T2 $esp .cbLocals + .cbSavedRegs + = $T0 .raSearchStart = $eip $T0 ^ = $esp $T0 4 + =
STACK WIN 4 8661 4b 0 0 10 4 0 0 1 $T2 $esp .cbLocals + .cbSavedRegs + = $T0 .raSearchStart = $eip $T0 ^ = $esp $T0 4 + =
STACK WIN 4 86b0 28 1 0 4 0 0 0 1 $T2 $esp .cbLocals + .cbSavedRegs + = $T0 .raSearchStart = $eip $T0 ^ = $esp $T0 4 + =
STACK WIN 4 86b1 26 0 0 4 4 0 0 1 $T2 $esp .cbLocals + .cbSavedRegs + = $T0 .raSearchStart = $eip $T0 ^ = $esp $T0 4 + =
STACK WIN 4 86e0 12 0 0 c 0 0 0 1 $T2 $esp .cbLocals + .cbSavedRegs + = $T0 .raSearchStart = $eip $T0 ^ = $esp $T0 4 + =
STACK WIN 4 8700 92 6 0 10 0 0 0 1 $T2 $esp .cbLocals + .cbSavedRegs + = $T0 .raSearchStart = $eip $T0 ^ = $esp $T0 4 + =
STACK WIN 4 8701 90 5 0 10 4 0 0 1 $T2 $esp .cbLocals + .cbSavedRegs + = $T0 .raSearchStart = $eip $T0 ^ = $esp $T0 4 + = $ebp $T0 4 - ^ =
STACK WIN 4 8706 88 0 0 10 8 0 0 1 $T2 $esp .cbLocals + .cbSavedRegs + = $T0 .raSearchStart = $eip $T0 ^ = $esp $T0 4 + = $ebp $T0 4 - ^ =
STACK WIN 4 872a 63 0 0 10 c 0 0 1 $T2 $esp .cbLocals + .cbSavedRegs + = $T0 .raSearchStart = $eip $T0 ^ = $esp $T0 4 + = $ebp $T0 4 - ^ = $ebx $T0 12 - ^ =
STACK WIN 4 872f 5d 0 0 10 10 0 0 1 $T2 $esp .cbLocals + .cbSavedRegs + = $T0 .raSearchStart = $eip $T0 ^ = $esp $T0 4 + = $ebp $T0 4 - ^ = $ebx $T0 12 - ^ =
STACK WIN 4 87a0 7e 2 0 4 0 0 0 1 $T2 $esp .cbLocals + .cbSavedRegs + = $T0 .raSearchStart = $eip $T0 ^ = $esp $T0 4 + =
STACK WIN 4 87a1 7c 1 0 4 4 0 0 1 $T2 $esp .cbLocals + .cbSavedRegs + = $T0 .raSearchStart = $eip $T0 ^ = $esp $T0 4 + =
STACK WIN 4 87a2 78 0 0 4 8 0 0 1 $T2 $esp .cbLocals + .cbSavedRegs + = $T0 .raSearchStart = $eip $T0 ^ = $esp $T0 4 + =
STACK WIN 4 8820 3 0 0 0 0 0 0 1 $T2 $esp .cbLocals + .cbSavedRegs + = $T0 .raSearchStart = $eip $T0 ^ = $esp $T0 4 + =
STACK WIN 4 8830 b 0 0 10 0 0 0 1 $T2 $esp .cbLocals + .cbSavedRegs + = $T0 .raSearchStart = $eip $T0 ^ = $esp $T0 4 + =
STACK WIN 4 8840 24 0 0 4 0 0 0 1 $T2 $esp .cbLocals + .cbSavedRegs + = $T0 .raSearchStart = $eip $T0 ^ = $esp $T0 4 + =
STACK WIN 4 8870 e 0 0 0 0 0 0 1 $T2 $esp .cbLocals + .cbSavedRegs + = $T0 .raSearchStart = $eip $T0 ^ = $esp $T0 4 + =
STACK WIN 4 8880 2b 1 0 8 0 0 0 1 $T2 $esp .cbLocals + .cbSavedRegs + = $T0 .raSearchStart = $eip $T0 ^ = $esp $T0 4 + =
STACK WIN 4 8881 29 0 0 8 4 0 0 1 $T2 $esp .cbLocals + .cbSavedRegs + = $T0 .raSearchStart = $eip $T0 ^ = $esp $T0 4 + =
STACK WIN 4 88b0 8b7 14 0 0 0 10 0 1 $T2 $esp .cbLocals + .cbSavedRegs + = $T0 .raSearchStart = $eip $T0 ^ = $esp $T0 4 + =
STACK WIN 4 88b8 8ab c 0 0 4 10 0 1 $T2 $esp .cbLocals + .cbSavedRegs + = $T0 .raSearchStart = $eip $T0 ^ = $esp $T0 4 + = $ebx $T0 20 - ^ =
STACK WIN 4 88c1 895 3 0 0 8 10 0 1 $T2 $esp .cbLocals + .cbSavedRegs + = $T0 .raSearchStart = $eip $T0 ^ = $esp $T0 4 + = $ebp $T0 24 - ^ = $ebx $T0 20 - ^ =
STACK WIN 4 88c4 891 0 0 0 c 10 0 1 $T2 $esp .cbLocals + .cbSavedRegs + = $T0 .raSearchStart = $eip $T0 ^ = $esp $T0 4 + = $ebp $T0 24 - ^ = $ebx $T0 20 - ^ =
STACK WIN 4 9170 93b 9 0 4 0 10 0 1 $T2 $esp .cbLocals + .cbSavedRegs + = $T0 .raSearchStart = $eip $T0 ^ = $esp $T0 4 + =
STACK WIN 4 9174 933 5 0 4 4 10 0 1 $T2 $esp .cbLocals + .cbSavedRegs + = $T0 .raSearchStart = $eip $T0 ^ = $esp $T0 4 + = $ebx $T0 20 - ^ =
STACK WIN 4 9175 929 4 0 4 8 10 0 1 $T2 $esp .cbLocals + .cbSavedRegs + = $T0 .raSearchStart = $eip $T0 ^ = $esp $T0 4 + = $ebp $T0 24 - ^ = $ebx $T0 20 - ^ =
STACK WIN 4 9176 924 3 0 4 c 10 0 1 $T2 $esp .cbLocals + .cbSavedRegs + = $T0 .raSearchStart = $eip $T0 ^ = $esp $T0 4 + = $ebp $T0 24 - ^ = $ebx $T0 20 - ^ =
STACK WIN 4 9177 911 2 0 4 10 10 0 1 $T2 $esp .cbLocals + .cbSavedRegs + = $T0 .raSearchStart = $eip $T0 ^ = $esp $T0 4 + = $ebp $T0 24 - ^ = $ebx $T0 20 - ^ =
STACK WIN 4 9ab0 ae 29 0 10 8 14 0 1 $T2 $esp = $T0 .raSearchStart = $eip $T0 ^ = $ebp $T0 4 - ^ = $L $T2 = $P $T0 4 + .cbParams + = $esp $T0 4 + =
STACK WIN 4 9ac8 96 11 0 10 c 14 0 1 $T2 $esp = $T0 .raSearchStart = $eip $T0 ^ = $ebp $T0 4 - ^ = $L $T2 = $P $T0 4 + .cbParams + = $esp $T0 4 + = $ebx $T0 32 - ^ =
STACK WIN 4 9b60 a5 1f 0 10 8 c 0 1 $T2 $esp = $T0 .raSearchStart = $eip $T0 ^ = $ebp $T0 4 - ^ = $L $T2 = $P $T0 4 + .cbParams + = $esp $T0 4 + =
STACK WIN 4 9b7a 8b 5 0 10 c c 0 1 $T2 $esp = $T0 .raSearchStart = $eip $T0 ^ = $ebp $T0 4 - ^ = $L $T2 = $P $T0 4 + .cbParams + = $esp $T0 4 + = $ebx $T0 24 - ^ =
STACK WIN 4 9c10 e2 25 0 10 8 14 0 1 $T2 $esp = $T0 .raSearchStart = $eip $T0 ^ = $ebp $T0 4 - ^ = $L $T2 = $P $T0 4 + .cbParams + = $esp $T0 4 + =
STACK WIN 4 9c2d c5 8 0 10 c 14 0 1 $T2 $esp = $T0 .raSearchStart = $eip $T0 ^ = $ebp $T0 4 - ^ = $L $T2 = $P $T0 4 + .cbParams + = $esp $T0 4 + = $ebx $T0 32 - ^ =
STACK WIN 4 9d00 e0 1f 0 10 8 1c 0 1 $T2 $esp = $T0 .raSearchStart = $eip $T0 ^ = $ebp $T0 4 - ^ = $L $T2 = $P $T0 4 + .cbParams + = $esp $T0 4 + =
STACK WIN 4 9d1a c6 5 0 10 c 1c 0 1 $T2 $esp = $T0 .raSearchStart = $eip $T0 ^ = $ebp $T0 4 - ^ = $L $T2 = $P $T0 4 + .cbParams + = $esp $T0 4 + = $ebx $T0 40 - ^ =
STACK WIN 4 9de0 61 1 0 18 0 0 0 1 $T2 $esp .cbLocals + .cbSavedRegs + = $T0 .raSearchStart = $eip $T0 ^ = $esp $T0 4 + =
STACK WIN 4 9de1 5f 0 0 18 4 0 0 1 $T2 $esp .cbLocals + .cbSavedRegs + = $T0 .raSearchStart = $eip $T0 ^ = $esp $T0 4 + = $ebx $T0 4 - ^ =
STACK WIN 4 9e50 61 1 0 18 0 0 0 1 $T2 $esp .cbLocals + .cbSavedRegs + = $T0 .raSearchStart = $eip $T0 ^ = $esp $T0 4 + =
STACK WIN 4 9e51 5f 0 0 18 4 0 0 1 $T2 $esp .cbLocals + .cbSavedRegs + = $T0 .raSearchStart = $eip $T0 ^ = $esp $T0 4 + = $ebx $T0 4 - ^ =
STACK WIN 4 9ec0 145 9 0 1c 0 0 0 1 $T2 $esp .cbLocals + .cbSavedRegs + = $T0 .raSearchStart = $eip $T0 ^ = $esp $T0 4 + =
STACK WIN 4 9ec7 13d 2 0 1c 4 0 0 1 $T2 $esp .cbLocals + .cbSavedRegs + = $T0 .raSearchStart = $eip $T0 ^ = $esp $T0 4 + = $ebx $T0 4 - ^ =
STACK WIN 4 9ec8 138 1 0 1c 8 0 0 1 $T2 $esp .cbLocals + .cbSavedRegs + = $T0 .raSearchStart = $eip $T0 ^ = $esp $T0 4 + = $ebp $T0 8 - ^ = $ebx $T0 4 - ^ =
STACK WIN 4 9ec9 136 0 0 1c c 0 0 1 $T2 $esp .cbLocals + .cbSavedRegs + = $T0 .raSearchStart = $eip $T0 ^ = $esp $T0 4 + = $ebp $T0 8 - ^ = $ebx $T0 4 - ^ =
STACK WIN 4 9f76 75 0 0 1c 10 0 0 1 $T2 $esp .cbLocals + .cbSavedRegs + = $T0 .raSearchStart = $eip $T0 ^ = $esp $T0 4 + = $ebp $T0 8 - ^ = $ebx $T0 4 - ^ =
STACK WIN 4 a010 5a 1 0 14 0 0 0 1 $T2 $esp .cbLocals + .cbSavedRegs + = $T0 .raSearchStart = $eip $T0 ^ = $esp $T0 4 + =
STACK WIN 4 a011 58 0 0 14 4 0 0 1 $T2 $esp .cbLocals + .cbSavedRegs + = $T0 .raSearchStart = $eip $T0 ^ = $esp $T0 4 + =
STACK WIN 4 a070 e 0 0 0 0 0 0 1 $T2 $esp .cbLocals + .cbSavedRegs + = $T0 .raSearchStart = $eip $T0 ^ = $esp $T0 4 + =
STACK WIN 4 a080 109 2a 0 1c 0 108 0 1 $T2 $esp .cbLocals + .cbSavedRegs + = $T0 .raSearchStart = $eip $T0 ^ = $esp $T0 4 + =
STACK WIN 4 a09c dc e 0 1c 4 108 0 1 $T2 $esp .cbLocals + .cbSavedRegs + = $T0 .raSearchStart = $eip $T0 ^ = $esp $T0 4 + = $ebx $T0 268 - ^ =
STACK WIN 4 a0aa cd 0 0 1c 8 108 0 1 $T2 $esp .cbLocals + .cbSavedRegs + = $T0 .raSearchStart = $eip $T0 ^ = $esp $T0 4 + = $ebp $T0 272 - ^ = $ebx $T0 268 - ^ =
STACK WIN 4 a0c4 79 0 0 1c c 108 0 1 $T2 $esp .cbLocals + .cbSavedRegs + = $T0 .raSearchStart = $eip $T0 ^ = $esp $T0 4 + = $ebp $T0 272 - ^ = $ebx $T0 268 - ^ =
STACK WIN 4 a0c5 75 0 0 1c 10 108 0 1 $T2 $esp .cbLocals + .cbSavedRegs + = $T0 .raSearchStart = $eip $T0 ^ = $esp $T0 4 + = $ebp $T0 272 - ^ = $ebx $T0 268 - ^ =
STACK WIN 4 a190 49 1 0 8 0 0 0 1 $T2 $esp .cbLocals + .cbSavedRegs + = $T0 .raSearchStart = $eip $T0 ^ = $esp $T0 4 + =
STACK WIN 4 a191 47 0 0 8 4 0 0 1 $T2 $esp .cbLocals + .cbSavedRegs + = $T0 .raSearchStart = $eip $T0 ^ = $esp $T0 4 + =
STACK WIN 4 a1e0 15 0 0 8 0 0 0 1 $T2 $esp .cbLocals + .cbSavedRegs + = $T0 .raSearchStart = $eip $T0 ^ = $esp $T0 4 + =
STACK WIN 4 a200 4d8 18 0 c 0 c 0 1 $T2 $esp .cbLocals + .cbSavedRegs + = $T0 .raSearchStart = $eip $T0 ^ = $esp $T0 4 + =
STACK WIN 4 a204 4b2 14 0 c 4 c 0 1 $T2 $esp .cbLocals + .cbSavedRegs + = $T0 .raSearchStart = $eip $T0 ^ = $esp $T0 4 + = $ebp $T0 16 - ^ =
STACK WIN 4 a20d 4a6 b 0 c 8 c 0 1 $T2 $esp .cbLocals + .cbSavedRegs + = $T0 .raSearchStart = $eip $T0 ^ = $esp $T0 4 + = $ebp $T0 16 - ^ =
STACK WIN 4 a20e 4a2 a 0 c c c 0 1 $T2 $esp .cbLocals + .cbSavedRegs + = $T0 .raSearchStart = $eip $T0 ^ = $esp $T0 4 + = $ebp $T0 16 - ^ =
STACK WIN 4 a238 467 0 0 c 10 c 0 1 $T2 $esp .cbLocals + .cbSavedRegs + = $T0 .raSearchStart = $eip $T0 ^ = $esp $T0 4 + = $ebp $T0 16 - ^ = $ebx $T0 28 - ^ =
STACK WIN 4 a6e0 39 0 0 18 0 0 0 1 $T2 $esp .cbLocals + .cbSavedRegs + = $T0 .raSearchStart = $eip $T0 ^ = $esp $T0 4 + =
STACK WIN 4 a720 10 0 0 14 0 0 0 1 $T2 $esp .cbLocals + .cbSavedRegs + = $T0 .raSearchStart = $eip $T0 ^ = $esp $T0 4 + =
STACK WIN 4 a730 c 0 0 8 0 0 0 1 $T2 $esp .cbLocals + .cbSavedRegs + = $T0 .raSearchStart = $eip $T0 ^ = $esp $T0 4 + =
STACK WIN 4 a740 35 1 0 10 0 0 0 1 $T2 $esp .cbLocals + .cbSavedRegs + = $T0 .raSearchStart = $eip $T0 ^ = $esp $T0 4 + =
STACK WIN 4 a741 33 0 0 10 4 0 0 1 $T2 $esp .cbLocals + .cbSavedRegs + = $T0 .raSearchStart = $eip $T0 ^ = $esp $T0 4 + =
STACK WIN 4 a74a 29 0 0 10 8 0 0 1 $T2 $esp .cbLocals + .cbSavedRegs + = $T0 .raSearchStart = $eip $T0 ^ = $esp $T0 4 + = $ebx $T0 8 - ^ =
STACK WIN 4 a74f 23 0 0 10 c 0 0 1 $T2 $esp .cbLocals + .cbSavedRegs + = $T0 .raSearchStart = $eip $T0 ^ = $esp $T0 4 + = $ebp $T0 12 - ^ = $ebx $T0 8 - ^ =
STACK WIN 4 a754 1d 0 0 10 10 0 0 1 $T2 $esp .cbLocals + .cbSavedRegs + = $T0 .raSearchStart = $eip $T0 ^ = $esp $T0 4 + = $ebp $T0 12 - ^ = $ebx $T0 8 - ^ =
STACK WIN 4 a780 51 1 0 10 0 0 0 1 $T2 $esp .cbLocals + .cbSavedRegs + = $T0 .raSearchStart = $eip $T0 ^ = $esp $T0 4 + =
STACK WIN 4 a781 4f 0 0 10 4 0 0 1 $T2 $esp .cbLocals + .cbSavedRegs + = $T0 .raSearchStart = $eip $T0 ^ = $esp $T0 4 + = $ebx $T0 4 - ^ =
STACK WIN 4 a78a 45 0 0 10 8 0 0 1 $T2 $esp .cbLocals + .cbSavedRegs + = $T0 .raSearchStart = $eip $T0 ^ = $esp $T0 4 + = $ebp $T0 8 - ^ = $ebx $T0 4 - ^ =
STACK WIN 4 a78f 3f 0 0 10 c 0 0 1 $T2 $esp .cbLocals + .cbSavedRegs + = $T0 .raSearchStart = $eip $T0 ^ = $esp $T0 4 + = $ebp $T0 8 - ^ = $ebx $T0 4 - ^ =
STACK WIN 4 a794 39 0 0 10 10 0 0 1 $T2 $esp .cbLocals + .cbSavedRegs + = $T0 .raSearchStart = $eip $T0 ^ = $esp $T0 4 + = $ebp $T0 8 - ^ = $ebx $T0 4 - ^ =
STACK WIN 4 a7e0 76 8 0 10 0 8 0 1 $T2 $esp .cbLocals + .cbSavedRegs + = $T0 .raSearchStart = $eip $T0 ^ = $esp $T0 4 + =
STACK WIN 4 a7e8 6a 0 0 10 4 8 0 1 $T2 $esp .cbLocals + .cbSavedRegs + = $T0 .raSearchStart = $eip $T0 ^ = $esp $T0 4 + =
STACK WIN 4 a7f7 5a 0 0 10 8 8 0 1 $T2 $esp .cbLocals + .cbSavedRegs + = $T0 .raSearchStart = $eip $T0 ^ = $esp $T0 4 + = $ebx $T0 16 - ^ =
STACK WIN 4 a7f8 58 0 0 10 c 8 0 1 $T2 $esp .cbLocals + .cbSavedRegs + = $T0 .raSearchStart = $eip $T0 ^ = $esp $T0 4 + = $ebp $T0 20 - ^ = $ebx $T0 16 - ^ =
STACK WIN 4 a7fd 52 0 0 10 10 8 0 1 $T2 $esp .cbLocals + .cbSavedRegs + = $T0 .raSearchStart = $eip $T0 ^ = $esp $T0 4 + = $ebp $T0 20 - ^ = $ebx $T0 16 - ^ =
STACK WIN 4 a860 8e 8 0 10 0 10 0 1 $T2 $esp .cbLocals + .cbSavedRegs + = $T0 .raSearchStart = $eip $T0 ^ = $esp $T0 4 + =
STACK WIN 4 a868 82 0 0 10 4 10 0 1 $T2 $esp .cbLocals + .cbSavedRegs + = $T0 .raSearchStart = $eip $T0 ^ = $esp $T0 4 + =
STACK WIN 4 a877 72 0 0 10 8 10 0 1 $T2 $esp .cbLocals + .cbSavedRegs + = $T0 .raSearchStart = $eip $T0 ^ = $esp $T0 4 + = $ebx $T0 24 - ^ =
STACK WIN 4 a878 70 0 0 10 c 10 0 1 $T2 $esp .cbLocals + .cbSavedRegs + = $T0 .raSearchStart = $eip $T0 ^ = $esp $T0 4 + = $ebp $T0 28 - ^ = $ebx $T0 24 - ^ =
STACK WIN 4 a87d 6a 0 0 10 10 10 0 1 $T2 $esp .cbLocals + .cbSavedRegs + = $T0 .raSearchStart = $eip $T0 ^ = $esp $T0 4 + = $ebp $T0 28 - ^ = $ebx $T0 24 - ^ =
STACK WIN 4 a8f0 92 8 0 10 0 8 0 1 $T2 $esp .cbLocals + .cbSavedRegs + = $T0 .raSearchStart = $eip $T0 ^ = $esp $T0 4 + =
STACK WIN 4 a8f8 86 0 0 10 4 8 0 1 $T2 $esp .cbLocals + .cbSavedRegs + = $T0 .raSearchStart = $eip $T0 ^ = $esp $T0 4 + =
STACK WIN 4 a907 76 0 0 10 8 8 0 1 $T2 $esp .cbLocals + .cbSavedRegs + = $T0 .raSearchStart = $eip $T0 ^ = $esp $T0 4 + = $ebx $T0 16 - ^ =
STACK WIN 4 a90c 70 0 0 10 c 8 0 1 $T2 $esp .cbLocals + .cbSavedRegs + = $T0 .raSearchStart = $eip $T0 ^ = $esp $T0 4 + = $ebp $T0 20 - ^ = $ebx $T0 16 - ^ =
STACK WIN 4 a911 6a 0 0 10 10 8 0 1 $T2 $esp .cbLocals + .cbSavedRegs + = $T0 .raSearchStart = $eip $T0 ^ = $esp $T0 4 + = $ebp $T0 20 - ^ = $ebx $T0 16 - ^ =
STACK WIN 4 a990 be 16 0 10 8 14 0 1 $T2 $esp = $T0 .raSearchStart = $eip $T0 ^ = $ebp $T0 4 - ^ = $L $T2 = $P $T0 4 + .cbParams + = $esp $T0 4 + =
STACK WIN 4 a99d b1 9 0 10 c 14 0 1 $T2 $esp = $T0 .raSearchStart = $eip $T0 ^ = $ebp $T0 4 - ^ = $L $T2 = $P $T0 4 + .cbParams + = $esp $T0 4 + = $ebx $T0 32 - ^ =
STACK WIN 4 aa50 e 0 0 0 0 0 0 1 $T2 $esp .cbLocals + .cbSavedRegs + = $T0 .raSearchStart = $eip $T0 ^ = $esp $T0 4 + =
STACK WIN 4 aa60 1f4 1 0 1c 0 0 0 1 $T2 $esp .cbLocals + .cbSavedRegs + = $T0 .raSearchStart = $eip $T0 ^ = $esp $T0 4 + =
STACK WIN 4 aa61 1e0 0 0 1c 4 0 0 1 $T2 $esp .cbLocals + .cbSavedRegs + = $T0 .raSearchStart = $eip $T0 ^ = $esp $T0 4 + =
STACK WIN 4 aa8a 1b3 0 0 1c 8 0 0 1 $T2 $esp .cbLocals + .cbSavedRegs + = $T0 .raSearchStart = $eip $T0 ^ = $esp $T0 4 + = $ebx $T0 8 - ^ =
STACK WIN 4 aa8b 1b1 0 0 1c c 0 0 1 $T2 $esp .cbLocals + .cbSavedRegs + = $T0 .raSearchStart = $eip $T0 ^ = $esp $T0 4 + = $ebx $T0 8 - ^ =
STACK WIN 4 ac60 48 1 0 10 0 0 0 1 $T2 $esp .cbLocals + .cbSavedRegs + = $T0 .raSearchStart = $eip $T0 ^ = $esp $T0 4 + =
STACK WIN 4 ac61 46 0 0 10 4 0 0 1 $T2 $esp .cbLocals + .cbSavedRegs + = $T0 .raSearchStart = $eip $T0 ^ = $esp $T0 4 + =
STACK WIN 4 acb0 2b 1 0 8 0 0 0 1 $T2 $esp .cbLocals + .cbSavedRegs + = $T0 .raSearchStart = $eip $T0 ^ = $esp $T0 4 + =
STACK WIN 4 acb1 29 0 0 8 4 0 0 1 $T2 $esp .cbLocals + .cbSavedRegs + = $T0 .raSearchStart = $eip $T0 ^ = $esp $T0 4 + =
STACK WIN 4 ace0 5b 1 0 18 0 0 0 1 $T2 $esp .cbLocals + .cbSavedRegs + = $T0 .raSearchStart = $eip $T0 ^ = $esp $T0 4 + =
STACK WIN 4 ace1 59 0 0 18 4 0 0 1 $T2 $esp .cbLocals + .cbSavedRegs + = $T0 .raSearchStart = $eip $T0 ^ = $esp $T0 4 + = $ebx $T0 4 - ^ =
STACK WIN 4 ad40 5b 1 0 18 0 0 0 1 $T2 $esp .cbLocals + .cbSavedRegs + = $T0 .raSearchStart = $eip $T0 ^ = $esp $T0 4 + =
STACK WIN 4 ad41 59 0 0 18 4 0 0 1 $T2 $esp .cbLocals + .cbSavedRegs + = $T0 .raSearchStart = $eip $T0 ^ = $esp $T0 4 + = $ebx $T0 4 - ^ =
STACK WIN 4 ada0 1ee 4 0 c 0 0 0 1 $T2 $esp .cbLocals + .cbSavedRegs + = $T0 .raSearchStart = $eip $T0 ^ = $esp $T0 4 + =
STACK WIN 4 ada1 1ec 3 0 c 4 0 0 1 $T2 $esp .cbLocals + .cbSavedRegs + = $T0 .raSearchStart = $eip $T0 ^ = $esp $T0 4 + = $ebx $T0 4 - ^ =
STACK WIN 4 ada2 1ea 2 0 c 8 0 0 1 $T2 $esp .cbLocals + .cbSavedRegs + = $T0 .raSearchStart = $eip $T0 ^ = $esp $T0 4 + = $ebp $T0 8 - ^ = $ebx $T0 4 - ^ =
STACK WIN 4 ada3 1e8 1 0 c c 0 0 1 $T2 $esp .cbLocals + .cbSavedRegs + = $T0 .raSearchStart = $eip $T0 ^ = $esp $T0 4 + = $ebp $T0 8 - ^ = $ebx $T0 4 - ^ =
STACK WIN 4 ada4 1e6 0 0 c 10 0 0 1 $T2 $esp .cbLocals + .cbSavedRegs + = $T0 .raSearchStart = $eip $T0 ^ = $esp $T0 4 + = $ebp $T0 8 - ^ = $ebx $T0 4 - ^ =
STACK WIN 4 af90 9e7 3 0 c 0 0 0 1 $T2 $esp .cbLocals + .cbSavedRegs + = $T0 .raSearchStart = $eip $T0 ^ = $esp $T0 4 + =
STACK WIN 4 af91 9e5 2 0 c 4 0 0 1 $T2 $esp .cbLocals + .cbSavedRegs + = $T0 .raSearchStart = $eip $T0 ^ = $esp $T0 4 + = $ebx $T0 4 - ^ =
STACK WIN 4 af92 9e3 1 0 c 8 0 0 1 $T2 $esp .cbLocals + .cbSavedRegs + = $T0 .raSearchStart = $eip $T0 ^ = $esp $T0 4 + = $ebx $T0 4 - ^ =
STACK WIN 4 af93 966 0 0 c c 0 0 1 $T2 $esp .cbLocals + .cbSavedRegs + = $T0 .raSearchStart = $eip $T0 ^ = $esp $T0 4 + = $ebx $T0 4 - ^ =
STACK WIN 4 b980 df 1f 0 c 0 138 0 1 $T2 $esp .cbLocals + .cbSavedRegs + = $T0 .raSearchStart = $eip $T0 ^ = $esp $T0 4 + =
STACK WIN 4 b995 ba a 0 c 4 138 0 1 $T2 $esp .cbLocals + .cbSavedRegs + = $T0 .raSearchStart = $eip $T0 ^ = $esp $T0 4 + = $ebp $T0 316 - ^ =
STACK WIN 4 b99d b1 2 0 c 8 138 0 1 $T2 $esp .cbLocals + .cbSavedRegs + = $T0 .raSearchStart = $eip $T0 ^ = $esp $T0 4 + = $ebp $T0 316 - ^ =
STACK WIN 4 b9ab a2 0 0 c c 138 0 1 $T2 $esp .cbLocals + .cbSavedRegs + = $T0 .raSearchStart = $eip $T0 ^ = $esp $T0 4 + = $ebp $T0 316 - ^ =
STACK WIN 4 ba60 41 1 0 0 0 0 0 1 $T2 $esp .cbLocals + .cbSavedRegs + = $T0 .raSearchStart = $eip $T0 ^ = $esp $T0 4 + =
STACK WIN 4 ba61 3f 0 0 0 4 0 0 1 $T2 $esp .cbLocals + .cbSavedRegs + = $T0 .raSearchStart = $eip $T0 ^ = $esp $T0 4 + = $ebx $T0 4 - ^ =
STACK WIN 4 bab0 11f 28 0 10 0 7c 0 1 $T2 $esp .cbLocals + .cbSavedRegs + = $T0 .raSearchStart = $eip $T0 ^ = $esp $T0 4 + =
STACK WIN 4 bac6 fc 12 0 10 4 7c 0 1 $T2 $esp .cbLocals + .cbSavedRegs + = $T0 .raSearchStart = $eip $T0 ^ = $esp $T0 4 + = $ebx $T0 128 - ^ =
STACK WIN 4 bac7 fa 11 0 10 8 7c 0 1 $T2 $esp .cbLocals + .cbSavedRegs + = $T0 .raSearchStart = $eip $T0 ^ = $esp $T0 4 + = $ebp $T0 132 - ^ = $ebx $T0 128 - ^ =
STACK WIN 4 bacf f1 9 0 10 c 7c 0 1 $T2 $esp .cbLocals + .cbSavedRegs + = $T0 .raSearchStart = $eip $T0 ^ = $esp $T0 4 + = $ebp $T0 132 - ^ = $ebx $T0 128 - ^ =
STACK WIN 4 bad8 e7 0 0 10 10 7c 0 1 $T2 $esp .cbLocals + .cbSavedRegs + = $T0 .raSearchStart = $eip $T0 ^ = $esp $T0 4 + = $ebp $T0 132 - ^ = $ebx $T0 128 - ^ =
STACK WIN 4 bbd0 b7 24 0 8 0 168 0 1 $T2 $esp .cbLocals + .cbSavedRegs + = $T0 .raSearchStart = $eip $T0 ^ = $esp $T0 4 + =
STACK WIN 4 bbec 8d 8 0 8 4 168 0 1 $T2 $esp .cbLocals + .cbSavedRegs + = $T0 .raSearchStart = $eip $T0 ^ = $esp $T0 4 + = $ebx $T0 364 - ^ =
STACK WIN 4 bbed 8b 7 0 8 8 168 0 1 $T2 $esp .cbLocals + .cbSavedRegs + = $T0 .raSearchStart = $eip $T0 ^ = $esp $T0 4 + = $ebp $T0 368 - ^ = $ebx $T0 364 - ^ =
STACK WIN 4 bbf7 80 0 0 8 c 168 0 1 $T2 $esp .cbLocals + .cbSavedRegs + = $T0 .raSearchStart = $eip $T0 ^ = $esp $T0 4 + = $ebp $T0 368 - ^ = $ebx $T0 364 - ^ =
STACK WIN 4 bbf8 7e 0 0 8 10 168 0 1 $T2 $esp .cbLocals + .cbSavedRegs + = $T0 .raSearchStart = $eip $T0 ^ = $esp $T0 4 + = $ebp $T0 368 - ^ = $ebx $T0 364 - ^ =
STACK WIN 4 bc90 5bc 24 0 c 0 170 0 1 $T2 $esp .cbLocals + .cbSavedRegs + = $T0 .raSearchStart = $eip $T0 ^ = $esp $T0 4 + =
STACK WIN 4 bca5 599 f 0 c 4 170 0 1 $T2 $esp .cbLocals + .cbSavedRegs + = $T0 .raSearchStart = $eip $T0 ^ = $esp $T0 4 + = $ebp $T0 372 - ^ =
STACK WIN 4 bcb4 589 0 0 c 8 170 0 1 $T2 $esp .cbLocals + .cbSavedRegs + = $T0 .raSearchStart = $eip $T0 ^ = $esp $T0 4 + = $ebp $T0 372 - ^ =
STACK WIN 4 bce6 556 0 0 c c 170 0 1 $T2 $esp .cbLocals + .cbSavedRegs + = $T0 .raSearchStart = $eip $T0 ^ = $esp $T0 4 + = $ebp $T0 372 - ^ = $ebx $T0 380 - ^ =
STACK WIN 4 bce7 554 0 0 c 10 170 0 1 $T2 $esp .cbLocals + .cbSavedRegs + = $T0 .raSearchStart = $eip $T0 ^ = $esp $T0 4 + = $ebp $T0 372 - ^ = $ebx $T0 380 - ^ =
STACK WIN 4 c250 119 16 0 0 0 74 0 1 $T2 $esp .cbLocals + .cbSavedRegs + = $T0 .raSearchStart = $eip $T0 ^ = $esp $T0 4 + =
STACK WIN 4 c266 e5 0 0 0 4 74 0 1 $T2 $esp .cbLocals + .cbSavedRegs + = $T0 .raSearchStart = $eip $T0 ^ = $esp $T0 4 + =
STACK WIN 4 c2c3 5a 0 0 0 8 74 0 1 $T2 $esp .cbLocals + .cbSavedRegs + = $T0 .raSearchStart = $eip $T0 ^ = $esp $T0 4 + =
STACK WIN 4 c370 8e 1b 0 0 0 74 0 1 $T2 $esp .cbLocals + .cbSavedRegs + = $T0 .raSearchStart = $eip $T0 ^ = $esp $T0 4 + =
STACK WIN 4 c384 6f 7 0 0 4 74 0 1 $T2 $esp .cbLocals + .cbSavedRegs + = $T0 .raSearchStart = $eip $T0 ^ = $esp $T0 4 + = $ebx $T0 120 - ^ =
STACK WIN 4 c385 6d 6 0 0 8 74 0 1 $T2 $esp .cbLocals + .cbSavedRegs + = $T0 .raSearchStart = $eip $T0 ^ = $esp $T0 4 + = $ebp $T0 124 - ^ = $ebx $T0 120 - ^ =
STACK WIN 4 c386 6b 5 0 0 c 74 0 1 $T2 $esp .cbLocals + .cbSavedRegs + = $T0 .raSearchStart = $eip $T0 ^ = $esp $T0 4 + = $ebp $T0 124 - ^ = $ebx $T0 120 - ^ =
STACK WIN 4 c38b 65 0 0 0 10 74 0 1 $T2 $esp .cbLocals + .cbSavedRegs + = $T0 .raSearchStart = $eip $T0 ^ = $esp $T0 4 + = $ebp $T0 124 - ^ = $ebx $T0 120 - ^ =
STACK WIN 4 c400 22 0 0 0 0 0 0 1 $T2 $esp .cbLocals + .cbSavedRegs + = $T0 .raSearchStart = $eip $T0 ^ = $esp $T0 4 + =
STACK WIN 4 c430 100 a 0 8 0 0 0 1 $T2 $esp .cbLocals + .cbSavedRegs + = $T0 .raSearchStart = $eip $T0 ^ = $esp $T0 4 + =
STACK WIN 4 c438 f7 2 0 8 4 0 0 1 $T2 $esp .cbLocals + .cbSavedRegs + = $T0 .raSearchStart = $eip $T0 ^ = $esp $T0 4 + = $ebx $T0 4 - ^ =
STACK WIN 4 c439 f3 1 0 8 8 0 0 1 $T2 $esp .cbLocals + .cbSavedRegs + = $T0 .raSearchStart = $eip $T0 ^ = $esp $T0 4 + = $ebx $T0 4 - ^ =
STACK WIN 4 c43a f1 0 0 8 c 0 0 1 $T2 $esp .cbLocals + .cbSavedRegs + = $T0 .raSearchStart = $eip $T0 ^ = $esp $T0 4 + = $ebx $T0 4 - ^ =
STACK WIN 4 c4cc 54 0 0 8 10 0 0 1 $T2 $esp .cbLocals + .cbSavedRegs + = $T0 .raSearchStart = $eip $T0 ^ = $esp $T0 4 + = $ebp $T0 16 - ^ = $ebx $T0 4 - ^ =
STACK WIN 4 c530 167 0 0 4 0 0 0 1 $T2 $esp .cbLocals + .cbSavedRegs + = $T0 .raSearchStart = $eip $T0 ^ = $esp $T0 4 + =
STACK WIN 4 c550 146 0 0 4 4 0 0 1 $T2 $esp .cbLocals + .cbSavedRegs + = $T0 .raSearchStart = $eip $T0 ^ = $esp $T0 4 + = $ebp $T0 4 - ^ =
STACK WIN 4 c557 13e 0 0 4 8 0 0 1 $T2 $esp .cbLocals + .cbSavedRegs + = $T0 .raSearchStart = $eip $T0 ^ = $esp $T0 4 + = $ebp $T0 4 - ^ =
STACK WIN 4 c6a0 1c a 0 8 0 0 0 1 $T2 $esp .cbLocals + .cbSavedRegs + = $T0 .raSearchStart = $eip $T0 ^ = $esp $T0 4 + =
STACK WIN 4 c6a5 16 5 0 8 4 0 0 1 $T2 $esp .cbLocals + .cbSavedRegs + = $T0 .raSearchStart = $eip $T0 ^ = $esp $T0 4 + = $ebx $T0 4 - ^ =
STACK WIN 4 c6aa 10 0 0 8 8 0 0 1 $T2 $esp .cbLocals + .cbSavedRegs + = $T0 .raSearchStart = $eip $T0 ^ = $esp $T0 4 + = $ebx $T0 4 - ^ =
STACK WIN 4 c6c0 4a 0 0 0 0 0 0 1 $T2 $esp .cbLocals + .cbSavedRegs + = $T0 .raSearchStart = $eip $T0 ^ = $esp $T0 4 + =
STACK WIN 4 c710 cb c 0 18 0 0 0 1 $T2 $esp .cbLocals + .cbSavedRegs + = $T0 .raSearchStart = $eip $T0 ^ = $esp $T0 4 + =
STACK WIN 4 c711 c9 b 0 18 4 0 0 1 $T2 $esp .cbLocals + .cbSavedRegs + = $T0 .raSearchStart = $eip $T0 ^ = $esp $T0 4 + = $ebx $T0 4 - ^ =
STACK WIN 4 c716 c1 6 0 18 8 0 0 1 $T2 $esp .cbLocals + .cbSavedRegs + = $T0 .raSearchStart = $eip $T0 ^ = $esp $T0 4 + = $ebp $T0 8 - ^ = $ebx $T0 4 - ^ =
STACK WIN 4 c71b bb 1 0 18 c 0 0 1 $T2 $esp .cbLocals + .cbSavedRegs + = $T0 .raSearchStart = $eip $T0 ^ = $esp $T0 4 + = $ebp $T0 8 - ^ = $ebx $T0 4 - ^ =
STACK WIN 4 c71c b9 0 0 18 10 0 0 1 $T2 $esp .cbLocals + .cbSavedRegs + = $T0 .raSearchStart = $eip $T0 ^ = $esp $T0 4 + = $ebp $T0 8 - ^ = $ebx $T0 4 - ^ =
STACK WIN 4 c7e0 3b 0 0 10 0 0 0 1 $T2 $esp .cbLocals + .cbSavedRegs + = $T0 .raSearchStart = $eip $T0 ^ = $esp $T0 4 + =
STACK WIN 4 c820 3a 0 0 10 0 0 0 1 $T2 $esp .cbLocals + .cbSavedRegs + = $T0 .raSearchStart = $eip $T0 ^ = $esp $T0 4 + =
STACK WIN 4 c860 17 0 0 0 0 0 0 1 $T2 $esp .cbLocals + .cbSavedRegs + = $T0 .raSearchStart = $eip $T0 ^ = $esp $T0 4 + =
STACK WIN 4 c880 10e a 0 4 0 8 0 1 $T2 $esp .cbLocals + .cbSavedRegs + = $T0 .raSearchStart = $eip $T0 ^ = $esp $T0 4 + =
STACK WIN 4 c884 106 6 0 4 4 8 0 1 $T2 $esp .cbLocals + .cbSavedRegs + = $T0 .raSearchStart = $eip $T0 ^ = $esp $T0 4 + = $ebp $T0 12 - ^ =
STACK WIN 4 c885 102 5 0 4 8 8 0 1 $T2 $esp .cbLocals + .cbSavedRegs + = $T0 .raSearchStart = $eip $T0 ^ = $esp $T0 4 + = $ebp $T0 12 - ^ =
STACK WIN 4 c886 100 4 0 4 c 8 0 1 $T2 $esp .cbLocals + .cbSavedRegs + = $T0 .raSearchStart = $eip $T0 ^ = $esp $T0 4 + = $ebp $T0 12 - ^ =
STACK WIN 4 c990 2e0 11 0 4 0 10 0 1 $T2 $esp .cbLocals + .cbSavedRegs + = $T0 .raSearchStart = $eip $T0 ^ = $esp $T0 4 + =
STACK WIN 4 c99d 2bd 4 0 4 4 10 0 1 $T2 $esp .cbLocals + .cbSavedRegs + = $T0 .raSearchStart = $eip $T0 ^ = $esp $T0 4 + = $ebx $T0 20 - ^ =
STACK WIN 4 c9bb 29c 0 0 4 8 10 0 1 $T2 $esp .cbLocals + .cbSavedRegs + = $T0 .raSearchStart = $eip $T0 ^ = $esp $T0 4 + = $ebp $T0 24 - ^ = $ebx $T0 20 - ^ =
STACK WIN 4 c9bc 29a 0 0 4 c 10 0 1 $T2 $esp .cbLocals + .cbSavedRegs + = $T0 .raSearchStart = $eip $T0 ^ = $esp $T0 4 + = $ebp $T0 24 - ^ = $ebx $T0 20 - ^ =
STACK WIN 4 c9bd 298 0 0 4 10 10 0 1 $T2 $esp .cbLocals + .cbSavedRegs + = $T0 .raSearchStart = $eip $T0 ^ = $esp $T0 4 + = $ebp $T0 24 - ^ = $ebx $T0 20 - ^ =
STACK WIN 4 cc70 1f8 1 0 4 0 0 0 1 $T2 $esp .cbLocals + .cbSavedRegs + = $T0 .raSearchStart = $eip $T0 ^ = $esp $T0 4 + =
STACK WIN 4 cc71 1e3 0 0 4 4 0 0 1 $T2 $esp .cbLocals + .cbSavedRegs + = $T0 .raSearchStart = $eip $T0 ^ = $esp $T0 4 + =
STACK WIN 4 cca0 1b1 0 0 4 8 0 0 1 $T2 $esp .cbLocals + .cbSavedRegs + = $T0 .raSearchStart = $eip $T0 ^ = $esp $T0 4 + = $ebx $T0 8 - ^ =
STACK WIN 4 ce70 2c5 16 0 c 0 1c 0 1 $T2 $esp .cbLocals + .cbSavedRegs + = $T0 .raSearchStart = $eip $T0 ^ = $esp $T0 4 + =
STACK WIN 4 ce7c 2b5 a 0 c 4 1c 0 1 $T2 $esp .cbLocals + .cbSavedRegs + = $T0 .raSearchStart = $eip $T0 ^ = $esp $T0 4 + = $ebx $T0 32 - ^ =
STACK WIN 4 ce7d 2ae 9 0 c 8 1c 0 1 $T2 $esp .cbLocals + .cbSavedRegs + = $T0 .raSearchStart = $eip $T0 ^ = $esp $T0 4 + = $ebp $T0 36 - ^ = $ebx $T0 32 - ^ =
STACK WIN 4 ce7e 2a9 8 0 c c 1c 0 1 $T2 $esp .cbLocals + .cbSavedRegs + = $T0 .raSearchStart = $eip $T0 ^ = $esp $T0 4 + = $ebp $T0 36 - ^ = $ebx $T0 32 - ^ =
STACK WIN 4 ce86 29e 0 0 c 10 1c 0 1 $T2 $esp .cbLocals + .cbSavedRegs + = $T0 .raSearchStart = $eip $T0 ^ = $esp $T0 4 + = $ebp $T0 36 - ^ = $ebx $T0 32 - ^ =
STACK WIN 4 d140 28d 1b 0 c 0 1c 0 1 $T2 $esp .cbLocals + .cbSavedRegs + = $T0 .raSearchStart = $eip $T0 ^ = $esp $T0 4 + =
STACK WIN 4 d14a 27f 11 0 c 4 1c 0 1 $T2 $esp .cbLocals + .cbSavedRegs + = $T0 .raSearchStart = $eip $T0 ^ = $esp $T0 4 + = $ebx $T0 32 - ^ =
STACK WIN 4 d14b 27b 10 0 c 8 1c 0 1 $T2 $esp .cbLocals + .cbSavedRegs + = $T0 .raSearchStart = $eip $T0 ^ = $esp $T0 4 + = $ebp $T0 36 - ^ = $ebx $T0 32 - ^ =
STACK WIN 4 d156 26f 5 0 c c 1c 0 1 $T2 $esp .cbLocals + .cbSavedRegs + = $T0 .raSearchStart = $eip $T0 ^ = $esp $T0 4 + = $ebp $T0 36 - ^ = $ebx $T0 32 - ^ =
STACK WIN 4 d15b 269 0 0 c 10 1c 0 1 $T2 $esp .cbLocals + .cbSavedRegs + = $T0 .raSearchStart = $eip $T0 ^ = $esp $T0 4 + = $ebp $T0 36 - ^ = $ebx $T0 32 - ^ =
STACK WIN 4 d3d0 4 0 0 c 0 0 0 1 $T2 $esp .cbLocals + .cbSavedRegs + = $T0 .raSearchStart = $eip $T0 ^ = $esp $T0 4 + =
STACK WIN 4 d3e0 4f b 0 1c 0 0 0 1 $T2 $esp .cbLocals + .cbSavedRegs + = $T0 .raSearchStart = $eip $T0 ^ = $esp $T0 4 + =
STACK WIN 4 d3e1 4d a 0 1c 4 0 0 1 $T2 $esp .cbLocals + .cbSavedRegs + = $T0 .raSearchStart = $eip $T0 ^ = $esp $T0 4 + = $ebx $T0 4 - ^ =
STACK WIN 4 d3e9 44 2 0 1c 8 0 0 1 $T2 $esp .cbLocals + .cbSavedRegs + = $T0 .raSearchStart = $eip $T0 ^ = $esp $T0 4 + = $ebp $T0 8 - ^ = $ebx $T0 4 - ^ =
STACK WIN 4 d3ea 42 1 0 1c c 0 0 1 $T2 $esp .cbLocals + .cbSavedRegs + = $T0 .raSearchStart = $eip $T0 ^ = $esp $T0 4 + = $ebp $T0 8 - ^ = $ebx $T0 4 - ^ =
STACK WIN 4 d3eb 40 0 0 1c 10 0 0 1 $T2 $esp .cbLocals + .cbSavedRegs + = $T0 .raSearchStart = $eip $T0 ^ = $esp $T0 4 + = $ebp $T0 8 - ^ = $ebx $T0 4 - ^ =
STACK WIN 4 d430 fb 2e 0 1c 0 114 0 1 $T2 $esp .cbLocals + .cbSavedRegs + = $T0 .raSearchStart = $eip $T0 ^ = $esp $T0 4 + =
STACK WIN 4 d44e cf 10 0 1c 4 114 0 1 $T2 $esp .cbLocals + .cbSavedRegs + = $T0 .raSearchStart = $eip $T0 ^ = $esp $T0 4 + = $ebx $T0 280 - ^ =
STACK WIN 4 d456 c6 8 0 1c 8 114 0 1 $T2 $esp .cbLocals + .cbSavedRegs + = $T0 .raSearchStart = $eip $T0 ^ = $esp $T0 4 + = $ebx $T0 280 - ^ =
STACK WIN 4 d45e bd 0 0 1c c 114 0 1 $T2 $esp .cbLocals + .cbSavedRegs + = $T0 .raSearchStart = $eip $T0 ^ = $esp $T0 4 + = $ebx $T0 280 - ^ =
STACK WIN 4 d4aa 70 0 0 1c 10 114 0 1 $T2 $esp .cbLocals + .cbSavedRegs + = $T0 .raSearchStart = $eip $T0 ^ = $esp $T0 4 + = $ebp $T0 292 - ^ = $ebx $T0 280 - ^ =
STACK WIN 4 d530 4f b 0 1c 0 0 0 1 $T2 $esp .cbLocals + .cbSavedRegs + = $T0 .raSearchStart = $eip $T0 ^ = $esp $T0 4 + =
STACK WIN 4 d531 4d a 0 1c 4 0 0 1 $T2 $esp .cbLocals + .cbSavedRegs + = $T0 .raSearchStart = $eip $T0 ^ = $esp $T0 4 + = $ebx $T0 4 - ^ =
STACK WIN 4 d539 44 2 0 1c 8 0 0 1 $T2 $esp .cbLocals + .cbSavedRegs + = $T0 .raSearchStart = $eip $T0 ^ = $esp $T0 4 + = $ebp $T0 8 - ^ = $ebx $T0 4 - ^ =
STACK WIN 4 d53a 42 1 0 1c c 0 0 1 $T2 $esp .cbLocals + .cbSavedRegs + = $T0 .raSearchStart = $eip $T0 ^ = $esp $T0 4 + = $ebp $T0 8 - ^ = $ebx $T0 4 - ^ =
STACK WIN 4 d53b 40 0 0 1c 10 0 0 1 $T2 $esp .cbLocals + .cbSavedRegs + = $T0 .raSearchStart = $eip $T0 ^ = $esp $T0 4 + = $ebp $T0 8 - ^ = $ebx $T0 4 - ^ =
STACK WIN 4 d580 fe 24 0 1c 0 30 0 1 $T2 $esp .cbLocals + .cbSavedRegs + = $T0 .raSearchStart = $eip $T0 ^ = $esp $T0 4 + =
STACK WIN 4 d593 e0 11 0 1c 4 30 0 1 $T2 $esp .cbLocals + .cbSavedRegs + = $T0 .raSearchStart = $eip $T0 ^ = $esp $T0 4 + = $ebx $T0 52 - ^ =
STACK WIN 4 d598 da c 0 1c 8 30 0 1 $T2 $esp .cbLocals + .cbSavedRegs + = $T0 .raSearchStart = $eip $T0 ^ = $esp $T0 4 + = $ebp $T0 56 - ^ = $ebx $T0 52 - ^ =
STACK WIN 4 d59f d2 5 0 1c c 30 0 1 $T2 $esp .cbLocals + .cbSavedRegs + = $T0 .raSearchStart = $eip $T0 ^ = $esp $T0 4 + = $ebp $T0 56 - ^ = $ebx $T0 52 - ^ =
STACK WIN 4 d5a4 cc 0 0 1c 10 30 0 1 $T2 $esp .cbLocals + .cbSavedRegs + = $T0 .raSearchStart = $eip $T0 ^ = $esp $T0 4 + = $ebp $T0 56 - ^ = $ebx $T0 52 - ^ =
STACK WIN 4 d680 e 0 0 0 0 0 0 1 $T2 $esp .cbLocals + .cbSavedRegs + = $T0 .raSearchStart = $eip $T0 ^ = $esp $T0 4 + =
STACK WIN 4 d690 142 0 0 1c 0 0 0 1 $T2 $esp .cbLocals + .cbSavedRegs + = $T0 .raSearchStart = $eip $T0 ^ = $esp $T0 4 + =
STACK WIN 4 d6ce f2 0 0 1c 4 0 0 1 $T2 $esp .cbLocals + .cbSavedRegs + = $T0 .raSearchStart = $eip $T0 ^ = $esp $T0 4 + = $ebx $T0 4 - ^ =
STACK WIN 4 d6d5 e7 0 0 1c 8 0 0 1 $T2 $esp .cbLocals + .cbSavedRegs + = $T0 .raSearchStart = $eip $T0 ^ = $esp $T0 4 + = $ebp $T0 8 - ^ = $ebx $T0 4 - ^ =
STACK WIN 4 d6f8 c3 0 0 1c c 0 0 1 $T2 $esp .cbLocals + .cbSavedRegs + = $T0 .raSearchStart = $eip $T0 ^ = $esp $T0 4 + = $ebp $T0 8 - ^ = $ebx $T0 4 - ^ =
STACK WIN 4 d71a a0 0 0 1c 10 0 0 1 $T2 $esp .cbLocals + .cbSavedRegs + = $T0 .raSearchStart = $eip $T0 ^ = $esp $T0 4 + = $ebp $T0 8 - ^ = $ebx $T0 4 - ^ =
STACK WIN 4 d7e0 90 3 0 18 0 0 0 1 $T2 $esp .cbLocals + .cbSavedRegs + = $T0 .raSearchStart = $eip $T0 ^ = $esp $T0 4 + =
STACK WIN 4 d7e1 8e 2 0 18 4 0 0 1 $T2 $esp .cbLocals + .cbSavedRegs + = $T0 .raSearchStart = $eip $T0 ^ = $esp $T0 4 + = $ebx $T0 4 - ^ =
STACK WIN 4 d7e2 89 1 0 18 8 0 0 1 $T2 $esp .cbLocals + .cbSavedRegs + = $T0 .raSearchStart = $eip $T0 ^ = $esp $T0 4 + = $ebp $T0 8 - ^ = $ebx $T0 4 - ^ =
STACK WIN 4 d7e3 87 0 0 18 c 0 0 1 $T2 $esp .cbLocals + .cbSavedRegs + = $T0 .raSearchStart = $eip $T0 ^ = $esp $T0 4 + = $ebp $T0 8 - ^ = $ebx $T0 4 - ^ =
STACK WIN 4 d800 58 0 0 18 10 0 0 1 $T2 $esp .cbLocals + .cbSavedRegs + = $T0 .raSearchStart = $eip $T0 ^ = $esp $T0 4 + = $ebp $T0 8 - ^ = $ebx $T0 4 - ^ =
STACK WIN 4 d870 50 1 0 18 0 0 0 1 $T2 $esp .cbLocals + .cbSavedRegs + = $T0 .raSearchStart = $eip $T0 ^ = $esp $T0 4 + =
STACK WIN 4 d871 4e 0 0 18 4 0 0 1 $T2 $esp .cbLocals + .cbSavedRegs + = $T0 .raSearchStart = $eip $T0 ^ = $esp $T0 4 + =
STACK WIN 4 d8c0 e 0 0 0 0 0 0 1 $T2 $esp .cbLocals + .cbSavedRegs + = $T0 .raSearchStart = $eip $T0 ^ = $esp $T0 4 + =
STACK WIN 4 d8d0 58 0 0 1c 0 0 0 1 $T2 $esp .cbLocals + .cbSavedRegs + = $T0 .raSearchStart = $eip $T0 ^ = $esp $T0 4 + =
STACK WIN 4 d930 4a 1 0 10 0 0 0 1 $T2 $esp .cbLocals + .cbSavedRegs + = $T0 .raSearchStart = $eip $T0 ^ = $esp $T0 4 + =
STACK WIN 4 d931 48 0 0 10 4 0 0 1 $T2 $esp .cbLocals + .cbSavedRegs + = $T0 .raSearchStart = $eip $T0 ^ = $esp $T0 4 + =
STACK WIN 4 d980 29 1 0 8 0 0 0 1 $T2 $esp .cbLocals + .cbSavedRegs + = $T0 .raSearchStart = $eip $T0 ^ = $esp $T0 4 + =
STACK WIN 4 d981 27 0 0 8 4 0 0 1 $T2 $esp .cbLocals + .cbSavedRegs + = $T0 .raSearchStart = $eip $T0 ^ = $esp $T0 4 + =
STACK WIN 4 d9b0 5d 0 0 0 0 0 0 1 $T2 $esp .cbLocals + .cbSavedRegs + = $T0 .raSearchStart = $eip $T0 ^ = $esp $T0 4 + =
STACK WIN 4 da10 a3 0 0 0 0 0 0 1 $T2 $esp .cbLocals + .cbSavedRegs + = $T0 .raSearchStart = $eip $T0 ^ = $esp $T0 4 + =
STACK WIN 4 dac0 1c3 17 0 18 8 2c 0 1 $T2 $esp = $T0 .raSearchStart = $eip $T0 ^ = $ebp $T0 4 - ^ = $L $T2 = $P $T0 4 + .cbParams + = $esp $T0 4 + =
STACK WIN 4 daca 1b9 d 0 18 c 2c 0 1 $T2 $esp = $T0 .raSearchStart = $eip $T0 ^ = $ebp $T0 4 - ^ = $L $T2 = $P $T0 4 + .cbParams + = $esp $T0 4 + = $ebx $T0 56 - ^ =
STACK WIN 4 dc90 259 12 0 18 8 24 0 1 $T2 $esp = $T0 .raSearchStart = $eip $T0 ^ = $ebp $T0 4 - ^ = $L $T2 = $P $T0 4 + .cbParams + = $esp $T0 4 + =
STACK WIN 4 dc9a 24f 8 0 18 c 24 0 1 $T2 $esp = $T0 .raSearchStart = $eip $T0 ^ = $ebp $T0 4 - ^ = $L $T2 = $P $T0 4 + .cbParams + = $esp $T0 4 + = $ebx $T0 48 - ^ =
STACK WIN 4 def0 c74 19 0 8 0 f8 0 1 $T2 $esp .cbLocals + .cbSavedRegs + = $T0 .raSearchStart = $eip $T0 ^ = $esp $T0 4 + =
STACK WIN 4 defe c5f b 0 8 4 f8 0 1 $T2 $esp .cbLocals + .cbSavedRegs + = $T0 .raSearchStart = $eip $T0 ^ = $esp $T0 4 + = $ebx $T0 252 - ^ =
STACK WIN 4 df02 c4e 7 0 8 8 f8 0 1 $T2 $esp .cbLocals + .cbSavedRegs + = $T0 .raSearchStart = $eip $T0 ^ = $esp $T0 4 + = $ebp $T0 256 - ^ = $ebx $T0 252 - ^ =
STACK WIN 4 df06 c49 3 0 8 c f8 0 1 $T2 $esp .cbLocals + .cbSavedRegs + = $T0 .raSearchStart = $eip $T0 ^ = $esp $T0 4 + = $ebp $T0 256 - ^ = $ebx $T0 252 - ^ =
STACK WIN 4 df09 c45 0 0 8 10 f8 0 1 $T2 $esp .cbLocals + .cbSavedRegs + = $T0 .raSearchStart = $eip $T0 ^ = $esp $T0 4 + = $ebp $T0 256 - ^ = $ebx $T0 252 - ^ =
STACK WIN 4 eb70 127c 1c 0 8 0 158 0 1 $T2 $esp .cbLocals + .cbSavedRegs + = $T0 .raSearchStart = $eip $T0 ^ = $esp $T0 4 + =
STACK WIN 4 eb84 1261 8 0 8 4 158 0 1 $T2 $esp .cbLocals + .cbSavedRegs + = $T0 .raSearchStart = $eip $T0 ^ = $esp $T0 4 + = $ebx $T0 348 - ^ =
STACK WIN 4 eb87 1251 5 0 8 8 158 0 1 $T2 $esp .cbLocals + .cbSavedRegs + = $T0 .raSearchStart = $eip $T0 ^ = $esp $T0 4 + = $ebp $T0 352 - ^ = $ebx $T0 348 - ^ =
STACK WIN 4 eb88 124f 4 0 8 c 158 0 1 $T2 $esp .cbLocals + .cbSavedRegs + = $T0 .raSearchStart = $eip $T0 ^ = $esp $T0 4 + = $ebp $T0 352 - ^ = $ebx $T0 348 - ^ =
STACK WIN 4 eb8c 1244 0 0 8 10 158 0 1 $T2 $esp .cbLocals + .cbSavedRegs + = $T0 .raSearchStart = $eip $T0 ^ = $esp $T0 4 + = $ebp $T0 352 - ^ = $ebx $T0 348 - ^ =
STACK WIN 4 fdf0 6d e 0 8 0 24 0 1 $T2 $esp .cbLocals + .cbSavedRegs + = $T0 .raSearchStart = $eip $T0 ^ = $esp $T0 4 + =
STACK WIN 4 fe60 ada 16 0 c 0 10 0 1 $T2 $esp .cbLocals + .cbSavedRegs + = $T0 .raSearchStart = $eip $T0 ^ = $esp $T0 4 + =
STACK WIN 4 fe64 ad2 12 0 c 4 10 0 1 $T2 $esp .cbLocals + .cbSavedRegs + = $T0 .raSearchStart = $eip $T0 ^ = $esp $T0 4 + = $ebx $T0 20 - ^ =
STACK WIN 4 fe65 ace 11 0 c 8 10 0 1 $T2 $esp .cbLocals + .cbSavedRegs + = $T0 .raSearchStart = $eip $T0 ^ = $esp $T0 4 + = $ebp $T0 24 - ^ = $ebx $T0 20 - ^ =
STACK WIN 4 fe66 acc 10 0 c c 10 0 1 $T2 $esp .cbLocals + .cbSavedRegs + = $T0 .raSearchStart = $eip $T0 ^ = $esp $T0 4 + = $ebp $T0 24 - ^ = $ebx $T0 20 - ^ =
STACK WIN 4 fe76 abb 0 0 c 10 10 0 1 $T2 $esp .cbLocals + .cbSavedRegs + = $T0 .raSearchStart = $eip $T0 ^ = $esp $T0 4 + = $ebp $T0 24 - ^ = $ebx $T0 20 - ^ =
STACK WIN 4 10940 ada 16 0 c 0 10 0 1 $T2 $esp .cbLocals + .cbSavedRegs + = $T0 .raSearchStart = $eip $T0 ^ = $esp $T0 4 + =
STACK WIN 4 10944 ad2 12 0 c 4 10 0 1 $T2 $esp .cbLocals + .cbSavedRegs + = $T0 .raSearchStart = $eip $T0 ^ = $esp $T0 4 + = $ebx $T0 20 - ^ =
STACK WIN 4 10945 ace 11 0 c 8 10 0 1 $T2 $esp .cbLocals + .cbSavedRegs + = $T0 .raSearchStart = $eip $T0 ^ = $esp $T0 4 + = $ebp $T0 24 - ^ = $ebx $T0 20 - ^ =
STACK WIN 4 10946 acc 10 0 c c 10 0 1 $T2 $esp .cbLocals + .cbSavedRegs + = $T0 .raSearchStart = $eip $T0 ^ = $esp $T0 4 + = $ebp $T0 24 - ^ = $ebx $T0 20 - ^ =
STACK WIN 4 10956 abb 0 0 c 10 10 0 1 $T2 $esp .cbLocals + .cbSavedRegs + = $T0 .raSearchStart = $eip $T0 ^ = $esp $T0 4 + = $ebp $T0 24 - ^ = $ebx $T0 20 - ^ =
STACK WIN 4 11420 e88 16 0 c 0 10 0 1 $T2 $esp .cbLocals + .cbSavedRegs + = $T0 .raSearchStart = $eip $T0 ^ = $esp $T0 4 + =
STACK WIN 4 11424 e80 12 0 c 4 10 0 1 $T2 $esp .cbLocals + .cbSavedRegs + = $T0 .raSearchStart = $eip $T0 ^ = $esp $T0 4 + = $ebx $T0 20 - ^ =
STACK WIN 4 11425 e7c 11 0 c 8 10 0 1 $T2 $esp .cbLocals + .cbSavedRegs + = $T0 .raSearchStart = $eip $T0 ^ = $esp $T0 4 + = $ebp $T0 24 - ^ = $ebx $T0 20 - ^ =
STACK WIN 4 11426 e7a 10 0 c c 10 0 1 $T2 $esp .cbLocals + .cbSavedRegs + = $T0 .raSearchStart = $eip $T0 ^ = $esp $T0 4 + = $ebp $T0 24 - ^ = $ebx $T0 20 - ^ =
STACK WIN 4 11436 e69 0 0 c 10 10 0 1 $T2 $esp .cbLocals + .cbSavedRegs + = $T0 .raSearchStart = $eip $T0 ^ = $esp $T0 4 + = $ebp $T0 24 - ^ = $ebx $T0 20 - ^ =
STACK WIN 4 122c0 e88 16 0 c 0 10 0 1 $T2 $esp .cbLocals + .cbSavedRegs + = $T0 .raSearchStart = $eip $T0 ^ = $esp $T0 4 + =
STACK WIN 4 122c4 e80 12 0 c 4 10 0 1 $T2 $esp .cbLocals + .cbSavedRegs + = $T0 .raSearchStart = $eip $T0 ^ = $esp $T0 4 + = $ebx $T0 20 - ^ =
STACK WIN 4 122c5 e7c 11 0 c 8 10 0 1 $T2 $esp .cbLocals + .cbSavedRegs + = $T0 .raSearchStart = $eip $T0 ^ = $esp $T0 4 + = $ebp $T0 24 - ^ = $ebx $T0 20 - ^ =
STACK WIN 4 122c6 e7a 10 0 c c 10 0 1 $T2 $esp .cbLocals + .cbSavedRegs + = $T0 .raSearchStart = $eip $T0 ^ = $esp $T0 4 + = $ebp $T0 24 - ^ = $ebx $T0 20 - ^ =
STACK WIN 4 122d6 e69 0 0 c 10 10 0 1 $T2 $esp .cbLocals + .cbSavedRegs + = $T0 .raSearchStart = $eip $T0 ^ = $esp $T0 4 + = $ebp $T0 24 - ^ = $ebx $T0 20 - ^ =
STACK WIN 4 13150 55 0 0 c 0 0 0 1 $T2 $esp .cbLocals + .cbSavedRegs + = $T0 .raSearchStart = $eip $T0 ^ = $esp $T0 4 + =
STACK WIN 4 131b0 5c a 0 18 0 0 0 1 $T2 $esp .cbLocals + .cbSavedRegs + = $T0 .raSearchStart = $eip $T0 ^ = $esp $T0 4 + =
STACK WIN 4 131b1 5a 9 0 18 4 0 0 1 $T2 $esp .cbLocals + .cbSavedRegs + = $T0 .raSearchStart = $eip $T0 ^ = $esp $T0 4 + = $ebp $T0 4 - ^ =
STACK WIN 4 131ba 4e 0 0 18 8 0 0 1 $T2 $esp .cbLocals + .cbSavedRegs + = $T0 .raSearchStart = $eip $T0 ^ = $esp $T0 4 + = $ebp $T0 4 - ^ =
STACK WIN 4 131d8 2f 0 0 18 c 0 0 1 $T2 $esp .cbLocals + .cbSavedRegs + = $T0 .raSearchStart = $eip $T0 ^ = $esp $T0 4 + = $ebp $T0 4 - ^ = $ebx $T0 12 - ^ =
STACK WIN 4 131e0 26 0 0 18 10 0 0 1 $T2 $esp .cbLocals + .cbSavedRegs + = $T0 .raSearchStart = $eip $T0 ^ = $esp $T0 4 + = $ebp $T0 4 - ^ = $ebx $T0 12 - ^ =
STACK WIN 4 13210 111 e 0 18 0 28 0 1 $T2 $esp .cbLocals + .cbSavedRegs + = $T0 .raSearchStart = $eip $T0 ^ = $esp $T0 4 + =
STACK WIN 4 13240 d0 0 0 18 4 28 0 1 $T2 $esp .cbLocals + .cbSavedRegs + = $T0 .raSearchStart = $eip $T0 ^ = $esp $T0 4 + =
STACK WIN 4 13261 98 0 0 18 8 28 0 1 $T2 $esp .cbLocals + .cbSavedRegs + = $T0 .raSearchStart = $eip $T0 ^ = $esp $T0 4 + = $ebx $T0 48 - ^ =
STACK WIN 4 1326d 8b 0 0 18 c 28 0 1 $T2 $esp .cbLocals + .cbSavedRegs + = $T0 .raSearchStart = $eip $T0 ^ = $esp $T0 4 + = $ebp $T0 52 - ^ = $ebx $T0 48 - ^ =
STACK WIN 4 1326e 89 0 0 18 10 28 0 1 $T2 $esp .cbLocals + .cbSavedRegs + = $T0 .raSearchStart = $eip $T0 ^ = $esp $T0 4 + = $ebp $T0 52 - ^ = $ebx $T0 48 - ^ =
STACK WIN 4 13330 5c a 0 18 0 0 0 1 $T2 $esp .cbLocals + .cbSavedRegs + = $T0 .raSearchStart = $eip $T0 ^ = $esp $T0 4 + =
STACK WIN 4 13331 5a 9 0 18 4 0 0 1 $T2 $esp .cbLocals + .cbSavedRegs + = $T0 .raSearchStart = $eip $T0 ^ = $esp $T0 4 + = $ebp $T0 4 - ^ =
STACK WIN 4 1333a 4e 0 0 18 8 0 0 1 $T2 $esp .cbLocals + .cbSavedRegs + = $T0 .raSearchStart = $eip $T0 ^ = $esp $T0 4 + = $ebp $T0 4 - ^ =
STACK WIN 4 13358 2f 0 0 18 c 0 0 1 $T2 $esp .cbLocals + .cbSavedRegs + = $T0 .raSearchStart = $eip $T0 ^ = $esp $T0 4 + = $ebp $T0 4 - ^ = $ebx $T0 12 - ^ =
STACK WIN 4 13360 26 0 0 18 10 0 0 1 $T2 $esp .cbLocals + .cbSavedRegs + = $T0 .raSearchStart = $eip $T0 ^ = $esp $T0 4 + = $ebp $T0 4 - ^ = $ebx $T0 12 - ^ =
STACK WIN 4 13390 157 1e 0 18 0 20 0 1 $T2 $esp .cbLocals + .cbSavedRegs + = $T0 .raSearchStart = $eip $T0 ^ = $esp $T0 4 + =
STACK WIN 4 133a9 131 5 0 18 4 20 0 1 $T2 $esp .cbLocals + .cbSavedRegs + = $T0 .raSearchStart = $eip $T0 ^ = $esp $T0 4 + = $ebx $T0 36 - ^ =
STACK WIN 4 133ae 12b 0 0 18 8 20 0 1 $T2 $esp .cbLocals + .cbSavedRegs + = $T0 .raSearchStart = $eip $T0 ^ = $esp $T0 4 + = $ebx $T0 36 - ^ =
STACK WIN 4 133c4 110 0 0 18 c 20 0 1 $T2 $esp .cbLocals + .cbSavedRegs + = $T0 .raSearchStart = $eip $T0 ^ = $esp $T0 4 + = $ebx $T0 36 - ^ =
STACK WIN 4 1340a 5d 0 0 18 10 20 0 1 $T2 $esp .cbLocals + .cbSavedRegs + = $T0 .raSearchStart = $eip $T0 ^ = $esp $T0 4 + = $ebp $T0 48 - ^ = $ebx $T0 36 - ^ =
STACK WIN 4 134f0 e 0 0 0 0 0 0 1 $T2 $esp .cbLocals + .cbSavedRegs + = $T0 .raSearchStart = $eip $T0 ^ = $esp $T0 4 + =
STACK WIN 4 13500 b2 2 0 1c 0 0 0 1 $T2 $esp .cbLocals + .cbSavedRegs + = $T0 .raSearchStart = $eip $T0 ^ = $esp $T0 4 + =
STACK WIN 4 13501 b0 1 0 1c 4 0 0 1 $T2 $esp .cbLocals + .cbSavedRegs + = $T0 .raSearchStart = $eip $T0 ^ = $esp $T0 4 + =
STACK WIN 4 13502 ab 0 0 1c 8 0 0 1 $T2 $esp .cbLocals + .cbSavedRegs + = $T0 .raSearchStart = $eip $T0 ^ = $esp $T0 4 + =
STACK WIN 4 135c0 106 6 0 14 0 0 0 1 $T2 $esp .cbLocals + .cbSavedRegs + = $T0 .raSearchStart = $eip $T0 ^ = $esp $T0 4 + =
STACK WIN 4 135c6 ff 0 0 14 4 0 0 1 $T2 $esp .cbLocals + .cbSavedRegs + = $T0 .raSearchStart = $eip $T0 ^ = $esp $T0 4 + = $ebp $T0 4 - ^ =
STACK WIN 4 135e4 cf 0 0 14 8 0 0 1 $T2 $esp .cbLocals + .cbSavedRegs + = $T0 .raSearchStart = $eip $T0 ^ = $esp $T0 4 + = $ebp $T0 4 - ^ = $ebx $T0 8 - ^ =
STACK WIN 4 135eb c7 0 0 14 c 0 0 1 $T2 $esp .cbLocals + .cbSavedRegs + = $T0 .raSearchStart = $eip $T0 ^ = $esp $T0 4 + = $ebp $T0 4 - ^ = $ebx $T0 8 - ^ =
STACK WIN 4 1360e a3 0 0 14 10 0 0 1 $T2 $esp .cbLocals + .cbSavedRegs + = $T0 .raSearchStart = $eip $T0 ^ = $esp $T0 4 + = $ebp $T0 4 - ^ = $ebx $T0 8 - ^ =
STACK WIN 4 136d0 2b 1 0 8 0 0 0 1 $T2 $esp .cbLocals + .cbSavedRegs + = $T0 .raSearchStart = $eip $T0 ^ = $esp $T0 4 + =
STACK WIN 4 136d1 29 0 0 8 4 0 0 1 $T2 $esp .cbLocals + .cbSavedRegs + = $T0 .raSearchStart = $eip $T0 ^ = $esp $T0 4 + =
STACK WIN 4 13700 81 8 0 18 0 0 0 1 $T2 $esp .cbLocals + .cbSavedRegs + = $T0 .raSearchStart = $eip $T0 ^ = $esp $T0 4 + =
STACK WIN 4 13707 79 1 0 18 4 0 0 1 $T2 $esp .cbLocals + .cbSavedRegs + = $T0 .raSearchStart = $eip $T0 ^ = $esp $T0 4 + = $ebx $T0 4 - ^ =
STACK WIN 4 13708 74 0 0 18 8 0 0 1 $T2 $esp .cbLocals + .cbSavedRegs + = $T0 .raSearchStart = $eip $T0 ^ = $esp $T0 4 + = $ebx $T0 4 - ^ =
STACK WIN 4 1373e 2d 0 0 18 c 0 0 1 $T2 $esp .cbLocals + .cbSavedRegs + = $T0 .raSearchStart = $eip $T0 ^ = $esp $T0 4 + = $ebx $T0 4 - ^ =
STACK WIN 4 13790 49e e 0 8 0 74 0 1 $T2 $esp .cbLocals + .cbSavedRegs + = $T0 .raSearchStart = $eip $T0 ^ = $esp $T0 4 + =
STACK WIN 4 13794 496 a 0 8 4 74 0 1 $T2 $esp .cbLocals + .cbSavedRegs + = $T0 .raSearchStart = $eip $T0 ^ = $esp $T0 4 + = $ebx $T0 120 - ^ =
STACK WIN 4 1379e 488 0 0 8 8 74 0 1 $T2 $esp .cbLocals + .cbSavedRegs + = $T0 .raSearchStart = $eip $T0 ^ = $esp $T0 4 + = $ebp $T0 124 - ^ = $ebx $T0 120 - ^ =
STACK WIN 4 137c4 44e 0 0 8 c 74 0 1 $T2 $esp .cbLocals + .cbSavedRegs + = $T0 .raSearchStart = $eip $T0 ^ = $esp $T0 4 + = $ebp $T0 124 - ^ = $ebx $T0 120 - ^ =
STACK WIN 4 137f3 41e 0 0 8 10 74 0 1 $T2 $esp .cbLocals + .cbSavedRegs + = $T0 .raSearchStart = $eip $T0 ^ = $esp $T0 4 + = $ebp $T0 124 - ^ = $ebx $T0 120 - ^ =
STACK WIN 4 13c30 35b 4 0 8 0 44 0 1 $T2 $esp .cbLocals + .cbSavedRegs + = $T0 .raSearchStart = $eip $T0 ^ = $esp $T0 4 + =
STACK WIN 4 13c34 353 0 0 8 4 44 0 1 $T2 $esp .cbLocals + .cbSavedRegs + = $T0 .raSearchStart = $eip $T0 ^ = $esp $T0 4 + = $ebx $T0 72 - ^ =
STACK WIN 4 13c4f 322 0 0 8 8 44 0 1 $T2 $esp .cbLocals + .cbSavedRegs + = $T0 .raSearchStart = $eip $T0 ^ = $esp $T0 4 + = $ebp $T0 76 - ^ = $ebx $T0 72 - ^ =
STACK WIN 4 13c79 2f7 0 0 8 c 44 0 1 $T2 $esp .cbLocals + .cbSavedRegs + = $T0 .raSearchStart = $eip $T0 ^ = $esp $T0 4 + = $ebp $T0 76 - ^ = $ebx $T0 72 - ^ =
STACK WIN 4 13cb0 2bf 0 0 8 10 44 0 1 $T2 $esp .cbLocals + .cbSavedRegs + = $T0 .raSearchStart = $eip $T0 ^ = $esp $T0 4 + = $ebp $T0 76 - ^ = $ebx $T0 72 - ^ =
STACK WIN 4 13f90 250 6 0 14 0 44 0 1 $T2 $esp .cbLocals + .cbSavedRegs + = $T0 .raSearchStart = $eip $T0 ^ = $esp $T0 4 + =
STACK WIN 4 13f94 248 2 0 14 4 44 0 1 $T2 $esp .cbLocals + .cbSavedRegs + = $T0 .raSearchStart = $eip $T0 ^ = $esp $T0 4 + = $ebx $T0 72 - ^ =
STACK WIN 4 13f95 243 1 0 14 8 44 0 1 $T2 $esp .cbLocals + .cbSavedRegs + = $T0 .raSearchStart = $eip $T0 ^ = $esp $T0 4 + = $ebp $T0 76 - ^ = $ebx $T0 72 - ^ =
STACK WIN 4 13f96 241 0 0 14 c 44 0 1 $T2 $esp .cbLocals + .cbSavedRegs + = $T0 .raSearchStart = $eip $T0 ^ = $esp $T0 4 + = $ebp $T0 76 - ^ = $ebx $T0 72 - ^ =
STACK WIN 4 13fd7 1e9 0 0 14 10 44 0 1 $T2 $esp .cbLocals + .cbSavedRegs + = $T0 .raSearchStart = $eip $T0 ^ = $esp $T0 4 + = $ebp $T0 76 - ^ = $ebx $T0 72 - ^ =
STACK WIN 4 141e0 3e3 14 0 18 0 88 0 1 $T2 $esp .cbLocals + .cbSavedRegs + = $T0 .raSearchStart = $eip $T0 ^ = $esp $T0 4 + =
STACK WIN 4 141e7 3d5 d 0 18 4 88 0 1 $T2 $esp .cbLocals + .cbSavedRegs + = $T0 .raSearchStart = $eip $T0 ^ = $esp $T0 4 + = $ebp $T0 140 - ^ =
STACK WIN 4 141e8 3d0 c 0 18 8 88 0 1 $T2 $esp .cbLocals + .cbSavedRegs + = $T0 .raSearchStart = $eip $T0 ^ = $esp $T0 4 + = $ebp $T0 140 - ^ =
STACK WIN 4 141f4 3c3 0 0 18 c 88 0 1 $T2 $esp .cbLocals + .cbSavedRegs + = $T0 .raSearchStart = $eip $T0 ^ = $esp $T0 4 + = $ebp $T0 140 - ^ =
STACK WIN 4 14254 349 0 0 18 10 88 0 1 $T2 $esp .cbLocals + .cbSavedRegs + = $T0 .raSearchStart = $eip $T0 ^ = $esp $T0 4 + = $ebp $T0 140 - ^ = $ebx $T0 152 - ^ =
STACK WIN 4 145d0 1ed c 0 c 0 44 0 1 $T2 $esp .cbLocals + .cbSavedRegs + = $T0 .raSearchStart = $eip $T0 ^ = $esp $T0 4 + =
STACK WIN 4 145d4 1e5 8 0 c 4 44 0 1 $T2 $esp .cbLocals + .cbSavedRegs + = $T0 .raSearchStart = $eip $T0 ^ = $esp $T0 4 + = $ebx $T0 72 - ^ =
STACK WIN 4 145db 1da 1 0 c 8 44 0 1 $T2 $esp .cbLocals + .cbSavedRegs + = $T0 .raSearchStart = $eip $T0 ^ = $esp $T0 4 + = $ebp $T0 76 - ^ = $ebx $T0 72 - ^ =
STACK WIN 4 145dc 1d8 0 0 c c 44 0 1 $T2 $esp .cbLocals + .cbSavedRegs + = $T0 .raSearchStart = $eip $T0 ^ = $esp $T0 4 + = $ebp $T0 76 - ^ = $ebx $T0 72 - ^ =
STACK WIN 4 14607 191 0 0 c 10 44 0 1 $T2 $esp .cbLocals + .cbSavedRegs + = $T0 .raSearchStart = $eip $T0 ^ = $esp $T0 4 + = $ebp $T0 76 - ^ = $ebx $T0 72 - ^ =
STACK WIN 4 147c0 29 0 0 4 0 0 0 1 $T2 $esp .cbLocals + .cbSavedRegs + = $T0 .raSearchStart = $eip $T0 ^ = $esp $T0 4 + =
STACK WIN 4 147f0 361 17 0 14 0 a8 0 1 $T2 $esp .cbLocals + .cbSavedRegs + = $T0 .raSearchStart = $eip $T0 ^ = $esp $T0 4 + =
STACK WIN 4 147fe 34c 9 0 14 4 a8 0 1 $T2 $esp .cbLocals + .cbSavedRegs + = $T0 .raSearchStart = $eip $T0 ^ = $esp $T0 4 + = $ebx $T0 172 - ^ =
STACK WIN 4 14806 343 1 0 14 8 a8 0 1 $T2 $esp .cbLocals + .cbSavedRegs + = $T0 .raSearchStart = $eip $T0 ^ = $esp $T0 4 + = $ebp $T0 176 - ^ = $ebx $T0 172 - ^ =
STACK WIN 4 14807 341 0 0 14 c a8 0 1 $T2 $esp .cbLocals + .cbSavedRegs + = $T0 .raSearchStart = $eip $T0 ^ = $esp $T0 4 + = $ebp $T0 176 - ^ = $ebx $T0 172 - ^ =
STACK WIN 4 14852 2f5 0 0 14 10 a8 0 1 $T2 $esp .cbLocals + .cbSavedRegs + = $T0 .raSearchStart = $eip $T0 ^ = $esp $T0 4 + = $ebp $T0 176 - ^ = $ebx $T0 172 - ^ =
STACK WIN 4 14b60 2ca 4 0 10 0 10 0 1 $T2 $esp .cbLocals + .cbSavedRegs + = $T0 .raSearchStart = $eip $T0 ^ = $esp $T0 4 + =
STACK WIN 4 14b64 2c2 0 0 10 4 10 0 1 $T2 $esp .cbLocals + .cbSavedRegs + = $T0 .raSearchStart = $eip $T0 ^ = $esp $T0 4 + =
STACK WIN 4 14b9a 276 0 0 10 8 10 0 1 $T2 $esp .cbLocals + .cbSavedRegs + = $T0 .raSearchStart = $eip $T0 ^ = $esp $T0 4 + = $ebp $T0 24 - ^ =
STACK WIN 4 14bb7 258 0 0 10 c 10 0 1 $T2 $esp .cbLocals + .cbSavedRegs + = $T0 .raSearchStart = $eip $T0 ^ = $esp $T0 4 + = $ebp $T0 24 - ^ =
STACK WIN 4 14be1 22d 0 0 10 10 10 0 1 $T2 $esp .cbLocals + .cbSavedRegs + = $T0 .raSearchStart = $eip $T0 ^ = $esp $T0 4 + = $ebp $T0 24 - ^ = $ebx $T0 32 - ^ =
STACK WIN 4 14e30 5 0 0 10 0 0 0 1 $T2 $esp .cbLocals + .cbSavedRegs + = $T0 .raSearchStart = $eip $T0 ^ = $esp $T0 4 + =
STACK WIN 4 14e40 1ea 9 0 8 0 34 0 1 $T2 $esp .cbLocals + .cbSavedRegs + = $T0 .raSearchStart = $eip $T0 ^ = $esp $T0 4 + =
STACK WIN 4 14e44 1e2 5 0 8 4 34 0 1 $T2 $esp .cbLocals + .cbSavedRegs + = $T0 .raSearchStart = $eip $T0 ^ = $esp $T0 4 + = $ebx $T0 56 - ^ =
STACK WIN 4 14e45 1e0 4 0 8 8 34 0 1 $T2 $esp .cbLocals + .cbSavedRegs + = $T0 .raSearchStart = $eip $T0 ^ = $esp $T0 4 + = $ebp $T0 60 - ^ = $ebx $T0 56 - ^ =
STACK WIN 4 14e4a 1da 0 0 8 c 34 0 1 $T2 $esp .cbLocals + .cbSavedRegs + = $T0 .raSearchStart = $eip $T0 ^ = $esp $T0 4 + = $ebp $T0 60 - ^ = $ebx $T0 56 - ^ =
STACK WIN 4 14e4d 1d6 0 0 8 10 34 0 1 $T2 $esp .cbLocals + .cbSavedRegs + = $T0 .raSearchStart = $eip $T0 ^ = $esp $T0 4 + = $ebp $T0 60 - ^ = $ebx $T0 56 - ^ =
STACK WIN 4 15030 57 6 0 8 0 0 0 1 $T2 $esp .cbLocals + .cbSavedRegs + = $T0 .raSearchStart = $eip $T0 ^ = $esp $T0 4 + =
STACK WIN 4 15031 55 5 0 8 4 0 0 1 $T2 $esp .cbLocals + .cbSavedRegs + = $T0 .raSearchStart = $eip $T0 ^ = $esp $T0 4 + = $ebx $T0 4 - ^ =
STACK WIN 4 15036 4f 0 0 8 8 0 0 1 $T2 $esp .cbLocals + .cbSavedRegs + = $T0 .raSearchStart = $eip $T0 ^ = $esp $T0 4 + = $ebp $T0 8 - ^ = $ebx $T0 4 - ^ =
STACK WIN 4 15053 2f 0 0 8 c 0 0 1 $T2 $esp .cbLocals + .cbSavedRegs + = $T0 .raSearchStart = $eip $T0 ^ = $esp $T0 4 + = $ebp $T0 8 - ^ = $ebx $T0 4 - ^ =
STACK WIN 4 15057 2a 0 0 8 10 0 0 1 $T2 $esp .cbLocals + .cbSavedRegs + = $T0 .raSearchStart = $eip $T0 ^ = $esp $T0 4 + = $ebp $T0 8 - ^ = $ebx $T0 4 - ^ =
STACK WIN 4 15090 1cd 5 0 8 0 28 0 1 $T2 $esp .cbLocals + .cbSavedRegs + = $T0 .raSearchStart = $eip $T0 ^ = $esp $T0 4 + =
STACK WIN 4 15094 1c5 1 0 8 4 28 0 1 $T2 $esp .cbLocals + .cbSavedRegs + = $T0 .raSearchStart = $eip $T0 ^ = $esp $T0 4 + = $ebx $T0 44 - ^ =
STACK WIN 4 15095 1c0 0 0 8 8 28 0 1 $T2 $esp .cbLocals + .cbSavedRegs + = $T0 .raSearchStart = $eip $T0 ^ = $esp $T0 4 + = $ebp $T0 48 - ^ = $ebx $T0 44 - ^ =
STACK WIN 4 150bf 182 0 0 8 c 28 0 1 $T2 $esp .cbLocals + .cbSavedRegs + = $T0 .raSearchStart = $eip $T0 ^ = $esp $T0 4 + = $ebp $T0 48 - ^ = $ebx $T0 44 - ^ =
STACK WIN 4 15111 12f 0 0 8 10 28 0 1 $T2 $esp .cbLocals + .cbSavedRegs + = $T0 .raSearchStart = $eip $T0 ^ = $esp $T0 4 + = $ebp $T0 48 - ^ = $ebx $T0 44 - ^ =
STACK WIN 4 15260 1f4 d 0 14 0 34 0 1 $T2 $esp .cbLocals + .cbSavedRegs + = $T0 .raSearchStart = $eip $T0 ^ = $esp $T0 4 + =
STACK WIN 4 15266 1ea 7 0 14 4 34 0 1 $T2 $esp .cbLocals + .cbSavedRegs + = $T0 .raSearchStart = $eip $T0 ^ = $esp $T0 4 + = $ebx $T0 56 - ^ =
STACK WIN 4 1526d 1df 0 0 14 8 34 0 1 $T2 $esp .cbLocals + .cbSavedRegs + = $T0 .raSearchStart = $eip $T0 ^ = $esp $T0 4 + = $ebx $T0 56 - ^ =
STACK WIN 4 152af 189 0 0 14 c 34 0 1 $T2 $esp .cbLocals + .cbSavedRegs + = $T0 .raSearchStart = $eip $T0 ^ = $esp $T0 4 + = $ebp $T0 64 - ^ = $ebx $T0 56 - ^ =
STACK WIN 4 152b0 187 0 0 14 10 34 0 1 $T2 $esp .cbLocals + .cbSavedRegs + = $T0 .raSearchStart = $eip $T0 ^ = $esp $T0 4 + = $ebp $T0 64 - ^ = $ebx $T0 56 - ^ =
STACK WIN 4 15460 4fa e 0 14 0 78 0 1 $T2 $esp .cbLocals + .cbSavedRegs + = $T0 .raSearchStart = $eip $T0 ^ = $esp $T0 4 + =
STACK WIN 4 15464 4f2 a 0 14 4 78 0 1 $T2 $esp .cbLocals + .cbSavedRegs + = $T0 .raSearchStart = $eip $T0 ^ = $esp $T0 4 + = $ebx $T0 124 - ^ =
STACK WIN 4 1546c 4e9 2 0 14 8 78 0 1 $T2 $esp .cbLocals + .cbSavedRegs + = $T0 .raSearchStart = $eip $T0 ^ = $esp $T0 4 + = $ebp $T0 128 - ^ = $ebx $T0 124 - ^ =
STACK WIN 4 1546d 4e7 1 0 14 c 78 0 1 $T2 $esp .cbLocals + .cbSavedRegs + = $T0 .raSearchStart = $eip $T0 ^ = $esp $T0 4 + = $ebp $T0 128 - ^ = $ebx $T0 124 - ^ =
STACK WIN 4 1546e 4e5 0 0 14 10 78 0 1 $T2 $esp .cbLocals + .cbSavedRegs + = $T0 .raSearchStart = $eip $T0 ^ = $esp $T0 4 + = $ebp $T0 128 - ^ = $ebx $T0 124 - ^ =
STACK WIN 4 15960 5c 6 0 c 0 0 0 1 $T2 $esp .cbLocals + .cbSavedRegs + = $T0 .raSearchStart = $eip $T0 ^ = $esp $T0 4 + =
STACK WIN 4 15961 5a 5 0 c 4 0 0 1 $T2 $esp .cbLocals + .cbSavedRegs + = $T0 .raSearchStart = $eip $T0 ^ = $esp $T0 4 + = $ebx $T0 4 - ^ =
STACK WIN 4 15966 54 0 0 c 8 0 0 1 $T2 $esp .cbLocals + .cbSavedRegs + = $T0 .raSearchStart = $eip $T0 ^ = $esp $T0 4 + = $ebp $T0 8 - ^ = $ebx $T0 4 - ^ =
STACK WIN 4 15983 34 0 0 c c 0 0 1 $T2 $esp .cbLocals + .cbSavedRegs + = $T0 .raSearchStart = $eip $T0 ^ = $esp $T0 4 + = $ebp $T0 8 - ^ = $ebx $T0 4 - ^ =
STACK WIN 4 15987 2f 0 0 c 10 0 0 1 $T2 $esp .cbLocals + .cbSavedRegs + = $T0 .raSearchStart = $eip $T0 ^ = $esp $T0 4 + = $ebp $T0 8 - ^ = $ebx $T0 4 - ^ =
STACK WIN 4 159c0 4e3 11 0 c 0 90 0 1 $T2 $esp .cbLocals + .cbSavedRegs + = $T0 .raSearchStart = $eip $T0 ^ = $esp $T0 4 + =
STACK WIN 4 159ce 4ce 3 0 c 4 90 0 1 $T2 $esp .cbLocals + .cbSavedRegs + = $T0 .raSearchStart = $eip $T0 ^ = $esp $T0 4 + = $ebx $T0 148 - ^ =
STACK WIN 4 159cf 4cc 2 0 c 8 90 0 1 $T2 $esp .cbLocals + .cbSavedRegs + = $T0 .raSearchStart = $eip $T0 ^ = $esp $T0 4 + = $ebp $T0 152 - ^ = $ebx $T0 148 - ^ =
STACK WIN 4 159d0 4ca 1 0 c c 90 0 1 $T2 $esp .cbLocals + .cbSavedRegs + = $T0 .raSearchStart = $eip $T0 ^ = $esp $T0 4 + = $ebp $T0 152 - ^ = $ebx $T0 148 - ^ =
STACK WIN 4 159d1 4c8 0 0 c 10 90 0 1 $T2 $esp .cbLocals + .cbSavedRegs + = $T0 .raSearchStart = $eip $T0 ^ = $esp $T0 4 + = $ebp $T0 152 - ^ = $ebx $T0 148 - ^ =
STACK WIN 4 15eb0 47 3 0 0 0 0 0 1 $T2 $esp .cbLocals + .cbSavedRegs + = $T0 .raSearchStart = $eip $T0 ^ = $esp $T0 4 + =
STACK WIN 4 15eb1 45 2 0 0 4 0 0 1 $T2 $esp .cbLocals + .cbSavedRegs + = $T0 .raSearchStart = $eip $T0 ^ = $esp $T0 4 + =
STACK WIN 4 15f00 83 0 0 4 0 0 0 1 $T2 $esp .cbLocals + .cbSavedRegs + = $T0 .raSearchStart = $eip $T0 ^ = $esp $T0 4 + =
STACK WIN 4 15f90 236 8 0 c 0 50 0 1 $T2 $esp .cbLocals + .cbSavedRegs + = $T0 .raSearchStart = $eip $T0 ^ = $esp $T0 4 + =
STACK WIN 4 15f94 22e 4 0 c 4 50 0 1 $T2 $esp .cbLocals + .cbSavedRegs + = $T0 .raSearchStart = $eip $T0 ^ = $esp $T0 4 + = $ebp $T0 84 - ^ =
STACK WIN 4 15f99 228 0 0 c 8 50 0 1 $T2 $esp .cbLocals + .cbSavedRegs + = $T0 .raSearchStart = $eip $T0 ^ = $esp $T0 4 + = $ebp $T0 84 - ^ =
STACK WIN 4 15f9a 226 0 0 c c 50 0 1 $T2 $esp .cbLocals + .cbSavedRegs + = $T0 .raSearchStart = $eip $T0 ^ = $esp $T0 4 + = $ebp $T0 84 - ^ =
STACK WIN 4 161d0 1bb 1e 0 8 0 40 0 1 $T2 $esp .cbLocals + .cbSavedRegs + = $T0 .raSearchStart = $eip $T0 ^ = $esp $T0 4 + =
STACK WIN 4 161df 1a1 f 0 8 4 40 0 1 $T2 $esp .cbLocals + .cbSavedRegs + = $T0 .raSearchStart = $eip $T0 ^ = $esp $T0 4 + = $ebx $T0 68 - ^ =
STACK WIN 4 161e0 19f e 0 8 8 40 0 1 $T2 $esp .cbLocals + .cbSavedRegs + = $T0 .raSearchStart = $eip $T0 ^ = $esp $T0 4 + = $ebp $T0 72 - ^ = $ebx $T0 68 - ^ =
STACK WIN 4 161e5 199 9 0 8 c 40 0 1 $T2 $esp .cbLocals + .cbSavedRegs + = $T0 .raSearchStart = $eip $T0 ^ = $esp $T0 4 + = $ebp $T0 72 - ^ = $ebx $T0 68 - ^ =
STACK WIN 4 161ee 18f 0 0 8 10 40 0 1 $T2 $esp .cbLocals + .cbSavedRegs + = $T0 .raSearchStart = $eip $T0 ^ = $esp $T0 4 + = $ebp $T0 72 - ^ = $ebx $T0 68 - ^ =
STACK WIN 4 16390 41b 28 0 10 0 94 0 1 $T2 $esp .cbLocals + .cbSavedRegs + = $T0 .raSearchStart = $eip $T0 ^ = $esp $T0 4 + =
STACK WIN 4 163ac 3f1 c 0 10 4 94 0 1 $T2 $esp .cbLocals + .cbSavedRegs + = $T0 .raSearchStart = $eip $T0 ^ = $esp $T0 4 + = $ebx $T0 152 - ^ =
STACK WIN 4 163ad 3ed b 0 10 8 94 0 1 $T2 $esp .cbLocals + .cbSavedRegs + = $T0 .raSearchStart = $eip $T0 ^ = $esp $T0 4 + = $ebp $T0 156 - ^ = $ebx $T0 152 - ^ =
STACK WIN 4 163b8 3e1 0 0 10 c 94 0 1 $T2 $esp .cbLocals + .cbSavedRegs + = $T0 .raSearchStart = $eip $T0 ^ = $esp $T0 4 + = $ebp $T0 156 - ^ = $ebx $T0 152 - ^ =
STACK WIN 4 1647b 219 0 0 10 10 94 0 1 $T2 $esp .cbLocals + .cbSavedRegs + = $T0 .raSearchStart = $eip $T0 ^ = $esp $T0 4 + = $ebp $T0 156 - ^ = $ebx $T0 152 - ^ =
STACK WIN 4 167b0 195 c 0 c 0 24 0 1 $T2 $esp .cbLocals + .cbSavedRegs + = $T0 .raSearchStart = $eip $T0 ^ = $esp $T0 4 + =
STACK WIN 4 167bc 185 0 0 c 4 24 0 1 $T2 $esp .cbLocals + .cbSavedRegs + = $T0 .raSearchStart = $eip $T0 ^ = $esp $T0 4 + =
STACK WIN 4 16950 5cd c 0 10 0 74 0 1 $T2 $esp .cbLocals + .cbSavedRegs + = $T0 .raSearchStart = $eip $T0 ^ = $esp $T0 4 + =
STACK WIN 4 16954 5c5 8 0 10 4 74 0 1 $T2 $esp .cbLocals + .cbSavedRegs + = $T0 .raSearchStart = $eip $T0 ^ = $esp $T0 4 + = $ebx $T0 120 - ^ =
STACK WIN 4 16959 5bc 3 0 10 8 74 0 1 $T2 $esp .cbLocals + .cbSavedRegs + = $T0 .raSearchStart = $eip $T0 ^ = $esp $T0 4 + = $ebp $T0 124 - ^ = $ebx $T0 120 - ^ =
STACK WIN 4 1695c 5b8 0 0 10 c 74 0 1 $T2 $esp .cbLocals + .cbSavedRegs + = $T0 .raSearchStart = $eip $T0 ^ = $esp $T0 4 + = $ebp $T0 124 - ^ = $ebx $T0 120 - ^ =
STACK WIN 4 1699d 560 0 0 10 10 74 0 1 $T2 $esp .cbLocals + .cbSavedRegs + = $T0 .raSearchStart = $eip $T0 ^ = $esp $T0 4 + = $ebp $T0 124 - ^ = $ebx $T0 120 - ^ =
STACK WIN 4 16f20 4de 9 0 c 0 88 0 1 $T2 $esp .cbLocals + .cbSavedRegs + = $T0 .raSearchStart = $eip $T0 ^ = $esp $T0 4 + =
STACK WIN 4 16f27 4d0 2 0 c 4 88 0 1 $T2 $esp .cbLocals + .cbSavedRegs + = $T0 .raSearchStart = $eip $T0 ^ = $esp $T0 4 + = $ebx $T0 140 - ^ =
STACK WIN 4 16f28 4cb 1 0 c 8 88 0 1 $T2 $esp .cbLocals + .cbSavedRegs + = $T0 .raSearchStart = $eip $T0 ^ = $esp $T0 4 + = $ebp $T0 144 - ^ = $ebx $T0 140 - ^ =
STACK WIN 4 16f29 4c9 0 0 c c 88 0 1 $T2 $esp .cbLocals + .cbSavedRegs + = $T0 .raSearchStart = $eip $T0 ^ = $esp $T0 4 + = $ebp $T0 144 - ^ = $ebx $T0 140 - ^ =
STACK WIN 4 16f87 453 0 0 c 10 88 0 1 $T2 $esp .cbLocals + .cbSavedRegs + = $T0 .raSearchStart = $eip $T0 ^ = $esp $T0 4 + = $ebp $T0 144 - ^ = $ebx $T0 140 - ^ =
STACK WIN 4 17400 46 1 0 4 0 0 0 1 $T2 $esp .cbLocals + .cbSavedRegs + = $T0 .raSearchStart = $eip $T0 ^ = $esp $T0 4 + =
STACK WIN 4 17401 44 0 0 4 4 0 0 1 $T2 $esp .cbLocals + .cbSavedRegs + = $T0 .raSearchStart = $eip $T0 ^ = $esp $T0 4 + =
STACK WIN 4 17450 3b 1 0 4 0 0 0 1 $T2 $esp .cbLocals + .cbSavedRegs + = $T0 .raSearchStart = $eip $T0 ^ = $esp $T0 4 + =
STACK WIN 4 17451 39 0 0 4 4 0 0 1 $T2 $esp .cbLocals + .cbSavedRegs + = $T0 .raSearchStart = $eip $T0 ^ = $esp $T0 4 + =
STACK WIN 4 17490 40 0 0 c 0 0 0 1 $T2 $esp .cbLocals + .cbSavedRegs + = $T0 .raSearchStart = $eip $T0 ^ = $esp $T0 4 + =
STACK WIN 4 174d0 14b 5 0 c 0 30 0 1 $T2 $esp .cbLocals + .cbSavedRegs + = $T0 .raSearchStart = $eip $T0 ^ = $esp $T0 4 + =
STACK WIN 4 174d4 143 1 0 c 4 30 0 1 $T2 $esp .cbLocals + .cbSavedRegs + = $T0 .raSearchStart = $eip $T0 ^ = $esp $T0 4 + =
STACK WIN 4 174d5 141 0 0 c 8 30 0 1 $T2 $esp .cbLocals + .cbSavedRegs + = $T0 .raSearchStart = $eip $T0 ^ = $esp $T0 4 + =
STACK WIN 4 17620 1f d 0 c 0 0 0 1 $T2 $esp .cbLocals + .cbSavedRegs + = $T0 .raSearchStart = $eip $T0 ^ = $esp $T0 4 + =
STACK WIN 4 1762d 11 0 0 c 4 0 0 1 $T2 $esp .cbLocals + .cbSavedRegs + = $T0 .raSearchStart = $eip $T0 ^ = $esp $T0 4 + = $ebx $T0 4 - ^ =
STACK WIN 4 17640 11 0 0 18 0 0 0 1 $T2 $esp .cbLocals + .cbSavedRegs + = $T0 .raSearchStart = $eip $T0 ^ = $esp $T0 4 + =
STACK WIN 4 17660 9d 8 0 c 0 c 0 1 $T2 $esp .cbLocals + .cbSavedRegs + = $T0 .raSearchStart = $eip $T0 ^ = $esp $T0 4 + =
STACK WIN 4 17664 95 4 0 c 4 c 0 1 $T2 $esp .cbLocals + .cbSavedRegs + = $T0 .raSearchStart = $eip $T0 ^ = $esp $T0 4 + = $ebx $T0 16 - ^ =
STACK WIN 4 17668 90 0 0 c 8 c 0 1 $T2 $esp .cbLocals + .cbSavedRegs + = $T0 .raSearchStart = $eip $T0 ^ = $esp $T0 4 + = $ebx $T0 16 - ^ =
STACK WIN 4 176be 39 0 0 c c c 0 1 $T2 $esp .cbLocals + .cbSavedRegs + = $T0 .raSearchStart = $eip $T0 ^ = $esp $T0 4 + = $ebx $T0 16 - ^ =
STACK WIN 4 17700 45 0 0 0 0 0 0 1 $T2 $esp .cbLocals + .cbSavedRegs + = $T0 .raSearchStart = $eip $T0 ^ = $esp $T0 4 + =
STACK WIN 4 17750 2b6 8 0 c 0 40 0 1 $T2 $esp .cbLocals + .cbSavedRegs + = $T0 .raSearchStart = $eip $T0 ^ = $esp $T0 4 + =
STACK WIN 4 17754 2ae 4 0 c 4 40 0 1 $T2 $esp .cbLocals + .cbSavedRegs + = $T0 .raSearchStart = $eip $T0 ^ = $esp $T0 4 + = $ebp $T0 68 - ^ =
STACK WIN 4 17759 2a5 0 0 c 8 40 0 1 $T2 $esp .cbLocals + .cbSavedRegs + = $T0 .raSearchStart = $eip $T0 ^ = $esp $T0 4 + = $ebp $T0 68 - ^ =
STACK WIN 4 17783 265 0 0 c c 40 0 1 $T2 $esp .cbLocals + .cbSavedRegs + = $T0 .raSearchStart = $eip $T0 ^ = $esp $T0 4 + = $ebp $T0 68 - ^ = $ebx $T0 76 - ^ =
STACK WIN 4 177ae 239 0 0 c 10 40 0 1 $T2 $esp .cbLocals + .cbSavedRegs + = $T0 .raSearchStart = $eip $T0 ^ = $esp $T0 4 + = $ebp $T0 68 - ^ = $ebx $T0 76 - ^ =
STACK WIN 4 17a10 de 8 0 c 0 0 0 1 $T2 $esp .cbLocals + .cbSavedRegs + = $T0 .raSearchStart = $eip $T0 ^ = $esp $T0 4 + =
STACK WIN 4 17a11 dc 7 0 c 4 0 0 1 $T2 $esp .cbLocals + .cbSavedRegs + = $T0 .raSearchStart = $eip $T0 ^ = $esp $T0 4 + = $ebx $T0 4 - ^ =
STACK WIN 4 17a18 d1 0 0 c 8 0 0 1 $T2 $esp .cbLocals + .cbSavedRegs + = $T0 .raSearchStart = $eip $T0 ^ = $esp $T0 4 + = $ebp $T0 8 - ^ = $ebx $T0 4 - ^ =
STACK WIN 4 17a48 8e 0 0 c c 0 0 1 $T2 $esp .cbLocals + .cbSavedRegs + = $T0 .raSearchStart = $eip $T0 ^ = $esp $T0 4 + = $ebp $T0 8 - ^ = $ebx $T0 4 - ^ =
STACK WIN 4 17a67 6e 0 0 c 10 0 0 1 $T2 $esp .cbLocals + .cbSavedRegs + = $T0 .raSearchStart = $eip $T0 ^ = $esp $T0 4 + = $ebp $T0 8 - ^ = $ebx $T0 4 - ^ =
STACK WIN 4 17af0 6f 5 0 8 0 c 0 1 $T2 $esp .cbLocals + .cbSavedRegs + = $T0 .raSearchStart = $eip $T0 ^ = $esp $T0 4 + =
STACK WIN 4 17af4 67 1 0 8 4 c 0 1 $T2 $esp .cbLocals + .cbSavedRegs + = $T0 .raSearchStart = $eip $T0 ^ = $esp $T0 4 + =
STACK WIN 4 17af5 63 0 0 8 8 c 0 1 $T2 $esp .cbLocals + .cbSavedRegs + = $T0 .raSearchStart = $eip $T0 ^ = $esp $T0 4 + =
STACK WIN 4 17b60 2b 3 0 c 0 c 0 1 $T2 $esp .cbLocals + .cbSavedRegs + = $T0 .raSearchStart = $eip $T0 ^ = $esp $T0 4 + =
STACK WIN 4 17b90 383 10 0 c 0 74 0 1 $T2 $esp .cbLocals + .cbSavedRegs + = $T0 .raSearchStart = $eip $T0 ^ = $esp $T0 4 + =
STACK WIN 4 17b94 37b c 0 c 4 74 0 1 $T2 $esp .cbLocals + .cbSavedRegs + = $T0 .raSearchStart = $eip $T0 ^ = $esp $T0 4 + = $ebx $T0 120 - ^ =
STACK WIN 4 17b99 372 7 0 c 8 74 0 1 $T2 $esp .cbLocals + .cbSavedRegs + = $T0 .raSearchStart = $eip $T0 ^ = $esp $T0 4 + = $ebp $T0 124 - ^ = $ebx $T0 120 - ^ =
STACK WIN 4 17bda 31d 0 0 c c 74 0 1 $T2 $esp .cbLocals + .cbSavedRegs + = $T0 .raSearchStart = $eip $T0 ^ = $esp $T0 4 + = $ebp $T0 124 - ^ = $ebx $T0 120 - ^ =
STACK WIN 4 17f20 e9 1a 0 c 0 20 0 1 $T2 $esp .cbLocals + .cbSavedRegs + = $T0 .raSearchStart = $eip $T0 ^ = $esp $T0 4 + =
STACK WIN 4 17f33 cb 7 0 c 4 20 0 1 $T2 $esp .cbLocals + .cbSavedRegs + = $T0 .raSearchStart = $eip $T0 ^ = $esp $T0 4 + = $ebx $T0 36 - ^ =
STACK WIN 4 17f34 c9 6 0 c 8 20 0 1 $T2 $esp .cbLocals + .cbSavedRegs + = $T0 .raSearchStart = $eip $T0 ^ = $esp $T0 4 + = $ebp $T0 40 - ^ = $ebx $T0 36 - ^ =
STACK WIN 4 17f39 c3 1 0 c c 20 0 1 $T2 $esp .cbLocals + .cbSavedRegs + = $T0 .raSearchStart = $eip $T0 ^ = $esp $T0 4 + = $ebp $T0 40 - ^ = $ebx $T0 36 - ^ =
STACK WIN 4 17f3a c1 0 0 c 10 20 0 1 $T2 $esp .cbLocals + .cbSavedRegs + = $T0 .raSearchStart = $eip $T0 ^ = $esp $T0 4 + = $ebp $T0 40 - ^ = $ebx $T0 36 - ^ =
STACK WIN 4 18010 1e d 0 10 0 0 0 1 $T2 $esp .cbLocals + .cbSavedRegs + = $T0 .raSearchStart = $eip $T0 ^ = $esp $T0 4 + =
STACK WIN 4 1801d 10 0 0 10 4 0 0 1 $T2 $esp .cbLocals + .cbSavedRegs + = $T0 .raSearchStart = $eip $T0 ^ = $esp $T0 4 + =
STACK WIN 4 18030 49d 9 0 c 0 a4 0 1 $T2 $esp .cbLocals + .cbSavedRegs + = $T0 .raSearchStart = $eip $T0 ^ = $esp $T0 4 + =
STACK WIN 4 18037 48f 2 0 c 4 a4 0 1 $T2 $esp .cbLocals + .cbSavedRegs + = $T0 .raSearchStart = $eip $T0 ^ = $esp $T0 4 + = $ebx $T0 168 - ^ =
STACK WIN 4 18038 48a 1 0 c 8 a4 0 1 $T2 $esp .cbLocals + .cbSavedRegs + = $T0 .raSearchStart = $eip $T0 ^ = $esp $T0 4 + = $ebp $T0 172 - ^ = $ebx $T0 168 - ^ =
STACK WIN 4 18039 488 0 0 c c a4 0 1 $T2 $esp .cbLocals + .cbSavedRegs + = $T0 .raSearchStart = $eip $T0 ^ = $esp $T0 4 + = $ebp $T0 172 - ^ = $ebx $T0 168 - ^ =
STACK WIN 4 1808c 41d 0 0 c 10 a4 0 1 $T2 $esp .cbLocals + .cbSavedRegs + = $T0 .raSearchStart = $eip $T0 ^ = $esp $T0 4 + = $ebp $T0 172 - ^ = $ebx $T0 168 - ^ =
STACK WIN 4 184d0 56b 9 0 1c 0 54 0 1 $T2 $esp .cbLocals + .cbSavedRegs + = $T0 .raSearchStart = $eip $T0 ^ = $esp $T0 4 + =
STACK WIN 4 184d4 563 5 0 1c 4 54 0 1 $T2 $esp .cbLocals + .cbSavedRegs + = $T0 .raSearchStart = $eip $T0 ^ = $esp $T0 4 + = $ebx $T0 88 - ^ =
STACK WIN 4 184d5 561 4 0 1c 8 54 0 1 $T2 $esp .cbLocals + .cbSavedRegs + = $T0 .raSearchStart = $eip $T0 ^ = $esp $T0 4 + = $ebp $T0 92 - ^ = $ebx $T0 88 - ^ =
STACK WIN 4 184e0 555 0 0 1c c 54 0 1 $T2 $esp .cbLocals + .cbSavedRegs + = $T0 .raSearchStart = $eip $T0 ^ = $esp $T0 4 + = $ebp $T0 92 - ^ = $ebx $T0 88 - ^ =
STACK WIN 4 18a40 10c 5 0 0 0 c 0 1 $T2 $esp .cbLocals + .cbSavedRegs + = $T0 .raSearchStart = $eip $T0 ^ = $esp $T0 4 + =
STACK WIN 4 18a44 104 1 0 0 4 c 0 1 $T2 $esp .cbLocals + .cbSavedRegs + = $T0 .raSearchStart = $eip $T0 ^ = $esp $T0 4 + = $ebp $T0 16 - ^ =
STACK WIN 4 18a45 102 0 0 0 8 c 0 1 $T2 $esp .cbLocals + .cbSavedRegs + = $T0 .raSearchStart = $eip $T0 ^ = $esp $T0 4 + = $ebp $T0 16 - ^ =
STACK WIN 4 18b50 2e3 9 0 8 0 4c 0 1 $T2 $esp .cbLocals + .cbSavedRegs + = $T0 .raSearchStart = $eip $T0 ^ = $esp $T0 4 + =
STACK WIN 4 18b58 2d7 1 0 8 4 4c 0 1 $T2 $esp .cbLocals + .cbSavedRegs + = $T0 .raSearchStart = $eip $T0 ^ = $esp $T0 4 + = $ebp $T0 80 - ^ =
STACK WIN 4 18b59 2d3 0 0 8 8 4c 0 1 $T2 $esp .cbLocals + .cbSavedRegs + = $T0 .raSearchStart = $eip $T0 ^ = $esp $T0 4 + = $ebp $T0 80 - ^ =
STACK WIN 4 18ba6 272 0 0 8 c 4c 0 1 $T2 $esp .cbLocals + .cbSavedRegs + = $T0 .raSearchStart = $eip $T0 ^ = $esp $T0 4 + = $ebp $T0 80 - ^ = $ebx $T0 88 - ^ =
STACK WIN 4 18bd4 243 0 0 8 10 4c 0 1 $T2 $esp .cbLocals + .cbSavedRegs + = $T0 .raSearchStart = $eip $T0 ^ = $esp $T0 4 + = $ebp $T0 80 - ^ = $ebx $T0 88 - ^ =
STACK WIN 4 18e40 21 1 0 4 0 0 0 1 $T2 $esp .cbLocals + .cbSavedRegs + = $T0 .raSearchStart = $eip $T0 ^ = $esp $T0 4 + =
STACK WIN 4 18e41 1f 0 0 4 4 0 0 1 $T2 $esp .cbLocals + .cbSavedRegs + = $T0 .raSearchStart = $eip $T0 ^ = $esp $T0 4 + =
STACK WIN 4 18e70 553 f 0 18 0 74 0 1 $T2 $esp .cbLocals + .cbSavedRegs + = $T0 .raSearchStart = $eip $T0 ^ = $esp $T0 4 + =
STACK WIN 4 18e74 54b b 0 18 4 74 0 1 $T2 $esp .cbLocals + .cbSavedRegs + = $T0 .raSearchStart = $eip $T0 ^ = $esp $T0 4 + = $ebx $T0 120 - ^ =
STACK WIN 4 18e75 549 a 0 18 8 74 0 1 $T2 $esp .cbLocals + .cbSavedRegs + = $T0 .raSearchStart = $eip $T0 ^ = $esp $T0 4 + = $ebp $T0 124 - ^ = $ebx $T0 120 - ^ =
STACK WIN 4 18e7d 540 2 0 18 c 74 0 1 $T2 $esp .cbLocals + .cbSavedRegs + = $T0 .raSearchStart = $eip $T0 ^ = $esp $T0 4 + = $ebp $T0 124 - ^ = $ebx $T0 120 - ^ =
STACK WIN 4 18e80 53a 0 0 18 10 74 0 1 $T2 $esp .cbLocals + .cbSavedRegs + = $T0 .raSearchStart = $eip $T0 ^ = $esp $T0 4 + = $ebp $T0 124 - ^ = $ebx $T0 120 - ^ =
STACK WIN 4 193d0 3c0 1a 0 4 0 78 0 1 $T2 $esp .cbLocals + .cbSavedRegs + = $T0 .raSearchStart = $eip $T0 ^ = $esp $T0 4 + =
STACK WIN 4 193d4 3b8 16 0 4 4 78 0 1 $T2 $esp .cbLocals + .cbSavedRegs + = $T0 .raSearchStart = $eip $T0 ^ = $esp $T0 4 + = $ebx $T0 124 - ^ =
STACK WIN 4 193d5 3b6 15 0 4 8 78 0 1 $T2 $esp .cbLocals + .cbSavedRegs + = $T0 .raSearchStart = $eip $T0 ^ = $esp $T0 4 + = $ebp $T0 128 - ^ = $ebx $T0 124 - ^ =
STACK WIN 4 193dd 3ad d 0 4 c 78 0 1 $T2 $esp .cbLocals + .cbSavedRegs + = $T0 .raSearchStart = $eip $T0 ^ = $esp $T0 4 + = $ebp $T0 128 - ^ = $ebx $T0 124 - ^ =
STACK WIN 4 193ea 39f 0 0 4 10 78 0 1 $T2 $esp .cbLocals + .cbSavedRegs + = $T0 .raSearchStart = $eip $T0 ^ = $esp $T0 4 + = $ebp $T0 128 - ^ = $ebx $T0 124 - ^ =
STACK WIN 4 19790 2e2 5 0 c 0 44 0 1 $T2 $esp .cbLocals + .cbSavedRegs + = $T0 .raSearchStart = $eip $T0 ^ = $esp $T0 4 + =
STACK WIN 4 19794 2da 1 0 c 4 44 0 1 $T2 $esp .cbLocals + .cbSavedRegs + = $T0 .raSearchStart = $eip $T0 ^ = $esp $T0 4 + = $ebx $T0 72 - ^ =
STACK WIN 4 19795 2d5 0 0 c 8 44 0 1 $T2 $esp .cbLocals + .cbSavedRegs + = $T0 .raSearchStart = $eip $T0 ^ = $esp $T0 4 + = $ebx $T0 72 - ^ =
STACK WIN 4 197c0 294 0 0 c c 44 0 1 $T2 $esp .cbLocals + .cbSavedRegs + = $T0 .raSearchStart = $eip $T0 ^ = $esp $T0 4 + = $ebx $T0 72 - ^ =
STACK WIN 4 19833 187 0 0 c 10 44 0 1 $T2 $esp .cbLocals + .cbSavedRegs + = $T0 .raSearchStart = $eip $T0 ^ = $esp $T0 4 + = $ebp $T0 100 - ^ = $ebx $T0 72 - ^ =
STACK WIN 4 19a80 d7 9 0 c 0 10 0 1 $T2 $esp .cbLocals + .cbSavedRegs + = $T0 .raSearchStart = $eip $T0 ^ = $esp $T0 4 + =
STACK WIN 4 19a84 cf 5 0 c 4 10 0 1 $T2 $esp .cbLocals + .cbSavedRegs + = $T0 .raSearchStart = $eip $T0 ^ = $esp $T0 4 + = $ebx $T0 20 - ^ =
STACK WIN 4 19a89 c7 0 0 c 8 10 0 1 $T2 $esp .cbLocals + .cbSavedRegs + = $T0 .raSearchStart = $eip $T0 ^ = $esp $T0 4 + = $ebx $T0 20 - ^ =
STACK WIN 4 19b60 3a3 12 0 8 0 90 0 1 $T2 $esp .cbLocals + .cbSavedRegs + = $T0 .raSearchStart = $eip $T0 ^ = $esp $T0 4 + =
STACK WIN 4 19b67 395 b 0 8 4 90 0 1 $T2 $esp .cbLocals + .cbSavedRegs + = $T0 .raSearchStart = $eip $T0 ^ = $esp $T0 4 + = $ebx $T0 148 - ^ =
STACK WIN 4 19b68 393 a 0 8 8 90 0 1 $T2 $esp .cbLocals + .cbSavedRegs + = $T0 .raSearchStart = $eip $T0 ^ = $esp $T0 4 + = $ebp $T0 152 - ^ = $ebx $T0 148 - ^ =
STACK WIN 4 19b70 38a 2 0 8 c 90 0 1 $T2 $esp .cbLocals + .cbSavedRegs + = $T0 .raSearchStart = $eip $T0 ^ = $esp $T0 4 + = $ebp $T0 152 - ^ = $ebx $T0 148 - ^ =
STACK WIN 4 19b73 386 0 0 8 10 90 0 1 $T2 $esp .cbLocals + .cbSavedRegs + = $T0 .raSearchStart = $eip $T0 ^ = $esp $T0 4 + = $ebp $T0 152 - ^ = $ebx $T0 148 - ^ =
STACK WIN 4 19f10 177 b 0 8 0 30 0 1 $T2 $esp .cbLocals + .cbSavedRegs + = $T0 .raSearchStart = $eip $T0 ^ = $esp $T0 4 + =
STACK WIN 4 19f14 16f 7 0 8 4 30 0 1 $T2 $esp .cbLocals + .cbSavedRegs + = $T0 .raSearchStart = $eip $T0 ^ = $esp $T0 4 + = $ebx $T0 52 - ^ =
STACK WIN 4 19f1b 165 0 0 8 8 30 0 1 $T2 $esp .cbLocals + .cbSavedRegs + = $T0 .raSearchStart = $eip $T0 ^ = $esp $T0 4 + = $ebx $T0 52 - ^ =
STACK WIN 4 1a090 4f 0 0 0 0 0 0 1 $T2 $esp .cbLocals + .cbSavedRegs + = $T0 .raSearchStart = $eip $T0 ^ = $esp $T0 4 + =
STACK WIN 4 1a0e0 1ab c 0 10 0 24 0 1 $T2 $esp .cbLocals + .cbSavedRegs + = $T0 .raSearchStart = $eip $T0 ^ = $esp $T0 4 + =
STACK WIN 4 1a0e4 1a3 8 0 10 4 24 0 1 $T2 $esp .cbLocals + .cbSavedRegs + = $T0 .raSearchStart = $eip $T0 ^ = $esp $T0 4 + = $ebp $T0 40 - ^ =
STACK WIN 4 1a0e9 19d 3 0 10 8 24 0 1 $T2 $esp .cbLocals + .cbSavedRegs + = $T0 .raSearchStart = $eip $T0 ^ = $esp $T0 4 + = $ebp $T0 40 - ^ =
STACK WIN 4 1a0ea 19b 2 0 10 c 24 0 1 $T2 $esp .cbLocals + .cbSavedRegs + = $T0 .raSearchStart = $eip $T0 ^ = $esp $T0 4 + = $ebp $T0 40 - ^ =
STACK WIN 4 1a290 39f 12 0 14 0 8 0 1 $T2 $esp .cbLocals + .cbSavedRegs + = $T0 .raSearchStart = $eip $T0 ^ = $esp $T0 4 + =
STACK WIN 4 1a299 392 9 0 14 4 8 0 1 $T2 $esp .cbLocals + .cbSavedRegs + = $T0 .raSearchStart = $eip $T0 ^ = $esp $T0 4 + = $ebx $T0 12 - ^ =
STACK WIN 4 1a29a 38e 8 0 14 8 8 0 1 $T2 $esp .cbLocals + .cbSavedRegs + = $T0 .raSearchStart = $eip $T0 ^ = $esp $T0 4 + = $ebp $T0 16 - ^ = $ebx $T0 12 - ^ =
STACK WIN 4 1a29b 38c 7 0 14 c 8 0 1 $T2 $esp .cbLocals + .cbSavedRegs + = $T0 .raSearchStart = $eip $T0 ^ = $esp $T0 4 + = $ebp $T0 16 - ^ = $ebx $T0 12 - ^ =
STACK WIN 4 1a2a2 384 0 0 14 10 8 0 1 $T2 $esp .cbLocals + .cbSavedRegs + = $T0 .raSearchStart = $eip $T0 ^ = $esp $T0 4 + = $ebp $T0 16 - ^ = $ebx $T0 12 - ^ =
STACK WIN 4 1a630 381 7 0 c 0 54 0 1 $T2 $esp .cbLocals + .cbSavedRegs + = $T0 .raSearchStart = $eip $T0 ^ = $esp $T0 4 + =
STACK WIN 4 1a634 379 3 0 c 4 54 0 1 $T2 $esp .cbLocals + .cbSavedRegs + = $T0 .raSearchStart = $eip $T0 ^ = $esp $T0 4 + = $ebx $T0 88 - ^ =
STACK WIN 4 1a635 374 2 0 c 8 54 0 1 $T2 $esp .cbLocals + .cbSavedRegs + = $T0 .raSearchStart = $eip $T0 ^ = $esp $T0 4 + = $ebx $T0 88 - ^ =
STACK WIN 4 1a661 332 0 0 c c 54 0 1 $T2 $esp .cbLocals + .cbSavedRegs + = $T0 .raSearchStart = $eip $T0 ^ = $esp $T0 4 + = $ebp $T0 96 - ^ = $ebx $T0 88 - ^ =
STACK WIN 4 1a66a 328 0 0 c 10 54 0 1 $T2 $esp .cbLocals + .cbSavedRegs + = $T0 .raSearchStart = $eip $T0 ^ = $esp $T0 4 + = $ebp $T0 96 - ^ = $ebx $T0 88 - ^ =
STACK WIN 4 1a9c0 19 0 0 c 0 0 0 1 $T2 $esp .cbLocals + .cbSavedRegs + = $T0 .raSearchStart = $eip $T0 ^ = $esp $T0 4 + =
STACK WIN 4 1a9e0 19 0 0 c 0 0 0 1 $T2 $esp .cbLocals + .cbSavedRegs + = $T0 .raSearchStart = $eip $T0 ^ = $esp $T0 4 + =
STACK WIN 4 1aa00 74 b 0 4 0 0 0 1 $T2 $esp .cbLocals + .cbSavedRegs + = $T0 .raSearchStart = $eip $T0 ^ = $esp $T0 4 + =
STACK WIN 4 1aa07 6c 4 0 4 4 0 0 1 $T2 $esp .cbLocals + .cbSavedRegs + = $T0 .raSearchStart = $eip $T0 ^ = $esp $T0 4 + = $ebp $T0 4 - ^ =
STACK WIN 4 1aa0c 63 0 0 4 8 0 0 1 $T2 $esp .cbLocals + .cbSavedRegs + = $T0 .raSearchStart = $eip $T0 ^ = $esp $T0 4 + = $ebp $T0 4 - ^ =
STACK WIN 4 1aa80 683 10 0 4 0 b0 0 1 $T2 $esp .cbLocals + .cbSavedRegs + = $T0 .raSearchStart = $eip $T0 ^ = $esp $T0 4 + =
STACK WIN 4 1aa87 675 9 0 4 4 b0 0 1 $T2 $esp .cbLocals + .cbSavedRegs + = $T0 .raSearchStart = $eip $T0 ^ = $esp $T0 4 + = $ebx $T0 180 - ^ =
STACK WIN 4 1aa88 671 8 0 4 8 b0 0 1 $T2 $esp .cbLocals + .cbSavedRegs + = $T0 .raSearchStart = $eip $T0 ^ = $esp $T0 4 + = $ebp $T0 184 - ^ = $ebx $T0 180 - ^ =
STACK WIN 4 1aa89 66f 7 0 4 c b0 0 1 $T2 $esp .cbLocals + .cbSavedRegs + = $T0 .raSearchStart = $eip $T0 ^ = $esp $T0 4 + = $ebp $T0 184 - ^ = $ebx $T0 180 - ^ =
STACK WIN 4 1aa90 667 0 0 4 10 b0 0 1 $T2 $esp .cbLocals + .cbSavedRegs + = $T0 .raSearchStart = $eip $T0 ^ = $esp $T0 4 + = $ebp $T0 184 - ^ = $ebx $T0 180 - ^ =
STACK WIN 4 1b110 2b 0 0 0 0 0 0 1 $T2 $esp .cbLocals + .cbSavedRegs + = $T0 .raSearchStart = $eip $T0 ^ = $esp $T0 4 + =
STACK WIN 4 1b140 c1 1 0 0 0 0 0 1 $T2 $esp .cbLocals + .cbSavedRegs + = $T0 .raSearchStart = $eip $T0 ^ = $esp $T0 4 + =
STACK WIN 4 1b141 bf 0 0 0 4 0 0 1 $T2 $esp .cbLocals + .cbSavedRegs + = $T0 .raSearchStart = $eip $T0 ^ = $esp $T0 4 + = $ebx $T0 4 - ^ =
STACK WIN 4 1b150 72 0 0 0 8 0 0 1 $T2 $esp .cbLocals + .cbSavedRegs + = $T0 .raSearchStart = $eip $T0 ^ = $esp $T0 4 + = $ebx $T0 4 - ^ =
STACK WIN 4 1b15f 5b 0 0 0 c 0 0 1 $T2 $esp .cbLocals + .cbSavedRegs + = $T0 .raSearchStart = $eip $T0 ^ = $esp $T0 4 + = $ebx $T0 4 - ^ =
STACK WIN 4 1b210 5 0 0 0 0 0 0 1 $T2 $esp .cbLocals + .cbSavedRegs + = $T0 .raSearchStart = $eip $T0 ^ = $esp $T0 4 + =
STACK WIN 4 1b220 a 0 0 4 0 0 0 1 $T2 $esp .cbLocals + .cbSavedRegs + = $T0 .raSearchStart = $eip $T0 ^ = $esp $T0 4 + =
STACK WIN 4 1b230 70 6 0 4 0 0 0 1 $T2 $esp .cbLocals + .cbSavedRegs + = $T0 .raSearchStart = $eip $T0 ^ = $esp $T0 4 + =
STACK WIN 4 1b231 6e 5 0 4 4 0 0 1 $T2 $esp .cbLocals + .cbSavedRegs + = $T0 .raSearchStart = $eip $T0 ^ = $esp $T0 4 + = $ebx $T0 4 - ^ =
STACK WIN 4 1b232 6c 4 0 4 8 0 0 1 $T2 $esp .cbLocals + .cbSavedRegs + = $T0 .raSearchStart = $eip $T0 ^ = $esp $T0 4 + = $ebp $T0 8 - ^ = $ebx $T0 4 - ^ =
STACK WIN 4 1b237 66 0 0 4 c 0 0 1 $T2 $esp .cbLocals + .cbSavedRegs + = $T0 .raSearchStart = $eip $T0 ^ = $esp $T0 4 + = $ebp $T0 8 - ^ = $ebx $T0 4 - ^ =
STACK WIN 4 1b23a 62 0 0 4 10 0 0 1 $T2 $esp .cbLocals + .cbSavedRegs + = $T0 .raSearchStart = $eip $T0 ^ = $esp $T0 4 + = $ebp $T0 8 - ^ = $ebx $T0 4 - ^ =
STACK WIN 4 1b2a0 1e 0 0 4 0 0 0 1 $T2 $esp .cbLocals + .cbSavedRegs + = $T0 .raSearchStart = $eip $T0 ^ = $esp $T0 4 + =
STACK WIN 4 1b2c0 85 2 0 0 0 4 0 1 $T2 $esp .cbLocals + .cbSavedRegs + = $T0 .raSearchStart = $eip $T0 ^ = $esp $T0 4 + =
STACK WIN 4 1b2c2 81 0 0 0 4 4 0 1 $T2 $esp .cbLocals + .cbSavedRegs + = $T0 .raSearchStart = $eip $T0 ^ = $esp $T0 4 + = $ebx $T0 8 - ^ =
STACK WIN 4 1b350 2b2 1b 0 4 0 1070 0 1 $T2 $esp .cbLocals + .cbSavedRegs + = $T0 .raSearchStart = $eip $T0 ^ = $esp $T0 4 + =
STACK WIN 4 1b369 276 2 0 4 4 1070 0 1 $T2 $esp .cbLocals + .cbSavedRegs + = $T0 .raSearchStart = $eip $T0 ^ = $esp $T0 4 + = $ebx $T0 4212 - ^ =
STACK WIN 4 1b36a 272 1 0 4 8 1070 0 1 $T2 $esp .cbLocals + .cbSavedRegs + = $T0 .raSearchStart = $eip $T0 ^ = $esp $T0 4 + = $ebp $T0 4216 - ^ = $ebx $T0 4212 - ^ =
STACK WIN 4 1b36b 270 0 0 4 c 1070 0 1 $T2 $esp .cbLocals + .cbSavedRegs + = $T0 .raSearchStart = $eip $T0 ^ = $esp $T0 4 + = $ebp $T0 4216 - ^ = $ebx $T0 4212 - ^ =
STACK WIN 4 1b3c8 1ad 0 0 4 10 1070 0 1 $T2 $esp .cbLocals + .cbSavedRegs + = $T0 .raSearchStart = $eip $T0 ^ = $esp $T0 4 + = $ebp $T0 4216 - ^ = $ebx $T0 4212 - ^ =
STACK WIN 4 1b610 34 a 0 8 0 0 0 1 $T2 $esp .cbLocals + .cbSavedRegs + = $T0 .raSearchStart = $eip $T0 ^ = $esp $T0 4 + =
STACK WIN 4 1b619 2a 1 0 8 4 0 0 1 $T2 $esp .cbLocals + .cbSavedRegs + = $T0 .raSearchStart = $eip $T0 ^ = $esp $T0 4 + =
STACK WIN 4 1b61a 28 0 0 8 8 0 0 1 $T2 $esp .cbLocals + .cbSavedRegs + = $T0 .raSearchStart = $eip $T0 ^ = $esp $T0 4 + =
STACK WIN 4 1b650 3e 0 0 4 0 0 0 1 $T2 $esp .cbLocals + .cbSavedRegs + = $T0 .raSearchStart = $eip $T0 ^ = $esp $T0 4 + =
STACK WIN 4 1b65f 2e 0 0 4 4 0 0 1 $T2 $esp .cbLocals + .cbSavedRegs + = $T0 .raSearchStart = $eip $T0 ^ = $esp $T0 4 + =
STACK WIN 4 1b660 2c 0 0 4 8 0 0 1 $T2 $esp .cbLocals + .cbSavedRegs + = $T0 .raSearchStart = $eip $T0 ^ = $esp $T0 4 + =
STACK WIN 4 1b690 1e2 34 0 18 0 9c 0 1 $T2 $esp .cbLocals + .cbSavedRegs + = $T0 .raSearchStart = $eip $T0 ^ = $esp $T0 4 + =
STACK WIN 4 1b6b3 1b1 11 0 18 4 9c 0 1 $T2 $esp .cbLocals + .cbSavedRegs + = $T0 .raSearchStart = $eip $T0 ^ = $esp $T0 4 + = $ebx $T0 160 - ^ =
STACK WIN 4 1b6bb 1a8 9 0 18 8 9c 0 1 $T2 $esp .cbLocals + .cbSavedRegs + = $T0 .raSearchStart = $eip $T0 ^ = $esp $T0 4 + = $ebp $T0 164 - ^ = $ebx $T0 160 - ^ =
STACK WIN 4 1b6bc 1a6 8 0 18 c 9c 0 1 $T2 $esp .cbLocals + .cbSavedRegs + = $T0 .raSearchStart = $eip $T0 ^ = $esp $T0 4 + = $ebp $T0 164 - ^ = $ebx $T0 160 - ^ =
STACK WIN 4 1b6c4 19d 0 0 18 10 9c 0 1 $T2 $esp .cbLocals + .cbSavedRegs + = $T0 .raSearchStart = $eip $T0 ^ = $esp $T0 4 + = $ebp $T0 164 - ^ = $ebx $T0 160 - ^ =
STACK WIN 4 1b880 e6 33 0 14 0 24 0 1 $T2 $esp .cbLocals + .cbSavedRegs + = $T0 .raSearchStart = $eip $T0 ^ = $esp $T0 4 + =
STACK WIN 4 1b88e d4 25 0 14 4 24 0 1 $T2 $esp .cbLocals + .cbSavedRegs + = $T0 .raSearchStart = $eip $T0 ^ = $esp $T0 4 + = $ebx $T0 40 - ^ =
STACK WIN 4 1b88f d0 24 0 14 8 24 0 1 $T2 $esp .cbLocals + .cbSavedRegs + = $T0 .raSearchStart = $eip $T0 ^ = $esp $T0 4 + = $ebp $T0 44 - ^ = $ebx $T0 40 - ^ =
STACK WIN 4 1b890 ce 23 0 14 c 24 0 1 $T2 $esp .cbLocals + .cbSavedRegs + = $T0 .raSearchStart = $eip $T0 ^ = $esp $T0 4 + = $ebp $T0 44 - ^ = $ebx $T0 40 - ^ =
STACK WIN 4 1b8b3 aa 0 0 14 10 24 0 1 $T2 $esp .cbLocals + .cbSavedRegs + = $T0 .raSearchStart = $eip $T0 ^ = $esp $T0 4 + = $ebp $T0 44 - ^ = $ebx $T0 40 - ^ =
STACK WIN 4 1b970 ad6 1c 0 8 0 4 0 1 $T2 $esp .cbLocals + .cbSavedRegs + = $T0 .raSearchStart = $eip $T0 ^ = $esp $T0 4 + =
STACK WIN 4 1b97e ac6 e 0 8 4 4 0 1 $T2 $esp .cbLocals + .cbSavedRegs + = $T0 .raSearchStart = $eip $T0 ^ = $esp $T0 4 + = $ebx $T0 8 - ^ =
STACK WIN 4 1b97f ac1 d 0 8 8 4 0 1 $T2 $esp .cbLocals + .cbSavedRegs + = $T0 .raSearchStart = $eip $T0 ^ = $esp $T0 4 + = $ebp $T0 12 - ^ = $ebx $T0 8 - ^ =
STACK WIN 4 1b980 abf c 0 8 c 4 0 1 $T2 $esp .cbLocals + .cbSavedRegs + = $T0 .raSearchStart = $eip $T0 ^ = $esp $T0 4 + = $ebp $T0 12 - ^ = $ebx $T0 8 - ^ =
STACK WIN 4 1b98c aa5 0 0 8 10 4 0 1 $T2 $esp .cbLocals + .cbSavedRegs + = $T0 .raSearchStart = $eip $T0 ^ = $esp $T0 4 + = $ebp $T0 12 - ^ = $ebx $T0 8 - ^ =
STACK WIN 4 1c460 dca 1b 0 c 0 c 0 1 $T2 $esp .cbLocals + .cbSavedRegs + = $T0 .raSearchStart = $eip $T0 ^ = $esp $T0 4 + =
STACK WIN 4 1c464 dc2 17 0 c 4 c 0 1 $T2 $esp .cbLocals + .cbSavedRegs + = $T0 .raSearchStart = $eip $T0 ^ = $esp $T0 4 + = $ebx $T0 16 - ^ =
STACK WIN 4 1c465 dba 16 0 c 8 c 0 1 $T2 $esp .cbLocals + .cbSavedRegs + = $T0 .raSearchStart = $eip $T0 ^ = $esp $T0 4 + = $ebp $T0 20 - ^ = $ebx $T0 16 - ^ =
STACK WIN 4 1c468 db1 13 0 c c c 0 1 $T2 $esp .cbLocals + .cbSavedRegs + = $T0 .raSearchStart = $eip $T0 ^ = $esp $T0 4 + = $ebp $T0 20 - ^ = $ebx $T0 16 - ^ =
STACK WIN 4 1c47b d9a 0 0 c 10 c 0 1 $T2 $esp .cbLocals + .cbSavedRegs + = $T0 .raSearchStart = $eip $T0 ^ = $esp $T0 4 + = $ebp $T0 20 - ^ = $ebx $T0 16 - ^ =
STACK WIN 4 1d230 dca 1b 0 c 0 c 0 1 $T2 $esp .cbLocals + .cbSavedRegs + = $T0 .raSearchStart = $eip $T0 ^ = $esp $T0 4 + =
STACK WIN 4 1d234 dc2 17 0 c 4 c 0 1 $T2 $esp .cbLocals + .cbSavedRegs + = $T0 .raSearchStart = $eip $T0 ^ = $esp $T0 4 + = $ebx $T0 16 - ^ =
STACK WIN 4 1d235 dba 16 0 c 8 c 0 1 $T2 $esp .cbLocals + .cbSavedRegs + = $T0 .raSearchStart = $eip $T0 ^ = $esp $T0 4 + = $ebp $T0 20 - ^ = $ebx $T0 16 - ^ =
STACK WIN 4 1d238 db1 13 0 c c c 0 1 $T2 $esp .cbLocals + .cbSavedRegs + = $T0 .raSearchStart = $eip $T0 ^ = $esp $T0 4 + = $ebp $T0 20 - ^ = $ebx $T0 16 - ^ =
STACK WIN 4 1d24b d9a 0 0 c 10 c 0 1 $T2 $esp .cbLocals + .cbSavedRegs + = $T0 .raSearchStart = $eip $T0 ^ = $esp $T0 4 + = $ebp $T0 20 - ^ = $ebx $T0 16 - ^ =
STACK WIN 4 1e000 387 23 0 18 0 2c 0 1 $T2 $esp .cbLocals + .cbSavedRegs + = $T0 .raSearchStart = $eip $T0 ^ = $esp $T0 4 + =
STACK WIN 4 1e018 364 b 0 18 4 2c 0 1 $T2 $esp .cbLocals + .cbSavedRegs + = $T0 .raSearchStart = $eip $T0 ^ = $esp $T0 4 + = $ebx $T0 48 - ^ =
STACK WIN 4 1e019 362 a 0 18 8 2c 0 1 $T2 $esp .cbLocals + .cbSavedRegs + = $T0 .raSearchStart = $eip $T0 ^ = $esp $T0 4 + = $ebp $T0 52 - ^ = $ebx $T0 48 - ^ =
STACK WIN 4 1e01e 35c 5 0 18 c 2c 0 1 $T2 $esp .cbLocals + .cbSavedRegs + = $T0 .raSearchStart = $eip $T0 ^ = $esp $T0 4 + = $ebp $T0 52 - ^ = $ebx $T0 48 - ^ =
STACK WIN 4 1e023 356 0 0 18 10 2c 0 1 $T2 $esp .cbLocals + .cbSavedRegs + = $T0 .raSearchStart = $eip $T0 ^ = $esp $T0 4 + = $ebp $T0 52 - ^ = $ebx $T0 48 - ^ =
STACK WIN 4 1e390 e 0 0 0 0 0 0 1 $T2 $esp .cbLocals + .cbSavedRegs + = $T0 .raSearchStart = $eip $T0 ^ = $esp $T0 4 + =
STACK WIN 4 1e3a0 95 1 0 1c 0 0 0 1 $T2 $esp .cbLocals + .cbSavedRegs + = $T0 .raSearchStart = $eip $T0 ^ = $esp $T0 4 + =
STACK WIN 4 1e3a1 93 0 0 1c 4 0 0 1 $T2 $esp .cbLocals + .cbSavedRegs + = $T0 .raSearchStart = $eip $T0 ^ = $esp $T0 4 + =
STACK WIN 4 1e440 48 1 0 10 0 0 0 1 $T2 $esp .cbLocals + .cbSavedRegs + = $T0 .raSearchStart = $eip $T0 ^ = $esp $T0 4 + =
STACK WIN 4 1e441 46 0 0 10 4 0 0 1 $T2 $esp .cbLocals + .cbSavedRegs + = $T0 .raSearchStart = $eip $T0 ^ = $esp $T0 4 + =
STACK WIN 4 1e490 2b 1 0 8 0 0 0 1 $T2 $esp .cbLocals + .cbSavedRegs + = $T0 .raSearchStart = $eip $T0 ^ = $esp $T0 4 + =
STACK WIN 4 1e491 29 0 0 8 4 0 0 1 $T2 $esp .cbLocals + .cbSavedRegs + = $T0 .raSearchStart = $eip $T0 ^ = $esp $T0 4 + =
STACK WIN 4 1e4c0 7e 0 0 18 0 0 0 1 $T2 $esp .cbLocals + .cbSavedRegs + = $T0 .raSearchStart = $eip $T0 ^ = $esp $T0 4 + =
STACK WIN 4 1e4f7 21 0 0 18 4 0 0 1 $T2 $esp .cbLocals + .cbSavedRegs + = $T0 .raSearchStart = $eip $T0 ^ = $esp $T0 4 + =
STACK WIN 4 1e540 7d 0 0 18 0 0 0 1 $T2 $esp .cbLocals + .cbSavedRegs + = $T0 .raSearchStart = $eip $T0 ^ = $esp $T0 4 + =
STACK WIN 4 1e573 24 0 0 18 4 0 0 1 $T2 $esp .cbLocals + .cbSavedRegs + = $T0 .raSearchStart = $eip $T0 ^ = $esp $T0 4 + =
STACK WIN 4 1e5c0 4b 1 0 0 0 4 0 1 $T2 $esp .cbLocals + .cbSavedRegs + = $T0 .raSearchStart = $eip $T0 ^ = $esp $T0 4 + =
STACK WIN 4 1e610 12d 1c 0 10 0 68 0 1 $T2 $esp .cbLocals + .cbSavedRegs + = $T0 .raSearchStart = $eip $T0 ^ = $esp $T0 4 + =
STACK WIN 4 1e623 10a 9 0 10 4 68 0 1 $T2 $esp .cbLocals + .cbSavedRegs + = $T0 .raSearchStart = $eip $T0 ^ = $esp $T0 4 + = $ebx $T0 108 - ^ =
STACK WIN 4 1e62c 100 0 0 10 8 68 0 1 $T2 $esp .cbLocals + .cbSavedRegs + = $T0 .raSearchStart = $eip $T0 ^ = $esp $T0 4 + = $ebx $T0 108 - ^ =
STACK WIN 4 1e667 ad 0 0 10 c 68 0 1 $T2 $esp .cbLocals + .cbSavedRegs + = $T0 .raSearchStart = $eip $T0 ^ = $esp $T0 4 + = $ebp $T0 120 - ^ = $ebx $T0 108 - ^ =
STACK WIN 4 1e693 80 0 0 10 10 68 0 1 $T2 $esp .cbLocals + .cbSavedRegs + = $T0 .raSearchStart = $eip $T0 ^ = $esp $T0 4 + = $ebp $T0 120 - ^ = $ebx $T0 108 - ^ =
STACK WIN 4 1e740 655 9 0 28 0 b0 0 1 $T2 $esp .cbLocals + .cbSavedRegs + = $T0 .raSearchStart = $eip $T0 ^ = $esp $T0 4 + =
STACK WIN 4 1e747 647 2 0 28 4 b0 0 1 $T2 $esp .cbLocals + .cbSavedRegs + = $T0 .raSearchStart = $eip $T0 ^ = $esp $T0 4 + = $ebx $T0 180 - ^ =
STACK WIN 4 1e748 642 1 0 28 8 b0 0 1 $T2 $esp .cbLocals + .cbSavedRegs + = $T0 .raSearchStart = $eip $T0 ^ = $esp $T0 4 + = $ebp $T0 184 - ^ = $ebx $T0 180 - ^ =
STACK WIN 4 1e749 640 0 0 28 c b0 0 1 $T2 $esp .cbLocals + .cbSavedRegs + = $T0 .raSearchStart = $eip $T0 ^ = $esp $T0 4 + = $ebp $T0 184 - ^ = $ebx $T0 180 - ^ =
STACK WIN 4 1e875 4fc 0 0 28 10 b0 0 1 $T2 $esp .cbLocals + .cbSavedRegs + = $T0 .raSearchStart = $eip $T0 ^ = $esp $T0 4 + = $ebp $T0 184 - ^ = $ebx $T0 180 - ^ =
STACK WIN 4 1eda0 5f2 9 0 20 0 c0 0 1 $T2 $esp .cbLocals + .cbSavedRegs + = $T0 .raSearchStart = $eip $T0 ^ = $esp $T0 4 + =
STACK WIN 4 1eda7 5e4 2 0 20 4 c0 0 1 $T2 $esp .cbLocals + .cbSavedRegs + = $T0 .raSearchStart = $eip $T0 ^ = $esp $T0 4 + = $ebx $T0 196 - ^ =
STACK WIN 4 1eda8 5df 1 0 20 8 c0 0 1 $T2 $esp .cbLocals + .cbSavedRegs + = $T0 .raSearchStart = $eip $T0 ^ = $esp $T0 4 + = $ebp $T0 200 - ^ = $ebx $T0 196 - ^ =
STACK WIN 4 1eda9 5dd 0 0 20 c c0 0 1 $T2 $esp .cbLocals + .cbSavedRegs + = $T0 .raSearchStart = $eip $T0 ^ = $esp $T0 4 + = $ebp $T0 200 - ^ = $ebx $T0 196 - ^ =
STACK WIN 4 1eebd 4b1 0 0 20 10 c0 0 1 $T2 $esp .cbLocals + .cbSavedRegs + = $T0 .raSearchStart = $eip $T0 ^ = $esp $T0 4 + = $ebp $T0 200 - ^ = $ebx $T0 196 - ^ =
STACK WIN 4 1f3a0 17a 8 0 10 0 40 0 1 $T2 $esp .cbLocals + .cbSavedRegs + = $T0 .raSearchStart = $eip $T0 ^ = $esp $T0 4 + =
STACK WIN 4 1f3a4 172 4 0 10 4 40 0 1 $T2 $esp .cbLocals + .cbSavedRegs + = $T0 .raSearchStart = $eip $T0 ^ = $esp $T0 4 + = $ebp $T0 68 - ^ =
STACK WIN 4 1f3a9 16c 0 0 10 8 40 0 1 $T2 $esp .cbLocals + .cbSavedRegs + = $T0 .raSearchStart = $eip $T0 ^ = $esp $T0 4 + = $ebp $T0 68 - ^ =
STACK WIN 4 1f3aa 168 0 0 10 c 40 0 1 $T2 $esp .cbLocals + .cbSavedRegs + = $T0 .raSearchStart = $eip $T0 ^ = $esp $T0 4 + = $ebp $T0 68 - ^ =
STACK WIN 4 1f520 420 6 0 28 0 50 0 1 $T2 $esp .cbLocals + .cbSavedRegs + = $T0 .raSearchStart = $eip $T0 ^ = $esp $T0 4 + =
STACK WIN 4 1f524 418 2 0 28 4 50 0 1 $T2 $esp .cbLocals + .cbSavedRegs + = $T0 .raSearchStart = $eip $T0 ^ = $esp $T0 4 + = $ebx $T0 84 - ^ =
STACK WIN 4 1f525 413 1 0 28 8 50 0 1 $T2 $esp .cbLocals + .cbSavedRegs + = $T0 .raSearchStart = $eip $T0 ^ = $esp $T0 4 + = $ebp $T0 88 - ^ = $ebx $T0 84 - ^ =
STACK WIN 4 1f526 411 0 0 28 c 50 0 1 $T2 $esp .cbLocals + .cbSavedRegs + = $T0 .raSearchStart = $eip $T0 ^ = $esp $T0 4 + = $ebp $T0 88 - ^ = $ebx $T0 84 - ^ =
STACK WIN 4 1f635 2eb 0 0 28 10 50 0 1 $T2 $esp .cbLocals + .cbSavedRegs + = $T0 .raSearchStart = $eip $T0 ^ = $esp $T0 4 + = $ebp $T0 88 - ^ = $ebx $T0 84 - ^ =
STACK WIN 4 1f940 40c 6 0 20 0 60 0 1 $T2 $esp .cbLocals + .cbSavedRegs + = $T0 .raSearchStart = $eip $T0 ^ = $esp $T0 4 + =
STACK WIN 4 1f944 404 2 0 20 4 60 0 1 $T2 $esp .cbLocals + .cbSavedRegs + = $T0 .raSearchStart = $eip $T0 ^ = $esp $T0 4 + = $ebx $T0 100 - ^ =
STACK WIN 4 1f945 3ff 1 0 20 8 60 0 1 $T2 $esp .cbLocals + .cbSavedRegs + = $T0 .raSearchStart = $eip $T0 ^ = $esp $T0 4 + = $ebp $T0 104 - ^ = $ebx $T0 100 - ^ =
STACK WIN 4 1f946 3fd 0 0 20 c 60 0 1 $T2 $esp .cbLocals + .cbSavedRegs + = $T0 .raSearchStart = $eip $T0 ^ = $esp $T0 4 + = $ebp $T0 104 - ^ = $ebx $T0 100 - ^ =
STACK WIN 4 1fa2c 300 0 0 20 10 60 0 1 $T2 $esp .cbLocals + .cbSavedRegs + = $T0 .raSearchStart = $eip $T0 ^ = $esp $T0 4 + = $ebp $T0 104 - ^ = $ebx $T0 100 - ^ =
STACK WIN 4 1fd50 36 0 0 8 0 0 0 1 $T2 $esp .cbLocals + .cbSavedRegs + = $T0 .raSearchStart = $eip $T0 ^ = $esp $T0 4 + =
STACK WIN 4 1fd90 4f 5 0 4 0 0 0 1 $T2 $esp .cbLocals + .cbSavedRegs + = $T0 .raSearchStart = $eip $T0 ^ = $esp $T0 4 + =
STACK WIN 4 1fd95 49 0 0 4 4 0 0 1 $T2 $esp .cbLocals + .cbSavedRegs + = $T0 .raSearchStart = $eip $T0 ^ = $esp $T0 4 + =
STACK WIN 4 1fda1 3a 0 0 4 8 0 0 1 $T2 $esp .cbLocals + .cbSavedRegs + = $T0 .raSearchStart = $eip $T0 ^ = $esp $T0 4 + = $ebp $T0 8 - ^ =
STACK WIN 4 1fda9 31 0 0 4 c 0 0 1 $T2 $esp .cbLocals + .cbSavedRegs + = $T0 .raSearchStart = $eip $T0 ^ = $esp $T0 4 + = $ebp $T0 8 - ^ = $ebx $T0 12 - ^ =
STACK WIN 4 1fdb0 29 0 0 4 10 0 0 1 $T2 $esp .cbLocals + .cbSavedRegs + = $T0 .raSearchStart = $eip $T0 ^ = $esp $T0 4 + = $ebp $T0 8 - ^ = $ebx $T0 12 - ^ =
STACK WIN 4 1fde0 8e 7 0 8 0 20 0 1 $T2 $esp .cbLocals + .cbSavedRegs + = $T0 .raSearchStart = $eip $T0 ^ = $esp $T0 4 + =
STACK WIN 4 1fdf9 71 0 0 8 4 20 0 1 $T2 $esp .cbLocals + .cbSavedRegs + = $T0 .raSearchStart = $eip $T0 ^ = $esp $T0 4 + =
STACK WIN 4 1fe70 22b 9 0 8 0 40 0 1 $T2 $esp .cbLocals + .cbSavedRegs + = $T0 .raSearchStart = $eip $T0 ^ = $esp $T0 4 + =
STACK WIN 4 1fe74 223 5 0 8 4 40 0 1 $T2 $esp .cbLocals + .cbSavedRegs + = $T0 .raSearchStart = $eip $T0 ^ = $esp $T0 4 + = $ebx $T0 68 - ^ =
STACK WIN 4 1fe79 21d 0 0 8 8 40 0 1 $T2 $esp .cbLocals + .cbSavedRegs + = $T0 .raSearchStart = $eip $T0 ^ = $esp $T0 4 + = $ebx $T0 68 - ^ =
STACK WIN 4 1fe8d 208 0 0 8 c 40 0 1 $T2 $esp .cbLocals + .cbSavedRegs + = $T0 .raSearchStart = $eip $T0 ^ = $esp $T0 4 + = $ebx $T0 68 - ^ =
STACK WIN 4 1fecf 198 0 0 8 10 40 0 1 $T2 $esp .cbLocals + .cbSavedRegs + = $T0 .raSearchStart = $eip $T0 ^ = $esp $T0 4 + = $ebp $T0 96 - ^ = $ebx $T0 68 - ^ =
STACK WIN 4 200a0 6c 9 0 14 0 4 0 1 $T2 $esp .cbLocals + .cbSavedRegs + = $T0 .raSearchStart = $eip $T0 ^ = $esp $T0 4 + =
STACK WIN 4 200a2 68 7 0 14 4 4 0 1 $T2 $esp .cbLocals + .cbSavedRegs + = $T0 .raSearchStart = $eip $T0 ^ = $esp $T0 4 + = $ebx $T0 8 - ^ =
STACK WIN 4 200a3 66 6 0 14 8 4 0 1 $T2 $esp .cbLocals + .cbSavedRegs + = $T0 .raSearchStart = $eip $T0 ^ = $esp $T0 4 + = $ebp $T0 12 - ^ = $ebx $T0 8 - ^ =
STACK WIN 4 200a8 60 1 0 14 c 4 0 1 $T2 $esp .cbLocals + .cbSavedRegs + = $T0 .raSearchStart = $eip $T0 ^ = $esp $T0 4 + = $ebp $T0 12 - ^ = $ebx $T0 8 - ^ =
STACK WIN 4 200a9 5e 0 0 14 10 4 0 1 $T2 $esp .cbLocals + .cbSavedRegs + = $T0 .raSearchStart = $eip $T0 ^ = $esp $T0 4 + = $ebp $T0 12 - ^ = $ebx $T0 8 - ^ =
STACK WIN 4 20110 52 c 0 10 0 0 0 1 $T2 $esp .cbLocals + .cbSavedRegs + = $T0 .raSearchStart = $eip $T0 ^ = $esp $T0 4 + =
STACK WIN 4 20111 50 b 0 10 4 0 0 1 $T2 $esp .cbLocals + .cbSavedRegs + = $T0 .raSearchStart = $eip $T0 ^ = $esp $T0 4 + = $ebx $T0 4 - ^ =
STACK WIN 4 20112 4c a 0 10 8 0 0 1 $T2 $esp .cbLocals + .cbSavedRegs + = $T0 .raSearchStart = $eip $T0 ^ = $esp $T0 4 + = $ebp $T0 8 - ^ = $ebx $T0 4 - ^ =
STACK WIN 4 20117 46 5 0 10 c 0 0 1 $T2 $esp .cbLocals + .cbSavedRegs + = $T0 .raSearchStart = $eip $T0 ^ = $esp $T0 4 + = $ebp $T0 8 - ^ = $ebx $T0 4 - ^ =
STACK WIN 4 2011c 40 0 0 10 10 0 0 1 $T2 $esp .cbLocals + .cbSavedRegs + = $T0 .raSearchStart = $eip $T0 ^ = $esp $T0 4 + = $ebp $T0 8 - ^ = $ebx $T0 4 - ^ =
STACK WIN 4 20170 53 7 0 8 0 0 0 1 $T2 $esp .cbLocals + .cbSavedRegs + = $T0 .raSearchStart = $eip $T0 ^ = $esp $T0 4 + =
STACK WIN 4 20177 4b 0 0 8 4 0 0 1 $T2 $esp .cbLocals + .cbSavedRegs + = $T0 .raSearchStart = $eip $T0 ^ = $esp $T0 4 + =
STACK WIN 4 201d0 38d 4 0 10 0 28 0 1 $T2 $esp .cbLocals + .cbSavedRegs + = $T0 .raSearchStart = $eip $T0 ^ = $esp $T0 4 + =
STACK WIN 4 201d4 367 0 0 10 4 28 0 1 $T2 $esp .cbLocals + .cbSavedRegs + = $T0 .raSearchStart = $eip $T0 ^ = $esp $T0 4 + = $ebp $T0 44 - ^ =
STACK WIN 4 201e5 355 0 0 10 8 28 0 1 $T2 $esp .cbLocals + .cbSavedRegs + = $T0 .raSearchStart = $eip $T0 ^ = $esp $T0 4 + = $ebp $T0 44 - ^ =
STACK WIN 4 201fa 33f 0 0 10 c 28 0 1 $T2 $esp .cbLocals + .cbSavedRegs + = $T0 .raSearchStart = $eip $T0 ^ = $esp $T0 4 + = $ebp $T0 44 - ^ = $ebx $T0 52 - ^ =
STACK WIN 4 20223 315 0 0 10 10 28 0 1 $T2 $esp .cbLocals + .cbSavedRegs + = $T0 .raSearchStart = $eip $T0 ^ = $esp $T0 4 + = $ebp $T0 44 - ^ = $ebx $T0 52 - ^ =
STACK WIN 4 20560 a3 6 0 8 0 0 0 1 $T2 $esp .cbLocals + .cbSavedRegs + = $T0 .raSearchStart = $eip $T0 ^ = $esp $T0 4 + =
STACK WIN 4 20561 a1 5 0 8 4 0 0 1 $T2 $esp .cbLocals + .cbSavedRegs + = $T0 .raSearchStart = $eip $T0 ^ = $esp $T0 4 + = $ebx $T0 4 - ^ =
STACK WIN 4 20566 9b 0 0 8 8 0 0 1 $T2 $esp .cbLocals + .cbSavedRegs + = $T0 .raSearchStart = $eip $T0 ^ = $esp $T0 4 + = $ebx $T0 4 - ^ =
STACK WIN 4 20587 35 0 0 8 c 0 0 1 $T2 $esp .cbLocals + .cbSavedRegs + = $T0 .raSearchStart = $eip $T0 ^ = $esp $T0 4 + = $ebx $T0 4 - ^ =
STACK WIN 4 20610 1c4 b 0 10 0 8 0 1 $T2 $esp .cbLocals + .cbSavedRegs + = $T0 .raSearchStart = $eip $T0 ^ = $esp $T0 4 + =
STACK WIN 4 20614 1bc 7 0 10 4 8 0 1 $T2 $esp .cbLocals + .cbSavedRegs + = $T0 .raSearchStart = $eip $T0 ^ = $esp $T0 4 + = $ebp $T0 12 - ^ =
STACK WIN 4 2061b 1af 0 0 10 8 8 0 1 $T2 $esp .cbLocals + .cbSavedRegs + = $T0 .raSearchStart = $eip $T0 ^ = $esp $T0 4 + = $ebp $T0 12 - ^ =
STACK WIN 4 2064f 174 0 0 10 c 8 0 1 $T2 $esp .cbLocals + .cbSavedRegs + = $T0 .raSearchStart = $eip $T0 ^ = $esp $T0 4 + = $ebp $T0 12 - ^ = $ebx $T0 20 - ^ =
STACK WIN 4 20650 172 0 0 10 10 8 0 1 $T2 $esp .cbLocals + .cbSavedRegs + = $T0 .raSearchStart = $eip $T0 ^ = $esp $T0 4 + = $ebp $T0 12 - ^ = $ebx $T0 20 - ^ =
STACK WIN 4 207e0 3d 5 0 c 0 0 0 1 $T2 $esp .cbLocals + .cbSavedRegs + = $T0 .raSearchStart = $eip $T0 ^ = $esp $T0 4 + =
STACK WIN 4 207e5 37 0 0 c 4 0 0 1 $T2 $esp .cbLocals + .cbSavedRegs + = $T0 .raSearchStart = $eip $T0 ^ = $esp $T0 4 + =
STACK WIN 4 207f8 23 0 0 c 8 0 0 1 $T2 $esp .cbLocals + .cbSavedRegs + = $T0 .raSearchStart = $eip $T0 ^ = $esp $T0 4 + =
STACK WIN 4 20820 133d 9 0 24 0 238 0 1 $T2 $esp .cbLocals + .cbSavedRegs + = $T0 .raSearchStart = $eip $T0 ^ = $esp $T0 4 + =
STACK WIN 4 20827 132f 2 0 24 4 238 0 1 $T2 $esp .cbLocals + .cbSavedRegs + = $T0 .raSearchStart = $eip $T0 ^ = $esp $T0 4 + = $ebx $T0 572 - ^ =
STACK WIN 4 20828 132b 1 0 24 8 238 0 1 $T2 $esp .cbLocals + .cbSavedRegs + = $T0 .raSearchStart = $eip $T0 ^ = $esp $T0 4 + = $ebx $T0 572 - ^ =
STACK WIN 4 20829 1329 0 0 24 c 238 0 1 $T2 $esp .cbLocals + .cbSavedRegs + = $T0 .raSearchStart = $eip $T0 ^ = $esp $T0 4 + = $ebx $T0 572 - ^ =
STACK WIN 4 208d6 1236 0 0 24 10 238 0 1 $T2 $esp .cbLocals + .cbSavedRegs + = $T0 .raSearchStart = $eip $T0 ^ = $esp $T0 4 + = $ebp $T0 624 - ^ = $ebx $T0 572 - ^ =
STACK WIN 4 21b60 94 1d 0 10 0 4 0 1 $T2 $esp .cbLocals + .cbSavedRegs + = $T0 .raSearchStart = $eip $T0 ^ = $esp $T0 4 + =
STACK WIN 4 21b6a 88 13 0 10 4 4 0 1 $T2 $esp .cbLocals + .cbSavedRegs + = $T0 .raSearchStart = $eip $T0 ^ = $esp $T0 4 + = $ebx $T0 8 - ^ =
STACK WIN 4 21b6b 81 12 0 10 8 4 0 1 $T2 $esp .cbLocals + .cbSavedRegs + = $T0 .raSearchStart = $eip $T0 ^ = $esp $T0 4 + = $ebp $T0 12 - ^ = $ebx $T0 8 - ^ =
STACK WIN 4 21b73 78 a 0 10 c 4 0 1 $T2 $esp .cbLocals + .cbSavedRegs + = $T0 .raSearchStart = $eip $T0 ^ = $esp $T0 4 + = $ebp $T0 12 - ^ = $ebx $T0 8 - ^ =
STACK WIN 4 21b7d 6d 0 0 10 10 4 0 1 $T2 $esp .cbLocals + .cbSavedRegs + = $T0 .raSearchStart = $eip $T0 ^ = $esp $T0 4 + = $ebp $T0 12 - ^ = $ebx $T0 8 - ^ =
STACK WIN 4 21c00 5b 5 0 10 0 0 0 1 $T2 $esp .cbLocals + .cbSavedRegs + = $T0 .raSearchStart = $eip $T0 ^ = $esp $T0 4 + =
STACK WIN 4 21c05 55 0 0 10 4 0 0 1 $T2 $esp .cbLocals + .cbSavedRegs + = $T0 .raSearchStart = $eip $T0 ^ = $esp $T0 4 + =
STACK WIN 4 21c1d 18 0 0 10 8 0 0 1 $T2 $esp .cbLocals + .cbSavedRegs + = $T0 .raSearchStart = $eip $T0 ^ = $esp $T0 4 + = $ebp $T0 8 - ^ =
STACK WIN 4 21c22 12 0 0 10 c 0 0 1 $T2 $esp .cbLocals + .cbSavedRegs + = $T0 .raSearchStart = $eip $T0 ^ = $esp $T0 4 + = $ebp $T0 8 - ^ =
STACK WIN 4 21c60 7ec 22 0 24 0 80 0 1 $T2 $esp .cbLocals + .cbSavedRegs + = $T0 .raSearchStart = $eip $T0 ^ = $esp $T0 4 + =
STACK WIN 4 21c67 7c6 1b 0 24 4 80 0 1 $T2 $esp .cbLocals + .cbSavedRegs + = $T0 .raSearchStart = $eip $T0 ^ = $esp $T0 4 + = $ebx $T0 132 - ^ =
STACK WIN 4 21c68 7c2 1a 0 24 8 80 0 1 $T2 $esp .cbLocals + .cbSavedRegs + = $T0 .raSearchStart = $eip $T0 ^ = $esp $T0 4 + = $ebp $T0 136 - ^ = $ebx $T0 132 - ^ =
STACK WIN 4 21c70 7b9 12 0 24 c 80 0 1 $T2 $esp .cbLocals + .cbSavedRegs + = $T0 .raSearchStart = $eip $T0 ^ = $esp $T0 4 + = $ebp $T0 136 - ^ = $ebx $T0 132 - ^ =
STACK WIN 4 21c82 7a6 0 0 24 10 80 0 1 $T2 $esp .cbLocals + .cbSavedRegs + = $T0 .raSearchStart = $eip $T0 ^ = $esp $T0 4 + = $ebp $T0 136 - ^ = $ebx $T0 132 - ^ =
STACK WIN 4 22450 248 4 0 10 0 38 0 1 $T2 $esp .cbLocals + .cbSavedRegs + = $T0 .raSearchStart = $eip $T0 ^ = $esp $T0 4 + =
STACK WIN 4 22454 240 0 0 10 4 38 0 1 $T2 $esp .cbLocals + .cbSavedRegs + = $T0 .raSearchStart = $eip $T0 ^ = $esp $T0 4 + = $ebp $T0 60 - ^ =
STACK WIN 4 22483 210 0 0 10 8 38 0 1 $T2 $esp .cbLocals + .cbSavedRegs + = $T0 .raSearchStart = $eip $T0 ^ = $esp $T0 4 + = $ebp $T0 60 - ^ = $ebx $T0 64 - ^ =
STACK WIN 4 22488 20a 0 0 10 c 38 0 1 $T2 $esp .cbLocals + .cbSavedRegs + = $T0 .raSearchStart = $eip $T0 ^ = $esp $T0 4 + = $ebp $T0 60 - ^ = $ebx $T0 64 - ^ =
STACK WIN 4 22489 206 0 0 10 10 38 0 1 $T2 $esp .cbLocals + .cbSavedRegs + = $T0 .raSearchStart = $eip $T0 ^ = $esp $T0 4 + = $ebp $T0 60 - ^ = $ebx $T0 64 - ^ =
STACK WIN 4 226a0 38 7 0 c 0 0 0 1 $T2 $esp .cbLocals + .cbSavedRegs + = $T0 .raSearchStart = $eip $T0 ^ = $esp $T0 4 + =
STACK WIN 4 226a7 30 0 0 c 4 0 0 1 $T2 $esp .cbLocals + .cbSavedRegs + = $T0 .raSearchStart = $eip $T0 ^ = $esp $T0 4 + =
STACK WIN 4 226e0 36 7 0 c 0 0 0 1 $T2 $esp .cbLocals + .cbSavedRegs + = $T0 .raSearchStart = $eip $T0 ^ = $esp $T0 4 + =
STACK WIN 4 226e7 2e 0 0 c 4 0 0 1 $T2 $esp .cbLocals + .cbSavedRegs + = $T0 .raSearchStart = $eip $T0 ^ = $esp $T0 4 + =
STACK WIN 4 22720 7f 1 0 c 0 0 0 1 $T2 $esp .cbLocals + .cbSavedRegs + = $T0 .raSearchStart = $eip $T0 ^ = $esp $T0 4 + =
STACK WIN 4 22721 7d 0 0 c 4 0 0 1 $T2 $esp .cbLocals + .cbSavedRegs + = $T0 .raSearchStart = $eip $T0 ^ = $esp $T0 4 + =
STACK WIN 4 2272f 6e 0 0 c 8 0 0 1 $T2 $esp .cbLocals + .cbSavedRegs + = $T0 .raSearchStart = $eip $T0 ^ = $esp $T0 4 + = $ebx $T0 8 - ^ =
STACK WIN 4 22734 68 0 0 c c 0 0 1 $T2 $esp .cbLocals + .cbSavedRegs + = $T0 .raSearchStart = $eip $T0 ^ = $esp $T0 4 + = $ebx $T0 8 - ^ =
STACK WIN 4 227a0 36 0 0 8 0 0 0 1 $T2 $esp .cbLocals + .cbSavedRegs + = $T0 .raSearchStart = $eip $T0 ^ = $esp $T0 4 + =
STACK WIN 4 227b1 e 0 0 8 4 0 0 1 $T2 $esp .cbLocals + .cbSavedRegs + = $T0 .raSearchStart = $eip $T0 ^ = $esp $T0 4 + =
STACK WIN 4 227e0 86 f 0 c 0 0 0 1 $T2 $esp .cbLocals + .cbSavedRegs + = $T0 .raSearchStart = $eip $T0 ^ = $esp $T0 4 + =
STACK WIN 4 227e5 7e a 0 c 4 0 0 1 $T2 $esp .cbLocals + .cbSavedRegs + = $T0 .raSearchStart = $eip $T0 ^ = $esp $T0 4 + = $ebx $T0 4 - ^ =
STACK WIN 4 227e6 7c 9 0 c 8 0 0 1 $T2 $esp .cbLocals + .cbSavedRegs + = $T0 .raSearchStart = $eip $T0 ^ = $esp $T0 4 + = $ebp $T0 8 - ^ = $ebx $T0 4 - ^ =
STACK WIN 4 227ee 73 1 0 c c 0 0 1 $T2 $esp .cbLocals + .cbSavedRegs + = $T0 .raSearchStart = $eip $T0 ^ = $esp $T0 4 + = $ebp $T0 8 - ^ = $ebx $T0 4 - ^ =
STACK WIN 4 227ef 6f 0 0 c 10 0 0 1 $T2 $esp .cbLocals + .cbSavedRegs + = $T0 .raSearchStart = $eip $T0 ^ = $esp $T0 4 + = $ebp $T0 8 - ^ = $ebx $T0 4 - ^ =
STACK WIN 4 22870 48 0 0 4 0 0 0 1 $T2 $esp .cbLocals + .cbSavedRegs + = $T0 .raSearchStart = $eip $T0 ^ = $esp $T0 4 + =
STACK WIN 4 22889 22 0 0 4 4 0 0 1 $T2 $esp .cbLocals + .cbSavedRegs + = $T0 .raSearchStart = $eip $T0 ^ = $esp $T0 4 + =
STACK WIN 4 228c0 5c 1 0 8 0 0 0 1 $T2 $esp .cbLocals + .cbSavedRegs + = $T0 .raSearchStart = $eip $T0 ^ = $esp $T0 4 + =
STACK WIN 4 228c1 5a 0 0 8 4 0 0 1 $T2 $esp .cbLocals + .cbSavedRegs + = $T0 .raSearchStart = $eip $T0 ^ = $esp $T0 4 + =
STACK WIN 4 228e0 24 0 0 8 8 0 0 1 $T2 $esp .cbLocals + .cbSavedRegs + = $T0 .raSearchStart = $eip $T0 ^ = $esp $T0 4 + =
STACK WIN 4 22920 66 2 0 8 0 0 0 1 $T2 $esp .cbLocals + .cbSavedRegs + = $T0 .raSearchStart = $eip $T0 ^ = $esp $T0 4 + =
STACK WIN 4 22921 64 1 0 8 4 0 0 1 $T2 $esp .cbLocals + .cbSavedRegs + = $T0 .raSearchStart = $eip $T0 ^ = $esp $T0 4 + =
STACK WIN 4 22922 5d 0 0 8 8 0 0 1 $T2 $esp .cbLocals + .cbSavedRegs + = $T0 .raSearchStart = $eip $T0 ^ = $esp $T0 4 + =
STACK WIN 4 22990 e9 8 0 8 0 0 0 1 $T2 $esp .cbLocals + .cbSavedRegs + = $T0 .raSearchStart = $eip $T0 ^ = $esp $T0 4 + =
STACK WIN 4 22991 e7 7 0 8 4 0 0 1 $T2 $esp .cbLocals + .cbSavedRegs + = $T0 .raSearchStart = $eip $T0 ^ = $esp $T0 4 + =
STACK WIN 4 22998 da 0 0 8 8 0 0 1 $T2 $esp .cbLocals + .cbSavedRegs + = $T0 .raSearchStart = $eip $T0 ^ = $esp $T0 4 + =
STACK WIN 4 229ba b0 0 0 8 c 0 0 1 $T2 $esp .cbLocals + .cbSavedRegs + = $T0 .raSearchStart = $eip $T0 ^ = $esp $T0 4 + = $ebx $T0 12 - ^ =
STACK WIN 4 22a80 4b 1 0 4 0 0 0 1 $T2 $esp .cbLocals + .cbSavedRegs + = $T0 .raSearchStart = $eip $T0 ^ = $esp $T0 4 + =
STACK WIN 4 22a81 49 0 0 4 4 0 0 1 $T2 $esp .cbLocals + .cbSavedRegs + = $T0 .raSearchStart = $eip $T0 ^ = $esp $T0 4 + =
STACK WIN 4 22ad0 2e 1 0 4 0 0 0 1 $T2 $esp .cbLocals + .cbSavedRegs + = $T0 .raSearchStart = $eip $T0 ^ = $esp $T0 4 + =
STACK WIN 4 22ad1 2c 0 0 4 4 0 0 1 $T2 $esp .cbLocals + .cbSavedRegs + = $T0 .raSearchStart = $eip $T0 ^ = $esp $T0 4 + =
STACK WIN 4 22b00 37 1 0 8 0 0 0 1 $T2 $esp .cbLocals + .cbSavedRegs + = $T0 .raSearchStart = $eip $T0 ^ = $esp $T0 4 + =
STACK WIN 4 22b01 35 0 0 8 4 0 0 1 $T2 $esp .cbLocals + .cbSavedRegs + = $T0 .raSearchStart = $eip $T0 ^ = $esp $T0 4 + =
STACK WIN 4 22b40 24 0 0 4 0 0 0 1 $T2 $esp .cbLocals + .cbSavedRegs + = $T0 .raSearchStart = $eip $T0 ^ = $esp $T0 4 + =
STACK WIN 4 22b70 12 0 0 4 0 0 0 1 $T2 $esp .cbLocals + .cbSavedRegs + = $T0 .raSearchStart = $eip $T0 ^ = $esp $T0 4 + =
STACK WIN 4 22b90 24 0 0 4 0 0 0 1 $T2 $esp .cbLocals + .cbSavedRegs + = $T0 .raSearchStart = $eip $T0 ^ = $esp $T0 4 + =
STACK WIN 4 22bc0 89 1 0 4 0 0 0 1 $T2 $esp .cbLocals + .cbSavedRegs + = $T0 .raSearchStart = $eip $T0 ^ = $esp $T0 4 + =
STACK WIN 4 22bc1 87 0 0 4 4 0 0 1 $T2 $esp .cbLocals + .cbSavedRegs + = $T0 .raSearchStart = $eip $T0 ^ = $esp $T0 4 + =
STACK WIN 4 22be4 5d 0 0 4 8 0 0 1 $T2 $esp .cbLocals + .cbSavedRegs + = $T0 .raSearchStart = $eip $T0 ^ = $esp $T0 4 + =
STACK WIN 4 22c50 43 14 0 4 0 0 0 1 $T2 $esp .cbLocals + .cbSavedRegs + = $T0 .raSearchStart = $eip $T0 ^ = $esp $T0 4 + =
STACK WIN 4 22c64 2e 0 0 4 4 0 0 1 $T2 $esp .cbLocals + .cbSavedRegs + = $T0 .raSearchStart = $eip $T0 ^ = $esp $T0 4 + =
STACK WIN 4 22ca0 81 e 0 8 0 0 0 1 $T2 $esp .cbLocals + .cbSavedRegs + = $T0 .raSearchStart = $eip $T0 ^ = $esp $T0 4 + =
STACK WIN 4 22ca5 7b 9 0 8 4 0 0 1 $T2 $esp .cbLocals + .cbSavedRegs + = $T0 .raSearchStart = $eip $T0 ^ = $esp $T0 4 + = $ebx $T0 4 - ^ =
STACK WIN 4 22ca6 77 8 0 8 8 0 0 1 $T2 $esp .cbLocals + .cbSavedRegs + = $T0 .raSearchStart = $eip $T0 ^ = $esp $T0 4 + = $ebx $T0 4 - ^ =
STACK WIN 4 22cae 6e 0 0 8 c 0 0 1 $T2 $esp .cbLocals + .cbSavedRegs + = $T0 .raSearchStart = $eip $T0 ^ = $esp $T0 4 + = $ebx $T0 4 - ^ =
STACK WIN 4 22d30 49 9 0 8 0 0 0 1 $T2 $esp .cbLocals + .cbSavedRegs + = $T0 .raSearchStart = $eip $T0 ^ = $esp $T0 4 + =
STACK WIN 4 22d31 47 8 0 8 4 0 0 1 $T2 $esp .cbLocals + .cbSavedRegs + = $T0 .raSearchStart = $eip $T0 ^ = $esp $T0 4 + =
STACK WIN 4 22d39 3c 0 0 8 8 0 0 1 $T2 $esp .cbLocals + .cbSavedRegs + = $T0 .raSearchStart = $eip $T0 ^ = $esp $T0 4 + =
STACK WIN 4 22d80 3d 16 0 8 0 0 0 1 $T2 $esp .cbLocals + .cbSavedRegs + = $T0 .raSearchStart = $eip $T0 ^ = $esp $T0 4 + =
STACK WIN 4 22d8b 31 b 0 8 4 0 0 1 $T2 $esp .cbLocals + .cbSavedRegs + = $T0 .raSearchStart = $eip $T0 ^ = $esp $T0 4 + = $ebx $T0 4 - ^ =
STACK WIN 4 22d8f 29 7 0 8 8 0 0 1 $T2 $esp .cbLocals + .cbSavedRegs + = $T0 .raSearchStart = $eip $T0 ^ = $esp $T0 4 + = $ebp $T0 8 - ^ = $ebx $T0 4 - ^ =
STACK WIN 4 22d92 25 4 0 8 c 0 0 1 $T2 $esp .cbLocals + .cbSavedRegs + = $T0 .raSearchStart = $eip $T0 ^ = $esp $T0 4 + = $ebp $T0 8 - ^ = $ebx $T0 4 - ^ =
STACK WIN 4 22d96 20 0 0 8 10 0 0 1 $T2 $esp .cbLocals + .cbSavedRegs + = $T0 .raSearchStart = $eip $T0 ^ = $esp $T0 4 + = $ebp $T0 8 - ^ = $ebx $T0 4 - ^ =
STACK WIN 4 22dc0 76 1 0 8 0 0 0 1 $T2 $esp .cbLocals + .cbSavedRegs + = $T0 .raSearchStart = $eip $T0 ^ = $esp $T0 4 + =
STACK WIN 4 22dc1 74 0 0 8 4 0 0 1 $T2 $esp .cbLocals + .cbSavedRegs + = $T0 .raSearchStart = $eip $T0 ^ = $esp $T0 4 + =
STACK WIN 4 22dce 66 0 0 8 8 0 0 1 $T2 $esp .cbLocals + .cbSavedRegs + = $T0 .raSearchStart = $eip $T0 ^ = $esp $T0 4 + =
STACK WIN 4 22e04 14 0 0 8 c 0 0 1 $T2 $esp .cbLocals + .cbSavedRegs + = $T0 .raSearchStart = $eip $T0 ^ = $esp $T0 4 + = $ebx $T0 20 - ^ =
STACK WIN 4 22e40 d0 2 0 8 0 4 0 1 $T2 $esp .cbLocals + .cbSavedRegs + = $T0 .raSearchStart = $eip $T0 ^ = $esp $T0 4 + =
STACK WIN 4 22e42 cc 0 0 8 4 4 0 1 $T2 $esp .cbLocals + .cbSavedRegs + = $T0 .raSearchStart = $eip $T0 ^ = $esp $T0 4 + =
STACK WIN 4 22e58 b5 0 0 8 8 4 0 1 $T2 $esp .cbLocals + .cbSavedRegs + = $T0 .raSearchStart = $eip $T0 ^ = $esp $T0 4 + = $ebx $T0 12 - ^ =
STACK WIN 4 22e59 b3 0 0 8 c 4 0 1 $T2 $esp .cbLocals + .cbSavedRegs + = $T0 .raSearchStart = $eip $T0 ^ = $esp $T0 4 + = $ebp $T0 16 - ^ = $ebx $T0 12 - ^ =
STACK WIN 4 22e5a b1 0 0 8 10 4 0 1 $T2 $esp .cbLocals + .cbSavedRegs + = $T0 .raSearchStart = $eip $T0 ^ = $esp $T0 4 + = $ebp $T0 16 - ^ = $ebx $T0 12 - ^ =
STACK WIN 4 22f10 63 0 0 8 0 0 0 1 $T2 $esp .cbLocals + .cbSavedRegs + = $T0 .raSearchStart = $eip $T0 ^ = $esp $T0 4 + =
STACK WIN 4 22f19 59 0 0 8 4 0 0 1 $T2 $esp .cbLocals + .cbSavedRegs + = $T0 .raSearchStart = $eip $T0 ^ = $esp $T0 4 + =
STACK WIN 4 22f4c 25 0 0 8 8 0 0 1 $T2 $esp .cbLocals + .cbSavedRegs + = $T0 .raSearchStart = $eip $T0 ^ = $esp $T0 4 + =
STACK WIN 4 22f55 10 0 0 8 c 0 0 1 $T2 $esp .cbLocals + .cbSavedRegs + = $T0 .raSearchStart = $eip $T0 ^ = $esp $T0 4 + = $ebx $T0 12 - ^ =
STACK WIN 4 22f80 59 3 0 4 0 0 0 1 $T2 $esp .cbLocals + .cbSavedRegs + = $T0 .raSearchStart = $eip $T0 ^ = $esp $T0 4 + =
STACK WIN 4 22f81 57 2 0 4 4 0 0 1 $T2 $esp .cbLocals + .cbSavedRegs + = $T0 .raSearchStart = $eip $T0 ^ = $esp $T0 4 + = $ebx $T0 4 - ^ =
STACK WIN 4 22f82 55 1 0 4 8 0 0 1 $T2 $esp .cbLocals + .cbSavedRegs + = $T0 .raSearchStart = $eip $T0 ^ = $esp $T0 4 + = $ebx $T0 4 - ^ =
STACK WIN 4 22f83 53 0 0 4 c 0 0 1 $T2 $esp .cbLocals + .cbSavedRegs + = $T0 .raSearchStart = $eip $T0 ^ = $esp $T0 4 + = $ebx $T0 4 - ^ =
STACK WIN 4 22f96 19 0 0 4 10 0 0 1 $T2 $esp .cbLocals + .cbSavedRegs + = $T0 .raSearchStart = $eip $T0 ^ = $esp $T0 4 + = $ebp $T0 16 - ^ = $ebx $T0 4 - ^ =
STACK WIN 4 22fe0 68 0 0 8 0 0 0 1 $T2 $esp .cbLocals + .cbSavedRegs + = $T0 .raSearchStart = $eip $T0 ^ = $esp $T0 4 + =
STACK WIN 4 22ff3 1e 0 0 8 4 0 0 1 $T2 $esp .cbLocals + .cbSavedRegs + = $T0 .raSearchStart = $eip $T0 ^ = $esp $T0 4 + =
STACK WIN 4 22ff7 19 0 0 8 8 0 0 1 $T2 $esp .cbLocals + .cbSavedRegs + = $T0 .raSearchStart = $eip $T0 ^ = $esp $T0 4 + =
STACK WIN 4 23050 a7 7 0 8 0 4 0 1 $T2 $esp .cbLocals + .cbSavedRegs + = $T0 .raSearchStart = $eip $T0 ^ = $esp $T0 4 + =
STACK WIN 4 23052 a3 5 0 8 4 4 0 1 $T2 $esp .cbLocals + .cbSavedRegs + = $T0 .raSearchStart = $eip $T0 ^ = $esp $T0 4 + =
STACK WIN 4 23057 9a 0 0 8 8 4 0 1 $T2 $esp .cbLocals + .cbSavedRegs + = $T0 .raSearchStart = $eip $T0 ^ = $esp $T0 4 + =
STACK WIN 4 23074 56 0 0 8 c 4 0 1 $T2 $esp .cbLocals + .cbSavedRegs + = $T0 .raSearchStart = $eip $T0 ^ = $esp $T0 4 + = $ebx $T0 24 - ^ =
STACK WIN 4 23081 48 0 0 8 10 4 0 1 $T2 $esp .cbLocals + .cbSavedRegs + = $T0 .raSearchStart = $eip $T0 ^ = $esp $T0 4 + = $ebp $T0 28 - ^ = $ebx $T0 24 - ^ =
STACK WIN 4 23100 4e 2 0 c 0 0 0 1 $T2 $esp .cbLocals + .cbSavedRegs + = $T0 .raSearchStart = $eip $T0 ^ = $esp $T0 4 + =
STACK WIN 4 23101 4c 1 0 c 4 0 0 1 $T2 $esp .cbLocals + .cbSavedRegs + = $T0 .raSearchStart = $eip $T0 ^ = $esp $T0 4 + =
STACK WIN 4 23102 4a 0 0 c 8 0 0 1 $T2 $esp .cbLocals + .cbSavedRegs + = $T0 .raSearchStart = $eip $T0 ^ = $esp $T0 4 + =
STACK WIN 4 23150 6e 7 0 8 0 0 0 1 $T2 $esp .cbLocals + .cbSavedRegs + = $T0 .raSearchStart = $eip $T0 ^ = $esp $T0 4 + =
STACK WIN 4 23151 6c 6 0 8 4 0 0 1 $T2 $esp .cbLocals + .cbSavedRegs + = $T0 .raSearchStart = $eip $T0 ^ = $esp $T0 4 + = $ebp $T0 4 - ^ =
STACK WIN 4 23152 6a 5 0 8 8 0 0 1 $T2 $esp .cbLocals + .cbSavedRegs + = $T0 .raSearchStart = $eip $T0 ^ = $esp $T0 4 + = $ebp $T0 4 - ^ =
STACK WIN 4 23157 64 0 0 8 c 0 0 1 $T2 $esp .cbLocals + .cbSavedRegs + = $T0 .raSearchStart = $eip $T0 ^ = $esp $T0 4 + = $ebp $T0 4 - ^ =
STACK WIN 4 23175 45 0 0 8 10 0 0 1 $T2 $esp .cbLocals + .cbSavedRegs + = $T0 .raSearchStart = $eip $T0 ^ = $esp $T0 4 + = $ebp $T0 4 - ^ = $ebx $T0 16 - ^ =
STACK WIN 4 231c0 78 2 0 8 0 0 0 1 $T2 $esp .cbLocals + .cbSavedRegs + = $T0 .raSearchStart = $eip $T0 ^ = $esp $T0 4 + =
STACK WIN 4 231c1 76 1 0 8 4 0 0 1 $T2 $esp .cbLocals + .cbSavedRegs + = $T0 .raSearchStart = $eip $T0 ^ = $esp $T0 4 + = $ebx $T0 4 - ^ =
STACK WIN 4 231c2 72 0 0 8 8 0 0 1 $T2 $esp .cbLocals + .cbSavedRegs + = $T0 .raSearchStart = $eip $T0 ^ = $esp $T0 4 + = $ebx $T0 4 - ^ =
STACK WIN 4 231e3 19 0 0 8 c 0 0 1 $T2 $esp .cbLocals + .cbSavedRegs + = $T0 .raSearchStart = $eip $T0 ^ = $esp $T0 4 + = $ebx $T0 4 - ^ =
STACK WIN 4 23240 139 1c 0 c 0 0 0 1 $T2 $esp .cbLocals + .cbSavedRegs + = $T0 .raSearchStart = $eip $T0 ^ = $esp $T0 4 + =
STACK WIN 4 23247 131 15 0 c 4 0 0 1 $T2 $esp .cbLocals + .cbSavedRegs + = $T0 .raSearchStart = $eip $T0 ^ = $esp $T0 4 + = $ebp $T0 4 - ^ =
STACK WIN 4 23256 121 6 0 c 8 0 0 1 $T2 $esp .cbLocals + .cbSavedRegs + = $T0 .raSearchStart = $eip $T0 ^ = $esp $T0 4 + = $ebp $T0 4 - ^ =
STACK WIN 4 2325c 11a 0 0 c c 0 0 1 $T2 $esp .cbLocals + .cbSavedRegs + = $T0 .raSearchStart = $eip $T0 ^ = $esp $T0 4 + = $ebp $T0 4 - ^ =
STACK WIN 4 232bb ba 0 0 c 10 0 0 1 $T2 $esp .cbLocals + .cbSavedRegs + = $T0 .raSearchStart = $eip $T0 ^ = $esp $T0 4 + = $ebp $T0 4 - ^ = $ebx $T0 16 - ^ =
STACK WIN 4 23380 9f 1c 0 8 0 0 0 1 $T2 $esp .cbLocals + .cbSavedRegs + = $T0 .raSearchStart = $eip $T0 ^ = $esp $T0 4 + =
STACK WIN 4 23385 99 17 0 8 4 0 0 1 $T2 $esp .cbLocals + .cbSavedRegs + = $T0 .raSearchStart = $eip $T0 ^ = $esp $T0 4 + = $ebx $T0 4 - ^ =
STACK WIN 4 23386 94 16 0 8 8 0 0 1 $T2 $esp .cbLocals + .cbSavedRegs + = $T0 .raSearchStart = $eip $T0 ^ = $esp $T0 4 + = $ebp $T0 8 - ^ = $ebx $T0 4 - ^ =
STACK WIN 4 2338e 86 e 0 8 c 0 0 1 $T2 $esp .cbLocals + .cbSavedRegs + = $T0 .raSearchStart = $eip $T0 ^ = $esp $T0 4 + = $ebp $T0 8 - ^ = $ebx $T0 4 - ^ =
STACK WIN 4 2339c 75 0 0 8 10 0 0 1 $T2 $esp .cbLocals + .cbSavedRegs + = $T0 .raSearchStart = $eip $T0 ^ = $esp $T0 4 + = $ebp $T0 8 - ^ = $ebx $T0 4 - ^ =
STACK WIN 4 23420 116 15 0 c 0 4 0 1 $T2 $esp .cbLocals + .cbSavedRegs + = $T0 .raSearchStart = $eip $T0 ^ = $esp $T0 4 + =
STACK WIN 4 2342c 108 9 0 c 4 4 0 1 $T2 $esp .cbLocals + .cbSavedRegs + = $T0 .raSearchStart = $eip $T0 ^ = $esp $T0 4 + =
STACK WIN 4 23435 fe 0 0 c 8 4 0 1 $T2 $esp .cbLocals + .cbSavedRegs + = $T0 .raSearchStart = $eip $T0 ^ = $esp $T0 4 + =
STACK WIN 4 23486 ac 0 0 c c 4 0 1 $T2 $esp .cbLocals + .cbSavedRegs + = $T0 .raSearchStart = $eip $T0 ^ = $esp $T0 4 + = $ebx $T0 16 - ^ =
STACK WIN 4 2348d a1 0 0 c 10 4 0 1 $T2 $esp .cbLocals + .cbSavedRegs + = $T0 .raSearchStart = $eip $T0 ^ = $esp $T0 4 + = $ebp $T0 20 - ^ = $ebx $T0 16 - ^ =
STACK WIN 4 23540 91 16 0 8 0 0 0 1 $T2 $esp .cbLocals + .cbSavedRegs + = $T0 .raSearchStart = $eip $T0 ^ = $esp $T0 4 + =
STACK WIN 4 23545 8b 11 0 8 4 0 0 1 $T2 $esp .cbLocals + .cbSavedRegs + = $T0 .raSearchStart = $eip $T0 ^ = $esp $T0 4 + = $ebx $T0 4 - ^ =
STACK WIN 4 23546 89 10 0 8 8 0 0 1 $T2 $esp .cbLocals + .cbSavedRegs + = $T0 .raSearchStart = $eip $T0 ^ = $esp $T0 4 + = $ebp $T0 8 - ^ = $ebx $T0 4 - ^ =
STACK WIN 4 23547 87 f 0 8 c 0 0 1 $T2 $esp .cbLocals + .cbSavedRegs + = $T0 .raSearchStart = $eip $T0 ^ = $esp $T0 4 + = $ebp $T0 8 - ^ = $ebx $T0 4 - ^ =
STACK WIN 4 23556 77 0 0 8 10 0 0 1 $T2 $esp .cbLocals + .cbSavedRegs + = $T0 .raSearchStart = $eip $T0 ^ = $esp $T0 4 + = $ebp $T0 8 - ^ = $ebx $T0 4 - ^ =
STACK WIN 4 235e0 98 d 0 8 0 0 0 1 $T2 $esp .cbLocals + .cbSavedRegs + = $T0 .raSearchStart = $eip $T0 ^ = $esp $T0 4 + =
STACK WIN 4 235e5 92 8 0 8 4 0 0 1 $T2 $esp .cbLocals + .cbSavedRegs + = $T0 .raSearchStart = $eip $T0 ^ = $esp $T0 4 + =
STACK WIN 4 235ed 87 0 0 8 8 0 0 1 $T2 $esp .cbLocals + .cbSavedRegs + = $T0 .raSearchStart = $eip $T0 ^ = $esp $T0 4 + =
STACK WIN 4 235fd 64 0 0 8 c 0 0 1 $T2 $esp .cbLocals + .cbSavedRegs + = $T0 .raSearchStart = $eip $T0 ^ = $esp $T0 4 + = $ebx $T0 12 - ^ =
STACK WIN 4 23680 26 0 0 8 0 0 0 1 $T2 $esp .cbLocals + .cbSavedRegs + = $T0 .raSearchStart = $eip $T0 ^ = $esp $T0 4 + =
STACK WIN 4 236b0 4f 0 0 4 0 0 0 1 $T2 $esp .cbLocals + .cbSavedRegs + = $T0 .raSearchStart = $eip $T0 ^ = $esp $T0 4 + =
STACK WIN 4 23700 7c 2 0 8 0 0 0 1 $T2 $esp .cbLocals + .cbSavedRegs + = $T0 .raSearchStart = $eip $T0 ^ = $esp $T0 4 + =
STACK WIN 4 23701 40 1 0 8 4 0 0 1 $T2 $esp .cbLocals + .cbSavedRegs + = $T0 .raSearchStart = $eip $T0 ^ = $esp $T0 4 + =
STACK WIN 4 23702 3e 0 0 8 8 0 0 1 $T2 $esp .cbLocals + .cbSavedRegs + = $T0 .raSearchStart = $eip $T0 ^ = $esp $T0 4 + =
STACK WIN 4 23780 135 9 0 c 0 0 0 1 $T2 $esp .cbLocals + .cbSavedRegs + = $T0 .raSearchStart = $eip $T0 ^ = $esp $T0 4 + =
STACK WIN 4 23781 133 8 0 c 4 0 0 1 $T2 $esp .cbLocals + .cbSavedRegs + = $T0 .raSearchStart = $eip $T0 ^ = $esp $T0 4 + = $ebx $T0 4 - ^ =
STACK WIN 4 23782 12c 7 0 c 8 0 0 1 $T2 $esp .cbLocals + .cbSavedRegs + = $T0 .raSearchStart = $eip $T0 ^ = $esp $T0 4 + = $ebx $T0 4 - ^ =
STACK WIN 4 23789 124 0 0 c c 0 0 1 $T2 $esp .cbLocals + .cbSavedRegs + = $T0 .raSearchStart = $eip $T0 ^ = $esp $T0 4 + = $ebx $T0 4 - ^ =
STACK WIN 4 237e1 c5 0 0 c 10 0 0 1 $T2 $esp .cbLocals + .cbSavedRegs + = $T0 .raSearchStart = $eip $T0 ^ = $esp $T0 4 + = $ebp $T0 16 - ^ = $ebx $T0 4 - ^ =
STACK WIN 4 238c0 69 5 0 4 0 0 0 1 $T2 $esp .cbLocals + .cbSavedRegs + = $T0 .raSearchStart = $eip $T0 ^ = $esp $T0 4 + =
STACK WIN 4 238c5 63 0 0 4 4 0 0 1 $T2 $esp .cbLocals + .cbSavedRegs + = $T0 .raSearchStart = $eip $T0 ^ = $esp $T0 4 + =
STACK WIN 4 2390f 18 0 0 4 8 0 0 1 $T2 $esp .cbLocals + .cbSavedRegs + = $T0 .raSearchStart = $eip $T0 ^ = $esp $T0 4 + =
STACK WIN 4 23930 ad b 0 c 0 0 0 1 $T2 $esp .cbLocals + .cbSavedRegs + = $T0 .raSearchStart = $eip $T0 ^ = $esp $T0 4 + =
STACK WIN 4 23931 ab a 0 c 4 0 0 1 $T2 $esp .cbLocals + .cbSavedRegs + = $T0 .raSearchStart = $eip $T0 ^ = $esp $T0 4 + = $ebx $T0 4 - ^ =
STACK WIN 4 23936 a0 5 0 c 8 0 0 1 $T2 $esp .cbLocals + .cbSavedRegs + = $T0 .raSearchStart = $eip $T0 ^ = $esp $T0 4 + = $ebx $T0 4 - ^ =
STACK WIN 4 2393b 9a 0 0 c c 0 0 1 $T2 $esp .cbLocals + .cbSavedRegs + = $T0 .raSearchStart = $eip $T0 ^ = $esp $T0 4 + = $ebx $T0 4 - ^ =
STACK WIN 4 239e0 c8 7 0 c 0 0 0 1 $T2 $esp .cbLocals + .cbSavedRegs + = $T0 .raSearchStart = $eip $T0 ^ = $esp $T0 4 + =
STACK WIN 4 239e1 c6 6 0 c 4 0 0 1 $T2 $esp .cbLocals + .cbSavedRegs + = $T0 .raSearchStart = $eip $T0 ^ = $esp $T0 4 + = $ebx $T0 4 - ^ =
STACK WIN 4 239e2 bf 5 0 c 8 0 0 1 $T2 $esp .cbLocals + .cbSavedRegs + = $T0 .raSearchStart = $eip $T0 ^ = $esp $T0 4 + = $ebp $T0 8 - ^ = $ebx $T0 4 - ^ =
STACK WIN 4 239e7 b9 0 0 c c 0 0 1 $T2 $esp .cbLocals + .cbSavedRegs + = $T0 .raSearchStart = $eip $T0 ^ = $esp $T0 4 + = $ebp $T0 8 - ^ = $ebx $T0 4 - ^ =
STACK WIN 4 23a26 12 0 0 c 10 0 0 1 $T2 $esp .cbLocals + .cbSavedRegs + = $T0 .raSearchStart = $eip $T0 ^ = $esp $T0 4 + = $ebp $T0 8 - ^ = $ebx $T0 4 - ^ =
STACK WIN 4 23ab0 14 0 0 4 0 0 0 1 $T2 $esp .cbLocals + .cbSavedRegs + = $T0 .raSearchStart = $eip $T0 ^ = $esp $T0 4 + =
STACK WIN 4 23ad0 45 0 0 8 0 0 0 1 $T2 $esp .cbLocals + .cbSavedRegs + = $T0 .raSearchStart = $eip $T0 ^ = $esp $T0 4 + =
STACK WIN 4 23ae3 31 0 0 8 4 0 0 1 $T2 $esp .cbLocals + .cbSavedRegs + = $T0 .raSearchStart = $eip $T0 ^ = $esp $T0 4 + = $ebx $T0 4 - ^ =
STACK WIN 4 23ae7 29 0 0 8 8 0 0 1 $T2 $esp .cbLocals + .cbSavedRegs + = $T0 .raSearchStart = $eip $T0 ^ = $esp $T0 4 + = $ebp $T0 8 - ^ = $ebx $T0 4 - ^ =
STACK WIN 4 23aea 25 0 0 8 c 0 0 1 $T2 $esp .cbLocals + .cbSavedRegs + = $T0 .raSearchStart = $eip $T0 ^ = $esp $T0 4 + = $ebp $T0 8 - ^ = $ebx $T0 4 - ^ =
STACK WIN 4 23aee 20 0 0 8 10 0 0 1 $T2 $esp .cbLocals + .cbSavedRegs + = $T0 .raSearchStart = $eip $T0 ^ = $esp $T0 4 + = $ebp $T0 8 - ^ = $ebx $T0 4 - ^ =
STACK WIN 4 23b20 31 7 0 8 0 0 0 1 $T2 $esp .cbLocals + .cbSavedRegs + = $T0 .raSearchStart = $eip $T0 ^ = $esp $T0 4 + =
STACK WIN 4 23b27 29 0 0 8 4 0 0 1 $T2 $esp .cbLocals + .cbSavedRegs + = $T0 .raSearchStart = $eip $T0 ^ = $esp $T0 4 + =
STACK WIN 4 23b60 4c 7 0 8 0 0 0 1 $T2 $esp .cbLocals + .cbSavedRegs + = $T0 .raSearchStart = $eip $T0 ^ = $esp $T0 4 + =
STACK WIN 4 23b67 44 0 0 8 4 0 0 1 $T2 $esp .cbLocals + .cbSavedRegs + = $T0 .raSearchStart = $eip $T0 ^ = $esp $T0 4 + =
STACK WIN 4 23bb0 6e 9 0 c 0 0 0 1 $T2 $esp .cbLocals + .cbSavedRegs + = $T0 .raSearchStart = $eip $T0 ^ = $esp $T0 4 + =
STACK WIN 4 23bb1 6c 8 0 c 4 0 0 1 $T2 $esp .cbLocals + .cbSavedRegs + = $T0 .raSearchStart = $eip $T0 ^ = $esp $T0 4 + = $ebx $T0 4 - ^ =
STACK WIN 4 23bb8 5f 1 0 c 8 0 0 1 $T2 $esp .cbLocals + .cbSavedRegs + = $T0 .raSearchStart = $eip $T0 ^ = $esp $T0 4 + = $ebx $T0 4 - ^ =
STACK WIN 4 23bb9 5d 0 0 c c 0 0 1 $T2 $esp .cbLocals + .cbSavedRegs + = $T0 .raSearchStart = $eip $T0 ^ = $esp $T0 4 + = $ebx $T0 4 - ^ =
STACK WIN 4 23c20 bb 9 0 c 0 0 0 1 $T2 $esp .cbLocals + .cbSavedRegs + = $T0 .raSearchStart = $eip $T0 ^ = $esp $T0 4 + =
STACK WIN 4 23c21 b9 8 0 c 4 0 0 1 $T2 $esp .cbLocals + .cbSavedRegs + = $T0 .raSearchStart = $eip $T0 ^ = $esp $T0 4 + = $ebx $T0 4 - ^ =
STACK WIN 4 23c22 b2 7 0 c 8 0 0 1 $T2 $esp .cbLocals + .cbSavedRegs + = $T0 .raSearchStart = $eip $T0 ^ = $esp $T0 4 + = $ebx $T0 4 - ^ =
STACK WIN 4 23c29 aa 0 0 c c 0 0 1 $T2 $esp .cbLocals + .cbSavedRegs + = $T0 .raSearchStart = $eip $T0 ^ = $esp $T0 4 + = $ebx $T0 4 - ^ =
STACK WIN 4 23ce0 1d5 c 0 c 0 1c 0 1 $T2 $esp .cbLocals + .cbSavedRegs + = $T0 .raSearchStart = $eip $T0 ^ = $esp $T0 4 + =
STACK WIN 4 23ce4 1cd 8 0 c 4 1c 0 1 $T2 $esp .cbLocals + .cbSavedRegs + = $T0 .raSearchStart = $eip $T0 ^ = $esp $T0 4 + = $ebx $T0 32 - ^ =
STACK WIN 4 23ce5 1cb 7 0 c 8 1c 0 1 $T2 $esp .cbLocals + .cbSavedRegs + = $T0 .raSearchStart = $eip $T0 ^ = $esp $T0 4 + = $ebx $T0 32 - ^ =
STACK WIN 4 23cec 1c3 0 0 c c 1c 0 1 $T2 $esp .cbLocals + .cbSavedRegs + = $T0 .raSearchStart = $eip $T0 ^ = $esp $T0 4 + = $ebx $T0 32 - ^ =
STACK WIN 4 23dab 8f 0 0 c 10 1c 0 1 $T2 $esp .cbLocals + .cbSavedRegs + = $T0 .raSearchStart = $eip $T0 ^ = $esp $T0 4 + = $ebp $T0 52 - ^ = $ebx $T0 32 - ^ =
STACK WIN 4 23ec0 15a a 0 8 0 14 0 1 $T2 $esp .cbLocals + .cbSavedRegs + = $T0 .raSearchStart = $eip $T0 ^ = $esp $T0 4 + =
STACK WIN 4 23ec4 152 6 0 8 4 14 0 1 $T2 $esp .cbLocals + .cbSavedRegs + = $T0 .raSearchStart = $eip $T0 ^ = $esp $T0 4 + = $ebx $T0 24 - ^ =
STACK WIN 4 23ec5 150 5 0 8 8 14 0 1 $T2 $esp .cbLocals + .cbSavedRegs + = $T0 .raSearchStart = $eip $T0 ^ = $esp $T0 4 + = $ebp $T0 28 - ^ = $ebx $T0 24 - ^ =
STACK WIN 4 23eca 14a 0 0 8 c 14 0 1 $T2 $esp .cbLocals + .cbSavedRegs + = $T0 .raSearchStart = $eip $T0 ^ = $esp $T0 4 + = $ebp $T0 28 - ^ = $ebx $T0 24 - ^ =
STACK WIN 4 23f13 f4 0 0 8 10 14 0 1 $T2 $esp .cbLocals + .cbSavedRegs + = $T0 .raSearchStart = $eip $T0 ^ = $esp $T0 4 + = $ebp $T0 28 - ^ = $ebx $T0 24 - ^ =
STACK WIN 4 24020 62 1 0 10 0 0 0 1 $T2 $esp .cbLocals + .cbSavedRegs + = $T0 .raSearchStart = $eip $T0 ^ = $esp $T0 4 + =
STACK WIN 4 24021 60 0 0 10 4 0 0 1 $T2 $esp .cbLocals + .cbSavedRegs + = $T0 .raSearchStart = $eip $T0 ^ = $esp $T0 4 + =
STACK WIN 4 2402f 51 0 0 10 8 0 0 1 $T2 $esp .cbLocals + .cbSavedRegs + = $T0 .raSearchStart = $eip $T0 ^ = $esp $T0 4 + =
STACK WIN 4 24046 39 0 0 10 c 0 0 1 $T2 $esp .cbLocals + .cbSavedRegs + = $T0 .raSearchStart = $eip $T0 ^ = $esp $T0 4 + = $ebx $T0 12 - ^ =
STACK WIN 4 24090 17 0 0 8 0 0 0 1 $T2 $esp .cbLocals + .cbSavedRegs + = $T0 .raSearchStart = $eip $T0 ^ = $esp $T0 4 + =
STACK WIN 4 240b0 30 0 0 8 0 0 0 1 $T2 $esp .cbLocals + .cbSavedRegs + = $T0 .raSearchStart = $eip $T0 ^ = $esp $T0 4 + =
STACK WIN 4 240e0 3f 0 0 8 0 0 0 1 $T2 $esp .cbLocals + .cbSavedRegs + = $T0 .raSearchStart = $eip $T0 ^ = $esp $T0 4 + =
STACK WIN 4 240f1 26 0 0 8 4 0 0 1 $T2 $esp .cbLocals + .cbSavedRegs + = $T0 .raSearchStart = $eip $T0 ^ = $esp $T0 4 + =
STACK WIN 4 24120 232 6 0 c 0 34 0 1 $T2 $esp .cbLocals + .cbSavedRegs + = $T0 .raSearchStart = $eip $T0 ^ = $esp $T0 4 + =
STACK WIN 4 24124 22a 2 0 c 4 34 0 1 $T2 $esp .cbLocals + .cbSavedRegs + = $T0 .raSearchStart = $eip $T0 ^ = $esp $T0 4 + = $ebx $T0 56 - ^ =
STACK WIN 4 24125 223 1 0 c 8 34 0 1 $T2 $esp .cbLocals + .cbSavedRegs + = $T0 .raSearchStart = $eip $T0 ^ = $esp $T0 4 + = $ebp $T0 60 - ^ = $ebx $T0 56 - ^ =
STACK WIN 4 24126 221 0 0 c c 34 0 1 $T2 $esp .cbLocals + .cbSavedRegs + = $T0 .raSearchStart = $eip $T0 ^ = $esp $T0 4 + = $ebp $T0 60 - ^ = $ebx $T0 56 - ^ =
STACK WIN 4 24154 1eb 0 0 c 10 34 0 1 $T2 $esp .cbLocals + .cbSavedRegs + = $T0 .raSearchStart = $eip $T0 ^ = $esp $T0 4 + = $ebp $T0 60 - ^ = $ebx $T0 56 - ^ =
STACK WIN 4 24360 11a 13 0 10 0 4 0 1 $T2 $esp .cbLocals + .cbSavedRegs + = $T0 .raSearchStart = $eip $T0 ^ = $esp $T0 4 + =
STACK WIN 4 24369 10f a 0 10 4 4 0 1 $T2 $esp .cbLocals + .cbSavedRegs + = $T0 .raSearchStart = $eip $T0 ^ = $esp $T0 4 + = $ebx $T0 8 - ^ =
STACK WIN 4 2436e 109 5 0 10 8 4 0 1 $T2 $esp .cbLocals + .cbSavedRegs + = $T0 .raSearchStart = $eip $T0 ^ = $esp $T0 4 + = $ebp $T0 12 - ^ = $ebx $T0 8 - ^ =
STACK WIN 4 24373 103 0 0 10 c 4 0 1 $T2 $esp .cbLocals + .cbSavedRegs + = $T0 .raSearchStart = $eip $T0 ^ = $esp $T0 4 + = $ebp $T0 12 - ^ = $ebx $T0 8 - ^ =
STACK WIN 4 243de 65 0 0 10 10 4 0 1 $T2 $esp .cbLocals + .cbSavedRegs + = $T0 .raSearchStart = $eip $T0 ^ = $esp $T0 4 + = $ebp $T0 12 - ^ = $ebx $T0 8 - ^ =
STACK WIN 4 24480 108 c 0 c 0 10 0 1 $T2 $esp .cbLocals + .cbSavedRegs + = $T0 .raSearchStart = $eip $T0 ^ = $esp $T0 4 + =
STACK WIN 4 24484 100 8 0 c 4 10 0 1 $T2 $esp .cbLocals + .cbSavedRegs + = $T0 .raSearchStart = $eip $T0 ^ = $esp $T0 4 + = $ebx $T0 20 - ^ =
STACK WIN 4 24485 fe 7 0 c 8 10 0 1 $T2 $esp .cbLocals + .cbSavedRegs + = $T0 .raSearchStart = $eip $T0 ^ = $esp $T0 4 + = $ebx $T0 20 - ^ =
STACK WIN 4 2448c f6 0 0 c c 10 0 1 $T2 $esp .cbLocals + .cbSavedRegs + = $T0 .raSearchStart = $eip $T0 ^ = $esp $T0 4 + = $ebx $T0 20 - ^ =
STACK WIN 4 24590 267 12 0 c 0 50 0 1 $T2 $esp .cbLocals + .cbSavedRegs + = $T0 .raSearchStart = $eip $T0 ^ = $esp $T0 4 + =
STACK WIN 4 24598 25b a 0 c 4 50 0 1 $T2 $esp .cbLocals + .cbSavedRegs + = $T0 .raSearchStart = $eip $T0 ^ = $esp $T0 4 + = $ebx $T0 84 - ^ =
STACK WIN 4 2459d 255 5 0 c 8 50 0 1 $T2 $esp .cbLocals + .cbSavedRegs + = $T0 .raSearchStart = $eip $T0 ^ = $esp $T0 4 + = $ebp $T0 88 - ^ = $ebx $T0 84 - ^ =
STACK WIN 4 245a2 24f 0 0 c c 50 0 1 $T2 $esp .cbLocals + .cbSavedRegs + = $T0 .raSearchStart = $eip $T0 ^ = $esp $T0 4 + = $ebp $T0 88 - ^ = $ebx $T0 84 - ^ =
STACK WIN 4 245c3 22d 0 0 c 10 50 0 1 $T2 $esp .cbLocals + .cbSavedRegs + = $T0 .raSearchStart = $eip $T0 ^ = $esp $T0 4 + = $ebp $T0 88 - ^ = $ebx $T0 84 - ^ =
STACK WIN 4 24800 aa 8 0 8 0 0 0 1 $T2 $esp .cbLocals + .cbSavedRegs + = $T0 .raSearchStart = $eip $T0 ^ = $esp $T0 4 + =
STACK WIN 4 24801 a8 7 0 8 4 0 0 1 $T2 $esp .cbLocals + .cbSavedRegs + = $T0 .raSearchStart = $eip $T0 ^ = $esp $T0 4 + = $ebx $T0 4 - ^ =
STACK WIN 4 24808 a0 0 0 8 8 0 0 1 $T2 $esp .cbLocals + .cbSavedRegs + = $T0 .raSearchStart = $eip $T0 ^ = $esp $T0 4 + = $ebx $T0 4 - ^ =
STACK WIN 4 24857 50 0 0 8 c 0 0 1 $T2 $esp .cbLocals + .cbSavedRegs + = $T0 .raSearchStart = $eip $T0 ^ = $esp $T0 4 + = $ebp $T0 12 - ^ = $ebx $T0 4 - ^ =
STACK WIN 4 24858 4c 0 0 8 10 0 0 1 $T2 $esp .cbLocals + .cbSavedRegs + = $T0 .raSearchStart = $eip $T0 ^ = $esp $T0 4 + = $ebp $T0 12 - ^ = $ebx $T0 4 - ^ =
STACK WIN 4 248b0 177 5 0 c 0 24 0 1 $T2 $esp .cbLocals + .cbSavedRegs + = $T0 .raSearchStart = $eip $T0 ^ = $esp $T0 4 + =
STACK WIN 4 248b4 16f 1 0 c 4 24 0 1 $T2 $esp .cbLocals + .cbSavedRegs + = $T0 .raSearchStart = $eip $T0 ^ = $esp $T0 4 + = $ebx $T0 40 - ^ =
STACK WIN 4 248b5 16d 0 0 c 8 24 0 1 $T2 $esp .cbLocals + .cbSavedRegs + = $T0 .raSearchStart = $eip $T0 ^ = $esp $T0 4 + = $ebx $T0 40 - ^ =
STACK WIN 4 248e0 141 0 0 c c 24 0 1 $T2 $esp .cbLocals + .cbSavedRegs + = $T0 .raSearchStart = $eip $T0 ^ = $esp $T0 4 + = $ebp $T0 48 - ^ = $ebx $T0 40 - ^ =
STACK WIN 4 2490b 115 0 0 c 10 24 0 1 $T2 $esp .cbLocals + .cbSavedRegs + = $T0 .raSearchStart = $eip $T0 ^ = $esp $T0 4 + = $ebp $T0 48 - ^ = $ebx $T0 40 - ^ =
STACK WIN 4 24a30 83 4 0 4 0 10 0 1 $T2 $esp .cbLocals + .cbSavedRegs + = $T0 .raSearchStart = $eip $T0 ^ = $esp $T0 4 + =
STACK WIN 4 24a34 7b 0 0 4 4 10 0 1 $T2 $esp .cbLocals + .cbSavedRegs + = $T0 .raSearchStart = $eip $T0 ^ = $esp $T0 4 + =
STACK WIN 4 24a50 5e 0 0 4 8 10 0 1 $T2 $esp .cbLocals + .cbSavedRegs + = $T0 .raSearchStart = $eip $T0 ^ = $esp $T0 4 + = $ebx $T0 32 - ^ =
STACK WIN 4 24a71 2d 0 0 4 c 10 0 1 $T2 $esp .cbLocals + .cbSavedRegs + = $T0 .raSearchStart = $eip $T0 ^ = $esp $T0 4 + = $ebp $T0 44 - ^ = $ebx $T0 32 - ^ =
STACK WIN 4 24a89 10 0 0 4 10 10 0 1 $T2 $esp .cbLocals + .cbSavedRegs + = $T0 .raSearchStart = $eip $T0 ^ = $esp $T0 4 + = $ebp $T0 44 - ^ = $ebx $T0 32 - ^ =
STACK WIN 4 24ac0 124 4 0 c 0 10 0 1 $T2 $esp .cbLocals + .cbSavedRegs + = $T0 .raSearchStart = $eip $T0 ^ = $esp $T0 4 + =
STACK WIN 4 24ac4 11c 0 0 c 4 10 0 1 $T2 $esp .cbLocals + .cbSavedRegs + = $T0 .raSearchStart = $eip $T0 ^ = $esp $T0 4 + =
STACK WIN 4 24adf 100 0 0 c 8 10 0 1 $T2 $esp .cbLocals + .cbSavedRegs + = $T0 .raSearchStart = $eip $T0 ^ = $esp $T0 4 + = $ebx $T0 32 - ^ =
STACK WIN 4 24ae0 fc 0 0 c c 10 0 1 $T2 $esp .cbLocals + .cbSavedRegs + = $T0 .raSearchStart = $eip $T0 ^ = $esp $T0 4 + = $ebx $T0 32 - ^ =
STACK WIN 4 24bf0 49 8 0 4 0 0 0 1 $T2 $esp .cbLocals + .cbSavedRegs + = $T0 .raSearchStart = $eip $T0 ^ = $esp $T0 4 + =
STACK WIN 4 24bf8 40 0 0 4 4 0 0 1 $T2 $esp .cbLocals + .cbSavedRegs + = $T0 .raSearchStart = $eip $T0 ^ = $esp $T0 4 + =
STACK WIN 4 24c40 59 e 0 8 0 0 0 1 $T2 $esp .cbLocals + .cbSavedRegs + = $T0 .raSearchStart = $eip $T0 ^ = $esp $T0 4 + =
STACK WIN 4 24c41 57 d 0 8 4 0 0 1 $T2 $esp .cbLocals + .cbSavedRegs + = $T0 .raSearchStart = $eip $T0 ^ = $esp $T0 4 + = $ebx $T0 4 - ^ =
STACK WIN 4 24c48 4d 6 0 8 8 0 0 1 $T2 $esp .cbLocals + .cbSavedRegs + = $T0 .raSearchStart = $eip $T0 ^ = $esp $T0 4 + = $ebx $T0 4 - ^ =
STACK WIN 4 24c4e 46 0 0 8 c 0 0 1 $T2 $esp .cbLocals + .cbSavedRegs + = $T0 .raSearchStart = $eip $T0 ^ = $esp $T0 4 + = $ebx $T0 4 - ^ =
STACK WIN 4 24ca0 44 1 0 8 0 0 0 1 $T2 $esp .cbLocals + .cbSavedRegs + = $T0 .raSearchStart = $eip $T0 ^ = $esp $T0 4 + =
STACK WIN 4 24ca1 42 0 0 8 4 0 0 1 $T2 $esp .cbLocals + .cbSavedRegs + = $T0 .raSearchStart = $eip $T0 ^ = $esp $T0 4 + =
STACK WIN 4 24cf0 e0 a 0 c 0 10 0 1 $T2 $esp .cbLocals + .cbSavedRegs + = $T0 .raSearchStart = $eip $T0 ^ = $esp $T0 4 + =
STACK WIN 4 24cfa d2 0 0 c 4 10 0 1 $T2 $esp .cbLocals + .cbSavedRegs + = $T0 .raSearchStart = $eip $T0 ^ = $esp $T0 4 + = $ebx $T0 20 - ^ =
STACK WIN 4 24d0d b4 0 0 c 8 10 0 1 $T2 $esp .cbLocals + .cbSavedRegs + = $T0 .raSearchStart = $eip $T0 ^ = $esp $T0 4 + = $ebx $T0 20 - ^ =
STACK WIN 4 24d2a 96 0 0 c c 10 0 1 $T2 $esp .cbLocals + .cbSavedRegs + = $T0 .raSearchStart = $eip $T0 ^ = $esp $T0 4 + = $ebx $T0 20 - ^ =
STACK WIN 4 24dd0 e9 a 0 c 0 10 0 1 $T2 $esp .cbLocals + .cbSavedRegs + = $T0 .raSearchStart = $eip $T0 ^ = $esp $T0 4 + =
STACK WIN 4 24dda db 0 0 c 4 10 0 1 $T2 $esp .cbLocals + .cbSavedRegs + = $T0 .raSearchStart = $eip $T0 ^ = $esp $T0 4 + = $ebp $T0 20 - ^ =
STACK WIN 4 24ded bd 0 0 c 8 10 0 1 $T2 $esp .cbLocals + .cbSavedRegs + = $T0 .raSearchStart = $eip $T0 ^ = $esp $T0 4 + = $ebp $T0 20 - ^ =
STACK WIN 4 24e0b 9e 0 0 c c 10 0 1 $T2 $esp .cbLocals + .cbSavedRegs + = $T0 .raSearchStart = $eip $T0 ^ = $esp $T0 4 + = $ebp $T0 20 - ^ =
STACK WIN 4 24ec0 e7 7 0 10 0 10 0 1 $T2 $esp .cbLocals + .cbSavedRegs + = $T0 .raSearchStart = $eip $T0 ^ = $esp $T0 4 + =
STACK WIN 4 24ed3 d0 0 0 10 4 10 0 1 $T2 $esp .cbLocals + .cbSavedRegs + = $T0 .raSearchStart = $eip $T0 ^ = $esp $T0 4 + =
STACK WIN 4 24ee4 be 0 0 10 8 10 0 1 $T2 $esp .cbLocals + .cbSavedRegs + = $T0 .raSearchStart = $eip $T0 ^ = $esp $T0 4 + =
STACK WIN 4 24f00 25 0 0 10 c 10 0 1 $T2 $esp .cbLocals + .cbSavedRegs + = $T0 .raSearchStart = $eip $T0 ^ = $esp $T0 4 + = $ebx $T0 32 - ^ =
STACK WIN 4 24fb0 35 7 0 8 0 0 0 1 $T2 $esp .cbLocals + .cbSavedRegs + = $T0 .raSearchStart = $eip $T0 ^ = $esp $T0 4 + =
STACK WIN 4 24fb7 2d 0 0 8 4 0 0 1 $T2 $esp .cbLocals + .cbSavedRegs + = $T0 .raSearchStart = $eip $T0 ^ = $esp $T0 4 + =
STACK WIN 4 24ff0 5f 7 0 c 0 0 0 1 $T2 $esp .cbLocals + .cbSavedRegs + = $T0 .raSearchStart = $eip $T0 ^ = $esp $T0 4 + =
STACK WIN 4 24ff7 57 0 0 c 4 0 0 1 $T2 $esp .cbLocals + .cbSavedRegs + = $T0 .raSearchStart = $eip $T0 ^ = $esp $T0 4 + =
STACK WIN 4 25050 a6 4 0 8 0 10 0 1 $T2 $esp .cbLocals + .cbSavedRegs + = $T0 .raSearchStart = $eip $T0 ^ = $esp $T0 4 + =
STACK WIN 4 25054 9e 0 0 8 4 10 0 1 $T2 $esp .cbLocals + .cbSavedRegs + = $T0 .raSearchStart = $eip $T0 ^ = $esp $T0 4 + =
STACK WIN 4 25069 88 0 0 8 8 10 0 1 $T2 $esp .cbLocals + .cbSavedRegs + = $T0 .raSearchStart = $eip $T0 ^ = $esp $T0 4 + =
STACK WIN 4 25100 27a f 0 c 0 30 0 1 $T2 $esp .cbLocals + .cbSavedRegs + = $T0 .raSearchStart = $eip $T0 ^ = $esp $T0 4 + =
STACK WIN 4 25104 272 b 0 c 4 30 0 1 $T2 $esp .cbLocals + .cbSavedRegs + = $T0 .raSearchStart = $eip $T0 ^ = $esp $T0 4 + = $ebx $T0 52 - ^ =
STACK WIN 4 25105 270 a 0 c 8 30 0 1 $T2 $esp .cbLocals + .cbSavedRegs + = $T0 .raSearchStart = $eip $T0 ^ = $esp $T0 4 + = $ebp $T0 56 - ^ = $ebx $T0 52 - ^ =
STACK WIN 4 25106 26e 9 0 c c 30 0 1 $T2 $esp .cbLocals + .cbSavedRegs + = $T0 .raSearchStart = $eip $T0 ^ = $esp $T0 4 + = $ebp $T0 56 - ^ = $ebx $T0 52 - ^ =
STACK WIN 4 2510f 264 0 0 c 10 30 0 1 $T2 $esp .cbLocals + .cbSavedRegs + = $T0 .raSearchStart = $eip $T0 ^ = $esp $T0 4 + = $ebp $T0 56 - ^ = $ebx $T0 52 - ^ =
STACK WIN 4 25380 fc d 0 c 0 4 0 1 $T2 $esp .cbLocals + .cbSavedRegs + = $T0 .raSearchStart = $eip $T0 ^ = $esp $T0 4 + =
STACK WIN 4 25382 f8 b 0 c 4 4 0 1 $T2 $esp .cbLocals + .cbSavedRegs + = $T0 .raSearchStart = $eip $T0 ^ = $esp $T0 4 + = $ebx $T0 8 - ^ =
STACK WIN 4 25383 f6 a 0 c 8 4 0 1 $T2 $esp .cbLocals + .cbSavedRegs + = $T0 .raSearchStart = $eip $T0 ^ = $esp $T0 4 + = $ebp $T0 12 - ^ = $ebx $T0 8 - ^ =
STACK WIN 4 25388 f0 5 0 c c 4 0 1 $T2 $esp .cbLocals + .cbSavedRegs + = $T0 .raSearchStart = $eip $T0 ^ = $esp $T0 4 + = $ebp $T0 12 - ^ = $ebx $T0 8 - ^ =
STACK WIN 4 2538d ea 0 0 c 10 4 0 1 $T2 $esp .cbLocals + .cbSavedRegs + = $T0 .raSearchStart = $eip $T0 ^ = $esp $T0 4 + = $ebp $T0 12 - ^ = $ebx $T0 8 - ^ =
STACK WIN 4 25480 306 4 0 c 0 34 0 1 $T2 $esp .cbLocals + .cbSavedRegs + = $T0 .raSearchStart = $eip $T0 ^ = $esp $T0 4 + =
STACK WIN 4 25484 2fe 0 0 c 4 34 0 1 $T2 $esp .cbLocals + .cbSavedRegs + = $T0 .raSearchStart = $eip $T0 ^ = $esp $T0 4 + = $ebx $T0 56 - ^ =
STACK WIN 4 254a6 2db 0 0 c 8 34 0 1 $T2 $esp .cbLocals + .cbSavedRegs + = $T0 .raSearchStart = $eip $T0 ^ = $esp $T0 4 + = $ebx $T0 56 - ^ =
STACK WIN 4 254a7 2d9 0 0 c c 34 0 1 $T2 $esp .cbLocals + .cbSavedRegs + = $T0 .raSearchStart = $eip $T0 ^ = $esp $T0 4 + = $ebx $T0 56 - ^ =
STACK WIN 4 25560 1f5 0 0 c 10 34 0 1 $T2 $esp .cbLocals + .cbSavedRegs + = $T0 .raSearchStart = $eip $T0 ^ = $esp $T0 4 + = $ebp $T0 88 - ^ = $ebx $T0 56 - ^ =
STACK WIN 4 25790 1ea d 0 10 0 38 0 1 $T2 $esp .cbLocals + .cbSavedRegs + = $T0 .raSearchStart = $eip $T0 ^ = $esp $T0 4 + =
STACK WIN 4 25794 1e2 9 0 10 4 38 0 1 $T2 $esp .cbLocals + .cbSavedRegs + = $T0 .raSearchStart = $eip $T0 ^ = $esp $T0 4 + = $ebx $T0 60 - ^ =
STACK WIN 4 2579d 1d3 0 0 10 8 38 0 1 $T2 $esp .cbLocals + .cbSavedRegs + = $T0 .raSearchStart = $eip $T0 ^ = $esp $T0 4 + = $ebp $T0 64 - ^ = $ebx $T0 60 - ^ =
STACK WIN 4 257d8 191 0 0 10 c 38 0 1 $T2 $esp .cbLocals + .cbSavedRegs + = $T0 .raSearchStart = $eip $T0 ^ = $esp $T0 4 + = $ebp $T0 64 - ^ = $ebx $T0 60 - ^ =
STACK WIN 4 257d9 18d 0 0 10 10 38 0 1 $T2 $esp .cbLocals + .cbSavedRegs + = $T0 .raSearchStart = $eip $T0 ^ = $esp $T0 4 + = $ebp $T0 64 - ^ = $ebx $T0 60 - ^ =
STACK WIN 4 25980 99 9 0 c 0 0 0 1 $T2 $esp .cbLocals + .cbSavedRegs + = $T0 .raSearchStart = $eip $T0 ^ = $esp $T0 4 + =
STACK WIN 4 25981 97 8 0 c 4 0 0 1 $T2 $esp .cbLocals + .cbSavedRegs + = $T0 .raSearchStart = $eip $T0 ^ = $esp $T0 4 + = $ebx $T0 4 - ^ =
STACK WIN 4 25988 8f 1 0 c 8 0 0 1 $T2 $esp .cbLocals + .cbSavedRegs + = $T0 .raSearchStart = $eip $T0 ^ = $esp $T0 4 + = $ebx $T0 4 - ^ =
STACK WIN 4 25989 8d 0 0 c c 0 0 1 $T2 $esp .cbLocals + .cbSavedRegs + = $T0 .raSearchStart = $eip $T0 ^ = $esp $T0 4 + = $ebx $T0 4 - ^ =
STACK WIN 4 25a20 1b8 5 0 8 0 20 0 1 $T2 $esp .cbLocals + .cbSavedRegs + = $T0 .raSearchStart = $eip $T0 ^ = $esp $T0 4 + =
STACK WIN 4 25a24 1b0 1 0 8 4 20 0 1 $T2 $esp .cbLocals + .cbSavedRegs + = $T0 .raSearchStart = $eip $T0 ^ = $esp $T0 4 + = $ebp $T0 36 - ^ =
STACK WIN 4 25a25 1a9 0 0 8 8 20 0 1 $T2 $esp .cbLocals + .cbSavedRegs + = $T0 .raSearchStart = $eip $T0 ^ = $esp $T0 4 + = $ebp $T0 36 - ^ =
STACK WIN 4 25a3e 189 0 0 8 c 20 0 1 $T2 $esp .cbLocals + .cbSavedRegs + = $T0 .raSearchStart = $eip $T0 ^ = $esp $T0 4 + = $ebp $T0 36 - ^ = $ebx $T0 44 - ^ =
STACK WIN 4 25a86 140 0 0 8 10 20 0 1 $T2 $esp .cbLocals + .cbSavedRegs + = $T0 .raSearchStart = $eip $T0 ^ = $esp $T0 4 + = $ebp $T0 36 - ^ = $ebx $T0 44 - ^ =
STACK WIN 4 25be0 47 8 0 10 0 0 0 1 $T2 $esp .cbLocals + .cbSavedRegs + = $T0 .raSearchStart = $eip $T0 ^ = $esp $T0 4 + =
STACK WIN 4 25be7 3f 1 0 10 4 0 0 1 $T2 $esp .cbLocals + .cbSavedRegs + = $T0 .raSearchStart = $eip $T0 ^ = $esp $T0 4 + =
STACK WIN 4 25be8 3d 0 0 10 8 0 0 1 $T2 $esp .cbLocals + .cbSavedRegs + = $T0 .raSearchStart = $eip $T0 ^ = $esp $T0 4 + =
STACK WIN 4 25c30 47 8 0 10 0 0 0 1 $T2 $esp .cbLocals + .cbSavedRegs + = $T0 .raSearchStart = $eip $T0 ^ = $esp $T0 4 + =
STACK WIN 4 25c37 3f 1 0 10 4 0 0 1 $T2 $esp .cbLocals + .cbSavedRegs + = $T0 .raSearchStart = $eip $T0 ^ = $esp $T0 4 + =
STACK WIN 4 25c38 3d 0 0 10 8 0 0 1 $T2 $esp .cbLocals + .cbSavedRegs + = $T0 .raSearchStart = $eip $T0 ^ = $esp $T0 4 + =
STACK WIN 4 25c80 47 8 0 10 0 0 0 1 $T2 $esp .cbLocals + .cbSavedRegs + = $T0 .raSearchStart = $eip $T0 ^ = $esp $T0 4 + =
STACK WIN 4 25c87 3f 1 0 10 4 0 0 1 $T2 $esp .cbLocals + .cbSavedRegs + = $T0 .raSearchStart = $eip $T0 ^ = $esp $T0 4 + =
STACK WIN 4 25c88 3d 0 0 10 8 0 0 1 $T2 $esp .cbLocals + .cbSavedRegs + = $T0 .raSearchStart = $eip $T0 ^ = $esp $T0 4 + =
STACK WIN 4 25cd0 3e 8 0 c 0 0 0 1 $T2 $esp .cbLocals + .cbSavedRegs + = $T0 .raSearchStart = $eip $T0 ^ = $esp $T0 4 + =
STACK WIN 4 25cd7 36 1 0 c 4 0 0 1 $T2 $esp .cbLocals + .cbSavedRegs + = $T0 .raSearchStart = $eip $T0 ^ = $esp $T0 4 + =
STACK WIN 4 25cd8 34 0 0 c 8 0 0 1 $T2 $esp .cbLocals + .cbSavedRegs + = $T0 .raSearchStart = $eip $T0 ^ = $esp $T0 4 + =
STACK WIN 4 25d10 285 b 0 10 0 30 0 1 $T2 $esp .cbLocals + .cbSavedRegs + = $T0 .raSearchStart = $eip $T0 ^ = $esp $T0 4 + =
STACK WIN 4 25d14 27d 7 0 10 4 30 0 1 $T2 $esp .cbLocals + .cbSavedRegs + = $T0 .raSearchStart = $eip $T0 ^ = $esp $T0 4 + =
STACK WIN 4 25d1b 270 0 0 10 8 30 0 1 $T2 $esp .cbLocals + .cbSavedRegs + = $T0 .raSearchStart = $eip $T0 ^ = $esp $T0 4 + =
STACK WIN 4 25d3c 243 0 0 10 c 30 0 1 $T2 $esp .cbLocals + .cbSavedRegs + = $T0 .raSearchStart = $eip $T0 ^ = $esp $T0 4 + = $ebp $T0 60 - ^ =
STACK WIN 4 25e01 14d 0 0 10 10 30 0 1 $T2 $esp .cbLocals + .cbSavedRegs + = $T0 .raSearchStart = $eip $T0 ^ = $esp $T0 4 + = $ebp $T0 60 - ^ = $ebx $T0 136 - ^ =
STACK WIN 4 25fa0 297 5 0 c 0 70 0 1 $T2 $esp .cbLocals + .cbSavedRegs + = $T0 .raSearchStart = $eip $T0 ^ = $esp $T0 4 + =
STACK WIN 4 25fa4 28f 1 0 c 4 70 0 1 $T2 $esp .cbLocals + .cbSavedRegs + = $T0 .raSearchStart = $eip $T0 ^ = $esp $T0 4 + = $ebx $T0 116 - ^ =
STACK WIN 4 25fa5 28d 0 0 c 8 70 0 1 $T2 $esp .cbLocals + .cbSavedRegs + = $T0 .raSearchStart = $eip $T0 ^ = $esp $T0 4 + = $ebx $T0 116 - ^ =
STACK WIN 4 25fca 267 0 0 c c 70 0 1 $T2 $esp .cbLocals + .cbSavedRegs + = $T0 .raSearchStart = $eip $T0 ^ = $esp $T0 4 + = $ebx $T0 116 - ^ =
STACK WIN 4 260cb 117 0 0 c 10 70 0 1 $T2 $esp .cbLocals + .cbSavedRegs + = $T0 .raSearchStart = $eip $T0 ^ = $esp $T0 4 + = $ebp $T0 192 - ^ = $ebx $T0 116 - ^ =
STACK WIN 4 26240 88 8 0 c 0 0 0 1 $T2 $esp .cbLocals + .cbSavedRegs + = $T0 .raSearchStart = $eip $T0 ^ = $esp $T0 4 + =
STACK WIN 4 26247 80 1 0 c 4 0 0 1 $T2 $esp .cbLocals + .cbSavedRegs + = $T0 .raSearchStart = $eip $T0 ^ = $esp $T0 4 + =
STACK WIN 4 26248 79 0 0 c 8 0 0 1 $T2 $esp .cbLocals + .cbSavedRegs + = $T0 .raSearchStart = $eip $T0 ^ = $esp $T0 4 + =
STACK WIN 4 262d0 8f 0 0 10 0 0 0 1 $T2 $esp .cbLocals + .cbSavedRegs + = $T0 .raSearchStart = $eip $T0 ^ = $esp $T0 4 + =
STACK WIN 4 26360 9c 0 0 10 0 0 0 1 $T2 $esp .cbLocals + .cbSavedRegs + = $T0 .raSearchStart = $eip $T0 ^ = $esp $T0 4 + =
STACK WIN 4 26400 c4 0 0 10 0 0 0 1 $T2 $esp .cbLocals + .cbSavedRegs + = $T0 .raSearchStart = $eip $T0 ^ = $esp $T0 4 + =
STACK WIN 4 264d0 d7 0 0 c 0 0 0 1 $T2 $esp .cbLocals + .cbSavedRegs + = $T0 .raSearchStart = $eip $T0 ^ = $esp $T0 4 + =
STACK WIN 4 265b0 20 0 0 14 0 0 0 1 $T2 $esp .cbLocals + .cbSavedRegs + = $T0 .raSearchStart = $eip $T0 ^ = $esp $T0 4 + =
STACK WIN 4 265d0 72 0 0 0 0 0 0 1 $T2 $esp .cbLocals + .cbSavedRegs + = $T0 .raSearchStart = $eip $T0 ^ = $esp $T0 4 + =
STACK WIN 4 265ed 43 0 0 0 4 0 0 1 $T2 $esp .cbLocals + .cbSavedRegs + = $T0 .raSearchStart = $eip $T0 ^ = $esp $T0 4 + =
STACK WIN 4 26650 1cf e 0 4 8 24 0 1 $T2 $esp .cbLocals + .cbSavedRegs + = $T0 .raSearchStart = $eip $T0 ^ = $esp $T0 4 + =
STACK WIN 4 26654 1cb a 0 4 c 24 0 1 $T2 $esp .cbLocals + .cbSavedRegs + = $T0 .raSearchStart = $eip $T0 ^ = $esp $T0 4 + = $ebx $T0 40 - ^ =
STACK WIN 4 26655 1ca 9 0 4 10 24 0 1 $T2 $esp .cbLocals + .cbSavedRegs + = $T0 .raSearchStart = $eip $T0 ^ = $esp $T0 4 + = $ebp $T0 44 - ^ = $ebx $T0 40 - ^ =
STACK WIN 4 26820 5c 7 0 0 8 10 0 1 $T2 $esp .cbLocals + .cbSavedRegs + = $T0 .raSearchStart = $eip $T0 ^ = $esp $T0 4 + =
STACK WIN 4 26824 58 3 0 0 c 10 0 1 $T2 $esp .cbLocals + .cbSavedRegs + = $T0 .raSearchStart = $eip $T0 ^ = $esp $T0 4 + = $ebx $T0 20 - ^ =
STACK WIN 4 26825 57 2 0 0 10 10 0 1 $T2 $esp .cbLocals + .cbSavedRegs + = $T0 .raSearchStart = $eip $T0 ^ = $esp $T0 4 + = $ebp $T0 24 - ^ = $ebx $T0 20 - ^ =
STACK WIN 4 26880 13e 11 0 0 8 24 0 1 $T2 $esp .cbLocals + .cbSavedRegs + = $T0 .raSearchStart = $eip $T0 ^ = $esp $T0 4 + =
STACK WIN 4 2688f 12f 2 0 0 c 24 0 1 $T2 $esp .cbLocals + .cbSavedRegs + = $T0 .raSearchStart = $eip $T0 ^ = $esp $T0 4 + = $ebx $T0 40 - ^ =
STACK WIN 4 269c0 126 11 0 0 8 58 0 1 $T2 $esp .cbLocals + .cbSavedRegs + = $T0 .raSearchStart = $eip $T0 ^ = $esp $T0 4 + =
STACK WIN 4 269cf 117 2 0 0 c 58 0 1 $T2 $esp .cbLocals + .cbSavedRegs + = $T0 .raSearchStart = $eip $T0 ^ = $esp $T0 4 + = $ebx $T0 92 - ^ =
STACK WIN 4 26af0 18 0 0 c 0 0 0 1 $T2 $esp .cbLocals + .cbSavedRegs + = $T0 .raSearchStart = $eip $T0 ^ = $esp $T0 4 + =
STACK WIN 4 26b10 77 1 0 4 0 0 0 1 $T2 $esp .cbLocals + .cbSavedRegs + = $T0 .raSearchStart = $eip $T0 ^ = $esp $T0 4 + =
STACK WIN 4 26b11 75 0 0 4 4 0 0 1 $T2 $esp .cbLocals + .cbSavedRegs + = $T0 .raSearchStart = $eip $T0 ^ = $esp $T0 4 + =
STACK WIN 4 26b2e 57 0 0 4 8 0 0 1 $T2 $esp .cbLocals + .cbSavedRegs + = $T0 .raSearchStart = $eip $T0 ^ = $esp $T0 4 + =
STACK WIN 4 26b90 ae 2 0 0 0 0 0 1 $T2 $esp .cbLocals + .cbSavedRegs + = $T0 .raSearchStart = $eip $T0 ^ = $esp $T0 4 + =
STACK WIN 4 26b91 ac 1 0 0 4 0 0 1 $T2 $esp .cbLocals + .cbSavedRegs + = $T0 .raSearchStart = $eip $T0 ^ = $esp $T0 4 + =
STACK WIN 4 26b92 a8 0 0 0 8 0 0 1 $T2 $esp .cbLocals + .cbSavedRegs + = $T0 .raSearchStart = $eip $T0 ^ = $esp $T0 4 + =
STACK WIN 4 26c40 f1 1 0 1c 0 0 0 1 $T2 $esp .cbLocals + .cbSavedRegs + = $T0 .raSearchStart = $eip $T0 ^ = $esp $T0 4 + =
STACK WIN 4 26c41 ef 0 0 1c 4 0 0 1 $T2 $esp .cbLocals + .cbSavedRegs + = $T0 .raSearchStart = $eip $T0 ^ = $esp $T0 4 + =
STACK WIN 4 26d40 228 c 0 8 0 60 0 1 $T2 $esp .cbLocals + .cbSavedRegs + = $T0 .raSearchStart = $eip $T0 ^ = $esp $T0 4 + =
STACK WIN 4 26d44 220 8 0 8 4 60 0 1 $T2 $esp .cbLocals + .cbSavedRegs + = $T0 .raSearchStart = $eip $T0 ^ = $esp $T0 4 + = $ebx $T0 100 - ^ =
STACK WIN 4 26d45 21e 7 0 8 8 60 0 1 $T2 $esp .cbLocals + .cbSavedRegs + = $T0 .raSearchStart = $eip $T0 ^ = $esp $T0 4 + = $ebp $T0 104 - ^ = $ebx $T0 100 - ^ =
STACK WIN 4 26d4c 214 0 0 8 c 60 0 1 $T2 $esp .cbLocals + .cbSavedRegs + = $T0 .raSearchStart = $eip $T0 ^ = $esp $T0 4 + = $ebp $T0 104 - ^ = $ebx $T0 100 - ^ =
STACK WIN 4 26ded 11d 0 0 8 10 60 0 1 $T2 $esp .cbLocals + .cbSavedRegs + = $T0 .raSearchStart = $eip $T0 ^ = $esp $T0 4 + = $ebp $T0 104 - ^ = $ebx $T0 100 - ^ =
STACK WIN 4 26f70 54 8 0 4 0 0 0 1 $T2 $esp .cbLocals + .cbSavedRegs + = $T0 .raSearchStart = $eip $T0 ^ = $esp $T0 4 + =
STACK WIN 4 26f71 52 7 0 4 4 0 0 1 $T2 $esp .cbLocals + .cbSavedRegs + = $T0 .raSearchStart = $eip $T0 ^ = $esp $T0 4 + = $ebx $T0 4 - ^ =
STACK WIN 4 26f76 4c 2 0 4 8 0 0 1 $T2 $esp .cbLocals + .cbSavedRegs + = $T0 .raSearchStart = $eip $T0 ^ = $esp $T0 4 + = $ebp $T0 8 - ^ = $ebx $T0 4 - ^ =
STACK WIN 4 26f77 4a 1 0 4 c 0 0 1 $T2 $esp .cbLocals + .cbSavedRegs + = $T0 .raSearchStart = $eip $T0 ^ = $esp $T0 4 + = $ebp $T0 8 - ^ = $ebx $T0 4 - ^ =
STACK WIN 4 26f78 48 0 0 4 10 0 0 1 $T2 $esp .cbLocals + .cbSavedRegs + = $T0 .raSearchStart = $eip $T0 ^ = $esp $T0 4 + = $ebp $T0 8 - ^ = $ebx $T0 4 - ^ =
STACK WIN 4 26fd0 73 1 0 4 0 0 0 1 $T2 $esp .cbLocals + .cbSavedRegs + = $T0 .raSearchStart = $eip $T0 ^ = $esp $T0 4 + =
STACK WIN 4 26fd1 71 0 0 4 4 0 0 1 $T2 $esp .cbLocals + .cbSavedRegs + = $T0 .raSearchStart = $eip $T0 ^ = $esp $T0 4 + =
STACK WIN 4 26fde 63 0 0 4 8 0 0 1 $T2 $esp .cbLocals + .cbSavedRegs + = $T0 .raSearchStart = $eip $T0 ^ = $esp $T0 4 + =
STACK WIN 4 27050 d9 3 0 4 0 0 0 1 $T2 $esp .cbLocals + .cbSavedRegs + = $T0 .raSearchStart = $eip $T0 ^ = $esp $T0 4 + =
STACK WIN 4 27051 d7 2 0 4 4 0 0 1 $T2 $esp .cbLocals + .cbSavedRegs + = $T0 .raSearchStart = $eip $T0 ^ = $esp $T0 4 + = $ebx $T0 4 - ^ =
STACK WIN 4 27052 d3 1 0 4 8 0 0 1 $T2 $esp .cbLocals + .cbSavedRegs + = $T0 .raSearchStart = $eip $T0 ^ = $esp $T0 4 + = $ebx $T0 4 - ^ =
STACK WIN 4 27053 d1 0 0 4 c 0 0 1 $T2 $esp .cbLocals + .cbSavedRegs + = $T0 .raSearchStart = $eip $T0 ^ = $esp $T0 4 + = $ebx $T0 4 - ^ =
STACK WIN 4 27130 23 0 0 4 0 0 0 1 $T2 $esp .cbLocals + .cbSavedRegs + = $T0 .raSearchStart = $eip $T0 ^ = $esp $T0 4 + =
STACK WIN 4 27160 198 e 0 18 0 10 0 1 $T2 $esp .cbLocals + .cbSavedRegs + = $T0 .raSearchStart = $eip $T0 ^ = $esp $T0 4 + =
STACK WIN 4 27164 190 a 0 18 4 10 0 1 $T2 $esp .cbLocals + .cbSavedRegs + = $T0 .raSearchStart = $eip $T0 ^ = $esp $T0 4 + = $ebp $T0 20 - ^ =
STACK WIN 4 27169 185 5 0 18 8 10 0 1 $T2 $esp .cbLocals + .cbSavedRegs + = $T0 .raSearchStart = $eip $T0 ^ = $esp $T0 4 + = $ebp $T0 20 - ^ =
STACK WIN 4 2716e 17f 0 0 18 c 10 0 1 $T2 $esp .cbLocals + .cbSavedRegs + = $T0 .raSearchStart = $eip $T0 ^ = $esp $T0 4 + = $ebp $T0 20 - ^ =
STACK WIN 4 27181 153 0 0 18 10 10 0 1 $T2 $esp .cbLocals + .cbSavedRegs + = $T0 .raSearchStart = $eip $T0 ^ = $esp $T0 4 + = $ebp $T0 20 - ^ = $ebx $T0 32 - ^ =
STACK WIN 4 27300 697 8 0 1c 0 218 0 1 $T2 $esp .cbLocals + .cbSavedRegs + = $T0 .raSearchStart = $eip $T0 ^ = $esp $T0 4 + =
STACK WIN 4 27307 689 1 0 1c 4 218 0 1 $T2 $esp .cbLocals + .cbSavedRegs + = $T0 .raSearchStart = $eip $T0 ^ = $esp $T0 4 + = $ebp $T0 540 - ^ =
STACK WIN 4 27308 687 0 0 1c 8 218 0 1 $T2 $esp .cbLocals + .cbSavedRegs + = $T0 .raSearchStart = $eip $T0 ^ = $esp $T0 4 + = $ebp $T0 540 - ^ =
STACK WIN 4 2732b 663 0 0 1c c 218 0 1 $T2 $esp .cbLocals + .cbSavedRegs + = $T0 .raSearchStart = $eip $T0 ^ = $esp $T0 4 + = $ebp $T0 540 - ^ =
STACK WIN 4 273cf 596 0 0 1c 10 218 0 1 $T2 $esp .cbLocals + .cbSavedRegs + = $T0 .raSearchStart = $eip $T0 ^ = $esp $T0 4 + = $ebp $T0 540 - ^ = $ebx $T0 552 - ^ =
STACK WIN 4 279a0 138 6 0 1c 0 20 0 1 $T2 $esp .cbLocals + .cbSavedRegs + = $T0 .raSearchStart = $eip $T0 ^ = $esp $T0 4 + =
STACK WIN 4 279a6 12e 0 0 1c 4 20 0 1 $T2 $esp .cbLocals + .cbSavedRegs + = $T0 .raSearchStart = $eip $T0 ^ = $esp $T0 4 + = $ebp $T0 36 - ^ =
STACK WIN 4 279c1 112 0 0 1c 8 20 0 1 $T2 $esp .cbLocals + .cbSavedRegs + = $T0 .raSearchStart = $eip $T0 ^ = $esp $T0 4 + = $ebp $T0 36 - ^ = $ebx $T0 40 - ^ =
STACK WIN 4 279c2 110 0 0 1c c 20 0 1 $T2 $esp .cbLocals + .cbSavedRegs + = $T0 .raSearchStart = $eip $T0 ^ = $esp $T0 4 + = $ebp $T0 36 - ^ = $ebx $T0 40 - ^ =
STACK WIN 4 279c3 10c 0 0 1c 10 20 0 1 $T2 $esp .cbLocals + .cbSavedRegs + = $T0 .raSearchStart = $eip $T0 ^ = $esp $T0 4 + = $ebp $T0 36 - ^ = $ebx $T0 40 - ^ =
STACK WIN 4 27ae0 33 1 0 4 0 0 0 1 $T2 $esp .cbLocals + .cbSavedRegs + = $T0 .raSearchStart = $eip $T0 ^ = $esp $T0 4 + =
STACK WIN 4 27ae1 31 0 0 4 4 0 0 1 $T2 $esp .cbLocals + .cbSavedRegs + = $T0 .raSearchStart = $eip $T0 ^ = $esp $T0 4 + =
STACK WIN 4 27b20 45 9 0 10 0 0 0 1 $T2 $esp .cbLocals + .cbSavedRegs + = $T0 .raSearchStart = $eip $T0 ^ = $esp $T0 4 + =
STACK WIN 4 27b29 3b 0 0 10 4 0 0 1 $T2 $esp .cbLocals + .cbSavedRegs + = $T0 .raSearchStart = $eip $T0 ^ = $esp $T0 4 + =
STACK WIN 4 27b3d 26 0 0 10 8 0 0 1 $T2 $esp .cbLocals + .cbSavedRegs + = $T0 .raSearchStart = $eip $T0 ^ = $esp $T0 4 + =
STACK WIN 4 27b70 3b 1 0 c 0 0 0 1 $T2 $esp .cbLocals + .cbSavedRegs + = $T0 .raSearchStart = $eip $T0 ^ = $esp $T0 4 + =
STACK WIN 4 27b71 39 0 0 c 4 0 0 1 $T2 $esp .cbLocals + .cbSavedRegs + = $T0 .raSearchStart = $eip $T0 ^ = $esp $T0 4 + =
STACK WIN 4 27bb0 94 10 0 10 0 0 0 1 $T2 $esp .cbLocals + .cbSavedRegs + = $T0 .raSearchStart = $eip $T0 ^ = $esp $T0 4 + =
STACK WIN 4 27bb1 92 f 0 10 4 0 0 1 $T2 $esp .cbLocals + .cbSavedRegs + = $T0 .raSearchStart = $eip $T0 ^ = $esp $T0 4 + = $ebx $T0 4 - ^ =
STACK WIN 4 27bb6 8c a 0 10 8 0 0 1 $T2 $esp .cbLocals + .cbSavedRegs + = $T0 .raSearchStart = $eip $T0 ^ = $esp $T0 4 + = $ebp $T0 8 - ^ = $ebx $T0 4 - ^ =
STACK WIN 4 27bbb 86 5 0 10 c 0 0 1 $T2 $esp .cbLocals + .cbSavedRegs + = $T0 .raSearchStart = $eip $T0 ^ = $esp $T0 4 + = $ebp $T0 8 - ^ = $ebx $T0 4 - ^ =
STACK WIN 4 27bc0 80 0 0 10 10 0 0 1 $T2 $esp .cbLocals + .cbSavedRegs + = $T0 .raSearchStart = $eip $T0 ^ = $esp $T0 4 + = $ebp $T0 8 - ^ = $ebx $T0 4 - ^ =
STACK WIN 4 27c50 192 e 0 10 0 8 0 1 $T2 $esp .cbLocals + .cbSavedRegs + = $T0 .raSearchStart = $eip $T0 ^ = $esp $T0 4 + =
STACK WIN 4 27c54 18a a 0 10 4 8 0 1 $T2 $esp .cbLocals + .cbSavedRegs + = $T0 .raSearchStart = $eip $T0 ^ = $esp $T0 4 + = $ebx $T0 12 - ^ =
STACK WIN 4 27c55 188 9 0 10 8 8 0 1 $T2 $esp .cbLocals + .cbSavedRegs + = $T0 .raSearchStart = $eip $T0 ^ = $esp $T0 4 + = $ebp $T0 16 - ^ = $ebx $T0 12 - ^ =
STACK WIN 4 27c56 186 8 0 10 c 8 0 1 $T2 $esp .cbLocals + .cbSavedRegs + = $T0 .raSearchStart = $eip $T0 ^ = $esp $T0 4 + = $ebp $T0 16 - ^ = $ebx $T0 12 - ^ =
STACK WIN 4 27c5e 17d 0 0 10 10 8 0 1 $T2 $esp .cbLocals + .cbSavedRegs + = $T0 .raSearchStart = $eip $T0 ^ = $esp $T0 4 + = $ebp $T0 16 - ^ = $ebx $T0 12 - ^ =
STACK WIN 4 27df0 230 10 0 10 0 c 0 1 $T2 $esp .cbLocals + .cbSavedRegs + = $T0 .raSearchStart = $eip $T0 ^ = $esp $T0 4 + =
STACK WIN 4 27df4 208 c 0 10 4 c 0 1 $T2 $esp .cbLocals + .cbSavedRegs + = $T0 .raSearchStart = $eip $T0 ^ = $esp $T0 4 + = $ebx $T0 16 - ^ =
STACK WIN 4 27dfc 1ff 4 0 10 8 c 0 1 $T2 $esp .cbLocals + .cbSavedRegs + = $T0 .raSearchStart = $eip $T0 ^ = $esp $T0 4 + = $ebp $T0 20 - ^ = $ebx $T0 16 - ^ =
STACK WIN 4 27dfd 1fd 3 0 10 c c 0 1 $T2 $esp .cbLocals + .cbSavedRegs + = $T0 .raSearchStart = $eip $T0 ^ = $esp $T0 4 + = $ebp $T0 20 - ^ = $ebx $T0 16 - ^ =
STACK WIN 4 27e00 1f9 0 0 10 10 c 0 1 $T2 $esp .cbLocals + .cbSavedRegs + = $T0 .raSearchStart = $eip $T0 ^ = $esp $T0 4 + = $ebp $T0 20 - ^ = $ebx $T0 16 - ^ =
STACK WIN 4 28020 2c0 1a 0 10 0 10 0 1 $T2 $esp .cbLocals + .cbSavedRegs + = $T0 .raSearchStart = $eip $T0 ^ = $esp $T0 4 + =
STACK WIN 4 28024 28d 16 0 10 4 10 0 1 $T2 $esp .cbLocals + .cbSavedRegs + = $T0 .raSearchStart = $eip $T0 ^ = $esp $T0 4 + = $ebx $T0 20 - ^ =
STACK WIN 4 28025 28b 15 0 10 8 10 0 1 $T2 $esp .cbLocals + .cbSavedRegs + = $T0 .raSearchStart = $eip $T0 ^ = $esp $T0 4 + = $ebp $T0 24 - ^ = $ebx $T0 20 - ^ =
STACK WIN 4 28037 278 3 0 10 c 10 0 1 $T2 $esp .cbLocals + .cbSavedRegs + = $T0 .raSearchStart = $eip $T0 ^ = $esp $T0 4 + = $ebp $T0 24 - ^ = $ebx $T0 20 - ^ =
STACK WIN 4 2803a 274 0 0 10 10 10 0 1 $T2 $esp .cbLocals + .cbSavedRegs + = $T0 .raSearchStart = $eip $T0 ^ = $esp $T0 4 + = $ebp $T0 24 - ^ = $ebx $T0 20 - ^ =
STACK WIN 4 282e0 350 1e 0 10 0 1c 0 1 $T2 $esp .cbLocals + .cbSavedRegs + = $T0 .raSearchStart = $eip $T0 ^ = $esp $T0 4 + =
STACK WIN 4 282e4 315 1a 0 10 4 1c 0 1 $T2 $esp .cbLocals + .cbSavedRegs + = $T0 .raSearchStart = $eip $T0 ^ = $esp $T0 4 + = $ebx $T0 32 - ^ =
STACK WIN 4 282e5 313 19 0 10 8 1c 0 1 $T2 $esp .cbLocals + .cbSavedRegs + = $T0 .raSearchStart = $eip $T0 ^ = $esp $T0 4 + = $ebp $T0 36 - ^ = $ebx $T0 32 - ^ =
STACK WIN 4 282fb 2fc 3 0 10 c 1c 0 1 $T2 $esp .cbLocals + .cbSavedRegs + = $T0 .raSearchStart = $eip $T0 ^ = $esp $T0 4 + = $ebp $T0 36 - ^ = $ebx $T0 32 - ^ =
STACK WIN 4 282fe 2f8 0 0 10 10 1c 0 1 $T2 $esp .cbLocals + .cbSavedRegs + = $T0 .raSearchStart = $eip $T0 ^ = $esp $T0 4 + = $ebp $T0 36 - ^ = $ebx $T0 32 - ^ =
STACK WIN 4 28630 129 c 0 10 0 4 0 1 $T2 $esp .cbLocals + .cbSavedRegs + = $T0 .raSearchStart = $eip $T0 ^ = $esp $T0 4 + =
STACK WIN 4 28639 11e 3 0 10 4 4 0 1 $T2 $esp .cbLocals + .cbSavedRegs + = $T0 .raSearchStart = $eip $T0 ^ = $esp $T0 4 + = $ebx $T0 8 - ^ =
STACK WIN 4 2863a 11c 2 0 10 8 4 0 1 $T2 $esp .cbLocals + .cbSavedRegs + = $T0 .raSearchStart = $eip $T0 ^ = $esp $T0 4 + = $ebp $T0 12 - ^ = $ebx $T0 8 - ^ =
STACK WIN 4 2863b 11a 1 0 10 c 4 0 1 $T2 $esp .cbLocals + .cbSavedRegs + = $T0 .raSearchStart = $eip $T0 ^ = $esp $T0 4 + = $ebp $T0 12 - ^ = $ebx $T0 8 - ^ =
STACK WIN 4 2863c 118 0 0 10 10 4 0 1 $T2 $esp .cbLocals + .cbSavedRegs + = $T0 .raSearchStart = $eip $T0 ^ = $esp $T0 4 + = $ebp $T0 12 - ^ = $ebx $T0 8 - ^ =
STACK WIN 4 28760 1b4 10 0 10 0 c 0 1 $T2 $esp .cbLocals + .cbSavedRegs + = $T0 .raSearchStart = $eip $T0 ^ = $esp $T0 4 + =
STACK WIN 4 2876b 183 5 0 10 4 c 0 1 $T2 $esp .cbLocals + .cbSavedRegs + = $T0 .raSearchStart = $eip $T0 ^ = $esp $T0 4 + = $ebx $T0 16 - ^ =
STACK WIN 4 2876c 181 4 0 10 8 c 0 1 $T2 $esp .cbLocals + .cbSavedRegs + = $T0 .raSearchStart = $eip $T0 ^ = $esp $T0 4 + = $ebp $T0 20 - ^ = $ebx $T0 16 - ^ =
STACK WIN 4 2876d 17f 3 0 10 c c 0 1 $T2 $esp .cbLocals + .cbSavedRegs + = $T0 .raSearchStart = $eip $T0 ^ = $esp $T0 4 + = $ebp $T0 20 - ^ = $ebx $T0 16 - ^ =
STACK WIN 4 28770 17b 0 0 10 10 c 0 1 $T2 $esp .cbLocals + .cbSavedRegs + = $T0 .raSearchStart = $eip $T0 ^ = $esp $T0 4 + = $ebp $T0 20 - ^ = $ebx $T0 16 - ^ =
STACK WIN 4 28920 204 10 0 10 0 14 0 1 $T2 $esp .cbLocals + .cbSavedRegs + = $T0 .raSearchStart = $eip $T0 ^ = $esp $T0 4 + =
STACK WIN 4 2892b 1cd 5 0 10 4 14 0 1 $T2 $esp .cbLocals + .cbSavedRegs + = $T0 .raSearchStart = $eip $T0 ^ = $esp $T0 4 + = $ebx $T0 24 - ^ =
STACK WIN 4 2892c 1cb 4 0 10 8 14 0 1 $T2 $esp .cbLocals + .cbSavedRegs + = $T0 .raSearchStart = $eip $T0 ^ = $esp $T0 4 + = $ebp $T0 28 - ^ = $ebx $T0 24 - ^ =
STACK WIN 4 2892f 1c7 1 0 10 c 14 0 1 $T2 $esp .cbLocals + .cbSavedRegs + = $T0 .raSearchStart = $eip $T0 ^ = $esp $T0 4 + = $ebp $T0 28 - ^ = $ebx $T0 24 - ^ =
STACK WIN 4 28930 1c5 0 0 10 10 14 0 1 $T2 $esp .cbLocals + .cbSavedRegs + = $T0 .raSearchStart = $eip $T0 ^ = $esp $T0 4 + = $ebp $T0 28 - ^ = $ebx $T0 24 - ^ =
STACK WIN 4 28b30 280 10 0 10 0 1c 0 1 $T2 $esp .cbLocals + .cbSavedRegs + = $T0 .raSearchStart = $eip $T0 ^ = $esp $T0 4 + =
STACK WIN 4 28b3b 23e 5 0 10 4 1c 0 1 $T2 $esp .cbLocals + .cbSavedRegs + = $T0 .raSearchStart = $eip $T0 ^ = $esp $T0 4 + = $ebx $T0 32 - ^ =
STACK WIN 4 28b3c 23c 4 0 10 8 1c 0 1 $T2 $esp .cbLocals + .cbSavedRegs + = $T0 .raSearchStart = $eip $T0 ^ = $esp $T0 4 + = $ebp $T0 36 - ^ = $ebx $T0 32 - ^ =
STACK WIN 4 28b3f 238 1 0 10 c 1c 0 1 $T2 $esp .cbLocals + .cbSavedRegs + = $T0 .raSearchStart = $eip $T0 ^ = $esp $T0 4 + = $ebp $T0 36 - ^ = $ebx $T0 32 - ^ =
STACK WIN 4 28b40 236 0 0 10 10 1c 0 1 $T2 $esp .cbLocals + .cbSavedRegs + = $T0 .raSearchStart = $eip $T0 ^ = $esp $T0 4 + = $ebp $T0 36 - ^ = $ebx $T0 32 - ^ =
STACK WIN 4 28db0 1b 0 0 c 0 0 0 1 $T2 $esp .cbLocals + .cbSavedRegs + = $T0 .raSearchStart = $eip $T0 ^ = $esp $T0 4 + =
STACK WIN 4 28dd0 20 0 0 10 0 0 0 1 $T2 $esp .cbLocals + .cbSavedRegs + = $T0 .raSearchStart = $eip $T0 ^ = $esp $T0 4 + =
STACK WIN 4 28df0 1b 0 0 c 0 0 0 1 $T2 $esp .cbLocals + .cbSavedRegs + = $T0 .raSearchStart = $eip $T0 ^ = $esp $T0 4 + =
STACK WIN 4 28e10 8c 4 0 10 0 10 0 1 $T2 $esp .cbLocals + .cbSavedRegs + = $T0 .raSearchStart = $eip $T0 ^ = $esp $T0 4 + =
STACK WIN 4 28e14 84 0 0 10 4 10 0 1 $T2 $esp .cbLocals + .cbSavedRegs + = $T0 .raSearchStart = $eip $T0 ^ = $esp $T0 4 + = $ebx $T0 20 - ^ =
STACK WIN 4 28e40 57 0 0 10 8 10 0 1 $T2 $esp .cbLocals + .cbSavedRegs + = $T0 .raSearchStart = $eip $T0 ^ = $esp $T0 4 + = $ebx $T0 20 - ^ =
STACK WIN 4 28e54 33 0 0 10 c 10 0 1 $T2 $esp .cbLocals + .cbSavedRegs + = $T0 .raSearchStart = $eip $T0 ^ = $esp $T0 4 + = $ebx $T0 20 - ^ =
STACK WIN 4 28ea0 68 1 0 0 0 0 0 1 $T2 $esp .cbLocals + .cbSavedRegs + = $T0 .raSearchStart = $eip $T0 ^ = $esp $T0 4 + =
STACK WIN 4 28ea1 66 0 0 0 4 0 0 1 $T2 $esp .cbLocals + .cbSavedRegs + = $T0 .raSearchStart = $eip $T0 ^ = $esp $T0 4 + =
STACK WIN 4 28eb5 4f 0 0 0 8 0 0 1 $T2 $esp .cbLocals + .cbSavedRegs + = $T0 .raSearchStart = $eip $T0 ^ = $esp $T0 4 + =
STACK WIN 4 28f10 12c 3 0 4 0 4 0 1 $T2 $esp .cbLocals + .cbSavedRegs + = $T0 .raSearchStart = $eip $T0 ^ = $esp $T0 4 + =
STACK WIN 4 28f12 118 1 0 4 4 4 0 1 $T2 $esp .cbLocals + .cbSavedRegs + = $T0 .raSearchStart = $eip $T0 ^ = $esp $T0 4 + =
STACK WIN 4 28f13 114 0 0 4 8 4 0 1 $T2 $esp .cbLocals + .cbSavedRegs + = $T0 .raSearchStart = $eip $T0 ^ = $esp $T0 4 + =
STACK WIN 4 28f27 ff 0 0 4 c 4 0 1 $T2 $esp .cbLocals + .cbSavedRegs + = $T0 .raSearchStart = $eip $T0 ^ = $esp $T0 4 + = $ebx $T0 16 - ^ =
STACK WIN 4 28f2c f9 0 0 4 10 4 0 1 $T2 $esp .cbLocals + .cbSavedRegs + = $T0 .raSearchStart = $eip $T0 ^ = $esp $T0 4 + = $ebp $T0 20 - ^ = $ebx $T0 16 - ^ =
STACK WIN 4 29040 27 0 0 8 0 0 0 1 $T2 $esp .cbLocals + .cbSavedRegs + = $T0 .raSearchStart = $eip $T0 ^ = $esp $T0 4 + =
STACK WIN 4 29070 1a 0 0 8 0 0 0 1 $T2 $esp .cbLocals + .cbSavedRegs + = $T0 .raSearchStart = $eip $T0 ^ = $esp $T0 4 + =
STACK WIN 4 29090 401 b 0 1c 0 40 0 1 $T2 $esp .cbLocals + .cbSavedRegs + = $T0 .raSearchStart = $eip $T0 ^ = $esp $T0 4 + =
STACK WIN 4 29094 3f9 7 0 1c 4 40 0 1 $T2 $esp .cbLocals + .cbSavedRegs + = $T0 .raSearchStart = $eip $T0 ^ = $esp $T0 4 + = $ebp $T0 68 - ^ =
STACK WIN 4 2909b 3f1 0 0 1c 8 40 0 1 $T2 $esp .cbLocals + .cbSavedRegs + = $T0 .raSearchStart = $eip $T0 ^ = $esp $T0 4 + = $ebp $T0 68 - ^ =
STACK WIN 4 29104 35a 0 0 1c c 40 0 1 $T2 $esp .cbLocals + .cbSavedRegs + = $T0 .raSearchStart = $eip $T0 ^ = $esp $T0 4 + = $ebp $T0 68 - ^ = $ebx $T0 92 - ^ =
STACK WIN 4 29109 354 0 0 1c 10 40 0 1 $T2 $esp .cbLocals + .cbSavedRegs + = $T0 .raSearchStart = $eip $T0 ^ = $esp $T0 4 + = $ebp $T0 68 - ^ = $ebx $T0 92 - ^ =
STACK WIN 4 294a0 7d 7 0 1c 0 10 0 1 $T2 $esp .cbLocals + .cbSavedRegs + = $T0 .raSearchStart = $eip $T0 ^ = $esp $T0 4 + =
STACK WIN 4 294a7 72 0 0 1c 4 10 0 1 $T2 $esp .cbLocals + .cbSavedRegs + = $T0 .raSearchStart = $eip $T0 ^ = $esp $T0 4 + =
STACK WIN 4 294c3 46 0 0 1c 8 10 0 1 $T2 $esp .cbLocals + .cbSavedRegs + = $T0 .raSearchStart = $eip $T0 ^ = $esp $T0 4 + =
STACK WIN 4 29520 24 0 0 14 0 0 0 1 $T2 $esp .cbLocals + .cbSavedRegs + = $T0 .raSearchStart = $eip $T0 ^ = $esp $T0 4 + =
STACK WIN 4 29550 2a8 5 0 c 0 50 0 1 $T2 $esp .cbLocals + .cbSavedRegs + = $T0 .raSearchStart = $eip $T0 ^ = $esp $T0 4 + =
STACK WIN 4 29554 2a0 1 0 c 4 50 0 1 $T2 $esp .cbLocals + .cbSavedRegs + = $T0 .raSearchStart = $eip $T0 ^ = $esp $T0 4 + =
STACK WIN 4 29555 29c 0 0 c 8 50 0 1 $T2 $esp .cbLocals + .cbSavedRegs + = $T0 .raSearchStart = $eip $T0 ^ = $esp $T0 4 + =
STACK WIN 4 295df 1dc 0 0 c c 50 0 1 $T2 $esp .cbLocals + .cbSavedRegs + = $T0 .raSearchStart = $eip $T0 ^ = $esp $T0 4 + = $ebx $T0 112 - ^ =
STACK WIN 4 295e4 1d6 0 0 c 10 50 0 1 $T2 $esp .cbLocals + .cbSavedRegs + = $T0 .raSearchStart = $eip $T0 ^ = $esp $T0 4 + = $ebp $T0 116 - ^ = $ebx $T0 112 - ^ =
STACK WIN 4 29800 e 0 0 c 0 0 0 1 $T2 $esp .cbLocals + .cbSavedRegs + = $T0 .raSearchStart = $eip $T0 ^ = $esp $T0 4 + =
STACK WIN 4 29810 10 0 0 c 0 0 0 1 $T2 $esp .cbLocals + .cbSavedRegs + = $T0 .raSearchStart = $eip $T0 ^ = $esp $T0 4 + =
STACK WIN 4 29820 4e6 b 0 1c 0 40 0 1 $T2 $esp .cbLocals + .cbSavedRegs + = $T0 .raSearchStart = $eip $T0 ^ = $esp $T0 4 + =
STACK WIN 4 29824 4de 7 0 1c 4 40 0 1 $T2 $esp .cbLocals + .cbSavedRegs + = $T0 .raSearchStart = $eip $T0 ^ = $esp $T0 4 + = $ebp $T0 68 - ^ =
STACK WIN 4 2982b 4d6 0 0 1c 8 40 0 1 $T2 $esp .cbLocals + .cbSavedRegs + = $T0 .raSearchStart = $eip $T0 ^ = $esp $T0 4 + = $ebp $T0 68 - ^ =
STACK WIN 4 298b9 41a 0 0 1c c 40 0 1 $T2 $esp .cbLocals + .cbSavedRegs + = $T0 .raSearchStart = $eip $T0 ^ = $esp $T0 4 + = $ebp $T0 68 - ^ = $ebx $T0 76 - ^ =
STACK WIN 4 298ba 418 0 0 1c 10 40 0 1 $T2 $esp .cbLocals + .cbSavedRegs + = $T0 .raSearchStart = $eip $T0 ^ = $esp $T0 4 + = $ebp $T0 68 - ^ = $ebx $T0 76 - ^ =
STACK WIN 4 29d10 7e 6 0 18 0 0 0 1 $T2 $esp .cbLocals + .cbSavedRegs + = $T0 .raSearchStart = $eip $T0 ^ = $esp $T0 4 + =
STACK WIN 4 29d11 7c 5 0 18 4 0 0 1 $T2 $esp .cbLocals + .cbSavedRegs + = $T0 .raSearchStart = $eip $T0 ^ = $esp $T0 4 + =
STACK WIN 4 29d16 76 0 0 18 8 0 0 1 $T2 $esp .cbLocals + .cbSavedRegs + = $T0 .raSearchStart = $eip $T0 ^ = $esp $T0 4 + =
STACK WIN 4 29d90 191 7 0 18 0 30 0 1 $T2 $esp .cbLocals + .cbSavedRegs + = $T0 .raSearchStart = $eip $T0 ^ = $esp $T0 4 + =
STACK WIN 4 29d97 186 0 0 18 4 30 0 1 $T2 $esp .cbLocals + .cbSavedRegs + = $T0 .raSearchStart = $eip $T0 ^ = $esp $T0 4 + =
STACK WIN 4 29e5f 9a 0 0 18 8 30 0 1 $T2 $esp .cbLocals + .cbSavedRegs + = $T0 .raSearchStart = $eip $T0 ^ = $esp $T0 4 + =
STACK WIN 4 29f30 40a b 0 24 0 60 0 1 $T2 $esp .cbLocals + .cbSavedRegs + = $T0 .raSearchStart = $eip $T0 ^ = $esp $T0 4 + =
STACK WIN 4 29f34 402 7 0 24 4 60 0 1 $T2 $esp .cbLocals + .cbSavedRegs + = $T0 .raSearchStart = $eip $T0 ^ = $esp $T0 4 + = $ebp $T0 100 - ^ =
STACK WIN 4 29f3b 3fa 0 0 24 8 60 0 1 $T2 $esp .cbLocals + .cbSavedRegs + = $T0 .raSearchStart = $eip $T0 ^ = $esp $T0 4 + = $ebp $T0 100 - ^ =
STACK WIN 4 29fda 319 0 0 24 c 60 0 1 $T2 $esp .cbLocals + .cbSavedRegs + = $T0 .raSearchStart = $eip $T0 ^ = $esp $T0 4 + = $ebp $T0 100 - ^ =
STACK WIN 4 2a032 2c0 0 0 24 10 60 0 1 $T2 $esp .cbLocals + .cbSavedRegs + = $T0 .raSearchStart = $eip $T0 ^ = $esp $T0 4 + = $ebp $T0 100 - ^ = $ebx $T0 112 - ^ =
STACK WIN 4 2a340 701 6 0 1c 0 228 0 1 $T2 $esp .cbLocals + .cbSavedRegs + = $T0 .raSearchStart = $eip $T0 ^ = $esp $T0 4 + =
STACK WIN 4 2a37b 6bf 0 0 1c 4 228 0 1 $T2 $esp .cbLocals + .cbSavedRegs + = $T0 .raSearchStart = $eip $T0 ^ = $esp $T0 4 + =
STACK WIN 4 2a37c 6bd 0 0 1c 8 228 0 1 $T2 $esp .cbLocals + .cbSavedRegs + = $T0 .raSearchStart = $eip $T0 ^ = $esp $T0 4 + =
STACK WIN 4 2a418 5f9 0 0 1c c 228 0 1 $T2 $esp .cbLocals + .cbSavedRegs + = $T0 .raSearchStart = $eip $T0 ^ = $esp $T0 4 + = $ebx $T0 564 - ^ =
STACK WIN 4 2a421 5ef 0 0 1c 10 228 0 1 $T2 $esp .cbLocals + .cbSavedRegs + = $T0 .raSearchStart = $eip $T0 ^ = $esp $T0 4 + = $ebp $T0 568 - ^ = $ebx $T0 564 - ^ =
STACK WIN 4 2aa50 98 e 0 10 0 10 0 1 $T2 $esp .cbLocals + .cbSavedRegs + = $T0 .raSearchStart = $eip $T0 ^ = $esp $T0 4 + =
STACK WIN 4 2aa54 90 a 0 10 4 10 0 1 $T2 $esp .cbLocals + .cbSavedRegs + = $T0 .raSearchStart = $eip $T0 ^ = $esp $T0 4 + = $ebx $T0 20 - ^ =
STACK WIN 4 2aa59 8a 5 0 10 8 10 0 1 $T2 $esp .cbLocals + .cbSavedRegs + = $T0 .raSearchStart = $eip $T0 ^ = $esp $T0 4 + = $ebp $T0 24 - ^ = $ebx $T0 20 - ^ =
STACK WIN 4 2aa5e 84 0 0 10 c 10 0 1 $T2 $esp .cbLocals + .cbSavedRegs + = $T0 .raSearchStart = $eip $T0 ^ = $esp $T0 4 + = $ebp $T0 24 - ^ = $ebx $T0 20 - ^ =
STACK WIN 4 2aa91 50 0 0 10 10 10 0 1 $T2 $esp .cbLocals + .cbSavedRegs + = $T0 .raSearchStart = $eip $T0 ^ = $esp $T0 4 + = $ebp $T0 24 - ^ = $ebx $T0 20 - ^ =
STACK WIN 4 2aaf0 19 0 0 c 0 0 0 1 $T2 $esp .cbLocals + .cbSavedRegs + = $T0 .raSearchStart = $eip $T0 ^ = $esp $T0 4 + =
STACK WIN 4 2ab10 3e e 0 c 0 0 0 1 $T2 $esp .cbLocals + .cbSavedRegs + = $T0 .raSearchStart = $eip $T0 ^ = $esp $T0 4 + =
STACK WIN 4 2ab19 34 5 0 c 4 0 0 1 $T2 $esp .cbLocals + .cbSavedRegs + = $T0 .raSearchStart = $eip $T0 ^ = $esp $T0 4 + =
STACK WIN 4 2ab1e 2e 0 0 c 8 0 0 1 $T2 $esp .cbLocals + .cbSavedRegs + = $T0 .raSearchStart = $eip $T0 ^ = $esp $T0 4 + =
STACK WIN 4 2ab50 2e 5 0 c 0 0 0 1 $T2 $esp .cbLocals + .cbSavedRegs + = $T0 .raSearchStart = $eip $T0 ^ = $esp $T0 4 + =
STACK WIN 4 2ab55 28 0 0 c 4 0 0 1 $T2 $esp .cbLocals + .cbSavedRegs + = $T0 .raSearchStart = $eip $T0 ^ = $esp $T0 4 + =
STACK WIN 4 2ab80 1f 1 0 4 0 0 0 1 $T2 $esp .cbLocals + .cbSavedRegs + = $T0 .raSearchStart = $eip $T0 ^ = $esp $T0 4 + =
STACK WIN 4 2ab81 1d 0 0 4 4 0 0 1 $T2 $esp .cbLocals + .cbSavedRegs + = $T0 .raSearchStart = $eip $T0 ^ = $esp $T0 4 + =
STACK WIN 4 2aba0 69 f 0 10 0 0 0 1 $T2 $esp .cbLocals + .cbSavedRegs + = $T0 .raSearchStart = $eip $T0 ^ = $esp $T0 4 + =
STACK WIN 4 2aba5 63 a 0 10 4 0 0 1 $T2 $esp .cbLocals + .cbSavedRegs + = $T0 .raSearchStart = $eip $T0 ^ = $esp $T0 4 + = $ebx $T0 4 - ^ =
STACK WIN 4 2abaa 5d 5 0 10 8 0 0 1 $T2 $esp .cbLocals + .cbSavedRegs + = $T0 .raSearchStart = $eip $T0 ^ = $esp $T0 4 + = $ebp $T0 8 - ^ = $ebx $T0 4 - ^ =
STACK WIN 4 2abaf 57 0 0 10 c 0 0 1 $T2 $esp .cbLocals + .cbSavedRegs + = $T0 .raSearchStart = $eip $T0 ^ = $esp $T0 4 + = $ebp $T0 8 - ^ = $ebx $T0 4 - ^ =
STACK WIN 4 2abc4 30 0 0 10 10 0 0 1 $T2 $esp .cbLocals + .cbSavedRegs + = $T0 .raSearchStart = $eip $T0 ^ = $esp $T0 4 + = $ebp $T0 8 - ^ = $ebx $T0 4 - ^ =
STACK WIN 4 2ac10 99 5 0 4 0 0 0 1 $T2 $esp .cbLocals + .cbSavedRegs + = $T0 .raSearchStart = $eip $T0 ^ = $esp $T0 4 + =
STACK WIN 4 2ac15 93 0 0 4 4 0 0 1 $T2 $esp .cbLocals + .cbSavedRegs + = $T0 .raSearchStart = $eip $T0 ^ = $esp $T0 4 + =
STACK WIN 4 2ac27 7e 0 0 4 8 0 0 1 $T2 $esp .cbLocals + .cbSavedRegs + = $T0 .raSearchStart = $eip $T0 ^ = $esp $T0 4 + =
STACK WIN 4 2acb0 112 a 0 10 0 10 0 1 $T2 $esp .cbLocals + .cbSavedRegs + = $T0 .raSearchStart = $eip $T0 ^ = $esp $T0 4 + =
STACK WIN 4 2acb8 106 2 0 10 4 10 0 1 $T2 $esp .cbLocals + .cbSavedRegs + = $T0 .raSearchStart = $eip $T0 ^ = $esp $T0 4 + = $ebx $T0 20 - ^ =
STACK WIN 4 2acb9 104 1 0 10 8 10 0 1 $T2 $esp .cbLocals + .cbSavedRegs + = $T0 .raSearchStart = $eip $T0 ^ = $esp $T0 4 + = $ebp $T0 24 - ^ = $ebx $T0 20 - ^ =
STACK WIN 4 2acba 100 0 0 10 c 10 0 1 $T2 $esp .cbLocals + .cbSavedRegs + = $T0 .raSearchStart = $eip $T0 ^ = $esp $T0 4 + = $ebp $T0 24 - ^ = $ebx $T0 20 - ^ =
STACK WIN 4 2acf4 b8 0 0 10 10 10 0 1 $T2 $esp .cbLocals + .cbSavedRegs + = $T0 .raSearchStart = $eip $T0 ^ = $esp $T0 4 + = $ebp $T0 24 - ^ = $ebx $T0 20 - ^ =
STACK WIN 4 2add0 234 f 0 28 0 0 0 1 $T2 $esp .cbLocals + .cbSavedRegs + = $T0 .raSearchStart = $eip $T0 ^ = $esp $T0 4 + =
STACK WIN 4 2add9 22a 6 0 28 4 0 0 1 $T2 $esp .cbLocals + .cbSavedRegs + = $T0 .raSearchStart = $eip $T0 ^ = $esp $T0 4 + = $ebx $T0 4 - ^ =
STACK WIN 4 2adda 228 5 0 28 8 0 0 1 $T2 $esp .cbLocals + .cbSavedRegs + = $T0 .raSearchStart = $eip $T0 ^ = $esp $T0 4 + = $ebp $T0 8 - ^ = $ebx $T0 4 - ^ =
STACK WIN 4 2addf 222 0 0 28 c 0 0 1 $T2 $esp .cbLocals + .cbSavedRegs + = $T0 .raSearchStart = $eip $T0 ^ = $esp $T0 4 + = $ebp $T0 8 - ^ = $ebx $T0 4 - ^ =
STACK WIN 4 2ae1c 1e4 0 0 28 10 0 0 1 $T2 $esp .cbLocals + .cbSavedRegs + = $T0 .raSearchStart = $eip $T0 ^ = $esp $T0 4 + = $ebp $T0 8 - ^ = $ebx $T0 4 - ^ =
STACK WIN 4 2b010 34c d 0 30 0 4 0 1 $T2 $esp .cbLocals + .cbSavedRegs + = $T0 .raSearchStart = $eip $T0 ^ = $esp $T0 4 + =
STACK WIN 4 2b016 344 7 0 30 4 4 0 1 $T2 $esp .cbLocals + .cbSavedRegs + = $T0 .raSearchStart = $eip $T0 ^ = $esp $T0 4 + = $ebx $T0 8 - ^ =
STACK WIN 4 2b017 342 6 0 30 8 4 0 1 $T2 $esp .cbLocals + .cbSavedRegs + = $T0 .raSearchStart = $eip $T0 ^ = $esp $T0 4 + = $ebp $T0 12 - ^ = $ebx $T0 8 - ^ =
STACK WIN 4 2b018 340 5 0 30 c 4 0 1 $T2 $esp .cbLocals + .cbSavedRegs + = $T0 .raSearchStart = $eip $T0 ^ = $esp $T0 4 + = $ebp $T0 12 - ^ = $ebx $T0 8 - ^ =
STACK WIN 4 2b01d 33a 0 0 30 10 4 0 1 $T2 $esp .cbLocals + .cbSavedRegs + = $T0 .raSearchStart = $eip $T0 ^ = $esp $T0 4 + = $ebp $T0 12 - ^ = $ebx $T0 8 - ^ =
STACK WIN 4 2b360 41b 7 0 18 0 2a4 0 1 $T2 $esp .cbLocals + .cbSavedRegs + = $T0 .raSearchStart = $eip $T0 ^ = $esp $T0 4 + =
STACK WIN 4 2b367 40d 0 0 18 4 2a4 0 1 $T2 $esp .cbLocals + .cbSavedRegs + = $T0 .raSearchStart = $eip $T0 ^ = $esp $T0 4 + = $ebx $T0 680 - ^ =
STACK WIN 4 2b3f3 373 0 0 18 8 2a4 0 1 $T2 $esp .cbLocals + .cbSavedRegs + = $T0 .raSearchStart = $eip $T0 ^ = $esp $T0 4 + = $ebx $T0 680 - ^ =
STACK WIN 4 2b3f8 36b 0 0 18 c 2a4 0 1 $T2 $esp .cbLocals + .cbSavedRegs + = $T0 .raSearchStart = $eip $T0 ^ = $esp $T0 4 + = $ebx $T0 680 - ^ =
STACK WIN 4 2b451 29b 0 0 18 10 2a4 0 1 $T2 $esp .cbLocals + .cbSavedRegs + = $T0 .raSearchStart = $eip $T0 ^ = $esp $T0 4 + = $ebp $T0 708 - ^ = $ebx $T0 680 - ^ =
STACK WIN 4 2b7dc f 0 0 0 0 0 0 1 $T2 $esp .cbLocals + .cbSavedRegs + = $T0 .raSearchStart = $eip $T0 ^ = $esp $T0 4 + =
STACK WIN 4 2b8db 4d 1 0 0 0 0 0 1 $T2 $esp .cbLocals + .cbSavedRegs + = $T0 .raSearchStart = $eip $T0 ^ = $esp $T0 4 + =
STACK WIN 4 2b8dc 4b 0 0 0 4 0 0 1 $T2 $esp .cbLocals + .cbSavedRegs + = $T0 .raSearchStart = $eip $T0 ^ = $esp $T0 4 + =
STACK WIN 4 2b928 1c3 5 0 c 0 0 0 1 $T2 $esp .cbLocals + .cbSavedRegs + = $T0 .raSearchStart = $eip $T0 ^ = $esp $T0 4 + =
STACK WIN 4 2b92d 1bb 0 0 c 4 0 0 1 $T2 $esp .cbLocals + .cbSavedRegs + = $T0 .raSearchStart = $eip $T0 ^ = $esp $T0 4 + = $ebp $T0 4 - ^ =
STACK WIN 4 2b94d 19a 0 0 c 8 0 0 1 $T2 $esp .cbLocals + .cbSavedRegs + = $T0 .raSearchStart = $eip $T0 ^ = $esp $T0 4 + = $ebp $T0 4 - ^ = $ebx $T0 8 - ^ =
STACK WIN 4 2b94e 198 0 0 c c 0 0 1 $T2 $esp .cbLocals + .cbSavedRegs + = $T0 .raSearchStart = $eip $T0 ^ = $esp $T0 4 + = $ebp $T0 4 - ^ = $ebx $T0 8 - ^ =
STACK WIN 4 2b94f 196 0 0 c 10 0 0 1 $T2 $esp .cbLocals + .cbSavedRegs + = $T0 .raSearchStart = $eip $T0 ^ = $esp $T0 4 + = $ebp $T0 4 - ^ = $ebx $T0 8 - ^ =
STACK WIN 4 2baeb 116 13 0 4 c 20 0 1 $T0 $ebp = $eip $T0 4 + ^ = $ebp $T0 ^ = $esp $T0 8 + = $L $T0 .cbSavedRegs - = $P $T0 8 + .cbParams + =
STACK WIN 4 2bbc2 14 0 0 4 c 20 0 1 $T0 $ebp = $T2 $esp = $T1 .raSearchStart = $eip $T1 ^ = $ebp $T0 = $esp $T1 4 + = $L $T0 .cbSavedRegs - = $P $T1 4 + .cbParams + =
STACK WIN 4 2bbf6 a 0 0 4 c 20 0 1 $T0 $ebp = $T2 $esp = $T1 .raSearchStart = $eip $T1 ^ = $ebp $T0 = $esp $T1 4 + = $L $T0 .cbSavedRegs - = $P $T1 4 + .cbParams + =
STACK WIN 4 2bc01 21 0 0 c 0 0 0 1 $T2 $esp .cbLocals + .cbSavedRegs + = $T0 .raSearchStart = $eip $T0 ^ = $esp $T0 4 + =
STACK WIN 4 2bc22 104 9 0 0 0 328 0 1 $T0 $ebp = $eip $T0 4 + ^ = $ebp $T0 ^ = $esp $T0 8 + = $L $T0 .cbSavedRegs - = $P $T0 8 + .cbParams + =
STACK WIN 4 2bd26 50 c 0 0 c 1c 0 1 $T0 $ebp = $eip $T0 4 + ^ = $ebp $T0 ^ = $esp $T0 8 + = $L $T0 .cbSavedRegs - = $P $T0 8 + .cbParams + =
STACK WIN 4 2bd43 1c 0 0 0 c 1c 0 1 $T0 $ebp = $T2 $esp = $T1 .raSearchStart = $eip $T1 ^ = $ebp $T0 = $esp $T1 4 + = $L $T0 .cbSavedRegs - = $P $T1 4 + .cbParams + =
STACK WIN 4 2bd76 60 9 0 0 0 18 0 1 $T0 $ebp = $eip $T0 4 + ^ = $ebp $T0 ^ = $esp $T0 8 + = $L $T0 .cbSavedRegs - = $P $T0 8 + .cbParams + =
STACK WIN 4 2bd7f 57 0 0 0 4 18 0 1 $T0 $ebp = $eip $T0 4 + ^ = $ebp $T0 ^ = $esp $T0 8 + = $L $T0 .cbSavedRegs - = $P $T0 8 + .cbParams + = $ebx $T0 28 - ^ =
STACK WIN 4 2bdd6 d 0 0 0 0 0 0 1 $T2 $esp .cbLocals + .cbSavedRegs + = $T0 .raSearchStart = $eip $T0 ^ = $esp $T0 4 + =
STACK WIN 4 2bde3 c 0 0 0 0 0 0 1 $T2 $esp .cbLocals + .cbSavedRegs + = $T0 .raSearchStart = $eip $T0 ^ = $esp $T0 4 + =
STACK WIN 4 2bdef a5 c 0 4 c 24 0 1 $T0 $ebp = $eip $T0 4 + ^ = $ebp $T0 ^ = $esp $T0 8 + = $L $T0 .cbSavedRegs - = $P $T0 8 + .cbParams + =
STACK WIN 4 2be8b 8 0 0 4 c 24 0 1 $T0 $ebp = $T2 $esp = $T1 .raSearchStart = $eip $T1 ^ = $ebp $T0 = $esp $T1 4 + = $L $T0 .cbSavedRegs - = $P $T1 4 + .cbParams + =
STACK WIN 4 2be94 12 0 0 4 0 0 0 1 $T2 $esp .cbLocals + .cbSavedRegs + = $T0 .raSearchStart = $eip $T0 ^ = $esp $T0 4 + =
STACK WIN 4 2bea6 24 2 0 0 0 0 0 1 $T2 $esp .cbLocals + .cbSavedRegs + = $T0 .raSearchStart = $eip $T0 ^ = $esp $T0 4 + =
STACK WIN 4 2bea7 22 1 0 0 4 0 0 1 $T2 $esp .cbLocals + .cbSavedRegs + = $T0 .raSearchStart = $eip $T0 ^ = $esp $T0 4 + =
STACK WIN 4 2bea8 20 0 0 0 8 0 0 1 $T2 $esp .cbLocals + .cbSavedRegs + = $T0 .raSearchStart = $eip $T0 ^ = $esp $T0 4 + =
STACK WIN 4 2beca 24 2 0 0 0 0 0 1 $T2 $esp .cbLocals + .cbSavedRegs + = $T0 .raSearchStart = $eip $T0 ^ = $esp $T0 4 + =
STACK WIN 4 2becb 22 1 0 0 4 0 0 1 $T2 $esp .cbLocals + .cbSavedRegs + = $T0 .raSearchStart = $eip $T0 ^ = $esp $T0 4 + =
STACK WIN 4 2becc 20 0 0 0 8 0 0 1 $T2 $esp .cbLocals + .cbSavedRegs + = $T0 .raSearchStart = $eip $T0 ^ = $esp $T0 4 + =
STACK WIN 4 2bef0 29 0 0 4 0 0 0 1 $T2 $esp .cbLocals + .cbSavedRegs + = $T0 .raSearchStart = $eip $T0 ^ = $esp $T0 4 + =
STACK WIN 4 2bf20 42 18 0 8 0 0 0 1 $T2 $esp .cbLocals + .cbSavedRegs + = $T0 .raSearchStart = $eip $T0 ^ = $esp $T0 4 + =
STACK WIN 4 2bf2e 33 a 0 8 4 0 0 1 $T2 $esp .cbLocals + .cbSavedRegs + = $T0 .raSearchStart = $eip $T0 ^ = $esp $T0 4 + = $ebx $T0 4 - ^ =
STACK WIN 4 2bf2f 31 9 0 8 8 0 0 1 $T2 $esp .cbLocals + .cbSavedRegs + = $T0 .raSearchStart = $eip $T0 ^ = $esp $T0 4 + = $ebx $T0 4 - ^ =
STACK WIN 4 2bf38 27 0 0 8 c 0 0 1 $T2 $esp .cbLocals + .cbSavedRegs + = $T0 .raSearchStart = $eip $T0 ^ = $esp $T0 4 + = $ebx $T0 4 - ^ =
STACK WIN 4 2bf70 bb 33 0 4 c 18 0 1 $T0 $ebp = $eip $T0 4 + ^ = $ebp $T0 ^ = $esp $T0 8 + = $L $T0 .cbSavedRegs - = $P $T0 8 + .cbParams + =
STACK WIN 4 2bf8a a1 19 0 4 10 18 0 1 $T0 $ebp = $eip $T0 4 + ^ = $ebp $T0 ^ = $esp $T0 8 + = $L $T0 .cbSavedRegs - = $P $T0 8 + .cbParams + = $ebx $T0 28 - ^ =
STACK WIN 4 2bff9 14 0 0 4 c 18 0 1 $T0 $ebp = $T2 $esp = $T1 .raSearchStart = $eip $T1 ^ = $ebp $T0 = $esp $T1 4 + = $L $T0 .cbSavedRegs - = $P $T1 4 + .cbParams + = $ebx $T0 28 - ^ =
STACK WIN 4 2c044 20 0 0 c 0 0 0 1 $T2 $esp .cbLocals + .cbSavedRegs + = $T0 .raSearchStart = $eip $T0 ^ = $esp $T0 4 + =
STACK WIN 4 2c0bd 23 0 0 10 0 0 0 1 $T2 $esp .cbLocals + .cbSavedRegs + = $T0 .raSearchStart = $eip $T0 ^ = $esp $T0 4 + =
STACK WIN 4 2c0e0 94 15 0 0 0 10 0 1 $T0 $ebp = $eip $T0 4 + ^ = $ebp $T0 ^ = $esp $T0 8 + = $L $T0 .cbSavedRegs - = $P $T0 8 + .cbParams + =
STACK WIN 4 2c0f4 7e 1 0 0 4 10 0 1 $T0 $ebp = $eip $T0 4 + ^ = $ebp $T0 ^ = $esp $T0 8 + = $L $T0 .cbSavedRegs - = $P $T0 8 + .cbParams + = $ebx $T0 20 - ^ =
STACK WIN 4 2c0f5 7c 0 0 0 8 10 0 1 $T0 $ebp = $eip $T0 4 + ^ = $ebp $T0 ^ = $esp $T0 8 + = $L $T0 .cbSavedRegs - = $P $T0 8 + .cbParams + = $ebx $T0 20 - ^ =
STACK WIN 4 2c111 5f 0 0 0 c 10 0 1 $T0 $ebp = $eip $T0 4 + ^ = $ebp $T0 ^ = $esp $T0 8 + = $L $T0 .cbSavedRegs - = $P $T0 8 + .cbParams + = $ebx $T0 20 - ^ =
STACK WIN 0 2bbc2 14 0 0 0 0 0 0 0 0
STACK WIN 0 2bbf6 b 0 0 0 0 0 0 0 0
STACK WIN 0 2bd43 1c 0 0 0 0 0 0 0 0
STACK WIN 0 2be8b 9 0 0 0 0 0 0 0 0
STACK WIN 0 2bff9 14 0 0 0 0 0 0 0 0
