MODULE windows x86 9EBB1439AB9442849CB794F5A8EE4C622 testcomptreq.pdb
FUNC 1000 21 0 main
FUNC 1021 d 0 nsCOMPtr_base::~nsCOMPtr_base()
FUNC 102e 4b 0 pre_cpp_init
FUNC 1079 176 0 __tmainCRTStartup
FUNC 11ef e2 0 pre_c_init
FUNC 12d1 a 0 mainCRTStartup
FUNC 12db 3d 4 __CxxUnhandledExceptionFilter(_EXCEPTION_POINTERS *)
FUNC 1318 e 0 __CxxSetUnhandledExceptionFilter
FUNC 132c a5 4 _onexit
FUNC 13d1 12 4 atexit
FUNC 13e3 24 0 _RTC_Initialize
FUNC 1407 24 0 _RTC_Terminate
FUNC 1440 29 4 _ValidateImageBase
FUNC 1470 42 8 _FindPESection
FUNC 14c0 bb 4 _IsNonwritableInCurrentImage
FUNC 1588 45 0 _SEH_prolog4
FUNC 15cd 14 0 _SEH_epilog4
FUNC 15e1 23 10 _except_handler4
FUNC 1604 29 0 _setdefaultprecision
FUNC 162d 3 0 _matherr
FUNC 1630 94 0 __security_init_cookie
FUNC 16dc f 0 __security_check_cookie
FUNC 16fe 104 0 __report_gsfailure
STACK WIN 4 1000 21 5 0 0 0 8 0 1 $T0 $ebp = $eip $T0 4 + ^ = $ebp $T0 ^ = $esp $T0 8 + = $L $T0 .cbSavedRegs - = $P $T0 8 + .cbParams + =
STACK WIN 4 1021 d 0 0 0 0 0 0 1 $T2 $esp .cbLocals + .cbSavedRegs + = $T0 .raSearchStart = $eip $T0 ^ = $esp $T0 4 + =
STACK WIN 4 102e 4b 0 0 0 0 0 0 1 $T2 $esp .cbLocals + .cbSavedRegs + = $T0 .raSearchStart = $eip $T0 ^ = $esp $T0 4 + =
STACK WIN 4 1079 176 c 0 0 c 20 0 1 $T0 $ebp = $eip $T0 4 + ^ = $ebp $T0 ^ = $esp $T0 8 + = $L $T0 .cbSavedRegs - = $P $T0 8 + .cbParams + =
STACK WIN 4 119f 14 0 0 0 c 20 0 1 $T0 $ebp = $T2 $esp = $T1 .raSearchStart = $eip $T1 ^ = $ebp $T0 = $esp $T1 4 + = $L $T0 .cbSavedRegs - = $P $T1 4 + .cbParams + =
STACK WIN 4 11ef e2 0 0 0 0 0 0 1 $T2 $esp .cbLocals + .cbSavedRegs + = $T0 .raSearchStart = $eip $T0 ^ = $esp $T0 4 + =
STACK WIN 4 12d1 a 0 0 0 0 0 0 1 $T2 $esp .cbLocals + .cbSavedRegs + = $T0 .raSearchStart = $eip $T0 ^ = $esp $T0 4 + =
STACK WIN 4 12db 3d 0 0 4 0 0 0 1 $T2 $esp .cbLocals + .cbSavedRegs + = $T0 .raSearchStart = $eip $T0 ^ = $esp $T0 4 + =
STACK WIN 4 1318 e 0 0 0 0 0 0 1 $T2 $esp .cbLocals + .cbSavedRegs + = $T0 .raSearchStart = $eip $T0 ^ = $esp $T0 4 + =
STACK WIN 4 132c a5 c 0 4 c 24 0 1 $T0 $ebp = $eip $T0 4 + ^ = $ebp $T0 ^ = $esp $T0 8 + = $L $T0 .cbSavedRegs - = $P $T0 8 + .cbParams + =
STACK WIN 4 13c8 8 0 0 4 c 24 0 1 $T0 $ebp = $T2 $esp = $T1 .raSearchStart = $eip $T1 ^ = $ebp $T0 = $esp $T1 4 + = $L $T0 .cbSavedRegs - = $P $T1 4 + .cbParams + =
STACK WIN 4 13d1 12 0 0 4 0 0 0 1 $T2 $esp .cbLocals + .cbSavedRegs + = $T0 .raSearchStart = $eip $T0 ^ = $esp $T0 4 + =
STACK WIN 4 13e3 24 2 0 0 0 0 0 1 $T2 $esp .cbLocals + .cbSavedRegs + = $T0 .raSearchStart = $eip $T0 ^ = $esp $T0 4 + =
STACK WIN 4 13e4 22 1 0 0 4 0 0 1 $T2 $esp .cbLocals + .cbSavedRegs + = $T0 .raSearchStart = $eip $T0 ^ = $esp $T0 4 + =
STACK WIN 4 13e5 20 0 0 0 8 0 0 1 $T2 $esp .cbLocals + .cbSavedRegs + = $T0 .raSearchStart = $eip $T0 ^ = $esp $T0 4 + =
STACK WIN 4 1407 24 2 0 0 0 0 0 1 $T2 $esp .cbLocals + .cbSavedRegs + = $T0 .raSearchStart = $eip $T0 ^ = $esp $T0 4 + =
STACK WIN 4 1408 22 1 0 0 4 0 0 1 $T2 $esp .cbLocals + .cbSavedRegs + = $T0 .raSearchStart = $eip $T0 ^ = $esp $T0 4 + =
STACK WIN 4 1409 20 0 0 0 8 0 0 1 $T2 $esp .cbLocals + .cbSavedRegs + = $T0 .raSearchStart = $eip $T0 ^ = $esp $T0 4 + =
STACK WIN 4 1440 29 0 0 4 0 0 0 1 $T2 $esp .cbLocals + .cbSavedRegs + = $T0 .raSearchStart = $eip $T0 ^ = $esp $T0 4 + =
STACK WIN 4 1470 42 18 0 8 0 0 0 1 $T2 $esp .cbLocals + .cbSavedRegs + = $T0 .raSearchStart = $eip $T0 ^ = $esp $T0 4 + =
STACK WIN 4 147e 33 a 0 8 4 0 0 1 $T2 $esp .cbLocals + .cbSavedRegs + = $T0 .raSearchStart = $eip $T0 ^ = $esp $T0 4 + = $ebx $T0 4 - ^ =
STACK WIN 4 147f 31 9 0 8 8 0 0 1 $T2 $esp .cbLocals + .cbSavedRegs + = $T0 .raSearchStart = $eip $T0 ^ = $esp $T0 4 + = $ebx $T0 4 - ^ =
STACK WIN 4 1488 27 0 0 8 c 0 0 1 $T2 $esp .cbLocals + .cbSavedRegs + = $T0 .raSearchStart = $eip $T0 ^ = $esp $T0 4 + = $ebx $T0 4 - ^ =
STACK WIN 4 14c0 bb 33 0 4 c 18 0 1 $T0 $ebp = $eip $T0 4 + ^ = $ebp $T0 ^ = $esp $T0 8 + = $L $T0 .cbSavedRegs - = $P $T0 8 + .cbParams + =
STACK WIN 4 14da a1 19 0 4 10 18 0 1 $T0 $ebp = $eip $T0 4 + ^ = $ebp $T0 ^ = $esp $T0 8 + = $L $T0 .cbSavedRegs - = $P $T0 8 + .cbParams + = $ebx $T0 28 - ^ =
STACK WIN 4 1549 14 0 0 4 c 18 0 1 $T0 $ebp = $T2 $esp = $T1 .raSearchStart = $eip $T1 ^ = $ebp $T0 = $esp $T1 4 + = $L $T0 .cbSavedRegs - = $P $T1 4 + .cbParams + = $ebx $T0 28 - ^ =
STACK WIN 4 15e1 23 0 0 10 0 0 0 1 $T2 $esp .cbLocals + .cbSavedRegs + = $T0 .raSearchStart = $eip $T0 ^ = $esp $T0 4 + =
STACK WIN 4 1604 29 1 0 0 0 0 0 1 $T2 $esp .cbLocals + .cbSavedRegs + = $T0 .raSearchStart = $eip $T0 ^ = $esp $T0 4 + =
STACK WIN 4 1605 27 0 0 0 4 0 0 1 $T2 $esp .cbLocals + .cbSavedRegs + = $T0 .raSearchStart = $eip $T0 ^ = $esp $T0 4 + =
STACK WIN 4 162d 3 0 0 0 0 0 0 1 $T2 $esp .cbLocals + .cbSavedRegs + = $T0 .raSearchStart = $eip $T0 ^ = $esp $T0 4 + =
STACK WIN 4 1630 94 15 0 0 0 10 0 1 $T0 $ebp = $eip $T0 4 + ^ = $ebp $T0 ^ = $esp $T0 8 + = $L $T0 .cbSavedRegs - = $P $T0 8 + .cbParams + =
STACK WIN 4 1644 7e 1 0 0 4 10 0 1 $T0 $ebp = $eip $T0 4 + ^ = $ebp $T0 ^ = $esp $T0 8 + = $L $T0 .cbSavedRegs - = $P $T0 8 + .cbParams + = $ebx $T0 20 - ^ =
STACK WIN 4 1645 7c 0 0 0 8 10 0 1 $T0 $ebp = $eip $T0 4 + ^ = $ebp $T0 ^ = $esp $T0 8 + = $L $T0 .cbSavedRegs - = $P $T0 8 + .cbParams + = $ebx $T0 20 - ^ =
STACK WIN 4 1661 5f 0 0 0 c 10 0 1 $T0 $ebp = $eip $T0 4 + ^ = $ebp $T0 ^ = $esp $T0 8 + = $L $T0 .cbSavedRegs - = $P $T0 8 + .cbParams + = $ebx $T0 20 - ^ =
STACK WIN 4 16dc f 0 0 0 0 0 0 1 $T2 $esp .cbLocals + .cbSavedRegs + = $T0 .raSearchStart = $eip $T0 ^ = $esp $T0 4 + =
STACK WIN 4 16fe 104 9 0 0 0 328 0 1 $T0 $ebp = $eip $T0 4 + ^ = $ebp $T0 ^ = $esp $T0 8 + = $L $T0 .cbSavedRegs - = $P $T0 8 + .cbParams + =
STACK WIN 0 119f 14 0 0 0 0 0 0 0 0
STACK WIN 0 13c8 9 0 0 0 0 0 0 0 0
STACK WIN 0 1549 14 0 0 0 0 0 0 0 0
