MODULE windows x86 139BDBA40E3F4303A6179BD123B3A29E1 crashreporter.pdb
FUNC 1000 c 0 std::bad_alloc::~bad_alloc()
FUNC 100c 23 0 std::bad_alloc::`vector deleting destructor'(unsigned int)
FUNC 102f 22 4 std::logic_error::logic_error(std::basic_string<char,std::char_traits<char>,std::allocator<char> > const &)
FUNC 1051 1b 0 std::logic_error::~logic_error()
FUNC 106c e 0 std::logic_error::what()
FUNC 107a 1c 0 std::logic_error::`scalar deleting destructor'(unsigned int)
FUNC 1096 b 0 std::length_error::~length_error()
FUNC 10a1 22 0 std::length_error::`vector deleting destructor'(unsigned int)
FUNC 10c3 b 0 std::out_of_range::~out_of_range()
FUNC 10ce 22 0 std::out_of_range::`scalar deleting destructor'(unsigned int)
FUNC 10f0 7a 4 CrashReporter::GetExtraDataFilename
FUNC 116a 40 4 CrashReporter::Basename
FUNC 11aa 3e 0 CrashReporter::DeleteDump()
FUNC 11e8 25 0 CrashReporter::ShouldEnableSending()
FUNC 120d 8c 1c CheckEndOfLifed(std::basic_string<char,std::char_traits<char>,std::allocator<char> >)
FUNC 1299 26 4 std::auto_ptr<std::basic_ofstream<char,std::char_traits<char> > >::reset(std::basic_ofstream<char,std::char_traits<char> > *)
FUNC 12bf 39 0 std::_String_const_iterator<char,std::char_traits<char>,std::allocator<char> >::operator*()
FUNC 12f8 28 4 std::_Vector_const_iterator<char,std::allocator<char> >::operator==(std::_Vector_const_iterator<char,std::allocator<char> > const &)
FUNC 1320 15 0 std::pair<std::basic_string<char,std::char_traits<char>,std::allocator<char> > const ,std::basic_string<char,std::char_traits<char>,std::allocator<char> > >::~pair<std::basic_string<char,std::char_traits<char>,std::allocator<char> > const ,std::basic_string<char,std::char_traits<char>,std::allocator<char> > >()
FUNC 1335 3b 0 std::_String_const_iterator<char,std::char_traits<char>,std::allocator<char> >::operator++()
FUNC 1370 2d 4 std::_String_const_iterator<char,std::char_traits<char>,std::allocator<char> >::operator==(std::_String_const_iterator<char,std::char_traits<char>,std::allocator<char> > const &)
FUNC 139d 20 8 std::pair<std::basic_string<char,std::char_traits<char>,std::allocator<char> > const ,std::basic_string<char,std::char_traits<char>,std::allocator<char> > >::pair<std::basic_string<char,std::char_traits<char>,std::allocator<char> > const ,std::basic_string<char,std::char_traits<char>,std::allocator<char> > >(std::basic_string<char,std::char_traits<char>,std::allocator<char> > const &,std::basic_string<char,std::char_traits<char>,std::allocator<char> > const &)
FUNC 13bd 16 0 std::vector<std::basic_string<char,std::char_traits<char>,std::allocator<char> >,std::allocator<std::basic_string<char,std::char_traits<char>,std::allocator<char> > > >::capacity()
FUNC 13d3 16 0 std::vector<std::basic_string<char,std::char_traits<char>,std::allocator<char> >,std::allocator<std::basic_string<char,std::char_traits<char>,std::allocator<char> > > >::size()
FUNC 13e9 36 0 std::vector<FileData,std::allocator<FileData> >::_Xlen()
FUNC 141f 29 4 std::logic_error::logic_error(std::logic_error const &)
FUNC 1448 25 4 std::basic_ostream<char,std::char_traits<char> >::_Sentry_base::_Sentry_base(std::basic_ostream<char,std::char_traits<char> > &)
FUNC 146d 19 0 std::basic_ostream<char,std::char_traits<char> >::_Sentry_base::~_Sentry_base()
FUNC 1486 22 8 std::pair<std::_Tree<std::_Tmap_traits<std::basic_string<wchar_t,std::char_traits<wchar_t>,std::allocator<wchar_t> >,std::basic_string<wchar_t,std::char_traits<wchar_t>,std::allocator<wchar_t> >,std::less<std::basic_string<wchar_t,std::char_traits<wchar_t>,std::allocator<wchar_t> > >,std::allocator<std::pair<std::basic_string<wchar_t,std::char_traits<wchar_t>,std::allocator<wchar_t> > const ,std::basic_string<wchar_t,std::char_traits<wchar_t>,std::allocator<wchar_t> > > >,0> >::iterator,std::_Tree<std::_Tmap_traits<std::basic_string<wchar_t,std::char_traits<wchar_t>,std::allocator<wchar_t> >,std::basic_string<wchar_t,std::char_traits<wchar_t>,std::allocator<wchar_t> >,std::less<std::basic_string<wchar_t,std::char_traits<wchar_t>,std::allocator<wchar_t> > >,std::allocator<std::pair<std::basic_string<wchar_t,std::char_traits<wchar_t>,std::allocator<wchar_t> > const ,std::basic_string<wchar_t,std::char_traits<wchar_t>,std::allocator<wchar_t> > > >,0> >::iterator>::pair<std::_Tree<std::_Tmap_traits<std::basic_string<wchar_t,std::char_traits<wchar_t>,std::allocator<wchar_t> >,std::basic_string<wchar_t,std::char_traits<wchar_t>,std::allocator<wchar_t> >,std::less<std::basic_string<wchar_t,std::char_traits<wchar_t>,std::allocator<wchar_t> > >,std::allocator<std::pair<std::basic_string<wchar_t,std::char_traits<wchar_t>,std::allocator<wchar_t> > const ,std::basic_string<wchar_t,std::char_traits<wchar_t>,std::allocator<wchar_t> > > >,0> >::iterator,std::_Tree<std::_Tmap_traits<std::basic_string<wchar_t,std::char_traits<wchar_t>,std::allocator<wchar_t> >,std::basic_string<wchar_t,std::char_traits<wchar_t>,std::allocator<wchar_t> >,std::less<std::basic_string<wchar_t,std::char_traits<wchar_t>,std::allocator<wchar_t> > >,std::allocator<std::pair<std::basic_string<wchar_t,std::char_traits<wchar_t>,std::allocator<wchar_t> > const ,std::basic_string<wchar_t,std::char_traits<wchar_t>,std::allocator<wchar_t> > > >,0> >::iterator>(std::_Tree<std::_Tmap_traits<std::basic_string<wchar_t,std::char_traits<wchar_t>,std::allocator<wchar_t> >,std::basic_string<wchar_t,std::char_traits<wchar_t>,std::allocator<wchar_t> >,std::less<std::basic_string<wchar_t,std::char_traits<wchar_t>,std::allocator<wchar_t> > >,std::allocator<std::pair<std::basic_string<wchar_t,std::char_traits<wchar_t>,std::allocator<wchar_t> > const ,std::basic_string<wchar_t,std::char_traits<wchar_t>,std::allocator<wchar_t> > > >,0> >::iterator const &,std::_Tree<std::_Tmap_traits<std::basic_string<wchar_t,std::char_traits<wchar_t>,std::allocator<wchar_t> >,std::basic_string<wchar_t,std::char_traits<wchar_t>,std::allocator<wchar_t> >,std::less<std::basic_string<wchar_t,std::char_traits<wchar_t>,std::allocator<wchar_t> > >,std::allocator<std::pair<std::basic_string<wchar_t,std::char_traits<wchar_t>,std::allocator<wchar_t> > const ,std::basic_string<wchar_t,std::char_traits<wchar_t>,std::allocator<wchar_t> > > >,0> >::iterator const &)
FUNC 14a8 18 4 std::length_error::length_error(std::length_error const &)
FUNC 14c0 44 4 std::_Tree<std::_Tmap_traits<std::basic_string<char,std::char_traits<char>,std::allocator<char> >,std::basic_string<char,std::char_traits<char>,std::allocator<char> >,std::less<std::basic_string<char,std::char_traits<char>,std::allocator<char> > >,std::allocator<std::pair<std::basic_string<char,std::char_traits<char>,std::allocator<char> > const ,std::basic_string<char,std::char_traits<char>,std::allocator<char> > > >,0> >::_Rrotate(std::_Tree_nod<std::_Tmap_traits<std::basic_string<char,std::char_traits<char>,std::allocator<char> >,std::basic_string<char,std::char_traits<char>,std::allocator<char> >,std::less<std::basic_string<char,std::char_traits<char>,std::allocator<char> > >,std::allocator<std::pair<std::basic_string<char,std::char_traits<char>,std::allocator<char> > const ,std::basic_string<char,std::char_traits<char>,std::allocator<char> > > >,0> >::_Node *)
FUNC 1504 51 0 std::_Tree<std::_Tmap_traits<std::basic_string<wchar_t,std::char_traits<wchar_t>,std::allocator<wchar_t> >,std::basic_string<wchar_t,std::char_traits<wchar_t>,std::allocator<wchar_t> >,std::less<std::basic_string<wchar_t,std::char_traits<wchar_t>,std::allocator<wchar_t> > >,std::allocator<std::pair<std::basic_string<wchar_t,std::char_traits<wchar_t>,std::allocator<wchar_t> > const ,std::basic_string<wchar_t,std::char_traits<wchar_t>,std::allocator<wchar_t> > > >,0> >::const_iterator::_Inc()
FUNC 1555 29 4 std::_Vector_const_iterator<std::basic_string<char,std::char_traits<char>,std::allocator<char> >,std::allocator<std::basic_string<char,std::char_traits<char>,std::allocator<char> > > >::operator-(std::_Vector_const_iterator<std::basic_string<char,std::char_traits<char>,std::allocator<char> >,std::allocator<std::basic_string<char,std::char_traits<char>,std::allocator<char> > > > const &)
FUNC 157e 37 4 std::_Vector_const_iterator<std::basic_string<char,std::char_traits<char>,std::allocator<char> >,std::allocator<std::basic_string<char,std::char_traits<char>,std::allocator<char> > > >::operator+=(int)
FUNC 15b5 23 4 std::pair<std::basic_string<char,std::char_traits<char>,std::allocator<char> > const ,std::basic_string<char,std::char_traits<char>,std::allocator<char> > >::pair<std::basic_string<char,std::char_traits<char>,std::allocator<char> > const ,std::basic_string<char,std::char_traits<char>,std::allocator<char> > >(std::pair<std::basic_string<char,std::char_traits<char>,std::allocator<char> > const ,std::basic_string<char,std::char_traits<char>,std::allocator<char> > > const &)
FUNC 15d8 4e 8 std::_Allocate<std::basic_string<char,std::char_traits<char>,std::allocator<char> > >(unsigned int,std::basic_string<char,std::char_traits<char>,std::allocator<char> > *)
FUNC 1626 4e 8 std::_Allocate<std::_Tree_nod<std::_Tmap_traits<std::basic_string<char,std::char_traits<char>,std::allocator<char> >,std::basic_string<char,std::char_traits<char>,std::allocator<char> >,std::less<std::basic_string<char,std::char_traits<char>,std::allocator<char> > >,std::allocator<std::pair<std::basic_string<char,std::char_traits<char>,std::allocator<char> > const ,std::basic_string<char,std::char_traits<char>,std::allocator<char> > > >,0> >::_Node>(unsigned int,std::_Tree_nod<std::_Tmap_traits<std::basic_string<char,std::char_traits<char>,std::allocator<char> >,std::basic_string<char,std::char_traits<char>,std::allocator<char> >,std::less<std::basic_string<char,std::char_traits<char>,std::allocator<char> > >,std::allocator<std::pair<std::basic_string<char,std::char_traits<char>,std::allocator<char> > const ,std::basic_string<char,std::char_traits<char>,std::allocator<char> > > >,0> >::_Node *)
FUNC 1674 19 4 std::bad_alloc::bad_alloc(std::bad_alloc const &)
FUNC 168d 1e c std::_Fill<std::basic_string<char,std::char_traits<char>,std::allocator<char> > *,std::basic_string<char,std::char_traits<char>,std::allocator<char> > >(std::basic_string<char,std::char_traits<char>,std::allocator<char> > *,std::basic_string<char,std::char_traits<char>,std::allocator<char> > *,std::basic_string<char,std::char_traits<char>,std::allocator<char> > const &)
FUNC 16ab 8f 0 CrashReporter::OpenLogFile
FUNC 173a 41 4 std::basic_ostream<char,std::char_traits<char> >::sentry::sentry(std::basic_ostream<char,std::char_traits<char> > &)
FUNC 177b 1d 0 std::basic_ostream<char,std::char_traits<char> >::sentry::~sentry()
FUNC 1798 36 4 std::_Tree<std::_Tmap_traits<std::basic_string<char,std::char_traits<char>,std::allocator<char> >,std::basic_string<char,std::char_traits<char>,std::allocator<char> >,std::less<std::basic_string<char,std::char_traits<char>,std::allocator<char> > >,std::allocator<std::pair<std::basic_string<char,std::char_traits<char>,std::allocator<char> > const ,std::basic_string<char,std::char_traits<char>,std::allocator<char> > > >,0> >::_Lbound(std::basic_string<char,std::char_traits<char>,std::allocator<char> > const &)
FUNC 17ce 42 4 std::_Tree<std::_Tmap_traits<std::basic_string<char,std::char_traits<char>,std::allocator<char> >,std::basic_string<char,std::char_traits<char>,std::allocator<char> >,std::less<std::basic_string<char,std::char_traits<char>,std::allocator<char> > >,std::allocator<std::pair<std::basic_string<char,std::char_traits<char>,std::allocator<char> > const ,std::basic_string<char,std::char_traits<char>,std::allocator<char> > > >,0> >::_Lrotate(std::_Tree_nod<std::_Tmap_traits<std::basic_string<char,std::char_traits<char>,std::allocator<char> >,std::basic_string<char,std::char_traits<char>,std::allocator<char> >,std::less<std::basic_string<char,std::char_traits<char>,std::allocator<char> > >,std::allocator<std::pair<std::basic_string<char,std::char_traits<char>,std::allocator<char> > const ,std::basic_string<char,std::char_traits<char>,std::allocator<char> > > >,0> >::_Node *)
FUNC 1810 36 4 std::_Tree<std::_Tmap_traits<std::basic_string<char,std::char_traits<char>,std::allocator<char> >,std::basic_string<char,std::char_traits<char>,std::allocator<char> >,std::less<std::basic_string<char,std::char_traits<char>,std::allocator<char> > >,std::allocator<std::pair<std::basic_string<char,std::char_traits<char>,std::allocator<char> > const ,std::basic_string<char,std::char_traits<char>,std::allocator<char> > > >,0> >::_Ubound(std::basic_string<char,std::char_traits<char>,std::allocator<char> > const &)
FUNC 1846 33 14 std::_Tree_nod<std::_Tmap_traits<std::basic_string<char,std::char_traits<char>,std::allocator<char> >,std::basic_string<char,std::char_traits<char>,std::allocator<char> >,std::less<std::basic_string<char,std::char_traits<char>,std::allocator<char> > >,std::allocator<std::pair<std::basic_string<char,std::char_traits<char>,std::allocator<char> > const ,std::basic_string<char,std::char_traits<char>,std::allocator<char> > > >,0> >::_Node::_Node(std::_Tree_nod<std::_Tmap_traits<std::basic_string<char,std::char_traits<char>,std::allocator<char> >,std::basic_string<char,std::char_traits<char>,std::allocator<char> >,std::less<std::basic_string<char,std::char_traits<char>,std::allocator<char> > >,std::allocator<std::pair<std::basic_string<char,std::char_traits<char>,std::allocator<char> > const ,std::basic_string<char,std::char_traits<char>,std::allocator<char> > > >,0> >::_Node *,std::_Tree_nod<std::_Tmap_traits<std::basic_string<char,std::char_traits<char>,std::allocator<char> >,std::basic_string<char,std::char_traits<char>,std::allocator<char> >,std::less<std::basic_string<char,std::char_traits<char>,std::allocator<char> > >,std::allocator<std::pair<std::basic_string<char,std::char_traits<char>,std::allocator<char> > const ,std::basic_string<char,std::char_traits<char>,std::allocator<char> > > >,0> >::_Node *,std::_Tree_nod<std::_Tmap_traits<std::basic_string<char,std::char_traits<char>,std::allocator<char> >,std::basic_string<char,std::char_traits<char>,std::allocator<char> >,std::less<std::basic_string<char,std::char_traits<char>,std::allocator<char> > >,std::allocator<std::pair<std::basic_string<char,std::char_traits<char>,std::allocator<char> > const ,std::basic_string<char,std::char_traits<char>,std::allocator<char> > > >,0> >::_Node *,std::pair<std::basic_string<char,std::char_traits<char>,std::allocator<char> > const ,std::basic_string<char,std::char_traits<char>,std::allocator<char> > > const &,char)
FUNC 1879 140 8 std::operator<<<std::char_traits<char> >(std::basic_ostream<char,std::char_traits<char> > &,char const *)
FUNC 19b9 1f 0 std::_Tree_nod<std::_Tmap_traits<std::basic_string<char,std::char_traits<char>,std::allocator<char> >,std::basic_string<char,std::char_traits<char>,std::allocator<char> >,std::less<std::basic_string<char,std::char_traits<char>,std::allocator<char> > >,std::allocator<std::pair<std::basic_string<char,std::char_traits<char>,std::allocator<char> > const ,std::basic_string<char,std::char_traits<char>,std::allocator<char> > > >,0> >::_Node::`scalar deleting destructor'(unsigned int)
FUNC 19d8 15 8 std::allocator<std::basic_string<char,std::char_traits<char>,std::allocator<char> > >::construct(std::basic_string<char,std::char_traits<char>,std::allocator<char> > *,std::basic_string<char,std::char_traits<char>,std::allocator<char> > const &)
FUNC 19ed 28 18 std::_Move_backward_opt<std::basic_string<char,std::char_traits<char>,std::allocator<char> > *,std::basic_string<char,std::char_traits<char>,std::allocator<char> > *,std::forward_iterator_tag>(std::basic_string<char,std::char_traits<char>,std::allocator<char> > *,std::basic_string<char,std::char_traits<char>,std::allocator<char> > *,std::basic_string<char,std::char_traits<char>,std::allocator<char> > *,std::forward_iterator_tag,std::_Swap_move_tag,std::_Range_checked_iterator_tag)
FUNC 1a15 9a 0 CrashReporter::Unescape
FUNC 1aaf 9d 4 CrashReporter::LogMessage(std::basic_string<char,std::char_traits<char>,std::allocator<char> > const &)
FUNC 1b4c 46 4 std::vector<std::basic_string<char,std::char_traits<char>,std::allocator<char> >,std::allocator<std::basic_string<char,std::char_traits<char>,std::allocator<char> > > >::_Buy(unsigned int)
FUNC 1b92 1f 4 std::_Tree<std::_Tmap_traits<std::basic_string<char,std::char_traits<char>,std::allocator<char> >,std::basic_string<char,std::char_traits<char>,std::allocator<char> >,std::less<std::basic_string<char,std::char_traits<char>,std::allocator<char> > >,std::allocator<std::pair<std::basic_string<char,std::char_traits<char>,std::allocator<char> > const ,std::basic_string<char,std::char_traits<char>,std::allocator<char> > > >,0> >::upper_bound(std::basic_string<char,std::char_traits<char>,std::allocator<char> > const &)
FUNC 1bb1 2d 4 std::_Vector_iterator<std::basic_string<char,std::char_traits<char>,std::allocator<char> >,std::allocator<std::basic_string<char,std::char_traits<char>,std::allocator<char> > > >::operator+(int)
FUNC 1bde 5a 0 std::_Tree<std::_Tmap_traits<std::basic_string<char,std::char_traits<char>,std::allocator<char> >,std::basic_string<char,std::char_traits<char>,std::allocator<char> >,std::less<std::basic_string<char,std::char_traits<char>,std::allocator<char> > >,std::allocator<std::pair<std::basic_string<char,std::char_traits<char>,std::allocator<char> > const ,std::basic_string<char,std::char_traits<char>,std::allocator<char> > > >,0> >::_Buynode()
FUNC 1c38 5b 14 std::_Tree<std::_Tmap_traits<std::basic_string<char,std::char_traits<char>,std::allocator<char> >,std::basic_string<char,std::char_traits<char>,std::allocator<char> >,std::less<std::basic_string<char,std::char_traits<char>,std::allocator<char> > >,std::allocator<std::pair<std::basic_string<char,std::char_traits<char>,std::allocator<char> > const ,std::basic_string<char,std::char_traits<char>,std::allocator<char> > > >,0> >::_Buynode(std::_Tree_nod<std::_Tmap_traits<std::basic_string<char,std::char_traits<char>,std::allocator<char> >,std::basic_string<char,std::char_traits<char>,std::allocator<char> >,std::less<std::basic_string<char,std::char_traits<char>,std::allocator<char> > >,std::allocator<std::pair<std::basic_string<char,std::char_traits<char>,std::allocator<char> > const ,std::basic_string<char,std::char_traits<char>,std::allocator<char> > > >,0> >::_Node *,std::_Tree_nod<std::_Tmap_traits<std::basic_string<char,std::char_traits<char>,std::allocator<char> >,std::basic_string<char,std::char_traits<char>,std::allocator<char> >,std::less<std::basic_string<char,std::char_traits<char>,std::allocator<char> > >,std::allocator<std::pair<std::basic_string<char,std::char_traits<char>,std::allocator<char> > const ,std::basic_string<char,std::char_traits<char>,std::allocator<char> > > >,0> >::_Node *,std::_Tree_nod<std::_Tmap_traits<std::basic_string<char,std::char_traits<char>,std::allocator<char> >,std::basic_string<char,std::char_traits<char>,std::allocator<char> >,std::less<std::basic_string<char,std::char_traits<char>,std::allocator<char> > >,std::allocator<std::pair<std::basic_string<char,std::char_traits<char>,std::allocator<char> > const ,std::basic_string<char,std::char_traits<char>,std::allocator<char> > > >,0> >::_Node *,std::pair<std::basic_string<char,std::char_traits<char>,std::allocator<char> > const ,std::basic_string<char,std::char_traits<char>,std::allocator<char> > > const &,char)
FUNC 1c93 34 18 std::_Distance2<std::_Tree<std::_Tmap_traits<std::basic_string<wchar_t,std::char_traits<wchar_t>,std::allocator<wchar_t> >,std::basic_string<wchar_t,std::char_traits<wchar_t>,std::allocator<wchar_t> >,std::less<std::basic_string<wchar_t,std::char_traits<wchar_t>,std::allocator<wchar_t> > >,std::allocator<std::pair<std::basic_string<wchar_t,std::char_traits<wchar_t>,std::allocator<wchar_t> > const ,std::basic_string<wchar_t,std::char_traits<wchar_t>,std::allocator<wchar_t> > > >,0> >::iterator,unsigned int>(std::_Tree<std::_Tmap_traits<std::basic_string<wchar_t,std::char_traits<wchar_t>,std::allocator<wchar_t> >,std::basic_string<wchar_t,std::char_traits<wchar_t>,std::allocator<wchar_t> >,std::less<std::basic_string<wchar_t,std::char_traits<wchar_t>,std::allocator<wchar_t> > >,std::allocator<std::pair<std::basic_string<wchar_t,std::char_traits<wchar_t>,std::allocator<wchar_t> > const ,std::basic_string<wchar_t,std::char_traits<wchar_t>,std::allocator<wchar_t> > > >,0> >::iterator,std::_Tree<std::_Tmap_traits<std::basic_string<wchar_t,std::char_traits<wchar_t>,std::allocator<wchar_t> >,std::basic_string<wchar_t,std::char_traits<wchar_t>,std::allocator<wchar_t> >,std::less<std::basic_string<wchar_t,std::char_traits<wchar_t>,std::allocator<wchar_t> > >,std::allocator<std::pair<std::basic_string<wchar_t,std::char_traits<wchar_t>,std::allocator<wchar_t> > const ,std::basic_string<wchar_t,std::char_traits<wchar_t>,std::allocator<wchar_t> > > >,0> >::iterator,unsigned int &,std::bidirectional_iterator_tag)
FUNC 1cc7 3e 18 std::_Move_backward_opt<std::basic_string<char,std::char_traits<char>,std::allocator<char> > *,std::basic_string<char,std::char_traits<char>,std::allocator<char> > *>(std::basic_string<char,std::char_traits<char>,std::allocator<char> > *,std::basic_string<char,std::char_traits<char>,std::allocator<char> > *,std::basic_string<char,std::char_traits<char>,std::allocator<char> > *,std::random_access_iterator_tag,std::_Swap_move_tag,std::_Range_checked_iterator_tag)
FUNC 1d05 85 18 std::_Uninit_move<std::basic_string<char,std::char_traits<char>,std::allocator<char> > *,std::basic_string<char,std::char_traits<char>,std::allocator<char> > *,std::allocator<std::basic_string<char,std::char_traits<char>,std::allocator<char> > > >(std::basic_string<char,std::char_traits<char>,std::allocator<char> > *,std::basic_string<char,std::char_traits<char>,std::allocator<char> > *,std::basic_string<char,std::char_traits<char>,std::allocator<char> > *,std::allocator<std::basic_string<char,std::char_traits<char>,std::allocator<char> > > &,std::_Swap_move_tag,std::_Range_checked_iterator_tag)
FUNC 1d8a 1f 4 std::_Tree<std::_Tmap_traits<std::basic_string<char,std::char_traits<char>,std::allocator<char> >,std::basic_string<char,std::char_traits<char>,std::allocator<char> >,std::less<std::basic_string<char,std::char_traits<char>,std::allocator<char> > >,std::allocator<std::pair<std::basic_string<char,std::char_traits<char>,std::allocator<char> > const ,std::basic_string<char,std::char_traits<char>,std::allocator<char> > > >,0> >::lower_bound(std::basic_string<char,std::char_traits<char>,std::allocator<char> > const &)
FUNC 1da9 35 4 std::_Tree<std::_Tmap_traits<std::basic_string<char,std::char_traits<char>,std::allocator<char> >,std::basic_string<char,std::char_traits<char>,std::allocator<char> >,std::less<std::basic_string<char,std::char_traits<char>,std::allocator<char> > >,std::allocator<std::pair<std::basic_string<char,std::char_traits<char>,std::allocator<char> > const ,std::basic_string<char,std::char_traits<char>,std::allocator<char> > > >,0> >::equal_range(std::basic_string<char,std::char_traits<char>,std::allocator<char> > const &)
FUNC 1dde 25 0 std::_Tree<std::_Tmap_traits<std::basic_string<char,std::char_traits<char>,std::allocator<char> >,std::basic_string<char,std::char_traits<char>,std::allocator<char> >,std::less<std::basic_string<char,std::char_traits<char>,std::allocator<char> > >,std::allocator<std::pair<std::basic_string<char,std::char_traits<char>,std::allocator<char> > const ,std::basic_string<char,std::char_traits<char>,std::allocator<char> > > >,0> >::_Init()
FUNC 1e03 154 c std::_Tree<std::_Tmap_traits<std::basic_string<char,std::char_traits<char>,std::allocator<char> >,std::basic_string<char,std::char_traits<char>,std::allocator<char> >,std::less<std::basic_string<char,std::char_traits<char>,std::allocator<char> > >,std::allocator<std::pair<std::basic_string<char,std::char_traits<char>,std::allocator<char> > const ,std::basic_string<char,std::char_traits<char>,std::allocator<char> > > >,0> >::_Insert(bool,std::_Tree_nod<std::_Tmap_traits<std::basic_string<char,std::char_traits<char>,std::allocator<char> >,std::basic_string<char,std::char_traits<char>,std::allocator<char> >,std::less<std::basic_string<char,std::char_traits<char>,std::allocator<char> > >,std::allocator<std::pair<std::basic_string<char,std::char_traits<char>,std::allocator<char> > const ,std::basic_string<char,std::char_traits<char>,std::allocator<char> > > >,0> >::_Node *,std::pair<std::basic_string<char,std::char_traits<char>,std::allocator<char> > const ,std::basic_string<char,std::char_traits<char>,std::allocator<char> > > const &)
FUNC 1f57 20 14 std::_Distance<std::_Tree<std::_Tmap_traits<std::basic_string<char,std::char_traits<char>,std::allocator<char> >,std::basic_string<char,std::char_traits<char>,std::allocator<char> >,std::less<std::basic_string<char,std::char_traits<char>,std::allocator<char> > >,std::allocator<std::pair<std::basic_string<char,std::char_traits<char>,std::allocator<char> > const ,std::basic_string<char,std::char_traits<char>,std::allocator<char> > > >,0> >::iterator,unsigned int>(std::_Tree<std::_Tmap_traits<std::basic_string<char,std::char_traits<char>,std::allocator<char> >,std::basic_string<char,std::char_traits<char>,std::allocator<char> >,std::less<std::basic_string<char,std::char_traits<char>,std::allocator<char> > >,std::allocator<std::pair<std::basic_string<char,std::char_traits<char>,std::allocator<char> > const ,std::basic_string<char,std::char_traits<char>,std::allocator<char> > > >,0> >::iterator,std::_Tree<std::_Tmap_traits<std::basic_string<char,std::char_traits<char>,std::allocator<char> >,std::basic_string<char,std::char_traits<char>,std::allocator<char> >,std::less<std::basic_string<char,std::char_traits<char>,std::allocator<char> > >,std::allocator<std::pair<std::basic_string<char,std::char_traits<char>,std::allocator<char> > const ,std::basic_string<char,std::char_traits<char>,std::allocator<char> > > >,0> >::iterator,unsigned int &)
FUNC 1f77 28 c stdext::_Unchecked_move_backward<std::basic_string<char,std::char_traits<char>,std::allocator<char> > *,std::basic_string<char,std::char_traits<char>,std::allocator<char> > *>(std::basic_string<char,std::char_traits<char>,std::allocator<char> > *,std::basic_string<char,std::char_traits<char>,std::allocator<char> > *,std::basic_string<char,std::char_traits<char>,std::allocator<char> > *)
FUNC 1f9f 5c 18 std::_Uninit_fill_n<std::basic_string<char,std::char_traits<char>,std::allocator<char> > *,unsigned int,std::basic_string<char,std::char_traits<char>,std::allocator<char> >,std::allocator<std::basic_string<char,std::char_traits<char>,std::allocator<char> > > >(std::basic_string<char,std::char_traits<char>,std::allocator<char> > *,unsigned int,std::basic_string<char,std::char_traits<char>,std::allocator<char> > const &,std::allocator<std::basic_string<char,std::char_traits<char>,std::allocator<char> > > &,std::_Nonscalar_ptr_iterator_tag,std::_Range_checked_iterator_tag)
FUNC 1ffb 1a 10 std::_Destroy_range<std::basic_string<char,std::char_traits<char>,std::allocator<char> >,std::allocator<std::basic_string<char,std::char_traits<char>,std::allocator<char> > > >(std::basic_string<char,std::char_traits<char>,std::allocator<char> > *,std::basic_string<char,std::char_traits<char>,std::allocator<char> > *,std::allocator<std::basic_string<char,std::char_traits<char>,std::allocator<char> > > &,std::_Nonscalar_ptr_iterator_tag)
FUNC 2015 28 10 stdext::_Unchecked_uninitialized_move<std::basic_string<char,std::char_traits<char>,std::allocator<char> > *,std::basic_string<char,std::char_traits<char>,std::allocator<char> > *,std::allocator<std::basic_string<char,std::char_traits<char>,std::allocator<char> > > >(std::basic_string<char,std::char_traits<char>,std::allocator<char> > *,std::basic_string<char,std::char_traits<char>,std::allocator<char> > *,std::basic_string<char,std::char_traits<char>,std::allocator<char> > *,std::allocator<std::basic_string<char,std::char_traits<char>,std::allocator<char> > > &)
FUNC 203d 6d 4 std::_Tree<std::_Tmap_traits<std::basic_string<char,std::char_traits<char>,std::allocator<char> >,std::basic_string<char,std::char_traits<char>,std::allocator<char> >,std::less<std::basic_string<char,std::char_traits<char>,std::allocator<char> > >,std::allocator<std::pair<std::basic_string<char,std::char_traits<char>,std::allocator<char> > const ,std::basic_string<char,std::char_traits<char>,std::allocator<char> > > >,0> >::find(std::basic_string<char,std::char_traits<char>,std::allocator<char> > const &)
FUNC 20aa d5 4 std::_Tree<std::_Tmap_traits<std::basic_string<char,std::char_traits<char>,std::allocator<char> >,std::basic_string<char,std::char_traits<char>,std::allocator<char> >,std::less<std::basic_string<char,std::char_traits<char>,std::allocator<char> > >,std::allocator<std::pair<std::basic_string<char,std::char_traits<char>,std::allocator<char> > const ,std::basic_string<char,std::char_traits<char>,std::allocator<char> > > >,0> >::insert(std::pair<std::basic_string<char,std::char_traits<char>,std::allocator<char> > const ,std::basic_string<char,std::char_traits<char>,std::allocator<char> > > const &)
FUNC 217f 280 8 std::_Tree<std::_Tmap_traits<std::basic_string<char,std::char_traits<char>,std::allocator<char> >,std::basic_string<char,std::char_traits<char>,std::allocator<char> >,std::less<std::basic_string<char,std::char_traits<char>,std::allocator<char> > >,std::allocator<std::pair<std::basic_string<char,std::char_traits<char>,std::allocator<char> > const ,std::basic_string<char,std::char_traits<char>,std::allocator<char> > > >,0> >::erase(std::_Tree<std::_Tmap_traits<std::basic_string<char,std::char_traits<char>,std::allocator<char> >,std::basic_string<char,std::char_traits<char>,std::allocator<char> >,std::less<std::basic_string<char,std::char_traits<char>,std::allocator<char> > >,std::allocator<std::pair<std::basic_string<char,std::char_traits<char>,std::allocator<char> > const ,std::basic_string<char,std::char_traits<char>,std::allocator<char> > > >,0> >::iterator)
FUNC 23ff 18 4 std::out_of_range::out_of_range(std::out_of_range const &)
FUNC 2417 3b 4 std::_Tree<std::_Tmap_traits<std::basic_string<char,std::char_traits<char>,std::allocator<char> >,std::basic_string<char,std::char_traits<char>,std::allocator<char> >,std::less<std::basic_string<char,std::char_traits<char>,std::allocator<char> > >,std::allocator<std::pair<std::basic_string<char,std::char_traits<char>,std::allocator<char> > const ,std::basic_string<char,std::char_traits<char>,std::allocator<char> > > >,0> >::_Erase(std::_Tree_nod<std::_Tmap_traits<std::basic_string<char,std::char_traits<char>,std::allocator<char> >,std::basic_string<char,std::char_traits<char>,std::allocator<char> >,std::less<std::basic_string<char,std::char_traits<char>,std::allocator<char> > >,std::allocator<std::pair<std::basic_string<char,std::char_traits<char>,std::allocator<char> > const ,std::basic_string<char,std::char_traits<char>,std::allocator<char> > > >,0> >::_Node *)
FUNC 2452 28 10 stdext::unchecked_uninitialized_fill_n<std::basic_string<char,std::char_traits<char>,std::allocator<char> > *,unsigned int,std::basic_string<char,std::char_traits<char>,std::allocator<char> >,std::allocator<std::basic_string<char,std::char_traits<char>,std::allocator<char> > > >(std::basic_string<char,std::char_traits<char>,std::allocator<char> > *,unsigned int,std::basic_string<char,std::char_traits<char>,std::allocator<char> > const &,std::allocator<std::basic_string<char,std::char_traits<char>,std::allocator<char> > > &)
FUNC 247a 1a c std::_Destroy_range<std::basic_string<char,std::char_traits<char>,std::allocator<char> >,std::allocator<std::basic_string<char,std::char_traits<char>,std::allocator<char> > > >(std::basic_string<char,std::char_traits<char>,std::allocator<char> > *,std::basic_string<char,std::char_traits<char>,std::allocator<char> > *,std::allocator<std::basic_string<char,std::char_traits<char>,std::allocator<char> > > &)
FUNC 2494 18 c std::vector<std::basic_string<char,std::char_traits<char>,std::allocator<char> >,std::allocator<std::basic_string<char,std::char_traits<char>,std::allocator<char> > > >::_Umove<std::basic_string<char,std::char_traits<char>,std::allocator<char> > *>(std::basic_string<char,std::char_traits<char>,std::allocator<char> > *,std::basic_string<char,std::char_traits<char>,std::allocator<char> > *,std::basic_string<char,std::char_traits<char>,std::allocator<char> > *)
FUNC 24ac 1a0 c std::_Tree<std::_Tmap_traits<std::basic_string<char,std::char_traits<char>,std::allocator<char> >,std::basic_string<char,std::char_traits<char>,std::allocator<char> >,std::less<std::basic_string<char,std::char_traits<char>,std::allocator<char> > >,std::allocator<std::pair<std::basic_string<char,std::char_traits<char>,std::allocator<char> > const ,std::basic_string<char,std::char_traits<char>,std::allocator<char> > > >,0> >::insert(std::_Tree<std::_Tmap_traits<std::basic_string<char,std::char_traits<char>,std::allocator<char> >,std::basic_string<char,std::char_traits<char>,std::allocator<char> >,std::less<std::basic_string<char,std::char_traits<char>,std::allocator<char> > >,std::allocator<std::pair<std::basic_string<char,std::char_traits<char>,std::allocator<char> > const ,std::basic_string<char,std::char_traits<char>,std::allocator<char> > > >,0> >::iterator,std::pair<std::basic_string<char,std::char_traits<char>,std::allocator<char> > const ,std::basic_string<char,std::char_traits<char>,std::allocator<char> > > const &)
FUNC 264c 22 c std::vector<std::basic_string<char,std::char_traits<char>,std::allocator<char> >,std::allocator<std::basic_string<char,std::char_traits<char>,std::allocator<char> > > >::_Ufill(std::basic_string<char,std::char_traits<char>,std::allocator<char> > *,unsigned int,std::basic_string<char,std::char_traits<char>,std::allocator<char> > const &)
FUNC 266e 26 0 std::_Tree<std::_Tmap_traits<std::basic_string<char,std::char_traits<char>,std::allocator<char> >,std::basic_string<char,std::char_traits<char>,std::allocator<char> >,std::less<std::basic_string<char,std::char_traits<char>,std::allocator<char> > >,std::allocator<std::pair<std::basic_string<char,std::char_traits<char>,std::allocator<char> > const ,std::basic_string<char,std::char_traits<char>,std::allocator<char> > > >,0> >::clear()
FUNC 2694 209 10 std::vector<std::basic_string<char,std::char_traits<char>,std::allocator<char> >,std::allocator<std::basic_string<char,std::char_traits<char>,std::allocator<char> > > >::_Insert_n(std::_Vector_iterator<std::basic_string<char,std::char_traits<char>,std::allocator<char> >,std::allocator<std::basic_string<char,std::char_traits<char>,std::allocator<char> > > >,unsigned int,std::basic_string<char,std::char_traits<char>,std::allocator<char> > const &)
FUNC 289d a4 4 std::map<std::basic_string<char,std::char_traits<char>,std::allocator<char> >,std::basic_string<char,std::char_traits<char>,std::allocator<char> >,std::less<std::basic_string<char,std::char_traits<char>,std::allocator<char> > >,std::allocator<std::pair<std::basic_string<char,std::char_traits<char>,std::allocator<char> > const ,std::basic_string<char,std::char_traits<char>,std::allocator<char> > > > >::operator[](std::basic_string<char,std::char_traits<char>,std::allocator<char> > const &)
FUNC 2941 aa 10 std::_Tree<std::_Tmap_traits<std::basic_string<char,std::char_traits<char>,std::allocator<char> >,std::basic_string<char,std::char_traits<char>,std::allocator<char> >,std::less<std::basic_string<char,std::char_traits<char>,std::allocator<char> > >,std::allocator<std::pair<std::basic_string<char,std::char_traits<char>,std::allocator<char> > const ,std::basic_string<char,std::char_traits<char>,std::allocator<char> > > >,0> >::erase(std::_Tree<std::_Tmap_traits<std::basic_string<char,std::char_traits<char>,std::allocator<char> >,std::basic_string<char,std::char_traits<char>,std::allocator<char> >,std::less<std::basic_string<char,std::char_traits<char>,std::allocator<char> > >,std::allocator<std::pair<std::basic_string<char,std::char_traits<char>,std::allocator<char> > const ,std::basic_string<char,std::char_traits<char>,std::allocator<char> > > >,0> >::iterator,std::_Tree<std::_Tmap_traits<std::basic_string<char,std::char_traits<char>,std::allocator<char> >,std::basic_string<char,std::char_traits<char>,std::allocator<char> >,std::less<std::basic_string<char,std::char_traits<char>,std::allocator<char> > >,std::allocator<std::pair<std::basic_string<char,std::char_traits<char>,std::allocator<char> > const ,std::basic_string<char,std::char_traits<char>,std::allocator<char> > > >,0> >::iterator)
FUNC 29eb 4e 0 std::_Tree<std::_Tmap_traits<std::basic_string<char,std::char_traits<char>,std::allocator<char> >,std::basic_string<char,std::char_traits<char>,std::allocator<char> >,std::less<std::basic_string<char,std::char_traits<char>,std::allocator<char> > >,std::allocator<std::pair<std::basic_string<char,std::char_traits<char>,std::allocator<char> > const ,std::basic_string<char,std::char_traits<char>,std::allocator<char> > > >,0> >::_Tidy()
FUNC 2a39 63 c std::vector<std::basic_string<char,std::char_traits<char>,std::allocator<char> >,std::allocator<std::basic_string<char,std::char_traits<char>,std::allocator<char> > > >::insert(std::_Vector_iterator<std::basic_string<char,std::char_traits<char>,std::allocator<char> >,std::allocator<std::basic_string<char,std::char_traits<char>,std::allocator<char> > > >,std::basic_string<char,std::char_traits<char>,std::allocator<char> > const &)
FUNC 2a9c 2d 0 std::vector<std::basic_string<char,std::char_traits<char>,std::allocator<char> >,std::allocator<std::basic_string<char,std::char_traits<char>,std::allocator<char> > > >::_Tidy()
FUNC 2ac9 f5 4 CrashReporter::UIError(std::basic_string<char,std::char_traits<char>,std::allocator<char> > const &)
FUNC 2bbe 147 c CrashReporter::ReadStrings(std::basic_istream<char,std::char_traits<char> > &,std::map<std::basic_string<char,std::char_traits<char>,std::allocator<char> >,std::basic_string<char,std::char_traits<char>,std::allocator<char> >,std::less<std::basic_string<char,std::char_traits<char>,std::allocator<char> > >,std::allocator<std::pair<std::basic_string<char,std::char_traits<char>,std::allocator<char> > const ,std::basic_string<char,std::char_traits<char>,std::allocator<char> > > > > &,bool)
FUNC 2d05 43 c CrashReporter::ReadStringsFromFile(std::basic_string<char,std::char_traits<char>,std::allocator<char> > const &,std::map<std::basic_string<char,std::char_traits<char>,std::allocator<char> >,std::basic_string<char,std::char_traits<char>,std::allocator<char> >,std::less<std::basic_string<char,std::char_traits<char>,std::allocator<char> > >,std::allocator<std::pair<std::basic_string<char,std::char_traits<char>,std::allocator<char> > const ,std::basic_string<char,std::char_traits<char>,std::allocator<char> > > > > &,bool)
FUNC 2d48 e5 0 CrashReporter::ReadConfig
FUNC 2e2d 1b3 4 CrashReporter::MoveCrashData
FUNC 2fe0 535 4 RewriteStrings(std::map<std::basic_string<char,std::char_traits<char>,std::allocator<char> >,std::basic_string<char,std::char_traits<char>,std::allocator<char> >,std::less<std::basic_string<char,std::char_traits<char>,std::allocator<char> > >,std::allocator<std::pair<std::basic_string<char,std::char_traits<char>,std::allocator<char> > const ,std::basic_string<char,std::char_traits<char>,std::allocator<char> > > > > &)
FUNC 3515 50 4 std::_Tree<std::_Tmap_traits<std::basic_string<char,std::char_traits<char>,std::allocator<char> >,std::basic_string<char,std::char_traits<char>,std::allocator<char> >,std::less<std::basic_string<char,std::char_traits<char>,std::allocator<char> > >,std::allocator<std::pair<std::basic_string<char,std::char_traits<char>,std::allocator<char> > const ,std::basic_string<char,std::char_traits<char>,std::allocator<char> > > >,0> >::erase(std::basic_string<char,std::char_traits<char>,std::allocator<char> > const &)
FUNC 3565 55 4 std::vector<std::basic_string<char,std::char_traits<char>,std::allocator<char> >,std::allocator<std::basic_string<char,std::char_traits<char>,std::allocator<char> > > >::push_back(std::basic_string<char,std::char_traits<char>,std::allocator<char> > const &)
FUNC 35ba 4e9 0 CrashReporter::AddSubmittedReport
FUNC 3aa3 7a 8 CrashReporter::SendCompleted(bool,std::basic_string<char,std::char_traits<char>,std::allocator<char> > const &)
FUNC 3b1d 73b 8 main
FUNC 4258 10c 10 wWinMain
FUNC 4364 1b 4 ceilf
FUNC 437f 37 c GetBoolValue
FUNC 43b6 65 8 CheckBoolKey
FUNC 441b a2 c SetBoolKey
FUNC 44bd 73 4 GetStringValue
FUNC 4530 64 c GetStringKey
FUNC 4594 90 4 GetThemeSizes
FUNC 4624 21 c GetRelativeRect
FUNC 4645 22 8 SetDlgItemVisible
FUNC 4667 3a 8 StretchDialog
FUNC 46a1 15d 4 EndCrashReporterDialog
FUNC 47fe 1a 4 BytesInUTF8
FUNC 4818 db 4 NewTextLength
FUNC 48f3 279 10 EditSubclassProc
FUNC 4b6c 117 24 ResizeControl
FUNC 4c83 9e 4 StretchControlsToFit
FUNC 4d21 9b 4 SubmitReportChecked
FUNC 4dbc a6 10 DialogBoxParamMaybeRTL
FUNC 4e62 de 4 UTF8ToWide
FUNC 4f40 e5 8 WideToUTF8(std::basic_string<wchar_t,std::char_traits<wchar_t>,std::allocator<wchar_t> > const &,bool *)
FUNC 5025 1 0 UIShutdown()
FUNC 5026 ad 4 UIGetIniPath(std::basic_string<char,std::char_traits<char>,std::allocator<char> > &)
FUNC 50d3 16c c UIGetSettingsPath(std::basic_string<char,std::char_traits<char>,std::allocator<char> > const &,std::basic_string<char,std::char_traits<char>,std::allocator<char> > const &,std::basic_string<char,std::char_traits<char>,std::allocator<char> > &)
FUNC 523f 59 4 UIEnsurePathExists(std::basic_string<char,std::char_traits<char>,std::allocator<char> > const &)
FUNC 5298 44 4 UIFileExists(std::basic_string<char,std::char_traits<char>,std::allocator<char> > const &)
FUNC 52dc 81 8 UIMoveFile(std::basic_string<char,std::char_traits<char>,std::allocator<char> > const &,std::basic_string<char,std::char_traits<char>,std::allocator<char> > const &)
FUNC 535d 43 4 UIDeleteFile(std::basic_string<char,std::char_traits<char>,std::allocator<char> > const &)
FUNC 53a0 68 4 UIOpenRead(std::basic_string<char,std::char_traits<char>,std::allocator<char> > const &)
FUNC 5408 20 0 std::basic_ifstream<char,std::char_traits<char> >::`scalar deleting destructor'(unsigned int)
FUNC 5428 76 8 UIOpenWrite(std::basic_string<char,std::char_traits<char>,std::allocator<char> > const &,bool)
FUNC 549e 20 0 std::basic_ofstream<char,std::char_traits<char> >::`scalar deleting destructor'(unsigned int)
FUNC 54be 18 8 CompareFDTime
FUNC 54d6 22 4 std::vector<std::basic_string<char,std::char_traits<char>,std::allocator<char> >,std::allocator<std::basic_string<char,std::char_traits<char>,std::allocator<char> > > >::operator[](unsigned int)
FUNC 54f8 16 0 std::vector<FileData,std::allocator<FileData> >::size()
FUNC 550e 15 0 std::pair<std::basic_string<wchar_t,std::char_traits<wchar_t>,std::allocator<wchar_t> > const ,std::basic_string<wchar_t,std::char_traits<wchar_t>,std::allocator<wchar_t> > >::~pair<std::basic_string<wchar_t,std::char_traits<wchar_t>,std::allocator<wchar_t> > const ,std::basic_string<wchar_t,std::char_traits<wchar_t>,std::allocator<wchar_t> > >()
FUNC 5523 20 8 std::pair<std::basic_string<wchar_t,std::char_traits<wchar_t>,std::allocator<wchar_t> > const ,std::basic_string<wchar_t,std::char_traits<wchar_t>,std::allocator<wchar_t> > >::pair<std::basic_string<wchar_t,std::char_traits<wchar_t>,std::allocator<wchar_t> > const ,std::basic_string<wchar_t,std::char_traits<wchar_t>,std::allocator<wchar_t> > >(std::basic_string<wchar_t,std::char_traits<wchar_t>,std::allocator<wchar_t> > const &,std::basic_string<wchar_t,std::char_traits<wchar_t>,std::allocator<wchar_t> > const &)
FUNC 5543 16 0 std::vector<FileData,std::allocator<FileData> >::capacity()
FUNC 5559 26 0 std::_Vector_const_iterator<FileData,std::allocator<FileData> >::operator--()
FUNC 557f 23 0 std::_Vector_const_iterator<FileData,std::allocator<FileData> >::operator*()
FUNC 55a2 24 4 FileData::FileData(FileData const &)
FUNC 55c6 65 0 std::_Tree<std::_Tset_traits<unsigned int,std::less<unsigned int>,std::allocator<unsigned int>,0> >::const_iterator::_Dec()
FUNC 562b 29 4 std::_Vector_const_iterator<FileData,std::allocator<FileData> >::operator-(std::_Vector_const_iterator<FileData,std::allocator<FileData> > const &)
FUNC 5654 2c 14 std::_Tree_nod<std::_Tset_traits<unsigned int,std::less<unsigned int>,std::allocator<unsigned int>,0> >::_Node::_Node(std::_Tree_nod<std::_Tset_traits<unsigned int,std::less<unsigned int>,std::allocator<unsigned int>,0> >::_Node *,std::_Tree_nod<std::_Tset_traits<unsigned int,std::less<unsigned int>,std::allocator<unsigned int>,0> >::_Node *,std::_Tree_nod<std::_Tset_traits<unsigned int,std::less<unsigned int>,std::allocator<unsigned int>,0> >::_Node *,unsigned int const &,char)
FUNC 5680 65 0 std::_Tree<std::_Tmap_traits<std::basic_string<wchar_t,std::char_traits<wchar_t>,std::allocator<wchar_t> >,std::basic_string<wchar_t,std::char_traits<wchar_t>,std::allocator<wchar_t> >,std::less<std::basic_string<wchar_t,std::char_traits<wchar_t>,std::allocator<wchar_t> > >,std::allocator<std::pair<std::basic_string<wchar_t,std::char_traits<wchar_t>,std::allocator<wchar_t> > const ,std::basic_string<wchar_t,std::char_traits<wchar_t>,std::allocator<wchar_t> > > >,0> >::const_iterator::_Dec()
FUNC 56e5 37 4 std::_Vector_const_iterator<FileData,std::allocator<FileData> >::operator+=(int)
FUNC 571c 23 4 std::pair<std::basic_string<wchar_t,std::char_traits<wchar_t>,std::allocator<wchar_t> > const ,std::basic_string<wchar_t,std::char_traits<wchar_t>,std::allocator<wchar_t> > >::pair<std::basic_string<wchar_t,std::char_traits<wchar_t>,std::allocator<wchar_t> > const ,std::basic_string<wchar_t,std::char_traits<wchar_t>,std::allocator<wchar_t> > >(std::pair<std::basic_string<wchar_t,std::char_traits<wchar_t>,std::allocator<wchar_t> > const ,std::basic_string<wchar_t,std::char_traits<wchar_t>,std::allocator<wchar_t> > > const &)
FUNC 573f 4e 8 std::_Allocate<FileData>(unsigned int,FileData *)
FUNC 578d 4e 8 std::_Allocate<std::_Tree_nod<std::_Tset_traits<unsigned int,std::less<unsigned int>,std::allocator<unsigned int>,0> >::_Node>(unsigned int,std::_Tree_nod<std::_Tset_traits<unsigned int,std::less<unsigned int>,std::allocator<unsigned int>,0> >::_Node *)
FUNC 57db 24 4 FileData::operator=(FileData const &)
FUNC 57ff 25 18 std::_Copy_opt<std::basic_string<char,std::char_traits<char>,std::allocator<char> > *,std::basic_string<char,std::char_traits<char>,std::allocator<char> > *,std::forward_iterator_tag>(std::basic_string<char,std::char_traits<char>,std::allocator<char> > *,std::basic_string<char,std::char_traits<char>,std::allocator<char> > *,std::basic_string<char,std::char_traits<char>,std::allocator<char> > *,std::forward_iterator_tag,std::_Nonscalar_ptr_iterator_tag,std::_Range_checked_iterator_tag)
FUNC 5824 20 0 FileData::`scalar deleting destructor'(unsigned int)
FUNC 5844 27 18 std::_Copy_backward_opt<FileData *,FileData *,std::forward_iterator_tag>(FileData *,FileData *,FileData *,std::forward_iterator_tag,std::_Nonscalar_ptr_iterator_tag,std::_Range_checked_iterator_tag)
FUNC 586b 4b 8 std::swap<FileData>(FileData &,FileData &)
FUNC 58b6 76 34 std::_Push_heap<FileData *,int,FileData,bool (*)(FileData const &,FileData const &)>(FileData *,int,int,FileData,bool (*)(FileData const &,FileData const &))
FUNC 592c e1 14 std::_Rotate<FileData *,int,FileData>(FileData *,FileData *,FileData *,int *,FileData *)
FUNC 5a0d ef 0 FormatLastError
FUNC 5afc f3 4 SendThreadProc
FUNC 5bef 121 0 RestartApplication
FUNC 5d10 26 0 std::_Tree<std::_Tset_traits<unsigned int,std::less<unsigned int>,std::allocator<unsigned int>,0> >::const_iterator::operator*()
FUNC 5d36 36 4 std::_Tree<std::_Tmap_traits<std::basic_string<wchar_t,std::char_traits<wchar_t>,std::allocator<wchar_t> >,std::basic_string<wchar_t,std::char_traits<wchar_t>,std::allocator<wchar_t> >,std::less<std::basic_string<wchar_t,std::char_traits<wchar_t>,std::allocator<wchar_t> > >,std::allocator<std::pair<std::basic_string<wchar_t,std::char_traits<wchar_t>,std::allocator<wchar_t> > const ,std::basic_string<wchar_t,std::char_traits<wchar_t>,std::allocator<wchar_t> > > >,0> >::_Lbound(std::basic_string<wchar_t,std::char_traits<wchar_t>,std::allocator<wchar_t> > const &)
FUNC 5d6c 42 4 std::_Tree<std::_Tset_traits<unsigned int,std::less<unsigned int>,std::allocator<unsigned int>,0> >::_Lrotate(std::_Tree_nod<std::_Tset_traits<unsigned int,std::less<unsigned int>,std::allocator<unsigned int>,0> >::_Node *)
FUNC 5dae 44 4 std::_Tree<std::_Tset_traits<unsigned int,std::less<unsigned int>,std::allocator<unsigned int>,0> >::_Rrotate(std::_Tree_nod<std::_Tset_traits<unsigned int,std::less<unsigned int>,std::allocator<unsigned int>,0> >::_Node *)
FUNC 5df2 51 0 std::_Tree<std::_Tset_traits<unsigned int,std::less<unsigned int>,std::allocator<unsigned int>,0> >::const_iterator::_Inc()
FUNC 5e43 25 8 std::_Tree<std::_Tset_traits<unsigned int,std::less<unsigned int>,std::allocator<unsigned int>,0> >::const_iterator::const_iterator(std::_Tree_nod<std::_Tset_traits<unsigned int,std::less<unsigned int>,std::allocator<unsigned int>,0> >::_Node *,std::_Tree<std::_Tset_traits<unsigned int,std::less<unsigned int>,std::allocator<unsigned int>,0> > const *)
FUNC 5e68 31 8 std::_Vector_const_iterator<FileData,std::allocator<FileData> >::_Vector_const_iterator<FileData,std::allocator<FileData> >(FileData *,std::_Container_base const *)
FUNC 5e99 36 4 std::_Tree<std::_Tmap_traits<std::basic_string<wchar_t,std::char_traits<wchar_t>,std::allocator<wchar_t> >,std::basic_string<wchar_t,std::char_traits<wchar_t>,std::allocator<wchar_t> >,std::less<std::basic_string<wchar_t,std::char_traits<wchar_t>,std::allocator<wchar_t> > >,std::allocator<std::pair<std::basic_string<wchar_t,std::char_traits<wchar_t>,std::allocator<wchar_t> > const ,std::basic_string<wchar_t,std::char_traits<wchar_t>,std::allocator<wchar_t> > > >,0> >::_Ubound(std::basic_string<wchar_t,std::char_traits<wchar_t>,std::allocator<wchar_t> > const &)
FUNC 5ecf 29 4 std::_Tree<std::_Tset_traits<unsigned int,std::less<unsigned int>,std::allocator<unsigned int>,0> >::_Lbound(unsigned int const &)
FUNC 5ef8 29 4 std::_Tree<std::_Tset_traits<unsigned int,std::less<unsigned int>,std::allocator<unsigned int>,0> >::_Ubound(unsigned int const &)
FUNC 5f21 33 14 std::_Tree_nod<std::_Tmap_traits<std::basic_string<wchar_t,std::char_traits<wchar_t>,std::allocator<wchar_t> >,std::basic_string<wchar_t,std::char_traits<wchar_t>,std::allocator<wchar_t> >,std::less<std::basic_string<wchar_t,std::char_traits<wchar_t>,std::allocator<wchar_t> > >,std::allocator<std::pair<std::basic_string<wchar_t,std::char_traits<wchar_t>,std::allocator<wchar_t> > const ,std::basic_string<wchar_t,std::char_traits<wchar_t>,std::allocator<wchar_t> > > >,0> >::_Node::_Node(std::_Tree_nod<std::_Tmap_traits<std::basic_string<wchar_t,std::char_traits<wchar_t>,std::allocator<wchar_t> >,std::basic_string<wchar_t,std::char_traits<wchar_t>,std::allocator<wchar_t> >,std::less<std::basic_string<wchar_t,std::char_traits<wchar_t>,std::allocator<wchar_t> > >,std::allocator<std::pair<std::basic_string<wchar_t,std::char_traits<wchar_t>,std::allocator<wchar_t> > const ,std::basic_string<wchar_t,std::char_traits<wchar_t>,std::allocator<wchar_t> > > >,0> >::_Node *,std::_Tree_nod<std::_Tmap_traits<std::basic_string<wchar_t,std::char_traits<wchar_t>,std::allocator<wchar_t> >,std::basic_string<wchar_t,std::char_traits<wchar_t>,std::allocator<wchar_t> >,std::less<std::basic_string<wchar_t,std::char_traits<wchar_t>,std::allocator<wchar_t> > >,std::allocator<std::pair<std::basic_string<wchar_t,std::char_traits<wchar_t>,std::allocator<wchar_t> > const ,std::basic_string<wchar_t,std::char_traits<wchar_t>,std::allocator<wchar_t> > > >,0> >::_Node *,std::_Tree_nod<std::_Tmap_traits<std::basic_string<wchar_t,std::char_traits<wchar_t>,std::allocator<wchar_t> >,std::basic_string<wchar_t,std::char_traits<wchar_t>,std::allocator<wchar_t> >,std::less<std::basic_string<wchar_t,std::char_traits<wchar_t>,std::allocator<wchar_t> > >,std::allocator<std::pair<std::basic_string<wchar_t,std::char_traits<wchar_t>,std::allocator<wchar_t> > const ,std::basic_string<wchar_t,std::char_traits<wchar_t>,std::allocator<wchar_t> > > >,0> >::_Node *,std::pair<std::basic_string<wchar_t,std::char_traits<wchar_t>,std::allocator<wchar_t> > const ,std::basic_string<wchar_t,std::char_traits<wchar_t>,std::allocator<wchar_t> > > const &,char)
FUNC 5f54 1f 0 std::_Tree_nod<std::_Tmap_traits<std::basic_string<wchar_t,std::char_traits<wchar_t>,std::allocator<wchar_t> >,std::basic_string<wchar_t,std::char_traits<wchar_t>,std::allocator<wchar_t> >,std::less<std::basic_string<wchar_t,std::char_traits<wchar_t>,std::allocator<wchar_t> > >,std::allocator<std::pair<std::basic_string<wchar_t,std::char_traits<wchar_t>,std::allocator<wchar_t> > const ,std::basic_string<wchar_t,std::char_traits<wchar_t>,std::allocator<wchar_t> > > >,0> >::_Node::`scalar deleting destructor'(unsigned int)
FUNC 5f73 3f 18 std::_Copy_opt<std::basic_string<char,std::char_traits<char>,std::allocator<char> > *,std::basic_string<char,std::char_traits<char>,std::allocator<char> > *>(std::basic_string<char,std::char_traits<char>,std::allocator<char> > *,std::basic_string<char,std::char_traits<char>,std::allocator<char> > *,std::basic_string<char,std::char_traits<char>,std::allocator<char> > *,std::random_access_iterator_tag,std::_Nonscalar_ptr_iterator_tag,std::_Range_checked_iterator_tag)
FUNC 5fb2 1d c std::_Fill<FileData *,FileData>(FileData *,FileData *,FileData const &)
FUNC 5fcf 14 8 std::allocator<FileData>::construct(FileData *,FileData const &)
FUNC 5fe3 43 18 std::_Copy_backward_opt<FileData *,FileData *>(FileData *,FileData *,FileData *,std::random_access_iterator_tag,std::_Nonscalar_ptr_iterator_tag,std::_Range_checked_iterator_tag)
FUNC 6026 4f 10 std::_Med3<FileData *,bool (*)(FileData const &,FileData const &)>(FileData *,FileData *,FileData *,bool (*)(FileData const &,FileData const &))
FUNC 6075 9d 34 std::_Adjust_heap<FileData *,int,FileData,bool (*)(FileData const &,FileData const &)>(FileData *,int,int,FileData,bool (*)(FileData const &,FileData const &))
FUNC 6112 19 10 std::_Rotate<FileData *>(FileData *,FileData *,FileData *,std::random_access_iterator_tag)
FUNC 612b 46 38 std::_Pop_heap<FileData *,int,FileData,bool (*)(FileData const &,FileData const &)>(FileData *,FileData *,FileData *,FileData,bool (*)(FileData const &,FileData const &),int *)
FUNC 6171 32 4 std::_Tree<std::_Tset_traits<unsigned int,std::less<unsigned int>,std::allocator<unsigned int>,0> >::_Erase(std::_Tree_nod<std::_Tset_traits<unsigned int,std::less<unsigned int>,std::allocator<unsigned int>,0> >::_Node *)
FUNC 61a3 1f 4 std::_Tree<std::_Tmap_traits<std::basic_string<wchar_t,std::char_traits<wchar_t>,std::allocator<wchar_t> >,std::basic_string<wchar_t,std::char_traits<wchar_t>,std::allocator<wchar_t> >,std::less<std::basic_string<wchar_t,std::char_traits<wchar_t>,std::allocator<wchar_t> > >,std::allocator<std::pair<std::basic_string<wchar_t,std::char_traits<wchar_t>,std::allocator<wchar_t> > const ,std::basic_string<wchar_t,std::char_traits<wchar_t>,std::allocator<wchar_t> > > >,0> >::upper_bound(std::basic_string<wchar_t,std::char_traits<wchar_t>,std::allocator<wchar_t> > const &)
FUNC 61c2 1b 4 std::_Tree<std::_Tset_traits<unsigned int,std::less<unsigned int>,std::allocator<unsigned int>,0> >::lower_bound(unsigned int const &)
FUNC 61dd 1b 4 std::_Tree<std::_Tset_traits<unsigned int,std::less<unsigned int>,std::allocator<unsigned int>,0> >::upper_bound(unsigned int const &)
FUNC 61f8 5b 14 std::_Tree<std::_Tset_traits<unsigned int,std::less<unsigned int>,std::allocator<unsigned int>,0> >::_Buynode(std::_Tree_nod<std::_Tset_traits<unsigned int,std::less<unsigned int>,std::allocator<unsigned int>,0> >::_Node *,std::_Tree_nod<std::_Tset_traits<unsigned int,std::less<unsigned int>,std::allocator<unsigned int>,0> >::_Node *,std::_Tree_nod<std::_Tset_traits<unsigned int,std::less<unsigned int>,std::allocator<unsigned int>,0> >::_Node *,unsigned int const &,char)
FUNC 6253 2d 4 std::_Vector_iterator<FileData,std::allocator<FileData> >::operator+(int)
FUNC 6280 5a 0 std::_Tree<std::_Tmap_traits<std::basic_string<wchar_t,std::char_traits<wchar_t>,std::allocator<wchar_t> >,std::basic_string<wchar_t,std::char_traits<wchar_t>,std::allocator<wchar_t> >,std::less<std::basic_string<wchar_t,std::char_traits<wchar_t>,std::allocator<wchar_t> > >,std::allocator<std::pair<std::basic_string<wchar_t,std::char_traits<wchar_t>,std::allocator<wchar_t> > const ,std::basic_string<wchar_t,std::char_traits<wchar_t>,std::allocator<wchar_t> > > >,0> >::_Buynode()
FUNC 62da 5b 14 std::_Tree<std::_Tmap_traits<std::basic_string<wchar_t,std::char_traits<wchar_t>,std::allocator<wchar_t> >,std::basic_string<wchar_t,std::char_traits<wchar_t>,std::allocator<wchar_t> >,std::less<std::basic_string<wchar_t,std::char_traits<wchar_t>,std::allocator<wchar_t> > >,std::allocator<std::pair<std::basic_string<wchar_t,std::char_traits<wchar_t>,std::allocator<wchar_t> > const ,std::basic_string<wchar_t,std::char_traits<wchar_t>,std::allocator<wchar_t> > > >,0> >::_Buynode(std::_Tree_nod<std::_Tmap_traits<std::basic_string<wchar_t,std::char_traits<wchar_t>,std::allocator<wchar_t> >,std::basic_string<wchar_t,std::char_traits<wchar_t>,std::allocator<wchar_t> >,std::less<std::basic_string<wchar_t,std::char_traits<wchar_t>,std::allocator<wchar_t> > >,std::allocator<std::pair<std::basic_string<wchar_t,std::char_traits<wchar_t>,std::allocator<wchar_t> > const ,std::basic_string<wchar_t,std::char_traits<wchar_t>,std::allocator<wchar_t> > > >,0> >::_Node *,std::_Tree_nod<std::_Tmap_traits<std::basic_string<wchar_t,std::char_traits<wchar_t>,std::allocator<wchar_t> >,std::basic_string<wchar_t,std::char_traits<wchar_t>,std::allocator<wchar_t> >,std::less<std::basic_string<wchar_t,std::char_traits<wchar_t>,std::allocator<wchar_t> > >,std::allocator<std::pair<std::basic_string<wchar_t,std::char_traits<wchar_t>,std::allocator<wchar_t> > const ,std::basic_string<wchar_t,std::char_traits<wchar_t>,std::allocator<wchar_t> > > >,0> >::_Node *,std::_Tree_nod<std::_Tmap_traits<std::basic_string<wchar_t,std::char_traits<wchar_t>,std::allocator<wchar_t> >,std::basic_string<wchar_t,std::char_traits<wchar_t>,std::allocator<wchar_t> >,std::less<std::basic_string<wchar_t,std::char_traits<wchar_t>,std::allocator<wchar_t> > >,std::allocator<std::pair<std::basic_string<wchar_t,std::char_traits<wchar_t>,std::allocator<wchar_t> > const ,std::basic_string<wchar_t,std::char_traits<wchar_t>,std::allocator<wchar_t> > > >,0> >::_Node *,std::pair<std::basic_string<wchar_t,std::char_traits<wchar_t>,std::allocator<wchar_t> > const ,std::basic_string<wchar_t,std::char_traits<wchar_t>,std::allocator<wchar_t> > > const &,char)
FUNC 6335 5a 0 std::_Tree<std::_Tset_traits<unsigned int,std::less<unsigned int>,std::allocator<unsigned int>,0> >::_Buynode()
FUNC 638f 28 c stdext::unchecked_copy<std::basic_string<char,std::char_traits<char>,std::allocator<char> > *,std::basic_string<char,std::char_traits<char>,std::allocator<char> > *>(std::basic_string<char,std::char_traits<char>,std::allocator<char> > *,std::basic_string<char,std::char_traits<char>,std::allocator<char> > *,std::basic_string<char,std::char_traits<char>,std::allocator<char> > *)
FUNC 63b7 34 18 std::_Distance2<std::_Tree<std::_Tset_traits<unsigned int,std::less<unsigned int>,std::allocator<unsigned int>,0> >::iterator,unsigned int>(std::_Tree<std::_Tset_traits<unsigned int,std::less<unsigned int>,std::allocator<unsigned int>,0> >::iterator,std::_Tree<std::_Tset_traits<unsigned int,std::less<unsigned int>,std::allocator<unsigned int>,0> >::iterator,unsigned int &,std::bidirectional_iterator_tag)
FUNC 63eb 28 18 std::_Move_backward_opt<FileData *,FileData *,std::random_access_iterator_tag,std::_Undefined_move_tag>(FileData *,FileData *,FileData *,std::random_access_iterator_tag,std::_Undefined_move_tag,std::_Range_checked_iterator_tag)
FUNC 6413 60 18 std::_Uninit_copy<std::basic_string<char,std::char_traits<char>,std::allocator<char> > *,std::basic_string<char,std::char_traits<char>,std::allocator<char> > *,std::allocator<std::basic_string<char,std::char_traits<char>,std::allocator<char> > > >(std::basic_string<char,std::char_traits<char>,std::allocator<char> > *,std::basic_string<char,std::char_traits<char>,std::allocator<char> > *,std::basic_string<char,std::char_traits<char>,std::allocator<char> > *,std::allocator<std::basic_string<char,std::char_traits<char>,std::allocator<char> > > &,std::_Nonscalar_ptr_iterator_tag,std::_Range_checked_iterator_tag)
FUNC 6473 96 10 std::_Median<FileData *,bool (*)(FileData const &,FileData const &)>(FileData *,FileData *,FileData *,bool (*)(FileData const &,FileData const &))
FUNC 6509 4f 14 std::_Make_heap<FileData *,int,FileData,bool (*)(FileData const &,FileData const &)>(FileData *,FileData *,bool (*)(FileData const &,FileData const &),int *,FileData *)
FUNC 6558 24 c std::rotate<FileData *>(FileData *,FileData *,FileData *)
FUNC 657c 5f 18 std::_Uninit_copy<FileData *,FileData *,std::allocator<FileData> >(FileData *,FileData *,FileData *,std::allocator<FileData> &,std::_Nonscalar_ptr_iterator_tag,std::_Range_checked_iterator_tag)
FUNC 65db 29 10 std::_Pop_heap_0<FileData *,FileData,bool (*)(FileData const &,FileData const &)>(FileData *,FileData *,bool (*)(FileData const &,FileData const &),FileData *)
FUNC 6604 16 0 std::_Tree<std::_Tmap_traits<std::basic_string<char,std::char_traits<char>,std::allocator<char> >,std::basic_string<char,std::char_traits<char>,std::allocator<char> >,std::less<std::basic_string<char,std::char_traits<char>,std::allocator<char> > >,std::allocator<std::pair<std::basic_string<char,std::char_traits<char>,std::allocator<char> > const ,std::basic_string<char,std::char_traits<char>,std::allocator<char> > > >,0> >::begin()
FUNC 661a 26 0 std::_Tree<std::_Tset_traits<unsigned int,std::less<unsigned int>,std::allocator<unsigned int>,0> >::clear()
FUNC 6640 1f 4 std::_Tree<std::_Tmap_traits<std::basic_string<wchar_t,std::char_traits<wchar_t>,std::allocator<wchar_t> >,std::basic_string<wchar_t,std::char_traits<wchar_t>,std::allocator<wchar_t> >,std::less<std::basic_string<wchar_t,std::char_traits<wchar_t>,std::allocator<wchar_t> > >,std::allocator<std::pair<std::basic_string<wchar_t,std::char_traits<wchar_t>,std::allocator<wchar_t> > const ,std::basic_string<wchar_t,std::char_traits<wchar_t>,std::allocator<wchar_t> > > >,0> >::lower_bound(std::basic_string<wchar_t,std::char_traits<wchar_t>,std::allocator<wchar_t> > const &)
FUNC 665f 35 4 std::_Tree<std::_Tmap_traits<std::basic_string<wchar_t,std::char_traits<wchar_t>,std::allocator<wchar_t> >,std::basic_string<wchar_t,std::char_traits<wchar_t>,std::allocator<wchar_t> >,std::less<std::basic_string<wchar_t,std::char_traits<wchar_t>,std::allocator<wchar_t> > >,std::allocator<std::pair<std::basic_string<wchar_t,std::char_traits<wchar_t>,std::allocator<wchar_t> > const ,std::basic_string<wchar_t,std::char_traits<wchar_t>,std::allocator<wchar_t> > > >,0> >::equal_range(std::basic_string<wchar_t,std::char_traits<wchar_t>,std::allocator<wchar_t> > const &)
FUNC 6694 35 4 std::_Tree<std::_Tset_traits<unsigned int,std::less<unsigned int>,std::allocator<unsigned int>,0> >::equal_range(unsigned int const &)
FUNC 66c9 154 c std::_Tree<std::_Tset_traits<unsigned int,std::less<unsigned int>,std::allocator<unsigned int>,0> >::_Insert(bool,std::_Tree_nod<std::_Tset_traits<unsigned int,std::less<unsigned int>,std::allocator<unsigned int>,0> >::_Node *,unsigned int const &)
FUNC 681d 25 0 std::_Tree<std::_Tmap_traits<std::basic_string<wchar_t,std::char_traits<wchar_t>,std::allocator<wchar_t> >,std::basic_string<wchar_t,std::char_traits<wchar_t>,std::allocator<wchar_t> >,std::less<std::basic_string<wchar_t,std::char_traits<wchar_t>,std::allocator<wchar_t> > >,std::allocator<std::pair<std::basic_string<wchar_t,std::char_traits<wchar_t>,std::allocator<wchar_t> > const ,std::basic_string<wchar_t,std::char_traits<wchar_t>,std::allocator<wchar_t> > > >,0> >::_Init()
FUNC 6842 154 c std::_Tree<std::_Tmap_traits<std::basic_string<wchar_t,std::char_traits<wchar_t>,std::allocator<wchar_t> >,std::basic_string<wchar_t,std::char_traits<wchar_t>,std::allocator<wchar_t> >,std::less<std::basic_string<wchar_t,std::char_traits<wchar_t>,std::allocator<wchar_t> > >,std::allocator<std::pair<std::basic_string<wchar_t,std::char_traits<wchar_t>,std::allocator<wchar_t> > const ,std::basic_string<wchar_t,std::char_traits<wchar_t>,std::allocator<wchar_t> > > >,0> >::_Insert(bool,std::_Tree_nod<std::_Tmap_traits<std::basic_string<wchar_t,std::char_traits<wchar_t>,std::allocator<wchar_t> >,std::basic_string<wchar_t,std::char_traits<wchar_t>,std::allocator<wchar_t> >,std::less<std::basic_string<wchar_t,std::char_traits<wchar_t>,std::allocator<wchar_t> > >,std::allocator<std::pair<std::basic_string<wchar_t,std::char_traits<wchar_t>,std::allocator<wchar_t> > const ,std::basic_string<wchar_t,std::char_traits<wchar_t>,std::allocator<wchar_t> > > >,0> >::_Node *,std::pair<std::basic_string<wchar_t,std::char_traits<wchar_t>,std::allocator<wchar_t> > const ,std::basic_string<wchar_t,std::char_traits<wchar_t>,std::allocator<wchar_t> > > const &)
FUNC 6996 277 8 std::_Tree<std::_Tset_traits<unsigned int,std::less<unsigned int>,std::allocator<unsigned int>,0> >::erase(std::_Tree<std::_Tset_traits<unsigned int,std::less<unsigned int>,std::allocator<unsigned int>,0> >::iterator)
FUNC 6c0d 25 0 std::_Tree<std::_Tset_traits<unsigned int,std::less<unsigned int>,std::allocator<unsigned int>,0> >::_Init()
FUNC 6c32 20 14 std::_Distance<std::_Tree<std::_Tset_traits<unsigned int,std::less<unsigned int>,std::allocator<unsigned int>,0> >::iterator,unsigned int>(std::_Tree<std::_Tset_traits<unsigned int,std::less<unsigned int>,std::allocator<unsigned int>,0> >::iterator,std::_Tree<std::_Tset_traits<unsigned int,std::less<unsigned int>,std::allocator<unsigned int>,0> >::iterator,unsigned int &)
FUNC 6c52 28 c stdext::_Unchecked_move_backward<FileData *,FileData *>(FileData *,FileData *,FileData *)
FUNC 6c7a 28 10 stdext::unchecked_uninitialized_copy<std::basic_string<char,std::char_traits<char>,std::allocator<char> > *,std::basic_string<char,std::char_traits<char>,std::allocator<char> > *,std::allocator<std::basic_string<char,std::char_traits<char>,std::allocator<char> > > >(std::basic_string<char,std::char_traits<char>,std::allocator<char> > *,std::basic_string<char,std::char_traits<char>,std::allocator<char> > *,std::basic_string<char,std::char_traits<char>,std::allocator<char> > *,std::allocator<std::basic_string<char,std::char_traits<char>,std::allocator<char> > > &)
FUNC 6ca2 1b 10 std::_Destroy_range<FileData,std::allocator<FileData> >(FileData *,FileData *,std::allocator<FileData> &,std::_Nonscalar_ptr_iterator_tag)
FUNC 6cbd 5b 18 std::_Uninit_fill_n<FileData *,unsigned int,FileData,std::allocator<FileData> >(FileData *,unsigned int,FileData const &,std::allocator<FileData> &,std::_Nonscalar_ptr_iterator_tag,std::_Range_checked_iterator_tag)
FUNC 6d18 17a c std::_Unguarded_partition<FileData *,bool (*)(FileData const &,FileData const &)>(FileData *,FileData *,bool (*)(FileData const &,FileData const &))
FUNC 6e92 2b c std::make_heap<FileData *,bool (*)(FileData const &,FileData const &)>(FileData *,FileData *,bool (*)(FileData const &,FileData const &))
FUNC 6ebd 70 c std::_Insertion_sort<FileData *,bool (*)(FileData const &,FileData const &)>(FileData *,FileData *,bool (*)(FileData const &,FileData const &))
FUNC 6f2d 28 10 stdext::unchecked_uninitialized_copy<FileData *,FileData *,std::allocator<FileData> >(FileData *,FileData *,FileData *,std::allocator<FileData> &)
FUNC 6f55 29 c std::pop_heap<FileData *,bool (*)(FileData const &,FileData const &)>(FileData *,FileData *,bool (*)(FileData const &,FileData const &))
FUNC 6f7e bd 4 ReflowDialog
FUNC 703b 6d 4 std::_Tree<std::_Tmap_traits<std::basic_string<wchar_t,std::char_traits<wchar_t>,std::allocator<wchar_t> >,std::basic_string<wchar_t,std::char_traits<wchar_t>,std::allocator<wchar_t> >,std::less<std::basic_string<wchar_t,std::char_traits<wchar_t>,std::allocator<wchar_t> > >,std::allocator<std::pair<std::basic_string<wchar_t,std::char_traits<wchar_t>,std::allocator<wchar_t> > const ,std::basic_string<wchar_t,std::char_traits<wchar_t>,std::allocator<wchar_t> > > >,0> >::find(std::basic_string<wchar_t,std::char_traits<wchar_t>,std::allocator<wchar_t> > const &)
FUNC 70a8 ba 4 std::_Tree<std::_Tset_traits<unsigned int,std::less<unsigned int>,std::allocator<unsigned int>,0> >::insert(unsigned int const &)
FUNC 7162 aa 10 std::_Tree<std::_Tset_traits<unsigned int,std::less<unsigned int>,std::allocator<unsigned int>,0> >::erase(std::_Tree<std::_Tset_traits<unsigned int,std::less<unsigned int>,std::allocator<unsigned int>,0> >::iterator,std::_Tree<std::_Tset_traits<unsigned int,std::less<unsigned int>,std::allocator<unsigned int>,0> >::iterator)
FUNC 720c 4e 0 std::_Tree<std::_Tset_traits<unsigned int,std::less<unsigned int>,std::allocator<unsigned int>,0> >::_Tidy()
FUNC 725a d5 4 std::_Tree<std::_Tmap_traits<std::basic_string<wchar_t,std::char_traits<wchar_t>,std::allocator<wchar_t> >,std::basic_string<wchar_t,std::char_traits<wchar_t>,std::allocator<wchar_t> >,std::less<std::basic_string<wchar_t,std::char_traits<wchar_t>,std::allocator<wchar_t> > >,std::allocator<std::pair<std::basic_string<wchar_t,std::char_traits<wchar_t>,std::allocator<wchar_t> > const ,std::basic_string<wchar_t,std::char_traits<wchar_t>,std::allocator<wchar_t> > > >,0> >::insert(std::pair<std::basic_string<wchar_t,std::char_traits<wchar_t>,std::allocator<wchar_t> > const ,std::basic_string<wchar_t,std::char_traits<wchar_t>,std::allocator<wchar_t> > > const &)
FUNC 732f 280 8 std::_Tree<std::_Tmap_traits<std::basic_string<wchar_t,std::char_traits<wchar_t>,std::allocator<wchar_t> >,std::basic_string<wchar_t,std::char_traits<wchar_t>,std::allocator<wchar_t> >,std::less<std::basic_string<wchar_t,std::char_traits<wchar_t>,std::allocator<wchar_t> > >,std::allocator<std::pair<std::basic_string<wchar_t,std::char_traits<wchar_t>,std::allocator<wchar_t> > const ,std::basic_string<wchar_t,std::char_traits<wchar_t>,std::allocator<wchar_t> > > >,0> >::erase(std::_Tree<std::_Tmap_traits<std::basic_string<wchar_t,std::char_traits<wchar_t>,std::allocator<wchar_t> >,std::basic_string<wchar_t,std::char_traits<wchar_t>,std::allocator<wchar_t> >,std::less<std::basic_string<wchar_t,std::char_traits<wchar_t>,std::allocator<wchar_t> > >,std::allocator<std::pair<std::basic_string<wchar_t,std::char_traits<wchar_t>,std::allocator<wchar_t> > const ,std::basic_string<wchar_t,std::char_traits<wchar_t>,std::allocator<wchar_t> > > >,0> >::iterator)
FUNC 75af 3b 4 std::_Tree<std::_Tmap_traits<std::basic_string<wchar_t,std::char_traits<wchar_t>,std::allocator<wchar_t> >,std::basic_string<wchar_t,std::char_traits<wchar_t>,std::allocator<wchar_t> >,std::less<std::basic_string<wchar_t,std::char_traits<wchar_t>,std::allocator<wchar_t> > >,std::allocator<std::pair<std::basic_string<wchar_t,std::char_traits<wchar_t>,std::allocator<wchar_t> > const ,std::basic_string<wchar_t,std::char_traits<wchar_t>,std::allocator<wchar_t> > > >,0> >::_Erase(std::_Tree_nod<std::_Tmap_traits<std::basic_string<wchar_t,std::char_traits<wchar_t>,std::allocator<wchar_t> >,std::basic_string<wchar_t,std::char_traits<wchar_t>,std::allocator<wchar_t> >,std::less<std::basic_string<wchar_t,std::char_traits<wchar_t>,std::allocator<wchar_t> > >,std::allocator<std::pair<std::basic_string<wchar_t,std::char_traits<wchar_t>,std::allocator<wchar_t> > const ,std::basic_string<wchar_t,std::char_traits<wchar_t>,std::allocator<wchar_t> > > >,0> >::_Node *)
FUNC 75ea 1a c std::_Destroy_range<FileData,std::allocator<FileData> >(FileData *,FileData *,std::allocator<FileData> &)
FUNC 7604 28 10 stdext::unchecked_uninitialized_fill_n<FileData *,unsigned int,FileData,std::allocator<FileData> >(FileData *,unsigned int,FileData const &,std::allocator<FileData> &)
FUNC 762c 41 c std::_Sort_heap<FileData *,bool (*)(FileData const &,FileData const &)>(FileData *,FileData *,bool (*)(FileData const &,FileData const &))
FUNC 766d 15e 0 MaybeResizeProgressText
FUNC 77cb 4e 0 UIInit()
FUNC 7819 50 4 std::_Tree<std::_Tset_traits<unsigned int,std::less<unsigned int>,std::allocator<unsigned int>,0> >::erase(unsigned int const &)
FUNC 7869 1a0 c std::_Tree<std::_Tmap_traits<std::basic_string<wchar_t,std::char_traits<wchar_t>,std::allocator<wchar_t> >,std::basic_string<wchar_t,std::char_traits<wchar_t>,std::allocator<wchar_t> >,std::less<std::basic_string<wchar_t,std::char_traits<wchar_t>,std::allocator<wchar_t> > >,std::allocator<std::pair<std::basic_string<wchar_t,std::char_traits<wchar_t>,std::allocator<wchar_t> > const ,std::basic_string<wchar_t,std::char_traits<wchar_t>,std::allocator<wchar_t> > > >,0> >::insert(std::_Tree<std::_Tmap_traits<std::basic_string<wchar_t,std::char_traits<wchar_t>,std::allocator<wchar_t> >,std::basic_string<wchar_t,std::char_traits<wchar_t>,std::allocator<wchar_t> >,std::less<std::basic_string<wchar_t,std::char_traits<wchar_t>,std::allocator<wchar_t> > >,std::allocator<std::pair<std::basic_string<wchar_t,std::char_traits<wchar_t>,std::allocator<wchar_t> > const ,std::basic_string<wchar_t,std::char_traits<wchar_t>,std::allocator<wchar_t> > > >,0> >::iterator,std::pair<std::basic_string<wchar_t,std::char_traits<wchar_t>,std::allocator<wchar_t> > const ,std::basic_string<wchar_t,std::char_traits<wchar_t>,std::allocator<wchar_t> > > const &)
FUNC 7a09 2d 0 std::vector<FileData,std::allocator<FileData> >::_Tidy()
FUNC 7a36 22 c std::vector<FileData,std::allocator<FileData> >::_Ufill(FileData *,unsigned int,FileData const &)
FUNC 7a58 26 0 std::_Tree<std::_Tmap_traits<std::basic_string<wchar_t,std::char_traits<wchar_t>,std::allocator<wchar_t> >,std::basic_string<wchar_t,std::char_traits<wchar_t>,std::allocator<wchar_t> >,std::less<std::basic_string<wchar_t,std::char_traits<wchar_t>,std::allocator<wchar_t> > >,std::allocator<std::pair<std::basic_string<wchar_t,std::char_traits<wchar_t>,std::allocator<wchar_t> > const ,std::basic_string<wchar_t,std::char_traits<wchar_t>,std::allocator<wchar_t> > > >,0> >::clear()
FUNC 7a7e 85 8 std::_Tree<std::_Tmap_traits<std::basic_string<wchar_t,std::char_traits<wchar_t>,std::allocator<wchar_t> >,std::basic_string<wchar_t,std::char_traits<wchar_t>,std::allocator<wchar_t> >,std::less<std::basic_string<wchar_t,std::char_traits<wchar_t>,std::allocator<wchar_t> > >,std::allocator<std::pair<std::basic_string<wchar_t,std::char_traits<wchar_t>,std::allocator<wchar_t> > const ,std::basic_string<wchar_t,std::char_traits<wchar_t>,std::allocator<wchar_t> > > >,0> >::_Copy(std::_Tree_nod<std::_Tmap_traits<std::basic_string<wchar_t,std::char_traits<wchar_t>,std::allocator<wchar_t> >,std::basic_string<wchar_t,std::char_traits<wchar_t>,std::allocator<wchar_t> >,std::less<std::basic_string<wchar_t,std::char_traits<wchar_t>,std::allocator<wchar_t> > >,std::allocator<std::pair<std::basic_string<wchar_t,std::char_traits<wchar_t>,std::allocator<wchar_t> > const ,std::basic_string<wchar_t,std::char_traits<wchar_t>,std::allocator<wchar_t> > > >,0> >::_Node *,std::_Tree_nod<std::_Tmap_traits<std::basic_string<wchar_t,std::char_traits<wchar_t>,std::allocator<wchar_t> >,std::basic_string<wchar_t,std::char_traits<wchar_t>,std::allocator<wchar_t> >,std::less<std::basic_string<wchar_t,std::char_traits<wchar_t>,std::allocator<wchar_t> > >,std::allocator<std::pair<std::basic_string<wchar_t,std::char_traits<wchar_t>,std::allocator<wchar_t> > const ,std::basic_string<wchar_t,std::char_traits<wchar_t>,std::allocator<wchar_t> > > >,0> >::_Node *)
FUNC 7b03 4b 10 std::vector<std::basic_string<char,std::char_traits<char>,std::allocator<char> >,std::allocator<std::basic_string<char,std::char_traits<char>,std::allocator<char> > > >::erase(std::_Vector_iterator<std::basic_string<char,std::char_traits<char>,std::allocator<char> >,std::allocator<std::basic_string<char,std::char_traits<char>,std::allocator<char> > > >,std::_Vector_iterator<std::basic_string<char,std::char_traits<char>,std::allocator<char> >,std::allocator<std::basic_string<char,std::char_traits<char>,std::allocator<char> > > >)
FUNC 7b4e a4 4 std::map<std::basic_string<wchar_t,std::char_traits<wchar_t>,std::allocator<wchar_t> >,std::basic_string<wchar_t,std::char_traits<wchar_t>,std::allocator<wchar_t> >,std::less<std::basic_string<wchar_t,std::char_traits<wchar_t>,std::allocator<wchar_t> > >,std::allocator<std::pair<std::basic_string<wchar_t,std::char_traits<wchar_t>,std::allocator<wchar_t> > const ,std::basic_string<wchar_t,std::char_traits<wchar_t>,std::allocator<wchar_t> > > > >::operator[](std::basic_string<wchar_t,std::char_traits<wchar_t>,std::allocator<wchar_t> > const &)
FUNC 7bf2 23 0 std::vector<FileData,std::allocator<FileData> >::pop_back()
FUNC 7c15 aa 10 std::_Tree<std::_Tmap_traits<std::basic_string<wchar_t,std::char_traits<wchar_t>,std::allocator<wchar_t> >,std::basic_string<wchar_t,std::char_traits<wchar_t>,std::allocator<wchar_t> >,std::less<std::basic_string<wchar_t,std::char_traits<wchar_t>,std::allocator<wchar_t> > >,std::allocator<std::pair<std::basic_string<wchar_t,std::char_traits<wchar_t>,std::allocator<wchar_t> > const ,std::basic_string<wchar_t,std::char_traits<wchar_t>,std::allocator<wchar_t> > > >,0> >::erase(std::_Tree<std::_Tmap_traits<std::basic_string<wchar_t,std::char_traits<wchar_t>,std::allocator<wchar_t> >,std::basic_string<wchar_t,std::char_traits<wchar_t>,std::allocator<wchar_t> >,std::less<std::basic_string<wchar_t,std::char_traits<wchar_t>,std::allocator<wchar_t> > >,std::allocator<std::pair<std::basic_string<wchar_t,std::char_traits<wchar_t>,std::allocator<wchar_t> > const ,std::basic_string<wchar_t,std::char_traits<wchar_t>,std::allocator<wchar_t> > > >,0> >::iterator,std::_Tree<std::_Tmap_traits<std::basic_string<wchar_t,std::char_traits<wchar_t>,std::allocator<wchar_t> >,std::basic_string<wchar_t,std::char_traits<wchar_t>,std::allocator<wchar_t> >,std::less<std::basic_string<wchar_t,std::char_traits<wchar_t>,std::allocator<wchar_t> > >,std::allocator<std::pair<std::basic_string<wchar_t,std::char_traits<wchar_t>,std::allocator<wchar_t> > const ,std::basic_string<wchar_t,std::char_traits<wchar_t>,std::allocator<wchar_t> > > >,0> >::iterator)
FUNC 7cbf 60 4 std::_Tree<std::_Tmap_traits<std::basic_string<wchar_t,std::char_traits<wchar_t>,std::allocator<wchar_t> >,std::basic_string<wchar_t,std::char_traits<wchar_t>,std::allocator<wchar_t> >,std::less<std::basic_string<wchar_t,std::char_traits<wchar_t>,std::allocator<wchar_t> > >,std::allocator<std::pair<std::basic_string<wchar_t,std::char_traits<wchar_t>,std::allocator<wchar_t> > const ,std::basic_string<wchar_t,std::char_traits<wchar_t>,std::allocator<wchar_t> > > >,0> >::_Copy(std::_Tree<std::_Tmap_traits<std::basic_string<wchar_t,std::char_traits<wchar_t>,std::allocator<wchar_t> >,std::basic_string<wchar_t,std::char_traits<wchar_t>,std::allocator<wchar_t> >,std::less<std::basic_string<wchar_t,std::char_traits<wchar_t>,std::allocator<wchar_t> > >,std::allocator<std::pair<std::basic_string<wchar_t,std::char_traits<wchar_t>,std::allocator<wchar_t> > const ,std::basic_string<wchar_t,std::char_traits<wchar_t>,std::allocator<wchar_t> > > >,0> > const &)
FUNC 7d1f 4e 0 std::_Tree<std::_Tmap_traits<std::basic_string<wchar_t,std::char_traits<wchar_t>,std::allocator<wchar_t> >,std::basic_string<wchar_t,std::char_traits<wchar_t>,std::allocator<wchar_t> >,std::less<std::basic_string<wchar_t,std::char_traits<wchar_t>,std::allocator<wchar_t> > >,std::allocator<std::pair<std::basic_string<wchar_t,std::char_traits<wchar_t>,std::allocator<wchar_t> > const ,std::basic_string<wchar_t,std::char_traits<wchar_t>,std::allocator<wchar_t> > > >,0> >::_Tidy()
FUNC 7d6d 3b 0 std::vector<std::basic_string<char,std::char_traits<char>,std::allocator<char> >,std::allocator<std::basic_string<char,std::char_traits<char>,std::allocator<char> > > >::clear()
FUNC 7da8 18 c std::vector<FileData,std::allocator<FileData> >::_Umove<FileData *>(FileData *,FileData *,FileData *)
FUNC 7dc0 ce 10 std::_Sort<FileData *,int,bool (*)(FileData const &,FileData const &)>(FileData *,FileData *,int,bool (*)(FileData const &,FileData const &))
FUNC 7e8e 3e 4 Str
FUNC 7ecc 121 0 ShowReportInfo
FUNC 7fed d6 10 ViewReportDialogProc
FUNC 80c3 3f 0 UIShowDefaultUI()
FUNC 8102 8c 4 UIError_impl(std::basic_string<char,std::char_traits<char>,std::allocator<char> > const &)
FUNC 818e 50 4 std::_Tree<std::_Tmap_traits<std::basic_string<wchar_t,std::char_traits<wchar_t>,std::allocator<wchar_t> >,std::basic_string<wchar_t,std::char_traits<wchar_t>,std::allocator<wchar_t> >,std::less<std::basic_string<wchar_t,std::char_traits<wchar_t>,std::allocator<wchar_t> > >,std::allocator<std::pair<std::basic_string<wchar_t,std::char_traits<wchar_t>,std::allocator<wchar_t> > const ,std::basic_string<wchar_t,std::char_traits<wchar_t>,std::allocator<wchar_t> > > >,0> >::operator=(std::_Tree<std::_Tmap_traits<std::basic_string<wchar_t,std::char_traits<wchar_t>,std::allocator<wchar_t> >,std::basic_string<wchar_t,std::char_traits<wchar_t>,std::allocator<wchar_t> >,std::less<std::basic_string<wchar_t,std::char_traits<wchar_t>,std::allocator<wchar_t> > >,std::allocator<std::pair<std::basic_string<wchar_t,std::char_traits<wchar_t>,std::allocator<wchar_t> > const ,std::basic_string<wchar_t,std::char_traits<wchar_t>,std::allocator<wchar_t> > > >,0> > const &)
FUNC 81de 50 4 std::_Tree<std::_Tmap_traits<std::basic_string<wchar_t,std::char_traits<wchar_t>,std::allocator<wchar_t> >,std::basic_string<wchar_t,std::char_traits<wchar_t>,std::allocator<wchar_t> >,std::less<std::basic_string<wchar_t,std::char_traits<wchar_t>,std::allocator<wchar_t> > >,std::allocator<std::pair<std::basic_string<wchar_t,std::char_traits<wchar_t>,std::allocator<wchar_t> > const ,std::basic_string<wchar_t,std::char_traits<wchar_t>,std::allocator<wchar_t> > > >,0> >::erase(std::basic_string<wchar_t,std::char_traits<wchar_t>,std::allocator<wchar_t> > const &)
FUNC 822e fd 4 std::vector<std::basic_string<char,std::char_traits<char>,std::allocator<char> >,std::allocator<std::basic_string<char,std::char_traits<char>,std::allocator<char> > > >::operator=(std::vector<std::basic_string<char,std::char_traits<char>,std::allocator<char> >,std::allocator<std::basic_string<char,std::char_traits<char>,std::allocator<char> > > > const &)
FUNC 832b 200 10 std::vector<FileData,std::allocator<FileData> >::_Insert_n(std::_Vector_iterator<FileData,std::allocator<FileData> >,unsigned int,FileData const &)
FUNC 852b 23 14 std::sort<std::_Vector_iterator<FileData,std::allocator<FileData> >,bool (*)(FileData const &,FileData const &)>(std::_Vector_iterator<FileData,std::allocator<FileData> >,std::_Vector_iterator<FileData,std::allocator<FileData> >,bool (*)(FileData const &,FileData const &))
FUNC 854e 27 0 SendThreadData::~SendThreadData()
FUNC 8575 62 4 UpdateURL
FUNC 85d7 d8 0 UpdateEmail
FUNC 86af a1 4 UpdateComment
FUNC 8750 63 c std::vector<FileData,std::allocator<FileData> >::insert(std::_Vector_iterator<FileData,std::allocator<FileData> >,FileData const &)
FUNC 87b3 135 0 MaybeSendReport
FUNC 88e8 cda 10 CrashReporterDialogProc
FUNC 95c2 365 10 UIShowCrashUI(std::basic_string<char,std::char_traits<char>,std::allocator<char> > const &,std::map<std::basic_string<char,std::char_traits<char>,std::allocator<char> >,std::basic_string<char,std::char_traits<char>,std::allocator<char> >,std::less<std::basic_string<char,std::char_traits<char>,std::allocator<char> > >,std::allocator<std::pair<std::basic_string<char,std::char_traits<char>,std::allocator<char> > const ,std::basic_string<char,std::char_traits<char>,std::allocator<char> > > > > const &,std::basic_string<char,std::char_traits<char>,std::allocator<char> > const &,std::vector<std::basic_string<char,std::char_traits<char>,std::allocator<char> >,std::allocator<std::basic_string<char,std::char_traits<char>,std::allocator<char> > > > const &)
FUNC 9927 55 4 std::vector<FileData,std::allocator<FileData> >::push_back(FileData const &)
FUNC 997c 20f 4 UIPruneSavedDumps(std::basic_string<char,std::char_traits<char>,std::allocator<char> > const &)
FUNC 9b8b 9a 4 google_breakpad::CrashReportSender::ReadCheckpoint(_iobuf *)
FUNC 9c25 28 0 google_breakpad::CrashReportSender::GetCurrentDate()
FUNC 9c4d 2e 8 google_breakpad::CrashReportSender::OpenCheckpointFile(wchar_t const *,_iobuf * *)
FUNC 9c7b 4a 4 google_breakpad::CrashReportSender::CrashReportSender(std::basic_string<wchar_t,std::char_traits<wchar_t>,std::allocator<wchar_t> > const &)
FUNC 9cc5 6a 4 google_breakpad::CrashReportSender::ReportSent(int)
FUNC 9d2f 87 10 google_breakpad::CrashReportSender::SendCrashReport(std::basic_string<wchar_t,std::char_traits<wchar_t>,std::allocator<wchar_t> > const &,std::map<std::basic_string<wchar_t,std::char_traits<wchar_t>,std::allocator<wchar_t> >,std::basic_string<wchar_t,std::char_traits<wchar_t>,std::allocator<wchar_t> >,std::less<std::basic_string<wchar_t,std::char_traits<wchar_t>,std::allocator<wchar_t> > >,std::allocator<std::pair<std::basic_string<wchar_t,std::char_traits<wchar_t>,std::allocator<wchar_t> > const ,std::basic_string<wchar_t,std::char_traits<wchar_t>,std::allocator<wchar_t> > > > > const &,std::basic_string<wchar_t,std::char_traits<wchar_t>,std::allocator<wchar_t> > const &,std::basic_string<wchar_t,std::char_traits<wchar_t>,std::allocator<wchar_t> > *)
FUNC 9db6 5f 0 google_breakpad::HTTPUpload::GenerateMultipartBoundary()
FUNC 9e15 25 4 google_breakpad::HTTPUpload::GenerateRequestHeader(std::basic_string<wchar_t,std::char_traits<wchar_t>,std::allocator<wchar_t> > const &)
FUNC 9e3a d4 4 google_breakpad::HTTPUpload::UTF8ToWide(std::basic_string<char,std::char_traits<char>,std::allocator<char> > const &)
FUNC 9f0e d0 4 google_breakpad::HTTPUpload::WideToUTF8(std::basic_string<wchar_t,std::char_traits<wchar_t>,std::allocator<wchar_t> > const &)
FUNC 9fde 1a 0 std::vector<char,std::allocator<char> >::empty()
FUNC 9ff8 26 4 std::vector<char,std::allocator<char> >::operator[](unsigned int)
FUNC a01e 34 4 std::_Vector_const_iterator<char,std::allocator<char> >::operator+=(int)
FUNC a052 28 18 std::_Copy_opt<char *,char *,std::random_access_iterator_tag>(char *,char *,char *,std::random_access_iterator_tag,std::_Scalar_ptr_iterator_tag,std::_Range_checked_iterator_tag)
FUNC a07a 27 18 std::_Copy_backward_opt<char *,char *,std::random_access_iterator_tag>(char *,char *,char *,std::random_access_iterator_tag,std::_Scalar_ptr_iterator_tag,std::_Range_checked_iterator_tag)
FUNC a0a1 26 18 std::_Uninit_copy<char *,char *,std::allocator<char> >(char *,char *,char *,std::allocator<char> &,std::_Scalar_ptr_iterator_tag,std::_Range_checked_iterator_tag)
FUNC a0c7 1f 10 std::_Fill_n<char *,unsigned int,char>(char *,unsigned int,char const &,std::_Range_checked_iterator_tag)
FUNC a0e6 3e 4 std::vector<char,std::allocator<char> >::_Buy(unsigned int)
FUNC a124 28 18 std::_Move_backward_opt<char *,char *,std::random_access_iterator_tag,std::_Undefined_move_tag>(char *,char *,char *,std::random_access_iterator_tag,std::_Undefined_move_tag,std::_Range_checked_iterator_tag)
FUNC a14c 28 10 stdext::unchecked_uninitialized_copy<char *,char *,std::allocator<char> >(char *,char *,char *,std::allocator<char> &)
FUNC a174 22 14 std::_Fill_n<char *,unsigned int,char>(char *,unsigned int,char const &,std::random_access_iterator_tag,std::_Range_checked_iterator_tag)
FUNC a196 2d 4 std::_Vector_iterator<char,std::allocator<char> >::operator+(int)
FUNC a1c3 28 c stdext::unchecked_copy<char *,char *>(char *,char *,char *)
FUNC a1eb 28 c stdext::_Unchecked_move_backward<char *,char *>(char *,char *,char *)
FUNC a213 25 c stdext::unchecked_fill_n<char *,unsigned int,char>(char *,unsigned int,char const &)
FUNC a238 98 4 google_breakpad::HTTPUpload::CheckParameters(std::map<std::basic_string<wchar_t,std::char_traits<wchar_t>,std::allocator<wchar_t> >,std::basic_string<wchar_t,std::char_traits<wchar_t>,std::allocator<wchar_t> >,std::less<std::basic_string<wchar_t,std::char_traits<wchar_t>,std::allocator<wchar_t> > >,std::allocator<std::pair<std::basic_string<wchar_t,std::char_traits<wchar_t>,std::allocator<wchar_t> > const ,std::basic_string<wchar_t,std::char_traits<wchar_t>,std::allocator<wchar_t> > > > > const &)
FUNC a2d0 27 0 std::vector<char,std::allocator<char> >::_Tidy()
FUNC a2f7 3d 10 std::vector<char,std::allocator<char> >::erase(std::_Vector_iterator<char,std::allocator<char> >,std::_Vector_iterator<char,std::allocator<char> >)
FUNC a334 18 c std::vector<char,std::allocator<char> >::_Umove<char *>(char *,char *,char *)
FUNC a34c 20 c std::vector<char,std::allocator<char> >::_Ufill(char *,unsigned int,char const &)
FUNC a36c 52 8 std::vector<char,std::allocator<char> >::_Construct_n(unsigned int,char const &)
FUNC a3be 1dd 10 std::vector<char,std::allocator<char> >::_Insert_n(std::_Vector_iterator<char,std::allocator<char> >,unsigned int,char const &)
FUNC a59b 1e 4 std::vector<char,std::allocator<char> >::vector<char,std::allocator<char> >(unsigned int)
FUNC a5b9 a0 8 std::vector<char,std::allocator<char> >::resize(unsigned int,char)
FUNC a659 148 8 google_breakpad::HTTPUpload::ReadResponse(void *,std::basic_string<wchar_t,std::char_traits<wchar_t>,std::allocator<wchar_t> > *)
FUNC a7a1 a6 8 google_breakpad::HTTPUpload::GetFileContents(std::basic_string<wchar_t,std::char_traits<wchar_t>,std::allocator<wchar_t> > const &,std::vector<char,std::allocator<char> > *)
FUNC a847 39d 14 google_breakpad::HTTPUpload::GenerateRequestBody(std::map<std::basic_string<wchar_t,std::char_traits<wchar_t>,std::allocator<wchar_t> >,std::basic_string<wchar_t,std::char_traits<wchar_t>,std::allocator<wchar_t> >,std::less<std::basic_string<wchar_t,std::char_traits<wchar_t>,std::allocator<wchar_t> > >,std::allocator<std::pair<std::basic_string<wchar_t,std::char_traits<wchar_t>,std::allocator<wchar_t> > const ,std::basic_string<wchar_t,std::char_traits<wchar_t>,std::allocator<wchar_t> > > > > const &,std::basic_string<wchar_t,std::char_traits<wchar_t>,std::allocator<wchar_t> > const &,std::basic_string<wchar_t,std::char_traits<wchar_t>,std::allocator<wchar_t> > const &,std::basic_string<wchar_t,std::char_traits<wchar_t>,std::allocator<wchar_t> > const &,std::basic_string<char,std::char_traits<char>,std::allocator<char> > *)
FUNC abe4 32e 1c google_breakpad::HTTPUpload::SendRequest(std::basic_string<wchar_t,std::char_traits<wchar_t>,std::allocator<wchar_t> > const &,std::map<std::basic_string<wchar_t,std::char_traits<wchar_t>,std::allocator<wchar_t> >,std::basic_string<wchar_t,std::char_traits<wchar_t>,std::allocator<wchar_t> >,std::less<std::basic_string<wchar_t,std::char_traits<wchar_t>,std::allocator<wchar_t> > >,std::allocator<std::pair<std::basic_string<wchar_t,std::char_traits<wchar_t>,std::allocator<wchar_t> > const ,std::basic_string<wchar_t,std::char_traits<wchar_t>,std::allocator<wchar_t> > > > > const &,std::basic_string<wchar_t,std::char_traits<wchar_t>,std::allocator<wchar_t> > const &,std::basic_string<wchar_t,std::char_traits<wchar_t>,std::allocator<wchar_t> > const &,int *,std::basic_string<wchar_t,std::char_traits<wchar_t>,std::allocator<wchar_t> > *,int *)
FUNC af12 5 4 operator new[](unsigned int)
FUNC af17 49 0 type_info::`vector deleting destructor'(unsigned int)
FUNC af6c f 0 __security_check_cookie
FUNC af94 36 4 _EH_prolog3_catch
FUNC afca 39 4 _EH_prolog3_catch_GS
FUNC b003 14 0 _EH_epilog3
FUNC b017 f 0 _EH_epilog3_catch_GS
FUNC b030 2b 0 _chkstk
FUNC b06e a5 4 _onexit
FUNC b113 12 4 atexit
FUNC b150 9 0 _ftol2_sse
FUNC b159 13 0 _ftol2_pentium4
FUNC b16c 1a 0 _ftol2_sse_excpt
FUNC b186 75 0 _ftol2
FUNC b202 4b 0 pre_cpp_init
FUNC b24d 1de 0 __tmainCRTStartup
FUNC b42b e2 0 pre_c_init
FUNC b50d a 0 wWinMainCRTStartup
FUNC b517 5e 10 __ArrayUnwind(void *,unsigned int,int,void (*)(void *))
FUNC b575 63 10 `eh vector destructor iterator'(void *,unsigned int,int,void (*)(void *))
FUNC b5d8 104 0 __report_gsfailure
FUNC b6f0 45 0 _SEH_prolog4
FUNC b735 14 0 _SEH_epilog4
FUNC b749 23 10 _except_handler4
FUNC b76c 50 0 has_osfxsr_set
FUNC b7bc 60 0 _get_sse2_info
FUNC b81c d 0 __sse2_available_init
FUNC b829 3d 4 __CxxUnhandledExceptionFilter(_EXCEPTION_POINTERS *)
FUNC b866 e 0 __CxxSetUnhandledExceptionFilter
FUNC b87a 24 0 _RTC_Initialize
FUNC b89e 24 0 _RTC_Terminate
FUNC b8d0 29 4 _ValidateImageBase
FUNC b900 42 8 _FindPESection
FUNC b950 bb 4 _IsNonwritableInCurrentImage
FUNC ba18 29 0 _setdefaultprecision
FUNC ba41 3 4 _wsetargv
FUNC ba44 94 0 __security_init_cookie
FUNC bce5 16 0 CrashReporter::`dynamic initializer for 'gStrings''
FUNC bcfb 17 0 CrashReporter::`dynamic initializer for 'gSettingsPath''
FUNC bd12 c 0 CrashReporter::`dynamic initializer for 'gLogStream''
FUNC bd1e 17 0 CrashReporter::`dynamic initializer for 'gDumpFile''
FUNC bd35 17 0 CrashReporter::`dynamic initializer for 'gExtraFile''
FUNC bd4c 1c 0 CrashReporter::`dynamic initializer for 'kExtraDataExtension''
FUNC bd68 37 0 `dynamic initializer for 'gSendData''
FUNC bd9f c 0 `dynamic initializer for 'gRestartArgs''
FUNC bdab 16 0 `dynamic initializer for 'gQueryParameters''
FUNC bdc1 1c 0 `dynamic initializer for 'gCrashReporterKey''
FUNC bddd 17 0 `dynamic initializer for 'gURLParameter''
FUNC bdf4 16 0 `dynamic initializer for 'gAttachedBottom''
FUNC be0a b 0 CrashReporter::`dynamic atexit destructor for 'gSettingsPath''
FUNC be15 b 0 CrashReporter::`dynamic atexit destructor for 'gDumpFile''
FUNC be20 b 0 CrashReporter::`dynamic atexit destructor for 'gExtraFile''
FUNC be2b b 0 CrashReporter::`dynamic atexit destructor for 'kExtraDataExtension''
FUNC be36 17 0 CrashReporter::`dynamic atexit destructor for 'gLogStream''
FUNC be4d a 0 CrashReporter::`dynamic atexit destructor for 'gStrings''
FUNC be57 b 0 `dynamic atexit destructor for 'gCrashReporterKey''
FUNC be62 b 0 `dynamic atexit destructor for 'gURLParameter''
FUNC be6d a 0 `dynamic atexit destructor for 'gRestartArgs''
FUNC be77 a 0 `dynamic atexit destructor for 'gAttachedBottom''
FUNC be81 a 0 `dynamic atexit destructor for 'gQueryParameters''
FUNC be8b a 0 `dynamic atexit destructor for 'gSendData''
STACK WIN 4 1000 c 0 0 0 0 0 0 1 $T2 $esp .cbLocals + .cbSavedRegs + = $T0 .raSearchStart = $eip $T0 ^ = $esp $T0 4 + =
STACK WIN 4 100c 23 3 0 4 0 0 0 1 $T2 $esp .cbLocals + .cbSavedRegs + = $T0 .raSearchStart = $eip $T0 ^ = $esp $T0 4 + =
STACK WIN 4 100d 1f 2 0 4 4 0 0 1 $T2 $esp .cbLocals + .cbSavedRegs + = $T0 .raSearchStart = $eip $T0 ^ = $esp $T0 4 + =
STACK WIN 4 102f 22 3 0 4 0 0 0 1 $T2 $esp .cbLocals + .cbSavedRegs + = $T0 .raSearchStart = $eip $T0 ^ = $esp $T0 4 + =
STACK WIN 4 1030 1e 2 0 4 4 0 0 1 $T2 $esp .cbLocals + .cbSavedRegs + = $T0 .raSearchStart = $eip $T0 ^ = $esp $T0 4 + =
STACK WIN 4 1051 1b 3 0 0 0 0 0 1 $T2 $esp .cbLocals + .cbSavedRegs + = $T0 .raSearchStart = $eip $T0 ^ = $esp $T0 4 + =
STACK WIN 4 1052 14 2 0 0 4 0 0 1 $T2 $esp .cbLocals + .cbSavedRegs + = $T0 .raSearchStart = $eip $T0 ^ = $esp $T0 4 + =
STACK WIN 4 106c e 0 0 0 0 0 0 1 $T2 $esp .cbLocals + .cbSavedRegs + = $T0 .raSearchStart = $eip $T0 ^ = $esp $T0 4 + =
STACK WIN 4 107a 1c 3 0 4 0 0 0 1 $T2 $esp .cbLocals + .cbSavedRegs + = $T0 .raSearchStart = $eip $T0 ^ = $esp $T0 4 + =
STACK WIN 4 107b 18 2 0 4 4 0 0 1 $T2 $esp .cbLocals + .cbSavedRegs + = $T0 .raSearchStart = $eip $T0 ^ = $esp $T0 4 + =
STACK WIN 4 1096 b 0 0 0 0 0 0 1 $T2 $esp .cbLocals + .cbSavedRegs + = $T0 .raSearchStart = $eip $T0 ^ = $esp $T0 4 + =
STACK WIN 4 10a1 22 3 0 4 0 0 0 1 $T2 $esp .cbLocals + .cbSavedRegs + = $T0 .raSearchStart = $eip $T0 ^ = $esp $T0 4 + =
STACK WIN 4 10a2 1e 2 0 4 4 0 0 1 $T2 $esp .cbLocals + .cbSavedRegs + = $T0 .raSearchStart = $eip $T0 ^ = $esp $T0 4 + =
STACK WIN 4 10c3 b 0 0 0 0 0 0 1 $T2 $esp .cbLocals + .cbSavedRegs + = $T0 .raSearchStart = $eip $T0 ^ = $esp $T0 4 + =
STACK WIN 4 10ce 22 3 0 4 0 0 0 1 $T2 $esp .cbLocals + .cbSavedRegs + = $T0 .raSearchStart = $eip $T0 ^ = $esp $T0 4 + =
STACK WIN 4 10cf 1e 2 0 4 4 0 0 1 $T2 $esp .cbLocals + .cbSavedRegs + = $T0 .raSearchStart = $eip $T0 ^ = $esp $T0 4 + =
STACK WIN 4 10f0 7a 10 0 4 0 20 0 1 $T0 $ebp = $eip $T0 4 + ^ = $ebp $T0 ^ = $esp $T0 8 + = $L $T0 .cbSavedRegs - = $P $T0 8 + .cbParams + =
STACK WIN 4 116a 40 0 0 4 0 0 0 1 $T2 $esp .cbLocals + .cbSavedRegs + = $T0 .raSearchStart = $eip $T0 ^ = $esp $T0 4 + =
STACK WIN 4 11aa 3e 0 0 0 0 0 0 1 $T2 $esp .cbLocals + .cbSavedRegs + = $T0 .raSearchStart = $eip $T0 ^ = $esp $T0 4 + =
STACK WIN 4 11e8 25 0 0 0 0 0 0 1 $T2 $esp .cbLocals + .cbSavedRegs + = $T0 .raSearchStart = $eip $T0 ^ = $esp $T0 4 + =
STACK WIN 4 120d 8c 12 0 1c 0 58 0 1 $T0 $ebp = $eip $T0 4 + ^ = $ebp $T0 ^ = $esp $T0 8 + = $L $T0 .cbSavedRegs - = $P $T0 8 + .cbParams + =
STACK WIN 4 121e 74 1 0 1c 4 58 0 1 $T0 $ebp = $eip $T0 4 + ^ = $ebp $T0 ^ = $esp $T0 8 + = $L $T0 .cbSavedRegs - = $P $T0 8 + .cbParams + = $ebx $T0 92 - ^ =
STACK WIN 4 121f 6e 0 0 1c 8 58 0 1 $T0 $ebp = $eip $T0 4 + ^ = $ebp $T0 ^ = $esp $T0 8 + = $L $T0 .cbSavedRegs - = $P $T0 8 + .cbParams + = $ebx $T0 92 - ^ =
STACK WIN 4 1299 26 3 0 4 0 0 0 1 $T2 $esp .cbLocals + .cbSavedRegs + = $T0 .raSearchStart = $eip $T0 ^ = $esp $T0 4 + =
STACK WIN 4 129a 22 2 0 4 4 0 0 1 $T2 $esp .cbLocals + .cbSavedRegs + = $T0 .raSearchStart = $eip $T0 ^ = $esp $T0 4 + =
STACK WIN 4 129f 1c 0 0 4 8 0 0 1 $T2 $esp .cbLocals + .cbSavedRegs + = $T0 .raSearchStart = $eip $T0 ^ = $esp $T0 4 + =
STACK WIN 4 12bf 39 3 0 0 0 0 0 1 $T2 $esp .cbLocals + .cbSavedRegs + = $T0 .raSearchStart = $eip $T0 ^ = $esp $T0 4 + =
STACK WIN 4 12c0 37 2 0 0 4 0 0 1 $T2 $esp .cbLocals + .cbSavedRegs + = $T0 .raSearchStart = $eip $T0 ^ = $esp $T0 4 + =
STACK WIN 4 12cc 27 0 0 0 8 0 0 1 $T2 $esp .cbLocals + .cbSavedRegs + = $T0 .raSearchStart = $eip $T0 ^ = $esp $T0 4 + =
STACK WIN 4 12f8 28 3 0 4 0 0 0 1 $T2 $esp .cbLocals + .cbSavedRegs + = $T0 .raSearchStart = $eip $T0 ^ = $esp $T0 4 + =
STACK WIN 4 12f9 24 2 0 4 4 0 0 1 $T2 $esp .cbLocals + .cbSavedRegs + = $T0 .raSearchStart = $eip $T0 ^ = $esp $T0 4 + =
STACK WIN 4 1300 17 0 0 4 8 0 0 1 $T2 $esp .cbLocals + .cbSavedRegs + = $T0 .raSearchStart = $eip $T0 ^ = $esp $T0 4 + =
STACK WIN 4 1320 15 3 0 0 0 0 0 1 $T2 $esp .cbLocals + .cbSavedRegs + = $T0 .raSearchStart = $eip $T0 ^ = $esp $T0 4 + =
STACK WIN 4 1321 e 2 0 0 4 0 0 1 $T2 $esp .cbLocals + .cbSavedRegs + = $T0 .raSearchStart = $eip $T0 ^ = $esp $T0 4 + =
STACK WIN 4 1335 3b 3 0 0 0 0 0 1 $T2 $esp .cbLocals + .cbSavedRegs + = $T0 .raSearchStart = $eip $T0 ^ = $esp $T0 4 + =
STACK WIN 4 1336 39 2 0 0 4 0 0 1 $T2 $esp .cbLocals + .cbSavedRegs + = $T0 .raSearchStart = $eip $T0 ^ = $esp $T0 4 + =
STACK WIN 4 1342 27 0 0 0 8 0 0 1 $T2 $esp .cbLocals + .cbSavedRegs + = $T0 .raSearchStart = $eip $T0 ^ = $esp $T0 4 + =
STACK WIN 4 1370 2d 3 0 4 0 0 0 1 $T2 $esp .cbLocals + .cbSavedRegs + = $T0 .raSearchStart = $eip $T0 ^ = $esp $T0 4 + =
STACK WIN 4 1371 29 2 0 4 4 0 0 1 $T2 $esp .cbLocals + .cbSavedRegs + = $T0 .raSearchStart = $eip $T0 ^ = $esp $T0 4 + =
STACK WIN 4 1379 1b 0 0 4 8 0 0 1 $T2 $esp .cbLocals + .cbSavedRegs + = $T0 .raSearchStart = $eip $T0 ^ = $esp $T0 4 + =
STACK WIN 4 139d 20 7 0 8 0 0 0 1 $T2 $esp .cbLocals + .cbSavedRegs + = $T0 .raSearchStart = $eip $T0 ^ = $esp $T0 4 + =
STACK WIN 4 139e 1c 6 0 8 4 0 0 1 $T2 $esp .cbLocals + .cbSavedRegs + = $T0 .raSearchStart = $eip $T0 ^ = $esp $T0 4 + =
STACK WIN 4 13bd 16 0 0 0 0 0 0 1 $T2 $esp .cbLocals + .cbSavedRegs + = $T0 .raSearchStart = $eip $T0 ^ = $esp $T0 4 + =
STACK WIN 4 13d3 16 0 0 0 0 0 0 1 $T2 $esp .cbLocals + .cbSavedRegs + = $T0 .raSearchStart = $eip $T0 ^ = $esp $T0 4 + =
STACK WIN 4 13e9 36 6 0 0 0 44 0 1 $T0 $ebp = $eip $T0 4 + ^ = $ebp $T0 ^ = $esp $T0 8 + = $L $T0 .cbSavedRegs - = $P $T0 8 + .cbParams + =
STACK WIN 4 141f 29 9 0 4 0 0 0 1 $T2 $esp .cbLocals + .cbSavedRegs + = $T0 .raSearchStart = $eip $T0 ^ = $esp $T0 4 + =
STACK WIN 4 1420 25 8 0 4 4 0 0 1 $T2 $esp .cbLocals + .cbSavedRegs + = $T0 .raSearchStart = $eip $T0 ^ = $esp $T0 4 + =
STACK WIN 4 1421 21 7 0 4 8 0 0 1 $T2 $esp .cbLocals + .cbSavedRegs + = $T0 .raSearchStart = $eip $T0 ^ = $esp $T0 4 + =
STACK WIN 4 1448 25 7 0 4 0 0 0 1 $T2 $esp .cbLocals + .cbSavedRegs + = $T0 .raSearchStart = $eip $T0 ^ = $esp $T0 4 + =
STACK WIN 4 144d 1d 2 0 4 4 0 0 1 $T2 $esp .cbLocals + .cbSavedRegs + = $T0 .raSearchStart = $eip $T0 ^ = $esp $T0 4 + =
STACK WIN 4 146d 19 0 0 0 0 0 0 1 $T2 $esp .cbLocals + .cbSavedRegs + = $T0 .raSearchStart = $eip $T0 ^ = $esp $T0 4 + =
STACK WIN 4 1486 22 2 0 8 0 0 0 1 $T2 $esp .cbLocals + .cbSavedRegs + = $T0 .raSearchStart = $eip $T0 ^ = $esp $T0 4 + =
STACK WIN 4 14a8 18 7 0 4 0 0 0 1 $T2 $esp .cbLocals + .cbSavedRegs + = $T0 .raSearchStart = $eip $T0 ^ = $esp $T0 4 + =
STACK WIN 4 14a9 14 6 0 4 4 0 0 1 $T2 $esp .cbLocals + .cbSavedRegs + = $T0 .raSearchStart = $eip $T0 ^ = $esp $T0 4 + =
STACK WIN 4 14c0 44 7 0 4 0 0 0 1 $T2 $esp .cbLocals + .cbSavedRegs + = $T0 .raSearchStart = $eip $T0 ^ = $esp $T0 4 + =
STACK WIN 4 14c7 1e 0 0 4 4 0 0 1 $T2 $esp .cbLocals + .cbSavedRegs + = $T0 .raSearchStart = $eip $T0 ^ = $esp $T0 4 + =
STACK WIN 4 1504 51 4 0 0 0 0 0 1 $T2 $esp .cbLocals + .cbSavedRegs + = $T0 .raSearchStart = $eip $T0 ^ = $esp $T0 4 + =
STACK WIN 4 1505 4f 3 0 0 4 0 0 1 $T2 $esp .cbLocals + .cbSavedRegs + = $T0 .raSearchStart = $eip $T0 ^ = $esp $T0 4 + = $ebx $T0 4 - ^ =
STACK WIN 4 1506 4d 2 0 0 8 0 0 1 $T2 $esp .cbLocals + .cbSavedRegs + = $T0 .raSearchStart = $eip $T0 ^ = $esp $T0 4 + = $ebx $T0 4 - ^ =
STACK WIN 4 150d 45 0 0 0 c 0 0 1 $T2 $esp .cbLocals + .cbSavedRegs + = $T0 .raSearchStart = $eip $T0 ^ = $esp $T0 4 + = $ebx $T0 4 - ^ =
STACK WIN 4 1555 29 3 0 4 0 0 0 1 $T2 $esp .cbLocals + .cbSavedRegs + = $T0 .raSearchStart = $eip $T0 ^ = $esp $T0 4 + =
STACK WIN 4 1556 25 2 0 4 4 0 0 1 $T2 $esp .cbLocals + .cbSavedRegs + = $T0 .raSearchStart = $eip $T0 ^ = $esp $T0 4 + =
STACK WIN 4 155d 1b 0 0 4 8 0 0 1 $T2 $esp .cbLocals + .cbSavedRegs + = $T0 .raSearchStart = $eip $T0 ^ = $esp $T0 4 + =
STACK WIN 4 157e 37 b 0 4 0 0 0 1 $T2 $esp .cbLocals + .cbSavedRegs + = $T0 .raSearchStart = $eip $T0 ^ = $esp $T0 4 + =
STACK WIN 4 157f 33 a 0 4 4 0 0 1 $T2 $esp .cbLocals + .cbSavedRegs + = $T0 .raSearchStart = $eip $T0 ^ = $esp $T0 4 + = $ebx $T0 4 - ^ =
STACK WIN 4 1586 2b 3 0 4 8 0 0 1 $T2 $esp .cbLocals + .cbSavedRegs + = $T0 .raSearchStart = $eip $T0 ^ = $esp $T0 4 + = $ebx $T0 4 - ^ =
STACK WIN 4 1587 29 2 0 4 c 0 0 1 $T2 $esp .cbLocals + .cbSavedRegs + = $T0 .raSearchStart = $eip $T0 ^ = $esp $T0 4 + = $ebx $T0 4 - ^ =
STACK WIN 4 15b5 23 9 0 4 0 0 0 1 $T2 $esp .cbLocals + .cbSavedRegs + = $T0 .raSearchStart = $eip $T0 ^ = $esp $T0 4 + =
STACK WIN 4 15b6 1f 8 0 4 4 0 0 1 $T2 $esp .cbLocals + .cbSavedRegs + = $T0 .raSearchStart = $eip $T0 ^ = $esp $T0 4 + =
STACK WIN 4 15b7 1b 7 0 4 8 0 0 1 $T2 $esp .cbLocals + .cbSavedRegs + = $T0 .raSearchStart = $eip $T0 ^ = $esp $T0 4 + =
STACK WIN 4 15d8 4e 9 0 8 0 c 0 1 $T0 $ebp = $eip $T0 4 + ^ = $ebp $T0 ^ = $esp $T0 8 + = $L $T0 .cbSavedRegs - = $P $T0 8 + .cbParams + =
STACK WIN 4 1626 4e 9 0 8 0 c 0 1 $T0 $ebp = $eip $T0 4 + ^ = $ebp $T0 ^ = $esp $T0 8 + = $L $T0 .cbSavedRegs - = $P $T0 8 + .cbParams + =
STACK WIN 4 1674 19 7 0 4 0 0 0 1 $T2 $esp .cbLocals + .cbSavedRegs + = $T0 .raSearchStart = $eip $T0 ^ = $esp $T0 4 + =
STACK WIN 4 1675 15 6 0 4 4 0 0 1 $T2 $esp .cbLocals + .cbSavedRegs + = $T0 .raSearchStart = $eip $T0 ^ = $esp $T0 4 + =
STACK WIN 4 168d 1e 1 0 c 0 0 0 1 $T2 $esp .cbLocals + .cbSavedRegs + = $T0 .raSearchStart = $eip $T0 ^ = $esp $T0 4 + =
STACK WIN 4 168e 1c 0 0 c 4 0 0 1 $T2 $esp .cbLocals + .cbSavedRegs + = $T0 .raSearchStart = $eip $T0 ^ = $esp $T0 4 + =
STACK WIN 4 16ab 8f 11 0 0 0 3c 0 1 $T0 $ebp = $eip $T0 4 + ^ = $ebp $T0 ^ = $esp $T0 8 + = $L $T0 .cbSavedRegs - = $P $T0 8 + .cbParams + =
STACK WIN 4 16bc 39 0 0 0 4 3c 0 1 $T0 $ebp = $eip $T0 4 + ^ = $ebp $T0 ^ = $esp $T0 8 + = $L $T0 .cbSavedRegs - = $P $T0 8 + .cbParams + =
STACK WIN 4 173a 41 9 0 4 0 0 0 1 $T2 $esp .cbLocals + .cbSavedRegs + = $T0 .raSearchStart = $eip $T0 ^ = $esp $T0 4 + =
STACK WIN 4 173b 3d 8 0 4 4 0 0 1 $T2 $esp .cbLocals + .cbSavedRegs + = $T0 .raSearchStart = $eip $T0 ^ = $esp $T0 4 + =
STACK WIN 4 1740 37 3 0 4 8 0 0 1 $T2 $esp .cbLocals + .cbSavedRegs + = $T0 .raSearchStart = $eip $T0 ^ = $esp $T0 4 + =
STACK WIN 4 177b 1d 3 0 0 0 0 0 1 $T2 $esp .cbLocals + .cbSavedRegs + = $T0 .raSearchStart = $eip $T0 ^ = $esp $T0 4 + =
STACK WIN 4 177c 17 2 0 0 4 0 0 1 $T2 $esp .cbLocals + .cbSavedRegs + = $T0 .raSearchStart = $eip $T0 ^ = $esp $T0 4 + =
STACK WIN 4 1798 36 8 0 4 0 0 0 1 $T2 $esp .cbLocals + .cbSavedRegs + = $T0 .raSearchStart = $eip $T0 ^ = $esp $T0 4 + =
STACK WIN 4 179c 2f 4 0 4 4 0 0 1 $T2 $esp .cbLocals + .cbSavedRegs + = $T0 .raSearchStart = $eip $T0 ^ = $esp $T0 4 + =
STACK WIN 4 17a0 2a 0 0 4 8 0 0 1 $T2 $esp .cbLocals + .cbSavedRegs + = $T0 .raSearchStart = $eip $T0 ^ = $esp $T0 4 + =
STACK WIN 4 17ce 42 8 0 4 0 0 0 1 $T2 $esp .cbLocals + .cbSavedRegs + = $T0 .raSearchStart = $eip $T0 ^ = $esp $T0 4 + =
STACK WIN 4 17d6 1d 0 0 4 4 0 0 1 $T2 $esp .cbLocals + .cbSavedRegs + = $T0 .raSearchStart = $eip $T0 ^ = $esp $T0 4 + =
STACK WIN 4 1810 36 8 0 4 0 0 0 1 $T2 $esp .cbLocals + .cbSavedRegs + = $T0 .raSearchStart = $eip $T0 ^ = $esp $T0 4 + =
STACK WIN 4 1814 2f 4 0 4 4 0 0 1 $T2 $esp .cbLocals + .cbSavedRegs + = $T0 .raSearchStart = $eip $T0 ^ = $esp $T0 4 + =
STACK WIN 4 1818 2a 0 0 4 8 0 0 1 $T2 $esp .cbLocals + .cbSavedRegs + = $T0 .raSearchStart = $eip $T0 ^ = $esp $T0 4 + =
STACK WIN 4 1846 33 c 0 14 0 0 0 1 $T0 $ebp = $eip $T0 4 + ^ = $ebp $T0 ^ = $esp $T0 8 + = $L $T0 .cbSavedRegs - = $P $T0 8 + .cbParams + =
STACK WIN 4 184d 28 5 0 14 4 0 0 1 $T0 $ebp = $eip $T0 4 + ^ = $ebp $T0 ^ = $esp $T0 8 + = $L $T0 .cbSavedRegs - = $P $T0 8 + .cbParams + =
STACK WIN 4 1879 140 c 0 8 c 24 0 1 $T0 $ebp = $eip $T0 4 + ^ = $ebp $T0 ^ = $esp $T0 8 + = $L $T0 .cbSavedRegs - = $P $T0 8 + .cbParams + =
STACK WIN 4 19b9 1f 3 0 4 0 0 0 1 $T2 $esp .cbLocals + .cbSavedRegs + = $T0 .raSearchStart = $eip $T0 ^ = $esp $T0 4 + =
STACK WIN 4 19ba 1b 2 0 4 4 0 0 1 $T2 $esp .cbLocals + .cbSavedRegs + = $T0 .raSearchStart = $eip $T0 ^ = $esp $T0 4 + =
STACK WIN 4 19d8 15 0 0 8 0 0 0 1 $T2 $esp .cbLocals + .cbSavedRegs + = $T0 .raSearchStart = $eip $T0 ^ = $esp $T0 4 + =
STACK WIN 4 19ed 28 4 0 18 0 0 0 1 $T0 $ebp = $eip $T0 4 + ^ = $ebp $T0 ^ = $esp $T0 8 + = $L $T0 .cbSavedRegs - = $P $T0 8 + .cbParams + =
STACK WIN 4 19f1 22 0 0 18 4 0 0 1 $T0 $ebp = $eip $T0 4 + ^ = $ebp $T0 ^ = $esp $T0 8 + = $L $T0 .cbSavedRegs - = $P $T0 8 + .cbParams + =
STACK WIN 4 1a15 9a 6 0 0 0 10 0 1 $T0 $ebp = $eip $T0 4 + ^ = $ebp $T0 ^ = $esp $T0 8 + = $L $T0 .cbSavedRegs - = $P $T0 8 + .cbParams + =
STACK WIN 4 1aaf 9d 18 0 4 0 4c 0 1 $T0 $ebp = $eip $T0 4 + ^ = $ebp $T0 ^ = $esp $T0 8 + = $L $T0 .cbSavedRegs - = $P $T0 8 + .cbParams + =
STACK WIN 4 1ac7 7e 0 0 4 4 4c 0 1 $T0 $ebp = $eip $T0 4 + ^ = $ebp $T0 ^ = $esp $T0 8 + = $L $T0 .cbSavedRegs - = $P $T0 8 + .cbParams + =
STACK WIN 4 1b4c 46 c 0 4 0 0 0 1 $T2 $esp .cbLocals + .cbSavedRegs + = $T0 .raSearchStart = $eip $T0 ^ = $esp $T0 4 + =
STACK WIN 4 1b4d 42 b 0 4 4 0 0 1 $T2 $esp .cbLocals + .cbSavedRegs + = $T0 .raSearchStart = $eip $T0 ^ = $esp $T0 4 + =
STACK WIN 4 1b50 3e 8 0 4 8 0 0 1 $T2 $esp .cbLocals + .cbSavedRegs + = $T0 .raSearchStart = $eip $T0 ^ = $esp $T0 4 + =
STACK WIN 4 1b92 1f 7 0 8 0 0 0 1 $T2 $esp .cbLocals + .cbSavedRegs + = $T0 .raSearchStart = $eip $T0 ^ = $esp $T0 4 + =
STACK WIN 4 1b93 1b 6 0 8 4 0 0 1 $T2 $esp .cbLocals + .cbSavedRegs + = $T0 .raSearchStart = $eip $T0 ^ = $esp $T0 4 + =
STACK WIN 4 1bb1 2d 5 0 8 0 8 0 1 $T0 $ebp = $eip $T0 4 + ^ = $ebp $T0 ^ = $esp $T0 8 + = $L $T0 .cbSavedRegs - = $P $T0 8 + .cbParams + =
STACK WIN 4 1bde 5a c 0 0 c 14 0 1 $T0 $ebp = $eip $T0 4 + ^ = $ebp $T0 ^ = $esp $T0 8 + = $L $T0 .cbSavedRegs - = $P $T0 8 + .cbParams + =
STACK WIN 4 1c38 5b c 0 14 c 14 0 1 $T0 $ebp = $eip $T0 4 + ^ = $ebp $T0 ^ = $esp $T0 8 + = $L $T0 .cbSavedRegs - = $P $T0 8 + .cbParams + =
STACK WIN 4 1c93 34 3 0 18 0 0 0 1 $T0 $ebp = $eip $T0 4 + ^ = $ebp $T0 ^ = $esp $T0 8 + = $L $T0 .cbSavedRegs - = $P $T0 8 + .cbParams + =
STACK WIN 4 1ca7 1e 0 0 18 4 0 0 1 $T0 $ebp = $eip $T0 4 + ^ = $ebp $T0 ^ = $esp $T0 8 + = $L $T0 .cbSavedRegs - = $P $T0 8 + .cbParams + =
STACK WIN 4 1cc7 3e 5 0 18 0 4 0 1 $T0 $ebp = $eip $T0 4 + ^ = $ebp $T0 ^ = $esp $T0 8 + = $L $T0 .cbSavedRegs - = $P $T0 8 + .cbParams + =
STACK WIN 4 1ccc 2d 0 0 18 4 4 0 1 $T0 $ebp = $eip $T0 4 + ^ = $ebp $T0 ^ = $esp $T0 8 + = $L $T0 .cbSavedRegs - = $P $T0 8 + .cbParams + =
STACK WIN 4 1d05 85 c 0 18 c 3c 0 1 $T0 $ebp = $eip $T0 4 + ^ = $ebp $T0 ^ = $esp $T0 8 + = $L $T0 .cbSavedRegs - = $P $T0 8 + .cbParams + =
STACK WIN 4 1d8a 1f 7 0 8 0 0 0 1 $T2 $esp .cbLocals + .cbSavedRegs + = $T0 .raSearchStart = $eip $T0 ^ = $esp $T0 4 + =
STACK WIN 4 1d8b 1b 6 0 8 4 0 0 1 $T2 $esp .cbLocals + .cbSavedRegs + = $T0 .raSearchStart = $eip $T0 ^ = $esp $T0 4 + =
STACK WIN 4 1da9 35 10 0 8 0 10 0 1 $T0 $ebp = $eip $T0 4 + ^ = $ebp $T0 ^ = $esp $T0 8 + = $L $T0 .cbSavedRegs - = $P $T0 8 + .cbParams + =
STACK WIN 4 1db0 2a 9 0 8 4 10 0 1 $T0 $ebp = $eip $T0 4 + ^ = $ebp $T0 ^ = $esp $T0 8 + = $L $T0 .cbSavedRegs - = $P $T0 8 + .cbParams + =
STACK WIN 4 1dde 25 3 0 0 0 0 0 1 $T2 $esp .cbLocals + .cbSavedRegs + = $T0 .raSearchStart = $eip $T0 ^ = $esp $T0 4 + =
STACK WIN 4 1ddf 23 2 0 0 4 0 0 1 $T2 $esp .cbLocals + .cbSavedRegs + = $T0 .raSearchStart = $eip $T0 ^ = $esp $T0 4 + =
STACK WIN 4 1e03 154 b 0 10 0 44 0 1 $T0 $ebp = $eip $T0 4 + ^ = $ebp $T0 ^ = $esp $T0 8 + = $L $T0 .cbSavedRegs - = $P $T0 8 + .cbParams + =
STACK WIN 4 1e0a 149 4 0 10 4 44 0 1 $T0 $ebp = $eip $T0 4 + ^ = $ebp $T0 ^ = $esp $T0 8 + = $L $T0 .cbSavedRegs - = $P $T0 8 + .cbParams + = $ebx $T0 72 - ^ =
STACK WIN 4 1e0b 147 3 0 10 8 44 0 1 $T0 $ebp = $eip $T0 4 + ^ = $ebp $T0 ^ = $esp $T0 8 + = $L $T0 .cbSavedRegs - = $P $T0 8 + .cbParams + = $ebx $T0 72 - ^ =
STACK WIN 4 1e0c 145 2 0 10 c 44 0 1 $T0 $ebp = $eip $T0 4 + ^ = $ebp $T0 ^ = $esp $T0 8 + = $L $T0 .cbSavedRegs - = $P $T0 8 + .cbParams + = $ebx $T0 72 - ^ =
STACK WIN 4 1f57 20 4 0 14 0 4 0 1 $T0 $ebp = $eip $T0 4 + ^ = $ebp $T0 ^ = $esp $T0 8 + = $L $T0 .cbSavedRegs - = $P $T0 8 + .cbParams + =
STACK WIN 4 1f77 28 5 0 c 0 4 0 1 $T0 $ebp = $eip $T0 4 + ^ = $ebp $T0 ^ = $esp $T0 8 + = $L $T0 .cbSavedRegs - = $P $T0 8 + .cbParams + =
STACK WIN 4 1f7c 21 0 0 c 4 4 0 1 $T0 $ebp = $eip $T0 4 + ^ = $ebp $T0 ^ = $esp $T0 8 + = $L $T0 .cbSavedRegs - = $P $T0 8 + .cbParams + =
STACK WIN 4 1f9f 5c c 0 18 c 14 0 1 $T0 $ebp = $eip $T0 4 + ^ = $ebp $T0 ^ = $esp $T0 8 + = $L $T0 .cbSavedRegs - = $P $T0 8 + .cbParams + =
STACK WIN 4 1ffb 1a 1 0 10 0 0 0 1 $T2 $esp .cbLocals + .cbSavedRegs + = $T0 .raSearchStart = $eip $T0 ^ = $esp $T0 4 + =
STACK WIN 4 1ffc 18 0 0 10 4 0 0 1 $T2 $esp .cbLocals + .cbSavedRegs + = $T0 .raSearchStart = $eip $T0 ^ = $esp $T0 4 + =
STACK WIN 4 2015 28 5 0 10 0 4 0 1 $T0 $ebp = $eip $T0 4 + ^ = $ebp $T0 ^ = $esp $T0 8 + = $L $T0 .cbSavedRegs - = $P $T0 8 + .cbParams + =
STACK WIN 4 201a 21 0 0 10 4 4 0 1 $T0 $ebp = $eip $T0 4 + ^ = $ebp $T0 ^ = $esp $T0 8 + = $L $T0 .cbSavedRegs - = $P $T0 8 + .cbParams + =
STACK WIN 4 203d 6d 10 0 8 0 10 0 1 $T0 $ebp = $eip $T0 4 + ^ = $ebp $T0 ^ = $esp $T0 8 + = $L $T0 .cbSavedRegs - = $P $T0 8 + .cbParams + =
STACK WIN 4 2044 62 9 0 8 4 10 0 1 $T0 $ebp = $eip $T0 4 + ^ = $ebp $T0 ^ = $esp $T0 8 + = $L $T0 .cbSavedRegs - = $P $T0 8 + .cbParams + =
STACK WIN 4 20aa d5 11 0 8 0 18 0 1 $T0 $ebp = $eip $T0 4 + ^ = $ebp $T0 ^ = $esp $T0 8 + = $L $T0 .cbSavedRegs - = $P $T0 8 + .cbParams + =
STACK WIN 4 20b1 ca a 0 8 4 18 0 1 $T0 $ebp = $eip $T0 4 + ^ = $ebp $T0 ^ = $esp $T0 8 + = $L $T0 .cbSavedRegs - = $P $T0 8 + .cbParams + = $ebx $T0 28 - ^ =
STACK WIN 4 20b8 c2 3 0 8 8 18 0 1 $T0 $ebp = $eip $T0 4 + ^ = $ebp $T0 ^ = $esp $T0 8 + = $L $T0 .cbSavedRegs - = $P $T0 8 + .cbParams + = $ebx $T0 28 - ^ =
STACK WIN 4 20b9 c0 2 0 8 c 18 0 1 $T0 $ebp = $eip $T0 4 + ^ = $ebp $T0 ^ = $esp $T0 8 + = $L $T0 .cbSavedRegs - = $P $T0 8 + .cbParams + = $ebx $T0 28 - ^ =
STACK WIN 4 217f 280 13 0 c 0 48 0 1 $T0 $ebp = $eip $T0 4 + ^ = $ebp $T0 ^ = $esp $T0 8 + = $L $T0 .cbSavedRegs - = $P $T0 8 + .cbParams + =
STACK WIN 4 2186 261 c 0 c 4 48 0 1 $T0 $ebp = $eip $T0 4 + ^ = $ebp $T0 ^ = $esp $T0 8 + = $L $T0 .cbSavedRegs - = $P $T0 8 + .cbParams + = $ebx $T0 76 - ^ =
STACK WIN 4 218e 258 4 0 c 8 48 0 1 $T0 $ebp = $eip $T0 4 + ^ = $ebp $T0 ^ = $esp $T0 8 + = $L $T0 .cbSavedRegs - = $P $T0 8 + .cbParams + = $ebx $T0 76 - ^ =
STACK WIN 4 218f 256 3 0 c c 48 0 1 $T0 $ebp = $eip $T0 4 + ^ = $ebp $T0 ^ = $esp $T0 8 + = $L $T0 .cbSavedRegs - = $P $T0 8 + .cbParams + = $ebx $T0 76 - ^ =
STACK WIN 4 23ff 18 7 0 4 0 0 0 1 $T2 $esp .cbLocals + .cbSavedRegs + = $T0 .raSearchStart = $eip $T0 ^ = $esp $T0 4 + =
STACK WIN 4 2400 14 6 0 4 4 0 0 1 $T2 $esp .cbLocals + .cbSavedRegs + = $T0 .raSearchStart = $eip $T0 ^ = $esp $T0 4 + =
STACK WIN 4 2417 3b d 0 4 0 0 0 1 $T2 $esp .cbLocals + .cbSavedRegs + = $T0 .raSearchStart = $eip $T0 ^ = $esp $T0 4 + =
STACK WIN 4 2418 37 c 0 4 4 0 0 1 $T2 $esp .cbLocals + .cbSavedRegs + = $T0 .raSearchStart = $eip $T0 ^ = $esp $T0 4 + = $ebx $T0 4 - ^ =
STACK WIN 4 2419 35 b 0 4 8 0 0 1 $T2 $esp .cbLocals + .cbSavedRegs + = $T0 .raSearchStart = $eip $T0 ^ = $esp $T0 4 + = $ebx $T0 4 - ^ =
STACK WIN 4 241a 33 a 0 4 c 0 0 1 $T2 $esp .cbLocals + .cbSavedRegs + = $T0 .raSearchStart = $eip $T0 ^ = $esp $T0 4 + = $ebx $T0 4 - ^ =
STACK WIN 4 2452 28 5 0 10 0 4 0 1 $T0 $ebp = $eip $T0 4 + ^ = $ebp $T0 ^ = $esp $T0 8 + = $L $T0 .cbSavedRegs - = $P $T0 8 + .cbParams + =
STACK WIN 4 2457 21 0 0 10 4 4 0 1 $T0 $ebp = $eip $T0 4 + ^ = $ebp $T0 ^ = $esp $T0 8 + = $L $T0 .cbSavedRegs - = $P $T0 8 + .cbParams + =
STACK WIN 4 247a 1a 4 0 c 0 4 0 1 $T0 $ebp = $eip $T0 4 + ^ = $ebp $T0 ^ = $esp $T0 8 + = $L $T0 .cbSavedRegs - = $P $T0 8 + .cbParams + =
STACK WIN 4 2494 18 0 0 c 0 0 0 1 $T2 $esp .cbLocals + .cbSavedRegs + = $T0 .raSearchStart = $eip $T0 ^ = $esp $T0 4 + =
STACK WIN 4 24ac 1a0 9 0 10 0 c 0 1 $T0 $ebp = $eip $T0 4 + ^ = $ebp $T0 ^ = $esp $T0 8 + = $L $T0 .cbSavedRegs - = $P $T0 8 + .cbParams + =
STACK WIN 4 24b3 195 2 0 10 4 c 0 1 $T0 $ebp = $eip $T0 4 + ^ = $ebp $T0 ^ = $esp $T0 8 + = $L $T0 .cbSavedRegs - = $P $T0 8 + .cbParams + =
STACK WIN 4 24d7 170 0 0 10 8 c 0 1 $T0 $ebp = $eip $T0 4 + ^ = $ebp $T0 ^ = $esp $T0 8 + = $L $T0 .cbSavedRegs - = $P $T0 8 + .cbParams + = $ebx $T0 20 - ^ =
STACK WIN 4 24d8 16e 0 0 10 c c 0 1 $T0 $ebp = $eip $T0 4 + ^ = $ebp $T0 ^ = $esp $T0 8 + = $L $T0 .cbSavedRegs - = $P $T0 8 + .cbParams + = $ebx $T0 20 - ^ =
STACK WIN 4 264c 22 3 0 c 0 0 0 1 $T0 $ebp = $eip $T0 4 + ^ = $ebp $T0 ^ = $esp $T0 8 + = $L $T0 .cbSavedRegs - = $P $T0 8 + .cbParams + =
STACK WIN 4 266e 26 4 0 0 0 0 0 1 $T2 $esp .cbLocals + .cbSavedRegs + = $T0 .raSearchStart = $eip $T0 ^ = $esp $T0 4 + =
STACK WIN 4 266f 24 3 0 0 4 0 0 1 $T2 $esp .cbLocals + .cbSavedRegs + = $T0 .raSearchStart = $eip $T0 ^ = $esp $T0 4 + =
STACK WIN 4 2670 1f 2 0 0 8 0 0 1 $T2 $esp .cbLocals + .cbSavedRegs + = $T0 .raSearchStart = $eip $T0 ^ = $esp $T0 4 + =
STACK WIN 4 2694 209 c 0 10 c 40 0 1 $T0 $ebp = $eip $T0 4 + ^ = $ebp $T0 ^ = $esp $T0 8 + = $L $T0 .cbSavedRegs - = $P $T0 8 + .cbParams + =
STACK WIN 4 289d a4 11 0 4 0 64 0 1 $T0 $ebp = $eip $T0 4 + ^ = $ebp $T0 ^ = $esp $T0 8 + = $L $T0 .cbSavedRegs - = $P $T0 8 + .cbParams + =
STACK WIN 4 28a4 99 a 0 4 4 64 0 1 $T0 $ebp = $eip $T0 4 + ^ = $ebp $T0 ^ = $esp $T0 8 + = $L $T0 .cbSavedRegs - = $P $T0 8 + .cbParams + =
STACK WIN 4 28a5 94 9 0 4 8 64 0 1 $T0 $ebp = $eip $T0 4 + ^ = $ebp $T0 ^ = $esp $T0 8 + = $L $T0 .cbSavedRegs - = $P $T0 8 + .cbParams + =
STACK WIN 4 2941 aa 8 0 14 0 8 0 1 $T0 $ebp = $eip $T0 4 + ^ = $ebp $T0 ^ = $esp $T0 8 + = $L $T0 .cbSavedRegs - = $P $T0 8 + .cbParams + =
STACK WIN 4 2947 a0 2 0 14 4 8 0 1 $T0 $ebp = $eip $T0 4 + ^ = $ebp $T0 ^ = $esp $T0 8 + = $L $T0 .cbSavedRegs - = $P $T0 8 + .cbParams + =
STACK WIN 4 29aa 2e 0 0 14 8 8 0 1 $T0 $ebp = $eip $T0 4 + ^ = $ebp $T0 ^ = $esp $T0 8 + = $L $T0 .cbSavedRegs - = $P $T0 8 + .cbParams + = $ebx $T0 16 - ^ =
STACK WIN 4 29ab 2c 0 0 14 c 8 0 1 $T0 $ebp = $eip $T0 4 + ^ = $ebp $T0 ^ = $esp $T0 8 + = $L $T0 .cbSavedRegs - = $P $T0 8 + .cbParams + = $ebx $T0 16 - ^ =
STACK WIN 4 29eb 4e 9 0 0 0 10 0 1 $T0 $ebp = $eip $T0 4 + ^ = $ebp $T0 ^ = $esp $T0 8 + = $L $T0 .cbSavedRegs - = $P $T0 8 + .cbParams + =
STACK WIN 4 29f2 45 2 0 0 4 10 0 1 $T0 $ebp = $eip $T0 4 + ^ = $ebp $T0 ^ = $esp $T0 8 + = $L $T0 .cbSavedRegs - = $P $T0 8 + .cbParams + =
STACK WIN 4 2a39 63 9 0 10 0 8 0 1 $T0 $ebp = $eip $T0 4 + ^ = $ebp $T0 ^ = $esp $T0 8 + = $L $T0 .cbSavedRegs - = $P $T0 8 + .cbParams + =
STACK WIN 4 2a3f 59 3 0 10 4 8 0 1 $T0 $ebp = $eip $T0 4 + ^ = $ebp $T0 ^ = $esp $T0 8 + = $L $T0 .cbSavedRegs - = $P $T0 8 + .cbParams + =
STACK WIN 4 2a40 57 2 0 10 8 8 0 1 $T0 $ebp = $eip $T0 4 + ^ = $ebp $T0 ^ = $esp $T0 8 + = $L $T0 .cbSavedRegs - = $P $T0 8 + .cbParams + =
STACK WIN 4 2a9c 2d 3 0 0 0 0 0 1 $T2 $esp .cbLocals + .cbSavedRegs + = $T0 .raSearchStart = $eip $T0 ^ = $esp $T0 4 + =
STACK WIN 4 2a9d 2b 2 0 0 4 0 0 1 $T2 $esp .cbLocals + .cbSavedRegs + = $T0 .raSearchStart = $eip $T0 ^ = $esp $T0 4 + =
STACK WIN 4 2ac9 f5 24 0 4 0 840 0 1 $T0 $ebp 1984 + = $eip $T0 4 + ^ = $ebp $T0 ^ = $esp $T0 8 + = $L $T0 .cbSavedRegs - = $P $T0 8 + .cbParams + =
STACK WIN 4 2ae5 cc 8 0 4 4 840 0 1 $T0 $ebp 1984 + = $eip $T0 4 + ^ = $ebp $T0 ^ = $esp $T0 8 + = $L $T0 .cbSavedRegs - = $P $T0 8 + .cbParams + = $ebx $T0 2116 - ^ =
STACK WIN 4 2ae6 c8 7 0 4 8 840 0 1 $T0 $ebp 1984 + = $eip $T0 4 + ^ = $ebp $T0 ^ = $esp $T0 8 + = $L $T0 .cbSavedRegs - = $P $T0 8 + .cbParams + = $ebx $T0 2116 - ^ =
STACK WIN 4 2aed c0 0 0 4 c 840 0 1 $T0 $ebp 1984 + = $eip $T0 4 + ^ = $ebp $T0 ^ = $esp $T0 8 + = $L $T0 .cbSavedRegs - = $P $T0 8 + .cbParams + = $ebx $T0 2116 - ^ =
STACK WIN 4 2bbe 147 19 0 c 0 94 0 1 $T0 $ebp 108 + = $eip $T0 4 + ^ = $ebp $T0 ^ = $esp $T0 8 + = $L $T0 .cbSavedRegs - = $P $T0 8 + .cbParams + =
STACK WIN 4 2bd7 124 0 0 c 4 94 0 1 $T0 $ebp 108 + = $eip $T0 4 + ^ = $ebp $T0 ^ = $esp $T0 8 + = $L $T0 .cbSavedRegs - = $P $T0 8 + .cbParams + = $ebx $T0 152 - ^ =
STACK WIN 4 2bf7 f3 0 0 c 8 94 0 1 $T0 $ebp 108 + = $eip $T0 4 + ^ = $ebp $T0 ^ = $esp $T0 8 + = $L $T0 .cbSavedRegs - = $P $T0 8 + .cbParams + = $ebx $T0 152 - ^ =
STACK WIN 4 2bf8 f1 0 0 c c 94 0 1 $T0 $ebp 108 + = $eip $T0 4 + ^ = $ebp $T0 ^ = $esp $T0 8 + = $L $T0 .cbSavedRegs - = $P $T0 8 + .cbParams + = $ebx $T0 152 - ^ =
STACK WIN 4 2d05 43 2 0 c 0 0 0 1 $T2 $esp .cbLocals + .cbSavedRegs + = $T0 .raSearchStart = $eip $T0 ^ = $esp $T0 4 + =
STACK WIN 4 2d06 41 1 0 c 4 0 0 1 $T2 $esp .cbLocals + .cbSavedRegs + = $T0 .raSearchStart = $eip $T0 ^ = $esp $T0 4 + = $ebx $T0 4 - ^ =
STACK WIN 4 2d07 3d 0 0 c 8 0 0 1 $T2 $esp .cbLocals + .cbSavedRegs + = $T0 .raSearchStart = $eip $T0 ^ = $esp $T0 4 + = $ebx $T0 4 - ^ =
STACK WIN 4 2d48 e5 10 0 0 0 40 0 1 $T0 $ebp = $eip $T0 4 + ^ = $ebp $T0 ^ = $esp $T0 8 + = $L $T0 .cbSavedRegs - = $P $T0 8 + .cbParams + =
STACK WIN 4 2d8b 2a 0 0 0 4 40 0 1 $T0 $ebp = $eip $T0 4 + ^ = $ebp $T0 ^ = $esp $T0 8 + = $L $T0 .cbSavedRegs - = $P $T0 8 + .cbParams + = $ebx $T0 68 - ^ =
STACK WIN 4 2d8c 26 0 0 0 8 40 0 1 $T0 $ebp = $eip $T0 4 + ^ = $ebp $T0 ^ = $esp $T0 8 + = $L $T0 .cbSavedRegs - = $P $T0 8 + .cbParams + = $ebx $T0 68 - ^ =
STACK WIN 4 2db8 70 0 0 0 c 40 0 1 $T0 $ebp = $eip $T0 4 + ^ = $ebp $T0 ^ = $esp $T0 8 + = $L $T0 .cbSavedRegs - = $P $T0 8 + .cbParams + = $ebx $T0 68 - ^ =
STACK WIN 4 2e2d 1b3 18 0 4 0 80 0 1 $T0 $ebp = $eip $T0 4 + ^ = $ebp $T0 ^ = $esp $T0 8 + = $L $T0 .cbSavedRegs - = $P $T0 8 + .cbParams + =
STACK WIN 4 2e44 121 1 0 4 4 80 0 1 $T0 $ebp = $eip $T0 4 + ^ = $ebp $T0 ^ = $esp $T0 8 + = $L $T0 .cbSavedRegs - = $P $T0 8 + .cbParams + =
STACK WIN 4 2e45 11d 0 0 4 8 80 0 1 $T0 $ebp = $eip $T0 4 + ^ = $ebp $T0 ^ = $esp $T0 8 + = $L $T0 .cbSavedRegs - = $P $T0 8 + .cbParams + =
STACK WIN 4 2e91 cd 0 0 4 c 80 0 1 $T0 $ebp = $eip $T0 4 + ^ = $ebp $T0 ^ = $esp $T0 8 + = $L $T0 .cbSavedRegs - = $P $T0 8 + .cbParams + = $ebx $T0 140 - ^ =
STACK WIN 4 2fe0 535 28 0 4 0 1078 0 1 $T0 $ebp 4088 + = $eip $T0 4 + ^ = $ebp $T0 ^ = $esp $T0 8 + = $L $T0 .cbSavedRegs - = $P $T0 8 + .cbParams + =
STACK WIN 4 3000 508 8 0 4 4 1078 0 1 $T0 $ebp 4088 + = $eip $T0 4 + ^ = $ebp $T0 ^ = $esp $T0 8 + = $L $T0 .cbSavedRegs - = $P $T0 8 + .cbParams + = $ebx $T0 4220 - ^ =
STACK WIN 4 3001 504 7 0 4 8 1078 0 1 $T0 $ebp 4088 + = $eip $T0 4 + ^ = $ebp $T0 ^ = $esp $T0 8 + = $L $T0 .cbSavedRegs - = $P $T0 8 + .cbParams + = $ebx $T0 4220 - ^ =
STACK WIN 4 3008 4fc 0 0 4 c 1078 0 1 $T0 $ebp 4088 + = $eip $T0 4 + ^ = $ebp $T0 ^ = $esp $T0 8 + = $L $T0 .cbSavedRegs - = $P $T0 8 + .cbParams + = $ebx $T0 4220 - ^ =
STACK WIN 4 3515 50 10 0 4 0 10 0 1 $T0 $ebp = $eip $T0 4 + ^ = $ebp $T0 ^ = $esp $T0 8 + = $L $T0 .cbSavedRegs - = $P $T0 8 + .cbParams + =
STACK WIN 4 351c 45 9 0 4 4 10 0 1 $T0 $ebp = $eip $T0 4 + ^ = $ebp $T0 ^ = $esp $T0 8 + = $L $T0 .cbSavedRegs - = $P $T0 8 + .cbParams + =
STACK WIN 4 3565 55 9 0 4 0 8 0 1 $T0 $ebp = $eip $T0 4 + ^ = $ebp $T0 ^ = $esp $T0 8 + = $L $T0 .cbSavedRegs - = $P $T0 8 + .cbParams + =
STACK WIN 4 356b 4b 3 0 4 4 8 0 1 $T0 $ebp = $eip $T0 4 + ^ = $ebp $T0 ^ = $esp $T0 8 + = $L $T0 .cbSavedRegs - = $P $T0 8 + .cbParams + =
STACK WIN 4 356c 49 2 0 4 8 8 0 1 $T0 $ebp = $eip $T0 4 + ^ = $ebp $T0 ^ = $esp $T0 8 + = $L $T0 .cbSavedRegs - = $P $T0 8 + .cbParams + =
STACK WIN 4 35ba 4e9 20 0 0 0 550 0 1 $T0 $ebp 1232 + = $eip $T0 4 + ^ = $ebp $T0 ^ = $esp $T0 8 + = $L $T0 .cbSavedRegs - = $P $T0 8 + .cbParams + =
STACK WIN 4 35d6 1b9 4 0 0 4 550 0 1 $T0 $ebp 1232 + = $eip $T0 4 + ^ = $ebp $T0 ^ = $esp $T0 8 + = $L $T0 .cbSavedRegs - = $P $T0 8 + .cbParams + = $ebx $T0 1364 - ^ =
STACK WIN 4 35d7 1b5 3 0 0 8 550 0 1 $T0 $ebp 1232 + = $eip $T0 4 + ^ = $ebp $T0 ^ = $esp $T0 8 + = $L $T0 .cbSavedRegs - = $P $T0 8 + .cbParams + = $ebx $T0 1364 - ^ =
STACK WIN 4 35da 1b1 0 0 0 c 550 0 1 $T0 $ebp 1232 + = $eip $T0 4 + ^ = $ebp $T0 ^ = $esp $T0 8 + = $L $T0 .cbSavedRegs - = $P $T0 8 + .cbParams + = $ebx $T0 1364 - ^ =
STACK WIN 4 3aa3 7a 10 0 8 0 20 0 1 $T0 $ebp = $eip $T0 4 + ^ = $ebp $T0 ^ = $esp $T0 8 + = $L $T0 .cbSavedRegs - = $P $T0 8 + .cbParams + =
STACK WIN 4 3b1d 73b 1b 0 8 8 138 0 1 $T0 $ebp 112 + = $eip $T0 4 + ^ = $ebp $T0 ^ = $esp $T0 8 + = $L $T0 .cbSavedRegs - = $P $T0 8 + .cbParams + =
STACK WIN 4 3b33 725 5 0 8 c 138 0 1 $T0 $ebp 112 + = $eip $T0 4 + ^ = $ebp $T0 ^ = $esp $T0 8 + = $L $T0 .cbSavedRegs - = $P $T0 8 + .cbParams + = $ebx $T0 316 - ^ =
STACK WIN 4 4258 10c 9 0 10 0 3c 0 1 $T0 $ebp = $eip $T0 4 + ^ = $ebp $T0 ^ = $esp $T0 8 + = $L $T0 .cbSavedRegs - = $P $T0 8 + .cbParams + =
STACK WIN 4 425f 101 2 0 10 4 3c 0 1 $T0 $ebp = $eip $T0 4 + ^ = $ebp $T0 ^ = $esp $T0 8 + = $L $T0 .cbSavedRegs - = $P $T0 8 + .cbParams + = $ebx $T0 64 - ^ =
STACK WIN 4 4260 ff 1 0 10 8 3c 0 1 $T0 $ebp = $eip $T0 4 + ^ = $ebp $T0 ^ = $esp $T0 8 + = $L $T0 .cbSavedRegs - = $P $T0 8 + .cbParams + = $ebx $T0 64 - ^ =
STACK WIN 4 4261 fd 0 0 10 c 3c 0 1 $T0 $ebp = $eip $T0 4 + ^ = $ebp $T0 ^ = $esp $T0 8 + = $L $T0 .cbSavedRegs - = $P $T0 8 + .cbParams + = $ebx $T0 64 - ^ =
STACK WIN 4 4364 1b 3 0 4 0 0 0 1 $T0 $ebp = $eip $T0 4 + ^ = $ebp $T0 ^ = $esp $T0 8 + = $L $T0 .cbSavedRegs - = $P $T0 8 + .cbParams + =
STACK WIN 4 437f 37 5 0 c 0 8 0 1 $T0 $ebp = $eip $T0 4 + ^ = $ebp $T0 ^ = $esp $T0 8 + = $L $T0 .cbSavedRegs - = $P $T0 8 + .cbParams + =
STACK WIN 4 43b6 65 7 0 8 0 8 0 1 $T0 $ebp = $eip $T0 4 + ^ = $ebp $T0 ^ = $esp $T0 8 + = $L $T0 .cbSavedRegs - = $P $T0 8 + .cbParams + =
STACK WIN 4 43bc 5d 1 0 8 4 8 0 1 $T0 $ebp = $eip $T0 4 + ^ = $ebp $T0 ^ = $esp $T0 8 + = $L $T0 .cbSavedRegs - = $P $T0 8 + .cbParams + = $ebx $T0 12 - ^ =
STACK WIN 4 43bd 59 0 0 8 8 8 0 1 $T0 $ebp = $eip $T0 4 + ^ = $ebp $T0 ^ = $esp $T0 8 + = $L $T0 .cbSavedRegs - = $P $T0 8 + .cbParams + = $ebx $T0 12 - ^ =
STACK WIN 4 441b a2 e 0 c 0 8 0 1 $T0 $ebp = $eip $T0 4 + ^ = $ebp $T0 ^ = $esp $T0 8 + = $L $T0 .cbSavedRegs - = $P $T0 8 + .cbParams + =
STACK WIN 4 4421 9a 8 0 c 4 8 0 1 $T0 $ebp = $eip $T0 4 + ^ = $ebp $T0 ^ = $esp $T0 8 + = $L $T0 .cbSavedRegs - = $P $T0 8 + .cbParams + = $ebx $T0 12 - ^ =
STACK WIN 4 4422 98 7 0 c 8 8 0 1 $T0 $ebp = $eip $T0 4 + ^ = $ebp $T0 ^ = $esp $T0 8 + = $L $T0 .cbSavedRegs - = $P $T0 8 + .cbParams + = $ebx $T0 12 - ^ =
STACK WIN 4 4429 90 0 0 c c 8 0 1 $T0 $ebp = $eip $T0 4 + ^ = $ebp $T0 ^ = $esp $T0 8 + = $L $T0 .cbSavedRegs - = $P $T0 8 + .cbParams + = $ebx $T0 12 - ^ =
STACK WIN 4 44bd 73 1f 0 4 0 100c 0 1 $T0 $ebp 3980 + = $eip $T0 4 + ^ = $ebp $T0 ^ = $esp $T0 8 + = $L $T0 .cbSavedRegs - = $P $T0 8 + .cbParams + =
STACK WIN 4 4530 64 9 0 c 0 4 0 1 $T0 $ebp = $eip $T0 4 + ^ = $ebp $T0 ^ = $esp $T0 8 + = $L $T0 .cbSavedRegs - = $P $T0 8 + .cbParams + =
STACK WIN 4 4538 5a 1 0 c 4 4 0 1 $T0 $ebp = $eip $T0 4 + ^ = $ebp $T0 ^ = $esp $T0 8 + = $L $T0 .cbSavedRegs - = $P $T0 8 + .cbParams + = $ebx $T0 8 - ^ =
STACK WIN 4 4539 56 0 0 c 8 4 0 1 $T0 $ebp = $eip $T0 4 + ^ = $ebp $T0 ^ = $esp $T0 8 + = $L $T0 .cbSavedRegs - = $P $T0 8 + .cbParams + = $ebx $T0 8 - ^ =
STACK WIN 4 4594 90 7 0 4 0 10 0 1 $T0 $ebp = $eip $T0 4 + ^ = $ebp $T0 ^ = $esp $T0 8 + = $L $T0 .cbSavedRegs - = $P $T0 8 + .cbParams + =
STACK WIN 4 459b 87 0 0 4 4 10 0 1 $T0 $ebp = $eip $T0 4 + ^ = $ebp $T0 ^ = $esp $T0 8 + = $L $T0 .cbSavedRegs - = $P $T0 8 + .cbParams + =
STACK WIN 4 45ad 74 0 0 4 8 10 0 1 $T0 $ebp = $eip $T0 4 + ^ = $ebp $T0 ^ = $esp $T0 8 + = $L $T0 .cbSavedRegs - = $P $T0 8 + .cbParams + = $ebx $T0 24 - ^ =
STACK WIN 4 45ae 72 0 0 4 c 10 0 1 $T0 $ebp = $eip $T0 4 + ^ = $ebp $T0 ^ = $esp $T0 8 + = $L $T0 .cbSavedRegs - = $P $T0 8 + .cbParams + = $ebx $T0 24 - ^ =
STACK WIN 4 4624 21 0 0 c 0 0 0 1 $T2 $esp .cbLocals + .cbSavedRegs + = $T0 .raSearchStart = $eip $T0 ^ = $esp $T0 4 + =
STACK WIN 4 4645 22 7 0 8 0 0 0 1 $T2 $esp .cbLocals + .cbSavedRegs + = $T0 .raSearchStart = $eip $T0 ^ = $esp $T0 4 + =
STACK WIN 4 4646 20 6 0 8 4 0 0 1 $T2 $esp .cbLocals + .cbSavedRegs + = $T0 .raSearchStart = $eip $T0 ^ = $esp $T0 4 + = $ebx $T0 4 - ^ =
STACK WIN 4 4667 3a 6 0 8 0 10 0 1 $T0 $ebp = $eip $T0 4 + ^ = $ebp $T0 ^ = $esp $T0 8 + = $L $T0 .cbSavedRegs - = $P $T0 8 + .cbParams + =
STACK WIN 4 46a1 15d 1d 0 4 0 828 0 1 $T0 $ebp 1960 + = $eip $T0 4 + ^ = $ebp $T0 ^ = $esp $T0 8 + = $L $T0 .cbSavedRegs - = $P $T0 8 + .cbParams + =
STACK WIN 4 46bd 134 1 0 4 4 828 0 1 $T0 $ebp 1960 + = $eip $T0 4 + ^ = $ebp $T0 ^ = $esp $T0 8 + = $L $T0 .cbSavedRegs - = $P $T0 8 + .cbParams + =
STACK WIN 4 46be 130 0 0 4 8 828 0 1 $T0 $ebp 1960 + = $eip $T0 4 + ^ = $ebp $T0 ^ = $esp $T0 8 + = $L $T0 .cbSavedRegs - = $P $T0 8 + .cbParams + =
STACK WIN 4 473f 73 0 0 4 c 828 0 1 $T0 $ebp 1960 + = $eip $T0 4 + ^ = $ebp $T0 ^ = $esp $T0 8 + = $L $T0 .cbSavedRegs - = $P $T0 8 + .cbParams + = $ebx $T0 2100 - ^ =
STACK WIN 4 47fe 1a 0 0 4 0 0 0 1 $T2 $esp .cbLocals + .cbSavedRegs + = $T0 .raSearchStart = $eip $T0 ^ = $esp $T0 4 + =
STACK WIN 4 4818 db 24 0 4 0 7e8 0 1 $T0 $ebp 1896 + = $eip $T0 4 + ^ = $ebp $T0 ^ = $esp $T0 8 + = $L $T0 .cbSavedRegs - = $P $T0 8 + .cbParams + =
STACK WIN 4 483a ac 2 0 4 4 7e8 0 1 $T0 $ebp 1896 + = $eip $T0 4 + ^ = $ebp $T0 ^ = $esp $T0 8 + = $L $T0 .cbSavedRegs - = $P $T0 8 + .cbParams + = $ebx $T0 2028 - ^ =
STACK WIN 4 483b a8 1 0 4 8 7e8 0 1 $T0 $ebp 1896 + = $eip $T0 4 + ^ = $ebp $T0 ^ = $esp $T0 8 + = $L $T0 .cbSavedRegs - = $P $T0 8 + .cbParams + = $ebx $T0 2028 - ^ =
STACK WIN 4 483c a4 0 0 4 c 7e8 0 1 $T0 $ebp 1896 + = $eip $T0 4 + ^ = $ebp $T0 ^ = $esp $T0 8 + = $L $T0 .cbSavedRegs - = $P $T0 8 + .cbParams + = $ebx $T0 2028 - ^ =
STACK WIN 4 48f3 279 2c 0 10 0 858 0 1 $T0 $ebp 2008 + = $eip $T0 4 + ^ = $ebp $T0 ^ = $esp $T0 8 + = $L $T0 .cbSavedRegs - = $P $T0 8 + .cbParams + =
STACK WIN 4 490f d7 10 0 10 4 858 0 1 $T0 $ebp 2008 + = $eip $T0 4 + ^ = $ebp $T0 ^ = $esp $T0 8 + = $L $T0 .cbSavedRegs - = $P $T0 8 + .cbParams + = $ebx $T0 2140 - ^ =
STACK WIN 4 4910 d3 f 0 10 8 858 0 1 $T0 $ebp 2008 + = $eip $T0 4 + ^ = $ebp $T0 ^ = $esp $T0 8 + = $L $T0 .cbSavedRegs - = $P $T0 8 + .cbParams + = $ebx $T0 2140 - ^ =
STACK WIN 4 491f c3 0 0 10 c 858 0 1 $T0 $ebp 2008 + = $eip $T0 4 + ^ = $ebp $T0 ^ = $esp $T0 8 + = $L $T0 .cbSavedRegs - = $P $T0 8 + .cbParams + = $ebx $T0 2140 - ^ =
STACK WIN 4 4b6c 117 1f 0 24 0 81c 0 1 $T0 $ebp 1948 + = $eip $T0 4 + ^ = $ebp $T0 ^ = $esp $T0 8 + = $L $T0 .cbSavedRegs - = $P $T0 8 + .cbParams + =
STACK WIN 4 4b88 a9 3 0 24 4 81c 0 1 $T0 $ebp 1948 + = $eip $T0 4 + ^ = $ebp $T0 ^ = $esp $T0 8 + = $L $T0 .cbSavedRegs - = $P $T0 8 + .cbParams + = $ebx $T0 2080 - ^ =
STACK WIN 4 4b8b a3 0 0 24 8 81c 0 1 $T0 $ebp 1948 + = $eip $T0 4 + ^ = $ebp $T0 ^ = $esp $T0 8 + = $L $T0 .cbSavedRegs - = $P $T0 8 + .cbParams + = $ebx $T0 2080 - ^ =
STACK WIN 4 4c83 9e 8 0 4 0 3c 0 1 $T0 $ebp = $eip $T0 4 + ^ = $ebp $T0 ^ = $esp $T0 8 + = $L $T0 .cbSavedRegs - = $P $T0 8 + .cbParams + =
STACK WIN 4 4c8a 95 1 0 4 4 3c 0 1 $T0 $ebp = $eip $T0 4 + ^ = $ebp $T0 ^ = $esp $T0 8 + = $L $T0 .cbSavedRegs - = $P $T0 8 + .cbParams + =
STACK WIN 4 4c8b 93 0 0 4 8 3c 0 1 $T0 $ebp = $eip $T0 4 + ^ = $ebp $T0 ^ = $esp $T0 8 + = $L $T0 .cbSavedRegs - = $P $T0 8 + .cbParams + =
STACK WIN 4 4d21 9b 7 0 4 0 4 0 1 $T2 $esp .cbLocals + .cbSavedRegs + = $T0 .raSearchStart = $eip $T0 ^ = $esp $T0 4 + =
STACK WIN 4 4d23 97 5 0 4 4 4 0 1 $T2 $esp .cbLocals + .cbSavedRegs + = $T0 .raSearchStart = $eip $T0 ^ = $esp $T0 4 + = $ebx $T0 8 - ^ =
STACK WIN 4 4d24 95 4 0 4 8 4 0 1 $T2 $esp .cbLocals + .cbSavedRegs + = $T0 .raSearchStart = $eip $T0 ^ = $esp $T0 4 + = $ebp $T0 12 - ^ = $ebx $T0 8 - ^ =
STACK WIN 4 4d29 8f 0 0 4 c 4 0 1 $T2 $esp .cbLocals + .cbSavedRegs + = $T0 .raSearchStart = $eip $T0 ^ = $esp $T0 4 + = $ebp $T0 12 - ^ = $ebx $T0 8 - ^ =
STACK WIN 4 4d2a 8d 0 0 4 10 4 0 1 $T2 $esp .cbLocals + .cbSavedRegs + = $T0 .raSearchStart = $eip $T0 ^ = $esp $T0 4 + = $ebp $T0 12 - ^ = $ebx $T0 8 - ^ =
STACK WIN 4 4dbc a6 13 0 10 0 8 0 1 $T0 $ebp = $eip $T0 4 + ^ = $ebp $T0 ^ = $esp $T0 8 + = $L $T0 .cbSavedRegs - = $P $T0 8 + .cbParams + =
STACK WIN 4 4dc6 9a 9 0 10 4 8 0 1 $T0 $ebp = $eip $T0 4 + ^ = $ebp $T0 ^ = $esp $T0 8 + = $L $T0 .cbSavedRegs - = $P $T0 8 + .cbParams + = $ebx $T0 12 - ^ =
STACK WIN 4 4dcf 90 0 0 10 8 8 0 1 $T0 $ebp = $eip $T0 4 + ^ = $ebp $T0 ^ = $esp $T0 8 + = $L $T0 .cbSavedRegs - = $P $T0 8 + .cbParams + = $ebx $T0 12 - ^ =
STACK WIN 4 4dd2 75 0 0 10 c 8 0 1 $T0 $ebp = $eip $T0 4 + ^ = $ebp $T0 ^ = $esp $T0 8 + = $L $T0 .cbSavedRegs - = $P $T0 8 + .cbParams + = $ebx $T0 12 - ^ =
STACK WIN 4 4e62 de 10 0 8 0 34 0 1 $T0 $ebp = $eip $T0 4 + ^ = $ebp $T0 ^ = $esp $T0 8 + = $L $T0 .cbSavedRegs - = $P $T0 8 + .cbParams + =
STACK WIN 4 4e8d ac 0 0 8 4 34 0 1 $T0 $ebp = $eip $T0 4 + ^ = $ebp $T0 ^ = $esp $T0 8 + = $L $T0 .cbSavedRegs - = $P $T0 8 + .cbParams + =
STACK WIN 4 4e94 a2 0 0 8 8 34 0 1 $T0 $ebp = $eip $T0 4 + ^ = $ebp $T0 ^ = $esp $T0 8 + = $L $T0 .cbSavedRegs - = $P $T0 8 + .cbParams + =
STACK WIN 4 4f40 e5 10 0 c 0 38 0 1 $T0 $ebp = $eip $T0 4 + ^ = $ebp $T0 ^ = $esp $T0 8 + = $L $T0 .cbSavedRegs - = $P $T0 8 + .cbParams + =
STACK WIN 4 4f79 a5 0 0 c 4 38 0 1 $T0 $ebp = $eip $T0 4 + ^ = $ebp $T0 ^ = $esp $T0 8 + = $L $T0 .cbSavedRegs - = $P $T0 8 + .cbParams + = $ebx $T0 60 - ^ =
STACK WIN 4 4f7a a1 0 0 c 8 38 0 1 $T0 $ebp = $eip $T0 4 + ^ = $ebp $T0 ^ = $esp $T0 8 + = $L $T0 .cbSavedRegs - = $P $T0 8 + .cbParams + = $ebx $T0 60 - ^ =
STACK WIN 4 4f81 99 0 0 c c 38 0 1 $T0 $ebp = $eip $T0 4 + ^ = $ebp $T0 ^ = $esp $T0 8 + = $L $T0 .cbSavedRegs - = $P $T0 8 + .cbParams + = $ebx $T0 60 - ^ =
STACK WIN 4 5025 1 0 0 0 0 0 0 1 $T2 $esp .cbLocals + .cbSavedRegs + = $T0 .raSearchStart = $eip $T0 ^ = $esp $T0 4 + =
STACK WIN 4 5026 ad 1c 0 4 0 244 0 1 $T0 $ebp 452 + = $eip $T0 4 + ^ = $ebp $T0 ^ = $esp $T0 8 + = $L $T0 .cbSavedRegs - = $P $T0 8 + .cbParams + =
STACK WIN 4 5042 84 0 0 4 4 244 0 1 $T0 $ebp 452 + = $eip $T0 4 + ^ = $ebp $T0 ^ = $esp $T0 8 + = $L $T0 .cbSavedRegs - = $P $T0 8 + .cbParams + =
STACK WIN 4 50d3 16c 2a 0 c 0 258 0 1 $T0 $ebp 472 + = $eip $T0 4 + ^ = $ebp $T0 ^ = $esp $T0 8 + = $L $T0 .cbSavedRegs - = $P $T0 8 + .cbParams + =
STACK WIN 4 50f5 13d 8 0 c 4 258 0 1 $T0 $ebp 472 + = $eip $T0 4 + ^ = $ebp $T0 ^ = $esp $T0 8 + = $L $T0 .cbSavedRegs - = $P $T0 8 + .cbParams + = $ebx $T0 604 - ^ =
STACK WIN 4 50fc 133 1 0 c 8 258 0 1 $T0 $ebp 472 + = $eip $T0 4 + ^ = $ebp $T0 ^ = $esp $T0 8 + = $L $T0 .cbSavedRegs - = $P $T0 8 + .cbParams + = $ebx $T0 604 - ^ =
STACK WIN 4 50fd 131 0 0 c c 258 0 1 $T0 $ebp 472 + = $eip $T0 4 + ^ = $ebp $T0 ^ = $esp $T0 8 + = $L $T0 .cbSavedRegs - = $P $T0 8 + .cbParams + = $ebx $T0 604 - ^ =
STACK WIN 4 523f 59 7 0 4 0 1c 0 1 $T0 $ebp = $eip $T0 4 + ^ = $ebp $T0 ^ = $esp $T0 8 + = $L $T0 .cbSavedRegs - = $P $T0 8 + .cbParams + =
STACK WIN 4 5246 3b 0 0 4 4 1c 0 1 $T0 $ebp = $eip $T0 4 + ^ = $ebp $T0 ^ = $esp $T0 8 + = $L $T0 .cbSavedRegs - = $P $T0 8 + .cbParams + = $ebx $T0 32 - ^ =
STACK WIN 4 5298 44 7 0 4 0 1c 0 1 $T0 $ebp = $eip $T0 4 + ^ = $ebp $T0 ^ = $esp $T0 8 + = $L $T0 .cbSavedRegs - = $P $T0 8 + .cbParams + =
STACK WIN 4 529f 15 0 0 4 4 1c 0 1 $T0 $ebp = $eip $T0 4 + ^ = $ebp $T0 ^ = $esp $T0 8 + = $L $T0 .cbSavedRegs - = $P $T0 8 + .cbParams + = $ebx $T0 32 - ^ =
STACK WIN 4 52bf 1b 0 0 4 8 1c 0 1 $T0 $ebp = $eip $T0 4 + ^ = $ebp $T0 ^ = $esp $T0 8 + = $L $T0 .cbSavedRegs - = $P $T0 8 + .cbParams + = $ebx $T0 32 - ^ =
STACK WIN 4 52dc 81 7 0 8 0 38 0 1 $T0 $ebp = $eip $T0 4 + ^ = $ebp $T0 ^ = $esp $T0 8 + = $L $T0 .cbSavedRegs - = $P $T0 8 + .cbParams + =
STACK WIN 4 52e3 78 0 0 8 4 38 0 1 $T0 $ebp = $eip $T0 4 + ^ = $ebp $T0 ^ = $esp $T0 8 + = $L $T0 .cbSavedRegs - = $P $T0 8 + .cbParams + = $ebx $T0 60 - ^ =
STACK WIN 4 52fb 5f 0 0 8 8 38 0 1 $T0 $ebp = $eip $T0 4 + ^ = $ebp $T0 ^ = $esp $T0 8 + = $L $T0 .cbSavedRegs - = $P $T0 8 + .cbParams + = $ebx $T0 60 - ^ =
STACK WIN 4 535d 43 7 0 4 0 1c 0 1 $T0 $ebp = $eip $T0 4 + ^ = $ebp $T0 ^ = $esp $T0 8 + = $L $T0 .cbSavedRegs - = $P $T0 8 + .cbParams + =
STACK WIN 4 5364 3a 0 0 4 4 1c 0 1 $T0 $ebp = $eip $T0 4 + ^ = $ebp $T0 ^ = $esp $T0 8 + = $L $T0 .cbSavedRegs - = $P $T0 8 + .cbParams + = $ebx $T0 32 - ^ =
STACK WIN 4 53a0 68 7 0 4 0 1c 0 1 $T0 $ebp = $eip $T0 4 + ^ = $ebp $T0 ^ = $esp $T0 8 + = $L $T0 .cbSavedRegs - = $P $T0 8 + .cbParams + =
STACK WIN 4 53a7 5f 0 0 4 4 1c 0 1 $T0 $ebp = $eip $T0 4 + ^ = $ebp $T0 ^ = $esp $T0 8 + = $L $T0 .cbSavedRegs - = $P $T0 8 + .cbParams + =
STACK WIN 4 53ce 15 0 0 4 8 1c 0 1 $T0 $ebp = $eip $T0 4 + ^ = $ebp $T0 ^ = $esp $T0 8 + = $L $T0 .cbSavedRegs - = $P $T0 8 + .cbParams + = $ebx $T0 36 - ^ =
STACK WIN 4 5408 20 1 0 4 0 0 0 1 $T2 $esp .cbLocals + .cbSavedRegs + = $T0 .raSearchStart = $eip $T0 ^ = $esp $T0 4 + =
STACK WIN 4 5409 1c 0 0 4 4 0 0 1 $T2 $esp .cbLocals + .cbSavedRegs + = $T0 .raSearchStart = $eip $T0 ^ = $esp $T0 4 + =
STACK WIN 4 5428 76 7 0 8 0 1c 0 1 $T0 $ebp = $eip $T0 4 + ^ = $ebp $T0 ^ = $esp $T0 8 + = $L $T0 .cbSavedRegs - = $P $T0 8 + .cbParams + =
STACK WIN 4 542f 6d 0 0 8 4 1c 0 1 $T0 $ebp = $eip $T0 4 + ^ = $ebp $T0 ^ = $esp $T0 8 + = $L $T0 .cbSavedRegs - = $P $T0 8 + .cbParams + =
STACK WIN 4 5456 15 0 0 8 8 1c 0 1 $T0 $ebp = $eip $T0 4 + ^ = $ebp $T0 ^ = $esp $T0 8 + = $L $T0 .cbSavedRegs - = $P $T0 8 + .cbParams + = $ebx $T0 36 - ^ =
STACK WIN 4 549e 20 1 0 4 0 0 0 1 $T2 $esp .cbLocals + .cbSavedRegs + = $T0 .raSearchStart = $eip $T0 ^ = $esp $T0 4 + =
STACK WIN 4 549f 1c 0 0 4 4 0 0 1 $T2 $esp .cbLocals + .cbSavedRegs + = $T0 .raSearchStart = $eip $T0 ^ = $esp $T0 4 + =
STACK WIN 4 54be 18 0 0 8 0 0 0 1 $T2 $esp .cbLocals + .cbSavedRegs + = $T0 .raSearchStart = $eip $T0 ^ = $esp $T0 4 + =
STACK WIN 4 54d6 22 3 0 4 0 0 0 1 $T2 $esp .cbLocals + .cbSavedRegs + = $T0 .raSearchStart = $eip $T0 ^ = $esp $T0 4 + =
STACK WIN 4 54d7 1e 2 0 4 4 0 0 1 $T2 $esp .cbLocals + .cbSavedRegs + = $T0 .raSearchStart = $eip $T0 ^ = $esp $T0 4 + =
STACK WIN 4 54f8 16 0 0 0 0 0 0 1 $T2 $esp .cbLocals + .cbSavedRegs + = $T0 .raSearchStart = $eip $T0 ^ = $esp $T0 4 + =
STACK WIN 4 550e 15 3 0 0 0 0 0 1 $T2 $esp .cbLocals + .cbSavedRegs + = $T0 .raSearchStart = $eip $T0 ^ = $esp $T0 4 + =
STACK WIN 4 550f e 2 0 0 4 0 0 1 $T2 $esp .cbLocals + .cbSavedRegs + = $T0 .raSearchStart = $eip $T0 ^ = $esp $T0 4 + =
STACK WIN 4 5523 20 7 0 8 0 0 0 1 $T2 $esp .cbLocals + .cbSavedRegs + = $T0 .raSearchStart = $eip $T0 ^ = $esp $T0 4 + =
STACK WIN 4 5524 1c 6 0 8 4 0 0 1 $T2 $esp .cbLocals + .cbSavedRegs + = $T0 .raSearchStart = $eip $T0 ^ = $esp $T0 4 + =
STACK WIN 4 5543 16 0 0 0 0 0 0 1 $T2 $esp .cbLocals + .cbSavedRegs + = $T0 .raSearchStart = $eip $T0 ^ = $esp $T0 4 + =
STACK WIN 4 5559 26 3 0 0 0 0 0 1 $T2 $esp .cbLocals + .cbSavedRegs + = $T0 .raSearchStart = $eip $T0 ^ = $esp $T0 4 + =
STACK WIN 4 555a 24 2 0 0 4 0 0 1 $T2 $esp .cbLocals + .cbSavedRegs + = $T0 .raSearchStart = $eip $T0 ^ = $esp $T0 4 + =
STACK WIN 4 5560 1b 0 0 0 8 0 0 1 $T2 $esp .cbLocals + .cbSavedRegs + = $T0 .raSearchStart = $eip $T0 ^ = $esp $T0 4 + =
STACK WIN 4 557f 23 3 0 0 0 0 0 1 $T2 $esp .cbLocals + .cbSavedRegs + = $T0 .raSearchStart = $eip $T0 ^ = $esp $T0 4 + =
STACK WIN 4 5580 21 2 0 0 4 0 0 1 $T2 $esp .cbLocals + .cbSavedRegs + = $T0 .raSearchStart = $eip $T0 ^ = $esp $T0 4 + =
STACK WIN 4 5586 1a 0 0 0 8 0 0 1 $T2 $esp .cbLocals + .cbSavedRegs + = $T0 .raSearchStart = $eip $T0 ^ = $esp $T0 4 + =
STACK WIN 4 55a2 24 7 0 4 0 0 0 1 $T2 $esp .cbLocals + .cbSavedRegs + = $T0 .raSearchStart = $eip $T0 ^ = $esp $T0 4 + =
STACK WIN 4 55a7 1c 2 0 4 4 0 0 1 $T2 $esp .cbLocals + .cbSavedRegs + = $T0 .raSearchStart = $eip $T0 ^ = $esp $T0 4 + =
STACK WIN 4 55c6 65 4 0 0 0 0 0 1 $T2 $esp .cbLocals + .cbSavedRegs + = $T0 .raSearchStart = $eip $T0 ^ = $esp $T0 4 + =
STACK WIN 4 55c7 63 3 0 0 4 0 0 1 $T2 $esp .cbLocals + .cbSavedRegs + = $T0 .raSearchStart = $eip $T0 ^ = $esp $T0 4 + = $ebx $T0 4 - ^ =
STACK WIN 4 55c8 61 2 0 0 8 0 0 1 $T2 $esp .cbLocals + .cbSavedRegs + = $T0 .raSearchStart = $eip $T0 ^ = $esp $T0 4 + = $ebx $T0 4 - ^ =
STACK WIN 4 55cf 59 0 0 0 c 0 0 1 $T2 $esp .cbLocals + .cbSavedRegs + = $T0 .raSearchStart = $eip $T0 ^ = $esp $T0 4 + = $ebx $T0 4 - ^ =
STACK WIN 4 562b 29 3 0 4 0 0 0 1 $T2 $esp .cbLocals + .cbSavedRegs + = $T0 .raSearchStart = $eip $T0 ^ = $esp $T0 4 + =
STACK WIN 4 562c 25 2 0 4 4 0 0 1 $T2 $esp .cbLocals + .cbSavedRegs + = $T0 .raSearchStart = $eip $T0 ^ = $esp $T0 4 + =
STACK WIN 4 5633 1b 0 0 4 8 0 0 1 $T2 $esp .cbLocals + .cbSavedRegs + = $T0 .raSearchStart = $eip $T0 ^ = $esp $T0 4 + =
STACK WIN 4 5654 2c 5 0 14 0 0 0 1 $T0 $ebp = $eip $T0 4 + ^ = $ebp $T0 ^ = $esp $T0 8 + = $L $T0 .cbSavedRegs - = $P $T0 8 + .cbParams + =
STACK WIN 4 5680 65 4 0 0 0 0 0 1 $T2 $esp .cbLocals + .cbSavedRegs + = $T0 .raSearchStart = $eip $T0 ^ = $esp $T0 4 + =
STACK WIN 4 5681 63 3 0 0 4 0 0 1 $T2 $esp .cbLocals + .cbSavedRegs + = $T0 .raSearchStart = $eip $T0 ^ = $esp $T0 4 + = $ebx $T0 4 - ^ =
STACK WIN 4 5682 61 2 0 0 8 0 0 1 $T2 $esp .cbLocals + .cbSavedRegs + = $T0 .raSearchStart = $eip $T0 ^ = $esp $T0 4 + = $ebx $T0 4 - ^ =
STACK WIN 4 5689 59 0 0 0 c 0 0 1 $T2 $esp .cbLocals + .cbSavedRegs + = $T0 .raSearchStart = $eip $T0 ^ = $esp $T0 4 + = $ebx $T0 4 - ^ =
STACK WIN 4 56e5 37 b 0 4 0 0 0 1 $T2 $esp .cbLocals + .cbSavedRegs + = $T0 .raSearchStart = $eip $T0 ^ = $esp $T0 4 + =
STACK WIN 4 56e6 33 a 0 4 4 0 0 1 $T2 $esp .cbLocals + .cbSavedRegs + = $T0 .raSearchStart = $eip $T0 ^ = $esp $T0 4 + = $ebx $T0 4 - ^ =
STACK WIN 4 56ed 2b 3 0 4 8 0 0 1 $T2 $esp .cbLocals + .cbSavedRegs + = $T0 .raSearchStart = $eip $T0 ^ = $esp $T0 4 + = $ebx $T0 4 - ^ =
STACK WIN 4 56ee 29 2 0 4 c 0 0 1 $T2 $esp .cbLocals + .cbSavedRegs + = $T0 .raSearchStart = $eip $T0 ^ = $esp $T0 4 + = $ebx $T0 4 - ^ =
STACK WIN 4 571c 23 9 0 4 0 0 0 1 $T2 $esp .cbLocals + .cbSavedRegs + = $T0 .raSearchStart = $eip $T0 ^ = $esp $T0 4 + =
STACK WIN 4 571d 1f 8 0 4 4 0 0 1 $T2 $esp .cbLocals + .cbSavedRegs + = $T0 .raSearchStart = $eip $T0 ^ = $esp $T0 4 + =
STACK WIN 4 571e 1b 7 0 4 8 0 0 1 $T2 $esp .cbLocals + .cbSavedRegs + = $T0 .raSearchStart = $eip $T0 ^ = $esp $T0 4 + =
STACK WIN 4 573f 4e 9 0 8 0 c 0 1 $T0 $ebp = $eip $T0 4 + ^ = $ebp $T0 ^ = $esp $T0 8 + = $L $T0 .cbSavedRegs - = $P $T0 8 + .cbParams + =
STACK WIN 4 578d 4e 9 0 8 0 c 0 1 $T0 $ebp = $eip $T0 4 + ^ = $ebp $T0 ^ = $esp $T0 8 + = $L $T0 .cbSavedRegs - = $P $T0 8 + .cbParams + =
STACK WIN 4 57db 24 7 0 4 0 0 0 1 $T2 $esp .cbLocals + .cbSavedRegs + = $T0 .raSearchStart = $eip $T0 ^ = $esp $T0 4 + =
STACK WIN 4 57e0 1c 2 0 4 4 0 0 1 $T2 $esp .cbLocals + .cbSavedRegs + = $T0 .raSearchStart = $eip $T0 ^ = $esp $T0 4 + =
STACK WIN 4 57ff 25 4 0 18 0 0 0 1 $T0 $ebp = $eip $T0 4 + ^ = $ebp $T0 ^ = $esp $T0 8 + = $L $T0 .cbSavedRegs - = $P $T0 8 + .cbParams + =
STACK WIN 4 5803 1f 0 0 18 4 0 0 1 $T0 $ebp = $eip $T0 4 + ^ = $ebp $T0 ^ = $esp $T0 8 + = $L $T0 .cbSavedRegs - = $P $T0 8 + .cbParams + =
STACK WIN 4 5824 20 3 0 4 0 0 0 1 $T2 $esp .cbLocals + .cbSavedRegs + = $T0 .raSearchStart = $eip $T0 ^ = $esp $T0 4 + =
STACK WIN 4 5825 1c 2 0 4 4 0 0 1 $T2 $esp .cbLocals + .cbSavedRegs + = $T0 .raSearchStart = $eip $T0 ^ = $esp $T0 4 + =
STACK WIN 4 5844 27 4 0 18 0 0 0 1 $T0 $ebp = $eip $T0 4 + ^ = $ebp $T0 ^ = $esp $T0 8 + = $L $T0 .cbSavedRegs - = $P $T0 8 + .cbParams + =
STACK WIN 4 5848 21 0 0 18 4 0 0 1 $T0 $ebp = $eip $T0 4 + ^ = $ebp $T0 ^ = $esp $T0 8 + = $L $T0 .cbSavedRegs - = $P $T0 8 + .cbParams + =
STACK WIN 4 586b 4b 15 0 8 0 28 0 1 $T0 $ebp = $eip $T0 4 + ^ = $ebp $T0 ^ = $esp $T0 8 + = $L $T0 .cbSavedRegs - = $P $T0 8 + .cbParams + =
STACK WIN 4 587c 33 4 0 8 4 28 0 1 $T0 $ebp = $eip $T0 4 + ^ = $ebp $T0 ^ = $esp $T0 8 + = $L $T0 .cbSavedRegs - = $P $T0 8 + .cbParams + =
STACK WIN 4 5880 2c 0 0 8 8 28 0 1 $T0 $ebp = $eip $T0 4 + ^ = $ebp $T0 ^ = $esp $T0 8 + = $L $T0 .cbSavedRegs - = $P $T0 8 + .cbParams + =
STACK WIN 4 58b6 76 19 0 34 0 8 0 1 $T0 $ebp = $eip $T0 4 + ^ = $ebp $T0 ^ = $esp $T0 8 + = $L $T0 .cbSavedRegs - = $P $T0 8 + .cbParams + =
STACK WIN 4 58bf 6b 10 0 34 4 8 0 1 $T0 $ebp = $eip $T0 4 + ^ = $ebp $T0 ^ = $esp $T0 8 + = $L $T0 .cbSavedRegs - = $P $T0 8 + .cbParams + = $ebx $T0 12 - ^ =
STACK WIN 4 58ca 5f 5 0 34 8 8 0 1 $T0 $ebp = $eip $T0 4 + ^ = $ebp $T0 ^ = $esp $T0 8 + = $L $T0 .cbSavedRegs - = $P $T0 8 + .cbParams + = $ebx $T0 12 - ^ =
STACK WIN 4 58cf 59 0 0 34 c 8 0 1 $T0 $ebp = $eip $T0 4 + ^ = $ebp $T0 ^ = $esp $T0 8 + = $L $T0 .cbSavedRegs - = $P $T0 8 + .cbParams + = $ebx $T0 12 - ^ =
STACK WIN 4 592c e1 1b 0 14 0 3c 0 1 $T0 $ebp = $eip $T0 4 + ^ = $ebp $T0 ^ = $esp $T0 8 + = $L $T0 .cbSavedRegs - = $P $T0 8 + .cbParams + =
STACK WIN 4 5940 c6 7 0 14 4 3c 0 1 $T0 $ebp = $eip $T0 4 + ^ = $ebp $T0 ^ = $esp $T0 8 + = $L $T0 .cbSavedRegs - = $P $T0 8 + .cbParams + = $ebx $T0 64 - ^ =
STACK WIN 4 5941 c2 6 0 14 8 3c 0 1 $T0 $ebp = $eip $T0 4 + ^ = $ebp $T0 ^ = $esp $T0 8 + = $L $T0 .cbSavedRegs - = $P $T0 8 + .cbParams + = $ebx $T0 64 - ^ =
STACK WIN 4 5947 bb 0 0 14 c 3c 0 1 $T0 $ebp = $eip $T0 4 + ^ = $ebp $T0 ^ = $esp $T0 8 + = $L $T0 .cbSavedRegs - = $P $T0 8 + .cbParams + = $ebx $T0 64 - ^ =
STACK WIN 4 5a0d ef 14 0 0 0 80 0 1 $T0 $ebp = $eip $T0 4 + ^ = $ebp $T0 ^ = $esp $T0 8 + = $L $T0 .cbSavedRegs - = $P $T0 8 + .cbParams + =
STACK WIN 4 5a21 d4 0 0 0 4 80 0 1 $T0 $ebp = $eip $T0 4 + ^ = $ebp $T0 ^ = $esp $T0 8 + = $L $T0 .cbSavedRegs - = $P $T0 8 + .cbParams + = $ebx $T0 132 - ^ =
STACK WIN 4 5afc f3 12 0 4 0 48 0 1 $T0 $ebp = $eip $T0 4 + ^ = $ebp $T0 ^ = $esp $T0 8 + = $L $T0 .cbSavedRegs - = $P $T0 8 + .cbParams + =
STACK WIN 4 5b0d d9 1 0 4 4 48 0 1 $T0 $ebp = $eip $T0 4 + ^ = $ebp $T0 ^ = $esp $T0 8 + = $L $T0 .cbSavedRegs - = $P $T0 8 + .cbParams + = $ebx $T0 76 - ^ =
STACK WIN 4 5b0e d3 0 0 4 8 48 0 1 $T0 $ebp = $eip $T0 4 + ^ = $ebp $T0 ^ = $esp $T0 8 + = $L $T0 .cbSavedRegs - = $P $T0 8 + .cbParams + = $ebx $T0 76 - ^ =
STACK WIN 4 5ba5 18 0 0 4 c 48 0 1 $T0 $ebp = $eip $T0 4 + ^ = $ebp $T0 ^ = $esp $T0 8 + = $L $T0 .cbSavedRegs - = $P $T0 8 + .cbParams + = $ebx $T0 76 - ^ =
STACK WIN 4 5bef 121 17 0 0 0 cc 0 1 $T0 $ebp 120 + = $eip $T0 4 + ^ = $ebp $T0 ^ = $esp $T0 8 + = $L $T0 .cbSavedRegs - = $P $T0 8 + .cbParams + =
STACK WIN 4 5c05 101 1 0 0 4 cc 0 1 $T0 $ebp 120 + = $eip $T0 4 + ^ = $ebp $T0 ^ = $esp $T0 8 + = $L $T0 .cbSavedRegs - = $P $T0 8 + .cbParams + =
STACK WIN 4 5c06 fd 0 0 0 8 cc 0 1 $T0 $ebp 120 + = $eip $T0 4 + ^ = $ebp $T0 ^ = $esp $T0 8 + = $L $T0 .cbSavedRegs - = $P $T0 8 + .cbParams + =
STACK WIN 4 5c25 71 0 0 0 c cc 0 1 $T0 $ebp 120 + = $eip $T0 4 + ^ = $ebp $T0 ^ = $esp $T0 8 + = $L $T0 .cbSavedRegs - = $P $T0 8 + .cbParams + = $ebx $T0 216 - ^ =
STACK WIN 4 5d10 26 3 0 0 0 0 0 1 $T2 $esp .cbLocals + .cbSavedRegs + = $T0 .raSearchStart = $eip $T0 ^ = $esp $T0 4 + =
STACK WIN 4 5d11 24 2 0 0 4 0 0 1 $T2 $esp .cbLocals + .cbSavedRegs + = $T0 .raSearchStart = $eip $T0 ^ = $esp $T0 4 + =
STACK WIN 4 5d17 1a 0 0 0 8 0 0 1 $T2 $esp .cbLocals + .cbSavedRegs + = $T0 .raSearchStart = $eip $T0 ^ = $esp $T0 4 + =
STACK WIN 4 5d36 36 8 0 4 0 0 0 1 $T2 $esp .cbLocals + .cbSavedRegs + = $T0 .raSearchStart = $eip $T0 ^ = $esp $T0 4 + =
STACK WIN 4 5d3a 2f 4 0 4 4 0 0 1 $T2 $esp .cbLocals + .cbSavedRegs + = $T0 .raSearchStart = $eip $T0 ^ = $esp $T0 4 + =
STACK WIN 4 5d3e 2a 0 0 4 8 0 0 1 $T2 $esp .cbLocals + .cbSavedRegs + = $T0 .raSearchStart = $eip $T0 ^ = $esp $T0 4 + =
STACK WIN 4 5d6c 42 8 0 4 0 0 0 1 $T2 $esp .cbLocals + .cbSavedRegs + = $T0 .raSearchStart = $eip $T0 ^ = $esp $T0 4 + =
STACK WIN 4 5d74 1d 0 0 4 4 0 0 1 $T2 $esp .cbLocals + .cbSavedRegs + = $T0 .raSearchStart = $eip $T0 ^ = $esp $T0 4 + =
STACK WIN 4 5dae 44 7 0 4 0 0 0 1 $T2 $esp .cbLocals + .cbSavedRegs + = $T0 .raSearchStart = $eip $T0 ^ = $esp $T0 4 + =
STACK WIN 4 5db5 1e 0 0 4 4 0 0 1 $T2 $esp .cbLocals + .cbSavedRegs + = $T0 .raSearchStart = $eip $T0 ^ = $esp $T0 4 + =
STACK WIN 4 5df2 51 4 0 0 0 0 0 1 $T2 $esp .cbLocals + .cbSavedRegs + = $T0 .raSearchStart = $eip $T0 ^ = $esp $T0 4 + =
STACK WIN 4 5df3 4f 3 0 0 4 0 0 1 $T2 $esp .cbLocals + .cbSavedRegs + = $T0 .raSearchStart = $eip $T0 ^ = $esp $T0 4 + = $ebx $T0 4 - ^ =
STACK WIN 4 5df4 4d 2 0 0 8 0 0 1 $T2 $esp .cbLocals + .cbSavedRegs + = $T0 .raSearchStart = $eip $T0 ^ = $esp $T0 4 + = $ebx $T0 4 - ^ =
STACK WIN 4 5dfb 45 0 0 0 c 0 0 1 $T2 $esp .cbLocals + .cbSavedRegs + = $T0 .raSearchStart = $eip $T0 ^ = $esp $T0 4 + = $ebx $T0 4 - ^ =
STACK WIN 4 5e43 25 7 0 8 0 0 0 1 $T2 $esp .cbLocals + .cbSavedRegs + = $T0 .raSearchStart = $eip $T0 ^ = $esp $T0 4 + =
STACK WIN 4 5e48 1d 2 0 8 4 0 0 1 $T2 $esp .cbLocals + .cbSavedRegs + = $T0 .raSearchStart = $eip $T0 ^ = $esp $T0 4 + =
STACK WIN 4 5e4e 14 0 0 8 8 0 0 1 $T2 $esp .cbLocals + .cbSavedRegs + = $T0 .raSearchStart = $eip $T0 ^ = $esp $T0 4 + =
STACK WIN 4 5e68 31 d 0 8 0 0 0 1 $T2 $esp .cbLocals + .cbSavedRegs + = $T0 .raSearchStart = $eip $T0 ^ = $esp $T0 4 + =
STACK WIN 4 5e69 2d c 0 8 4 0 0 1 $T2 $esp .cbLocals + .cbSavedRegs + = $T0 .raSearchStart = $eip $T0 ^ = $esp $T0 4 + = $ebx $T0 4 - ^ =
STACK WIN 4 5e6e 27 7 0 8 8 0 0 1 $T2 $esp .cbLocals + .cbSavedRegs + = $T0 .raSearchStart = $eip $T0 ^ = $esp $T0 4 + = $ebx $T0 4 - ^ =
STACK WIN 4 5e6f 20 6 0 8 c 0 0 1 $T2 $esp .cbLocals + .cbSavedRegs + = $T0 .raSearchStart = $eip $T0 ^ = $esp $T0 4 + = $ebx $T0 4 - ^ =
STACK WIN 4 5e99 36 8 0 4 0 0 0 1 $T2 $esp .cbLocals + .cbSavedRegs + = $T0 .raSearchStart = $eip $T0 ^ = $esp $T0 4 + =
STACK WIN 4 5e9d 2f 4 0 4 4 0 0 1 $T2 $esp .cbLocals + .cbSavedRegs + = $T0 .raSearchStart = $eip $T0 ^ = $esp $T0 4 + =
STACK WIN 4 5ea1 2a 0 0 4 8 0 0 1 $T2 $esp .cbLocals + .cbSavedRegs + = $T0 .raSearchStart = $eip $T0 ^ = $esp $T0 4 + =
STACK WIN 4 5ecf 29 0 0 4 0 0 0 1 $T2 $esp .cbLocals + .cbSavedRegs + = $T0 .raSearchStart = $eip $T0 ^ = $esp $T0 4 + =
STACK WIN 4 5ef8 29 0 0 4 0 0 0 1 $T2 $esp .cbLocals + .cbSavedRegs + = $T0 .raSearchStart = $eip $T0 ^ = $esp $T0 4 + =
STACK WIN 4 5f21 33 c 0 14 0 0 0 1 $T0 $ebp = $eip $T0 4 + ^ = $ebp $T0 ^ = $esp $T0 8 + = $L $T0 .cbSavedRegs - = $P $T0 8 + .cbParams + =
STACK WIN 4 5f28 28 5 0 14 4 0 0 1 $T0 $ebp = $eip $T0 4 + ^ = $ebp $T0 ^ = $esp $T0 8 + = $L $T0 .cbSavedRegs - = $P $T0 8 + .cbParams + =
STACK WIN 4 5f54 1f 3 0 4 0 0 0 1 $T2 $esp .cbLocals + .cbSavedRegs + = $T0 .raSearchStart = $eip $T0 ^ = $esp $T0 4 + =
STACK WIN 4 5f55 1b 2 0 4 4 0 0 1 $T2 $esp .cbLocals + .cbSavedRegs + = $T0 .raSearchStart = $eip $T0 ^ = $esp $T0 4 + =
STACK WIN 4 5f73 3f 6 0 18 0 8 0 1 $T0 $ebp = $eip $T0 4 + ^ = $ebp $T0 ^ = $esp $T0 8 + = $L $T0 .cbSavedRegs - = $P $T0 8 + .cbParams + =
STACK WIN 4 5f79 31 0 0 18 4 8 0 1 $T0 $ebp = $eip $T0 4 + ^ = $ebp $T0 ^ = $esp $T0 8 + = $L $T0 .cbSavedRegs - = $P $T0 8 + .cbParams + =
STACK WIN 4 5fb2 1d 1 0 c 0 0 0 1 $T2 $esp .cbLocals + .cbSavedRegs + = $T0 .raSearchStart = $eip $T0 ^ = $esp $T0 4 + =
STACK WIN 4 5fb3 1b 0 0 c 4 0 0 1 $T2 $esp .cbLocals + .cbSavedRegs + = $T0 .raSearchStart = $eip $T0 ^ = $esp $T0 4 + =
STACK WIN 4 5fcf 14 0 0 8 0 0 0 1 $T2 $esp .cbLocals + .cbSavedRegs + = $T0 .raSearchStart = $eip $T0 ^ = $esp $T0 4 + =
STACK WIN 4 5fe3 43 6 0 18 0 8 0 1 $T0 $ebp = $eip $T0 4 + ^ = $ebp $T0 ^ = $esp $T0 8 + = $L $T0 .cbSavedRegs - = $P $T0 8 + .cbParams + =
STACK WIN 4 5fe9 31 0 0 18 4 8 0 1 $T0 $ebp = $eip $T0 4 + ^ = $ebp $T0 ^ = $esp $T0 8 + = $L $T0 .cbSavedRegs - = $P $T0 8 + .cbParams + =
STACK WIN 4 6026 4f 8 0 10 0 0 0 1 $T0 $ebp = $eip $T0 4 + ^ = $ebp $T0 ^ = $esp $T0 8 + = $L $T0 .cbSavedRegs - = $P $T0 8 + .cbParams + =
STACK WIN 4 602a 49 4 0 10 4 0 0 1 $T0 $ebp = $eip $T0 4 + ^ = $ebp $T0 ^ = $esp $T0 8 + = $L $T0 .cbSavedRegs - = $P $T0 8 + .cbParams + =
STACK WIN 4 602e 44 0 0 10 8 0 0 1 $T0 $ebp = $eip $T0 4 + ^ = $ebp $T0 ^ = $esp $T0 8 + = $L $T0 .cbSavedRegs - = $P $T0 8 + .cbParams + =
STACK WIN 4 6075 9d e 0 34 8 8 0 1 $T0 $ebp = $eip $T0 4 + ^ = $ebp $T0 ^ = $esp $T0 8 + = $L $T0 .cbSavedRegs - = $P $T0 8 + .cbParams + =
STACK WIN 4 607e 94 5 0 34 c 8 0 1 $T0 $ebp = $eip $T0 4 + ^ = $ebp $T0 ^ = $esp $T0 8 + = $L $T0 .cbSavedRegs - = $P $T0 8 + .cbParams + = $ebx $T0 12 - ^ =
STACK WIN 4 6112 19 0 0 10 0 0 0 1 $T2 $esp .cbLocals + .cbSavedRegs + = $T0 .raSearchStart = $eip $T0 ^ = $esp $T0 4 + =
STACK WIN 4 612b 46 b 0 38 8 0 0 1 $T0 $ebp = $eip $T0 4 + ^ = $ebp $T0 ^ = $esp $T0 8 + = $L $T0 .cbSavedRegs - = $P $T0 8 + .cbParams + =
STACK WIN 4 6171 32 d 0 4 0 0 0 1 $T2 $esp .cbLocals + .cbSavedRegs + = $T0 .raSearchStart = $eip $T0 ^ = $esp $T0 4 + =
STACK WIN 4 6172 2e c 0 4 4 0 0 1 $T2 $esp .cbLocals + .cbSavedRegs + = $T0 .raSearchStart = $eip $T0 ^ = $esp $T0 4 + = $ebx $T0 4 - ^ =
STACK WIN 4 6173 2c b 0 4 8 0 0 1 $T2 $esp .cbLocals + .cbSavedRegs + = $T0 .raSearchStart = $eip $T0 ^ = $esp $T0 4 + = $ebx $T0 4 - ^ =
STACK WIN 4 6174 2a a 0 4 c 0 0 1 $T2 $esp .cbLocals + .cbSavedRegs + = $T0 .raSearchStart = $eip $T0 ^ = $esp $T0 4 + = $ebx $T0 4 - ^ =
STACK WIN 4 61a3 1f 7 0 8 0 0 0 1 $T2 $esp .cbLocals + .cbSavedRegs + = $T0 .raSearchStart = $eip $T0 ^ = $esp $T0 4 + =
STACK WIN 4 61a4 1b 6 0 8 4 0 0 1 $T2 $esp .cbLocals + .cbSavedRegs + = $T0 .raSearchStart = $eip $T0 ^ = $esp $T0 4 + =
STACK WIN 4 61c2 1b 0 0 8 0 0 0 1 $T2 $esp .cbLocals + .cbSavedRegs + = $T0 .raSearchStart = $eip $T0 ^ = $esp $T0 4 + =
STACK WIN 4 61dd 1b 0 0 8 0 0 0 1 $T2 $esp .cbLocals + .cbSavedRegs + = $T0 .raSearchStart = $eip $T0 ^ = $esp $T0 4 + =
STACK WIN 4 61f8 5b c 0 14 c 14 0 1 $T0 $ebp = $eip $T0 4 + ^ = $ebp $T0 ^ = $esp $T0 8 + = $L $T0 .cbSavedRegs - = $P $T0 8 + .cbParams + =
STACK WIN 4 6253 2d 5 0 8 0 8 0 1 $T0 $ebp = $eip $T0 4 + ^ = $ebp $T0 ^ = $esp $T0 8 + = $L $T0 .cbSavedRegs - = $P $T0 8 + .cbParams + =
STACK WIN 4 6280 5a c 0 0 c 14 0 1 $T0 $ebp = $eip $T0 4 + ^ = $ebp $T0 ^ = $esp $T0 8 + = $L $T0 .cbSavedRegs - = $P $T0 8 + .cbParams + =
STACK WIN 4 62da 5b c 0 14 c 14 0 1 $T0 $ebp = $eip $T0 4 + ^ = $ebp $T0 ^ = $esp $T0 8 + = $L $T0 .cbSavedRegs - = $P $T0 8 + .cbParams + =
STACK WIN 4 6335 5a c 0 0 c 14 0 1 $T0 $ebp = $eip $T0 4 + ^ = $ebp $T0 ^ = $esp $T0 8 + = $L $T0 .cbSavedRegs - = $P $T0 8 + .cbParams + =
STACK WIN 4 638f 28 5 0 c 0 4 0 1 $T0 $ebp = $eip $T0 4 + ^ = $ebp $T0 ^ = $esp $T0 8 + = $L $T0 .cbSavedRegs - = $P $T0 8 + .cbParams + =
STACK WIN 4 6394 21 0 0 c 4 4 0 1 $T0 $ebp = $eip $T0 4 + ^ = $ebp $T0 ^ = $esp $T0 8 + = $L $T0 .cbSavedRegs - = $P $T0 8 + .cbParams + =
STACK WIN 4 63b7 34 3 0 18 0 0 0 1 $T0 $ebp = $eip $T0 4 + ^ = $ebp $T0 ^ = $esp $T0 8 + = $L $T0 .cbSavedRegs - = $P $T0 8 + .cbParams + =
STACK WIN 4 63cb 1e 0 0 18 4 0 0 1 $T0 $ebp = $eip $T0 4 + ^ = $ebp $T0 ^ = $esp $T0 8 + = $L $T0 .cbSavedRegs - = $P $T0 8 + .cbParams + =
STACK WIN 4 63eb 28 5 0 18 0 4 0 1 $T0 $ebp = $eip $T0 4 + ^ = $ebp $T0 ^ = $esp $T0 8 + = $L $T0 .cbSavedRegs - = $P $T0 8 + .cbParams + =
STACK WIN 4 63f0 21 0 0 18 4 4 0 1 $T0 $ebp = $eip $T0 4 + ^ = $ebp $T0 ^ = $esp $T0 8 + = $L $T0 .cbSavedRegs - = $P $T0 8 + .cbParams + =
STACK WIN 4 6413 60 c 0 18 c 14 0 1 $T0 $ebp = $eip $T0 4 + ^ = $ebp $T0 ^ = $esp $T0 8 + = $L $T0 .cbSavedRegs - = $P $T0 8 + .cbParams + =
STACK WIN 4 6473 96 b 0 10 0 0 0 1 $T0 $ebp = $eip $T0 4 + ^ = $ebp $T0 ^ = $esp $T0 8 + = $L $T0 .cbSavedRegs - = $P $T0 8 + .cbParams + =
STACK WIN 4 647a 8d 4 0 10 4 0 0 1 $T0 $ebp = $eip $T0 4 + ^ = $ebp $T0 ^ = $esp $T0 8 + = $L $T0 .cbSavedRegs - = $P $T0 8 + .cbParams + = $ebx $T0 4 - ^ =
STACK WIN 4 647e 88 0 0 10 8 0 0 1 $T0 $ebp = $eip $T0 4 + ^ = $ebp $T0 ^ = $esp $T0 8 + = $L $T0 .cbSavedRegs - = $P $T0 8 + .cbParams + = $ebx $T0 4 - ^ =
STACK WIN 4 6495 5e 0 0 10 c 0 0 1 $T0 $ebp = $eip $T0 4 + ^ = $ebp $T0 ^ = $esp $T0 8 + = $L $T0 .cbSavedRegs - = $P $T0 8 + .cbParams + = $ebx $T0 4 - ^ =
STACK WIN 4 6509 4f c 0 14 8 0 0 1 $T0 $ebp = $eip $T0 4 + ^ = $ebp $T0 ^ = $esp $T0 8 + = $L $T0 .cbSavedRegs - = $P $T0 8 + .cbParams + =
STACK WIN 4 6513 45 2 0 14 c 0 0 1 $T0 $ebp = $eip $T0 4 + ^ = $ebp $T0 ^ = $esp $T0 8 + = $L $T0 .cbSavedRegs - = $P $T0 8 + .cbParams + = $ebx $T0 4 - ^ =
STACK WIN 4 6558 24 3 0 c 0 0 0 1 $T0 $ebp = $eip $T0 4 + ^ = $ebp $T0 ^ = $esp $T0 8 + = $L $T0 .cbSavedRegs - = $P $T0 8 + .cbParams + =
STACK WIN 4 657c 5f c 0 18 c 14 0 1 $T0 $ebp = $eip $T0 4 + ^ = $ebp $T0 ^ = $esp $T0 8 + = $L $T0 .cbSavedRegs - = $P $T0 8 + .cbParams + =
STACK WIN 4 65db 29 1 0 10 4 0 0 1 $T2 $esp .cbLocals + .cbSavedRegs + = $T0 .raSearchStart = $eip $T0 ^ = $esp $T0 4 + =
STACK WIN 4 6604 16 0 0 4 0 0 0 1 $T2 $esp .cbLocals + .cbSavedRegs + = $T0 .raSearchStart = $eip $T0 ^ = $esp $T0 4 + =
STACK WIN 4 661a 26 4 0 0 0 0 0 1 $T2 $esp .cbLocals + .cbSavedRegs + = $T0 .raSearchStart = $eip $T0 ^ = $esp $T0 4 + =
STACK WIN 4 661b 24 3 0 0 4 0 0 1 $T2 $esp .cbLocals + .cbSavedRegs + = $T0 .raSearchStart = $eip $T0 ^ = $esp $T0 4 + =
STACK WIN 4 661c 1f 2 0 0 8 0 0 1 $T2 $esp .cbLocals + .cbSavedRegs + = $T0 .raSearchStart = $eip $T0 ^ = $esp $T0 4 + =
STACK WIN 4 6640 1f 7 0 8 0 0 0 1 $T2 $esp .cbLocals + .cbSavedRegs + = $T0 .raSearchStart = $eip $T0 ^ = $esp $T0 4 + =
STACK WIN 4 6641 1b 6 0 8 4 0 0 1 $T2 $esp .cbLocals + .cbSavedRegs + = $T0 .raSearchStart = $eip $T0 ^ = $esp $T0 4 + =
STACK WIN 4 665f 35 10 0 8 0 10 0 1 $T0 $ebp = $eip $T0 4 + ^ = $ebp $T0 ^ = $esp $T0 8 + = $L $T0 .cbSavedRegs - = $P $T0 8 + .cbParams + =
STACK WIN 4 6666 2a 9 0 8 4 10 0 1 $T0 $ebp = $eip $T0 4 + ^ = $ebp $T0 ^ = $esp $T0 8 + = $L $T0 .cbSavedRegs - = $P $T0 8 + .cbParams + =
STACK WIN 4 6694 35 10 0 8 0 10 0 1 $T0 $ebp = $eip $T0 4 + ^ = $ebp $T0 ^ = $esp $T0 8 + = $L $T0 .cbSavedRegs - = $P $T0 8 + .cbParams + =
STACK WIN 4 669b 2a 9 0 8 4 10 0 1 $T0 $ebp = $eip $T0 4 + ^ = $ebp $T0 ^ = $esp $T0 8 + = $L $T0 .cbSavedRegs - = $P $T0 8 + .cbParams + =
STACK WIN 4 66c9 154 b 0 10 0 44 0 1 $T0 $ebp = $eip $T0 4 + ^ = $ebp $T0 ^ = $esp $T0 8 + = $L $T0 .cbSavedRegs - = $P $T0 8 + .cbParams + =
STACK WIN 4 66d0 149 4 0 10 4 44 0 1 $T0 $ebp = $eip $T0 4 + ^ = $ebp $T0 ^ = $esp $T0 8 + = $L $T0 .cbSavedRegs - = $P $T0 8 + .cbParams + = $ebx $T0 72 - ^ =
STACK WIN 4 66d1 147 3 0 10 8 44 0 1 $T0 $ebp = $eip $T0 4 + ^ = $ebp $T0 ^ = $esp $T0 8 + = $L $T0 .cbSavedRegs - = $P $T0 8 + .cbParams + = $ebx $T0 72 - ^ =
STACK WIN 4 66d2 145 2 0 10 c 44 0 1 $T0 $ebp = $eip $T0 4 + ^ = $ebp $T0 ^ = $esp $T0 8 + = $L $T0 .cbSavedRegs - = $P $T0 8 + .cbParams + = $ebx $T0 72 - ^ =
STACK WIN 4 681d 25 3 0 0 0 0 0 1 $T2 $esp .cbLocals + .cbSavedRegs + = $T0 .raSearchStart = $eip $T0 ^ = $esp $T0 4 + =
STACK WIN 4 681e 23 2 0 0 4 0 0 1 $T2 $esp .cbLocals + .cbSavedRegs + = $T0 .raSearchStart = $eip $T0 ^ = $esp $T0 4 + =
STACK WIN 4 6842 154 b 0 10 0 44 0 1 $T0 $ebp = $eip $T0 4 + ^ = $ebp $T0 ^ = $esp $T0 8 + = $L $T0 .cbSavedRegs - = $P $T0 8 + .cbParams + =
STACK WIN 4 6849 149 4 0 10 4 44 0 1 $T0 $ebp = $eip $T0 4 + ^ = $ebp $T0 ^ = $esp $T0 8 + = $L $T0 .cbSavedRegs - = $P $T0 8 + .cbParams + = $ebx $T0 72 - ^ =
STACK WIN 4 684a 147 3 0 10 8 44 0 1 $T0 $ebp = $eip $T0 4 + ^ = $ebp $T0 ^ = $esp $T0 8 + = $L $T0 .cbSavedRegs - = $P $T0 8 + .cbParams + = $ebx $T0 72 - ^ =
STACK WIN 4 684b 145 2 0 10 c 44 0 1 $T0 $ebp = $eip $T0 4 + ^ = $ebp $T0 ^ = $esp $T0 8 + = $L $T0 .cbSavedRegs - = $P $T0 8 + .cbParams + = $ebx $T0 72 - ^ =
STACK WIN 4 6996 277 13 0 c 0 48 0 1 $T0 $ebp = $eip $T0 4 + ^ = $ebp $T0 ^ = $esp $T0 8 + = $L $T0 .cbSavedRegs - = $P $T0 8 + .cbParams + =
STACK WIN 4 699d 258 c 0 c 4 48 0 1 $T0 $ebp = $eip $T0 4 + ^ = $ebp $T0 ^ = $esp $T0 8 + = $L $T0 .cbSavedRegs - = $P $T0 8 + .cbParams + = $ebx $T0 76 - ^ =
STACK WIN 4 69a5 24f 4 0 c 8 48 0 1 $T0 $ebp = $eip $T0 4 + ^ = $ebp $T0 ^ = $esp $T0 8 + = $L $T0 .cbSavedRegs - = $P $T0 8 + .cbParams + = $ebx $T0 76 - ^ =
STACK WIN 4 69a6 24d 3 0 c c 48 0 1 $T0 $ebp = $eip $T0 4 + ^ = $ebp $T0 ^ = $esp $T0 8 + = $L $T0 .cbSavedRegs - = $P $T0 8 + .cbParams + = $ebx $T0 76 - ^ =
STACK WIN 4 6c0d 25 3 0 0 0 0 0 1 $T2 $esp .cbLocals + .cbSavedRegs + = $T0 .raSearchStart = $eip $T0 ^ = $esp $T0 4 + =
STACK WIN 4 6c0e 23 2 0 0 4 0 0 1 $T2 $esp .cbLocals + .cbSavedRegs + = $T0 .raSearchStart = $eip $T0 ^ = $esp $T0 4 + =
STACK WIN 4 6c32 20 4 0 14 0 4 0 1 $T0 $ebp = $eip $T0 4 + ^ = $ebp $T0 ^ = $esp $T0 8 + = $L $T0 .cbSavedRegs - = $P $T0 8 + .cbParams + =
STACK WIN 4 6c52 28 5 0 c 0 4 0 1 $T0 $ebp = $eip $T0 4 + ^ = $ebp $T0 ^ = $esp $T0 8 + = $L $T0 .cbSavedRegs - = $P $T0 8 + .cbParams + =
STACK WIN 4 6c57 21 0 0 c 4 4 0 1 $T0 $ebp = $eip $T0 4 + ^ = $ebp $T0 ^ = $esp $T0 8 + = $L $T0 .cbSavedRegs - = $P $T0 8 + .cbParams + =
STACK WIN 4 6c7a 28 5 0 10 0 4 0 1 $T0 $ebp = $eip $T0 4 + ^ = $ebp $T0 ^ = $esp $T0 8 + = $L $T0 .cbSavedRegs - = $P $T0 8 + .cbParams + =
STACK WIN 4 6c7f 21 0 0 10 4 4 0 1 $T0 $ebp = $eip $T0 4 + ^ = $ebp $T0 ^ = $esp $T0 8 + = $L $T0 .cbSavedRegs - = $P $T0 8 + .cbParams + =
STACK WIN 4 6ca2 1b 1 0 10 0 0 0 1 $T2 $esp .cbLocals + .cbSavedRegs + = $T0 .raSearchStart = $eip $T0 ^ = $esp $T0 4 + =
STACK WIN 4 6ca3 19 0 0 10 4 0 0 1 $T2 $esp .cbLocals + .cbSavedRegs + = $T0 .raSearchStart = $eip $T0 ^ = $esp $T0 4 + =
STACK WIN 4 6cbd 5b c 0 18 c 14 0 1 $T0 $ebp = $eip $T0 4 + ^ = $ebp $T0 ^ = $esp $T0 8 + = $L $T0 .cbSavedRegs - = $P $T0 8 + .cbParams + =
STACK WIN 4 6d18 17a b 0 10 0 8 0 1 $T0 $ebp = $eip $T0 4 + ^ = $ebp $T0 ^ = $esp $T0 8 + = $L $T0 .cbSavedRegs - = $P $T0 8 + .cbParams + =
STACK WIN 4 6d21 16f 2 0 10 4 8 0 1 $T0 $ebp = $eip $T0 4 + ^ = $ebp $T0 ^ = $esp $T0 8 + = $L $T0 .cbSavedRegs - = $P $T0 8 + .cbParams + = $ebx $T0 12 - ^ =
STACK WIN 4 6d22 16d 1 0 10 8 8 0 1 $T0 $ebp = $eip $T0 4 + ^ = $ebp $T0 ^ = $esp $T0 8 + = $L $T0 .cbSavedRegs - = $P $T0 8 + .cbParams + = $ebx $T0 12 - ^ =
STACK WIN 4 6d23 169 0 0 10 c 8 0 1 $T0 $ebp = $eip $T0 4 + ^ = $ebp $T0 ^ = $esp $T0 8 + = $L $T0 .cbSavedRegs - = $P $T0 8 + .cbParams + = $ebx $T0 12 - ^ =
STACK WIN 4 6e92 2b 3 0 c 0 0 0 1 $T0 $ebp = $eip $T0 4 + ^ = $ebp $T0 ^ = $esp $T0 8 + = $L $T0 .cbSavedRegs - = $P $T0 8 + .cbParams + =
STACK WIN 4 6ebd 70 5 0 c 0 4 0 1 $T0 $ebp = $eip $T0 4 + ^ = $ebp $T0 ^ = $esp $T0 8 + = $L $T0 .cbSavedRegs - = $P $T0 8 + .cbParams + =
STACK WIN 4 6ec2 69 0 0 c 4 4 0 1 $T0 $ebp = $eip $T0 4 + ^ = $ebp $T0 ^ = $esp $T0 8 + = $L $T0 .cbSavedRegs - = $P $T0 8 + .cbParams + =
STACK WIN 4 6ecb 5f 0 0 c 8 4 0 1 $T0 $ebp = $eip $T0 4 + ^ = $ebp $T0 ^ = $esp $T0 8 + = $L $T0 .cbSavedRegs - = $P $T0 8 + .cbParams + =
STACK WIN 4 6ed4 55 0 0 c c 4 0 1 $T0 $ebp = $eip $T0 4 + ^ = $ebp $T0 ^ = $esp $T0 8 + = $L $T0 .cbSavedRegs - = $P $T0 8 + .cbParams + = $ebx $T0 16 - ^ =
STACK WIN 4 6f2d 28 5 0 10 0 4 0 1 $T0 $ebp = $eip $T0 4 + ^ = $ebp $T0 ^ = $esp $T0 8 + = $L $T0 .cbSavedRegs - = $P $T0 8 + .cbParams + =
STACK WIN 4 6f32 21 0 0 10 4 4 0 1 $T0 $ebp = $eip $T0 4 + ^ = $ebp $T0 ^ = $esp $T0 8 + = $L $T0 .cbSavedRegs - = $P $T0 8 + .cbParams + =
STACK WIN 4 6f55 29 3 0 c 0 0 0 1 $T0 $ebp = $eip $T0 4 + ^ = $ebp $T0 ^ = $esp $T0 8 + = $L $T0 .cbSavedRegs - = $P $T0 8 + .cbParams + =
STACK WIN 4 6f7e bd c 0 4 0 20 0 1 $T0 $ebp = $eip $T0 4 + ^ = $ebp $T0 ^ = $esp $T0 8 + = $L $T0 .cbSavedRegs - = $P $T0 8 + .cbParams + =
STACK WIN 4 6f8a af 0 0 4 4 20 0 1 $T0 $ebp = $eip $T0 4 + ^ = $ebp $T0 ^ = $esp $T0 8 + = $L $T0 .cbSavedRegs - = $P $T0 8 + .cbParams + =
STACK WIN 4 6fc6 72 0 0 4 8 20 0 1 $T0 $ebp = $eip $T0 4 + ^ = $ebp $T0 ^ = $esp $T0 8 + = $L $T0 .cbSavedRegs - = $P $T0 8 + .cbParams + =
STACK WIN 4 703b 6d 10 0 8 0 10 0 1 $T0 $ebp = $eip $T0 4 + ^ = $ebp $T0 ^ = $esp $T0 8 + = $L $T0 .cbSavedRegs - = $P $T0 8 + .cbParams + =
STACK WIN 4 7042 62 9 0 8 4 10 0 1 $T0 $ebp = $eip $T0 4 + ^ = $ebp $T0 ^ = $esp $T0 8 + = $L $T0 .cbSavedRegs - = $P $T0 8 + .cbParams + =
STACK WIN 4 70a8 ba d 0 8 0 14 0 1 $T0 $ebp = $eip $T0 4 + ^ = $ebp $T0 ^ = $esp $T0 8 + = $L $T0 .cbSavedRegs - = $P $T0 8 + .cbParams + =
STACK WIN 4 70af af 6 0 8 4 14 0 1 $T0 $ebp = $eip $T0 4 + ^ = $ebp $T0 ^ = $esp $T0 8 + = $L $T0 .cbSavedRegs - = $P $T0 8 + .cbParams + = $ebx $T0 24 - ^ =
STACK WIN 4 70b3 a5 2 0 8 8 14 0 1 $T0 $ebp = $eip $T0 4 + ^ = $ebp $T0 ^ = $esp $T0 8 + = $L $T0 .cbSavedRegs - = $P $T0 8 + .cbParams + = $ebx $T0 24 - ^ =
STACK WIN 4 70c0 97 0 0 8 c 14 0 1 $T0 $ebp = $eip $T0 4 + ^ = $ebp $T0 ^ = $esp $T0 8 + = $L $T0 .cbSavedRegs - = $P $T0 8 + .cbParams + = $ebx $T0 24 - ^ =
STACK WIN 4 7162 aa 8 0 14 0 8 0 1 $T0 $ebp = $eip $T0 4 + ^ = $ebp $T0 ^ = $esp $T0 8 + = $L $T0 .cbSavedRegs - = $P $T0 8 + .cbParams + =
STACK WIN 4 7168 a0 2 0 14 4 8 0 1 $T0 $ebp = $eip $T0 4 + ^ = $ebp $T0 ^ = $esp $T0 8 + = $L $T0 .cbSavedRegs - = $P $T0 8 + .cbParams + =
STACK WIN 4 71cb 2e 0 0 14 8 8 0 1 $T0 $ebp = $eip $T0 4 + ^ = $ebp $T0 ^ = $esp $T0 8 + = $L $T0 .cbSavedRegs - = $P $T0 8 + .cbParams + = $ebx $T0 16 - ^ =
STACK WIN 4 71cc 2c 0 0 14 c 8 0 1 $T0 $ebp = $eip $T0 4 + ^ = $ebp $T0 ^ = $esp $T0 8 + = $L $T0 .cbSavedRegs - = $P $T0 8 + .cbParams + = $ebx $T0 16 - ^ =
STACK WIN 4 720c 4e 9 0 0 0 10 0 1 $T0 $ebp = $eip $T0 4 + ^ = $ebp $T0 ^ = $esp $T0 8 + = $L $T0 .cbSavedRegs - = $P $T0 8 + .cbParams + =
STACK WIN 4 7213 45 2 0 0 4 10 0 1 $T0 $ebp = $eip $T0 4 + ^ = $ebp $T0 ^ = $esp $T0 8 + = $L $T0 .cbSavedRegs - = $P $T0 8 + .cbParams + =
STACK WIN 4 725a d5 11 0 8 0 18 0 1 $T0 $ebp = $eip $T0 4 + ^ = $ebp $T0 ^ = $esp $T0 8 + = $L $T0 .cbSavedRegs - = $P $T0 8 + .cbParams + =
STACK WIN 4 7261 ca a 0 8 4 18 0 1 $T0 $ebp = $eip $T0 4 + ^ = $ebp $T0 ^ = $esp $T0 8 + = $L $T0 .cbSavedRegs - = $P $T0 8 + .cbParams + = $ebx $T0 28 - ^ =
STACK WIN 4 7268 c2 3 0 8 8 18 0 1 $T0 $ebp = $eip $T0 4 + ^ = $ebp $T0 ^ = $esp $T0 8 + = $L $T0 .cbSavedRegs - = $P $T0 8 + .cbParams + = $ebx $T0 28 - ^ =
STACK WIN 4 7269 c0 2 0 8 c 18 0 1 $T0 $ebp = $eip $T0 4 + ^ = $ebp $T0 ^ = $esp $T0 8 + = $L $T0 .cbSavedRegs - = $P $T0 8 + .cbParams + = $ebx $T0 28 - ^ =
STACK WIN 4 732f 280 13 0 c 0 48 0 1 $T0 $ebp = $eip $T0 4 + ^ = $ebp $T0 ^ = $esp $T0 8 + = $L $T0 .cbSavedRegs - = $P $T0 8 + .cbParams + =
STACK WIN 4 7336 261 c 0 c 4 48 0 1 $T0 $ebp = $eip $T0 4 + ^ = $ebp $T0 ^ = $esp $T0 8 + = $L $T0 .cbSavedRegs - = $P $T0 8 + .cbParams + = $ebx $T0 76 - ^ =
STACK WIN 4 733e 258 4 0 c 8 48 0 1 $T0 $ebp = $eip $T0 4 + ^ = $ebp $T0 ^ = $esp $T0 8 + = $L $T0 .cbSavedRegs - = $P $T0 8 + .cbParams + = $ebx $T0 76 - ^ =
STACK WIN 4 733f 256 3 0 c c 48 0 1 $T0 $ebp = $eip $T0 4 + ^ = $ebp $T0 ^ = $esp $T0 8 + = $L $T0 .cbSavedRegs - = $P $T0 8 + .cbParams + = $ebx $T0 76 - ^ =
STACK WIN 4 75af 3b d 0 4 0 0 0 1 $T2 $esp .cbLocals + .cbSavedRegs + = $T0 .raSearchStart = $eip $T0 ^ = $esp $T0 4 + =
STACK WIN 4 75b0 37 c 0 4 4 0 0 1 $T2 $esp .cbLocals + .cbSavedRegs + = $T0 .raSearchStart = $eip $T0 ^ = $esp $T0 4 + = $ebx $T0 4 - ^ =
STACK WIN 4 75b1 35 b 0 4 8 0 0 1 $T2 $esp .cbLocals + .cbSavedRegs + = $T0 .raSearchStart = $eip $T0 ^ = $esp $T0 4 + = $ebx $T0 4 - ^ =
STACK WIN 4 75b2 33 a 0 4 c 0 0 1 $T2 $esp .cbLocals + .cbSavedRegs + = $T0 .raSearchStart = $eip $T0 ^ = $esp $T0 4 + = $ebx $T0 4 - ^ =
STACK WIN 4 75ea 1a 4 0 c 0 4 0 1 $T0 $ebp = $eip $T0 4 + ^ = $ebp $T0 ^ = $esp $T0 8 + = $L $T0 .cbSavedRegs - = $P $T0 8 + .cbParams + =
STACK WIN 4 7604 28 5 0 10 0 4 0 1 $T0 $ebp = $eip $T0 4 + ^ = $ebp $T0 ^ = $esp $T0 8 + = $L $T0 .cbSavedRegs - = $P $T0 8 + .cbParams + =
STACK WIN 4 7609 21 0 0 10 4 4 0 1 $T0 $ebp = $eip $T0 4 + ^ = $ebp $T0 ^ = $esp $T0 8 + = $L $T0 .cbSavedRegs - = $P $T0 8 + .cbParams + =
STACK WIN 4 762c 41 a 0 c 0 0 0 1 $T0 $ebp = $eip $T0 4 + ^ = $ebp $T0 ^ = $esp $T0 8 + = $L $T0 .cbSavedRegs - = $P $T0 8 + .cbParams + =
STACK WIN 4 7636 35 0 0 c 4 0 0 1 $T0 $ebp = $eip $T0 4 + ^ = $ebp $T0 ^ = $esp $T0 8 + = $L $T0 .cbSavedRegs - = $P $T0 8 + .cbParams + =
STACK WIN 4 766d 15e 1e 0 0 0 82c 0 1 $T0 $ebp 1964 + = $eip $T0 4 + ^ = $ebp $T0 ^ = $esp $T0 8 + = $L $T0 .cbSavedRegs - = $P $T0 8 + .cbParams + =
STACK WIN 4 7689 135 2 0 0 4 82c 0 1 $T0 $ebp 1964 + = $eip $T0 4 + ^ = $ebp $T0 ^ = $esp $T0 8 + = $L $T0 .cbSavedRegs - = $P $T0 8 + .cbParams + = $ebx $T0 2096 - ^ =
STACK WIN 4 768a 131 1 0 0 8 82c 0 1 $T0 $ebp 1964 + = $eip $T0 4 + ^ = $ebp $T0 ^ = $esp $T0 8 + = $L $T0 .cbSavedRegs - = $P $T0 8 + .cbParams + = $ebx $T0 2096 - ^ =
STACK WIN 4 768b 12f 0 0 0 c 82c 0 1 $T0 $ebp 1964 + = $eip $T0 4 + ^ = $ebp $T0 ^ = $esp $T0 8 + = $L $T0 .cbSavedRegs - = $P $T0 8 + .cbParams + = $ebx $T0 2096 - ^ =
STACK WIN 4 77cb 4e 8 0 0 0 c 0 1 $T0 $ebp = $eip $T0 4 + ^ = $ebp $T0 ^ = $esp $T0 8 + = $L $T0 .cbSavedRegs - = $P $T0 8 + .cbParams + =
STACK WIN 4 77d2 45 1 0 0 4 c 0 1 $T0 $ebp = $eip $T0 4 + ^ = $ebp $T0 ^ = $esp $T0 8 + = $L $T0 .cbSavedRegs - = $P $T0 8 + .cbParams + =
STACK WIN 4 77d3 41 0 0 0 8 c 0 1 $T0 $ebp = $eip $T0 4 + ^ = $ebp $T0 ^ = $esp $T0 8 + = $L $T0 .cbSavedRegs - = $P $T0 8 + .cbParams + =
STACK WIN 4 7819 50 10 0 4 0 10 0 1 $T0 $ebp = $eip $T0 4 + ^ = $ebp $T0 ^ = $esp $T0 8 + = $L $T0 .cbSavedRegs - = $P $T0 8 + .cbParams + =
STACK WIN 4 7820 45 9 0 4 4 10 0 1 $T0 $ebp = $eip $T0 4 + ^ = $ebp $T0 ^ = $esp $T0 8 + = $L $T0 .cbSavedRegs - = $P $T0 8 + .cbParams + =
STACK WIN 4 7869 1a0 9 0 10 0 c 0 1 $T0 $ebp = $eip $T0 4 + ^ = $ebp $T0 ^ = $esp $T0 8 + = $L $T0 .cbSavedRegs - = $P $T0 8 + .cbParams + =
STACK WIN 4 7870 195 2 0 10 4 c 0 1 $T0 $ebp = $eip $T0 4 + ^ = $ebp $T0 ^ = $esp $T0 8 + = $L $T0 .cbSavedRegs - = $P $T0 8 + .cbParams + =
STACK WIN 4 7894 170 0 0 10 8 c 0 1 $T0 $ebp = $eip $T0 4 + ^ = $ebp $T0 ^ = $esp $T0 8 + = $L $T0 .cbSavedRegs - = $P $T0 8 + .cbParams + = $ebx $T0 20 - ^ =
STACK WIN 4 7895 16e 0 0 10 c c 0 1 $T0 $ebp = $eip $T0 4 + ^ = $ebp $T0 ^ = $esp $T0 8 + = $L $T0 .cbSavedRegs - = $P $T0 8 + .cbParams + = $ebx $T0 20 - ^ =
STACK WIN 4 7a09 2d 3 0 0 0 0 0 1 $T2 $esp .cbLocals + .cbSavedRegs + = $T0 .raSearchStart = $eip $T0 ^ = $esp $T0 4 + =
STACK WIN 4 7a0a 2b 2 0 0 4 0 0 1 $T2 $esp .cbLocals + .cbSavedRegs + = $T0 .raSearchStart = $eip $T0 ^ = $esp $T0 4 + =
STACK WIN 4 7a36 22 3 0 c 0 0 0 1 $T0 $ebp = $eip $T0 4 + ^ = $ebp $T0 ^ = $esp $T0 8 + = $L $T0 .cbSavedRegs - = $P $T0 8 + .cbParams + =
STACK WIN 4 7a58 26 4 0 0 0 0 0 1 $T2 $esp .cbLocals + .cbSavedRegs + = $T0 .raSearchStart = $eip $T0 ^ = $esp $T0 4 + =
STACK WIN 4 7a59 24 3 0 0 4 0 0 1 $T2 $esp .cbLocals + .cbSavedRegs + = $T0 .raSearchStart = $eip $T0 ^ = $esp $T0 4 + =
STACK WIN 4 7a5a 1f 2 0 0 8 0 0 1 $T2 $esp .cbLocals + .cbSavedRegs + = $T0 .raSearchStart = $eip $T0 ^ = $esp $T0 4 + =
STACK WIN 4 7a7e 85 11 0 8 c 18 0 1 $T0 $ebp = $eip $T0 4 + ^ = $ebp $T0 ^ = $esp $T0 8 + = $L $T0 .cbSavedRegs - = $P $T0 8 + .cbParams + =
STACK WIN 4 7b03 4b a 0 14 0 0 0 1 $T0 $ebp = $eip $T0 4 + ^ = $ebp $T0 ^ = $esp $T0 8 + = $L $T0 .cbSavedRegs - = $P $T0 8 + .cbParams + =
STACK WIN 4 7b07 43 6 0 14 4 0 0 1 $T0 $ebp = $eip $T0 4 + ^ = $ebp $T0 ^ = $esp $T0 8 + = $L $T0 .cbSavedRegs - = $P $T0 8 + .cbParams + = $ebx $T0 4 - ^ =
STACK WIN 4 7b08 3c 5 0 14 8 0 0 1 $T0 $ebp = $eip $T0 4 + ^ = $ebp $T0 ^ = $esp $T0 8 + = $L $T0 .cbSavedRegs - = $P $T0 8 + .cbParams + = $ebx $T0 4 - ^ =
STACK WIN 4 7b1e 1f 0 0 14 c 0 0 1 $T0 $ebp = $eip $T0 4 + ^ = $ebp $T0 ^ = $esp $T0 8 + = $L $T0 .cbSavedRegs - = $P $T0 8 + .cbParams + = $ebx $T0 4 - ^ =
STACK WIN 4 7b4e a4 11 0 4 0 64 0 1 $T0 $ebp = $eip $T0 4 + ^ = $ebp $T0 ^ = $esp $T0 8 + = $L $T0 .cbSavedRegs - = $P $T0 8 + .cbParams + =
STACK WIN 4 7b55 99 a 0 4 4 64 0 1 $T0 $ebp = $eip $T0 4 + ^ = $ebp $T0 ^ = $esp $T0 8 + = $L $T0 .cbSavedRegs - = $P $T0 8 + .cbParams + =
STACK WIN 4 7b56 94 9 0 4 8 64 0 1 $T0 $ebp = $eip $T0 4 + ^ = $ebp $T0 ^ = $esp $T0 8 + = $L $T0 .cbSavedRegs - = $P $T0 8 + .cbParams + =
STACK WIN 4 7bf2 23 3 0 0 0 0 0 1 $T2 $esp .cbLocals + .cbSavedRegs + = $T0 .raSearchStart = $eip $T0 ^ = $esp $T0 4 + =
STACK WIN 4 7bf3 21 2 0 0 4 0 0 1 $T2 $esp .cbLocals + .cbSavedRegs + = $T0 .raSearchStart = $eip $T0 ^ = $esp $T0 4 + =
STACK WIN 4 7c15 aa 8 0 14 0 8 0 1 $T0 $ebp = $eip $T0 4 + ^ = $ebp $T0 ^ = $esp $T0 8 + = $L $T0 .cbSavedRegs - = $P $T0 8 + .cbParams + =
STACK WIN 4 7c1b a0 2 0 14 4 8 0 1 $T0 $ebp = $eip $T0 4 + ^ = $ebp $T0 ^ = $esp $T0 8 + = $L $T0 .cbSavedRegs - = $P $T0 8 + .cbParams + =
STACK WIN 4 7c7e 2e 0 0 14 8 8 0 1 $T0 $ebp = $eip $T0 4 + ^ = $ebp $T0 ^ = $esp $T0 8 + = $L $T0 .cbSavedRegs - = $P $T0 8 + .cbParams + = $ebx $T0 16 - ^ =
STACK WIN 4 7c7f 2c 0 0 14 c 8 0 1 $T0 $ebp = $eip $T0 4 + ^ = $ebp $T0 ^ = $esp $T0 8 + = $L $T0 .cbSavedRegs - = $P $T0 8 + .cbParams + = $ebx $T0 16 - ^ =
STACK WIN 4 7cbf 60 c 0 4 0 0 0 1 $T2 $esp .cbLocals + .cbSavedRegs + = $T0 .raSearchStart = $eip $T0 ^ = $esp $T0 4 + =
STACK WIN 4 7cc0 3a b 0 4 4 0 0 1 $T2 $esp .cbLocals + .cbSavedRegs + = $T0 .raSearchStart = $eip $T0 ^ = $esp $T0 4 + = $ebx $T0 4 - ^ =
STACK WIN 4 7cc8 31 3 0 4 8 0 0 1 $T2 $esp .cbLocals + .cbSavedRegs + = $T0 .raSearchStart = $eip $T0 ^ = $esp $T0 4 + = $ebx $T0 4 - ^ =
STACK WIN 4 7cc9 2f 2 0 4 c 0 0 1 $T2 $esp .cbLocals + .cbSavedRegs + = $T0 .raSearchStart = $eip $T0 ^ = $esp $T0 4 + = $ebx $T0 4 - ^ =
STACK WIN 4 7d1f 4e 9 0 0 0 10 0 1 $T0 $ebp = $eip $T0 4 + ^ = $ebp $T0 ^ = $esp $T0 8 + = $L $T0 .cbSavedRegs - = $P $T0 8 + .cbParams + =
STACK WIN 4 7d26 45 2 0 0 4 10 0 1 $T0 $ebp = $eip $T0 4 + ^ = $ebp $T0 ^ = $esp $T0 8 + = $L $T0 .cbSavedRegs - = $P $T0 8 + .cbParams + =
STACK WIN 4 7d6d 3b 9 0 0 0 10 0 1 $T0 $ebp = $eip $T0 4 + ^ = $ebp $T0 ^ = $esp $T0 8 + = $L $T0 .cbSavedRegs - = $P $T0 8 + .cbParams + =
STACK WIN 4 7d74 32 2 0 0 4 10 0 1 $T0 $ebp = $eip $T0 4 + ^ = $ebp $T0 ^ = $esp $T0 8 + = $L $T0 .cbSavedRegs - = $P $T0 8 + .cbParams + =
STACK WIN 4 7da8 18 0 0 c 0 0 0 1 $T2 $esp .cbLocals + .cbSavedRegs + = $T0 .raSearchStart = $eip $T0 ^ = $esp $T0 4 + =
STACK WIN 4 7dc0 ce a 0 10 0 8 0 1 $T0 $ebp = $eip $T0 4 + ^ = $ebp $T0 ^ = $esp $T0 8 + = $L $T0 .cbSavedRegs - = $P $T0 8 + .cbParams + =
STACK WIN 4 7dc6 c6 4 0 10 4 8 0 1 $T0 $ebp = $eip $T0 4 + ^ = $ebp $T0 ^ = $esp $T0 8 + = $L $T0 .cbSavedRegs - = $P $T0 8 + .cbParams + =
STACK WIN 4 7dca c1 0 0 10 8 8 0 1 $T0 $ebp = $eip $T0 4 + ^ = $ebp $T0 ^ = $esp $T0 8 + = $L $T0 .cbSavedRegs - = $P $T0 8 + .cbParams + =
STACK WIN 4 7de1 7c 0 0 10 c 8 0 1 $T0 $ebp = $eip $T0 4 + ^ = $ebp $T0 ^ = $esp $T0 8 + = $L $T0 .cbSavedRegs - = $P $T0 8 + .cbParams + = $ebx $T0 20 - ^ =
STACK WIN 4 7e8e 3e 7 0 8 0 1c 0 1 $T0 $ebp = $eip $T0 4 + ^ = $ebp $T0 ^ = $esp $T0 8 + = $L $T0 .cbSavedRegs - = $P $T0 8 + .cbParams + =
STACK WIN 4 7e95 35 0 0 8 4 1c 0 1 $T0 $ebp = $eip $T0 4 + ^ = $ebp $T0 ^ = $esp $T0 8 + = $L $T0 .cbSavedRegs - = $P $T0 8 + .cbParams + = $ebx $T0 32 - ^ =
STACK WIN 4 7ecc 121 12 0 0 0 4c 0 1 $T0 $ebp = $eip $T0 4 + ^ = $ebp $T0 ^ = $esp $T0 8 + = $L $T0 .cbSavedRegs - = $P $T0 8 + .cbParams + =
STACK WIN 4 7edd e9 1 0 0 4 4c 0 1 $T0 $ebp = $eip $T0 4 + ^ = $ebp $T0 ^ = $esp $T0 8 + = $L $T0 .cbSavedRegs - = $P $T0 8 + .cbParams + =
STACK WIN 4 7ede e7 0 0 0 8 4c 0 1 $T0 $ebp = $eip $T0 4 + ^ = $ebp $T0 ^ = $esp $T0 8 + = $L $T0 .cbSavedRegs - = $P $T0 8 + .cbParams + =
STACK WIN 4 7fed d6 9 0 10 0 38 0 1 $T0 $ebp = $eip $T0 4 + ^ = $ebp $T0 ^ = $esp $T0 8 + = $L $T0 .cbSavedRegs - = $P $T0 8 + .cbParams + =
STACK WIN 4 804d 70 0 0 10 4 38 0 1 $T0 $ebp = $eip $T0 4 + ^ = $ebp $T0 ^ = $esp $T0 8 + = $L $T0 .cbSavedRegs - = $P $T0 8 + .cbParams + = $ebx $T0 60 - ^ =
STACK WIN 4 80c3 3f 6 0 0 0 1c 0 1 $T0 $ebp = $eip $T0 4 + ^ = $ebp $T0 ^ = $esp $T0 8 + = $L $T0 .cbSavedRegs - = $P $T0 8 + .cbParams + =
STACK WIN 4 8102 8c 15 0 4 0 3c 0 1 $T0 $ebp = $eip $T0 4 + ^ = $ebp $T0 ^ = $esp $T0 8 + = $L $T0 .cbSavedRegs - = $P $T0 8 + .cbParams + =
STACK WIN 4 8113 74 4 0 4 4 3c 0 1 $T0 $ebp = $eip $T0 4 + ^ = $ebp $T0 ^ = $esp $T0 8 + = $L $T0 .cbSavedRegs - = $P $T0 8 + .cbParams + = $ebx $T0 64 - ^ =
STACK WIN 4 8117 6d 0 0 4 8 3c 0 1 $T0 $ebp = $eip $T0 4 + ^ = $ebp $T0 ^ = $esp $T0 8 + = $L $T0 .cbSavedRegs - = $P $T0 8 + .cbParams + = $ebx $T0 64 - ^ =
STACK WIN 4 818e 50 9 0 4 0 10 0 1 $T0 $ebp = $eip $T0 4 + ^ = $ebp $T0 ^ = $esp $T0 8 + = $L $T0 .cbSavedRegs - = $P $T0 8 + .cbParams + =
STACK WIN 4 8195 45 2 0 4 4 10 0 1 $T0 $ebp = $eip $T0 4 + ^ = $ebp $T0 ^ = $esp $T0 8 + = $L $T0 .cbSavedRegs - = $P $T0 8 + .cbParams + =
STACK WIN 4 81de 50 10 0 4 0 10 0 1 $T0 $ebp = $eip $T0 4 + ^ = $ebp $T0 ^ = $esp $T0 8 + = $L $T0 .cbSavedRegs - = $P $T0 8 + .cbParams + =
STACK WIN 4 81e5 45 9 0 4 4 10 0 1 $T0 $ebp = $eip $T0 4 + ^ = $ebp $T0 ^ = $esp $T0 8 + = $L $T0 .cbSavedRegs - = $P $T0 8 + .cbParams + =
STACK WIN 4 822e fd 8 0 4 0 0 0 1 $T2 $esp .cbLocals + .cbSavedRegs + = $T0 .raSearchStart = $eip $T0 ^ = $esp $T0 4 + =
STACK WIN 4 822f f9 7 0 4 4 0 0 1 $T2 $esp .cbLocals + .cbSavedRegs + = $T0 .raSearchStart = $eip $T0 ^ = $esp $T0 4 + = $ebx $T0 4 - ^ =
STACK WIN 4 8234 f3 2 0 4 8 0 0 1 $T2 $esp .cbLocals + .cbSavedRegs + = $T0 .raSearchStart = $eip $T0 ^ = $esp $T0 4 + = $ebx $T0 4 - ^ =
STACK WIN 4 8256 ce 0 0 4 c 0 0 1 $T2 $esp .cbLocals + .cbSavedRegs + = $T0 .raSearchStart = $eip $T0 ^ = $esp $T0 4 + = $ebx $T0 4 - ^ =
STACK WIN 4 82ac 2e 0 0 4 10 0 0 1 $T2 $esp .cbLocals + .cbSavedRegs + = $T0 .raSearchStart = $eip $T0 ^ = $esp $T0 4 + = $ebp $T0 16 - ^ = $ebx $T0 4 - ^ =
STACK WIN 4 832b 200 c 0 10 c 44 0 1 $T0 $ebp = $eip $T0 4 + ^ = $ebp $T0 ^ = $esp $T0 8 + = $L $T0 .cbSavedRegs - = $P $T0 8 + .cbParams + =
STACK WIN 4 852b 23 3 0 14 0 0 0 1 $T0 $ebp = $eip $T0 4 + ^ = $ebp $T0 ^ = $esp $T0 8 + = $L $T0 .cbSavedRegs - = $P $T0 8 + .cbParams + =
STACK WIN 4 854e 27 3 0 0 0 0 0 1 $T2 $esp .cbLocals + .cbSavedRegs + = $T0 .raSearchStart = $eip $T0 ^ = $esp $T0 4 + =
STACK WIN 4 854f 20 2 0 0 4 0 0 1 $T2 $esp .cbLocals + .cbSavedRegs + = $T0 .raSearchStart = $eip $T0 ^ = $esp $T0 4 + =
STACK WIN 4 8575 62 6 0 4 0 1c 0 1 $T0 $ebp = $eip $T0 4 + ^ = $ebp $T0 ^ = $esp $T0 8 + = $L $T0 .cbSavedRegs - = $P $T0 8 + .cbParams + =
STACK WIN 4 85d7 d8 23 0 0 0 820 0 1 $T0 $ebp 1952 + = $eip $T0 4 + ^ = $ebp $T0 ^ = $esp $T0 8 + = $L $T0 .cbSavedRegs - = $P $T0 8 + .cbParams + =
STACK WIN 4 85f3 af 7 0 0 4 820 0 1 $T0 $ebp 1952 + = $eip $T0 4 + ^ = $ebp $T0 ^ = $esp $T0 8 + = $L $T0 .cbSavedRegs - = $P $T0 8 + .cbParams + =
STACK WIN 4 85fa a5 0 0 0 8 820 0 1 $T0 $ebp 1952 + = $eip $T0 4 + ^ = $ebp $T0 ^ = $esp $T0 8 + = $L $T0 .cbSavedRegs - = $P $T0 8 + .cbParams + =
STACK WIN 4 86af a1 1b 0 4 0 40c 0 1 $T0 $ebp 908 + = $eip $T0 4 + ^ = $ebp $T0 ^ = $esp $T0 8 + = $L $T0 .cbSavedRegs - = $P $T0 8 + .cbParams + =
STACK WIN 4 8750 63 9 0 10 0 8 0 1 $T0 $ebp = $eip $T0 4 + ^ = $ebp $T0 ^ = $esp $T0 8 + = $L $T0 .cbSavedRegs - = $P $T0 8 + .cbParams + =
STACK WIN 4 8756 59 3 0 10 4 8 0 1 $T0 $ebp = $eip $T0 4 + ^ = $ebp $T0 ^ = $esp $T0 8 + = $L $T0 .cbSavedRegs - = $P $T0 8 + .cbParams + =
STACK WIN 4 8757 57 2 0 10 8 8 0 1 $T0 $ebp = $eip $T0 4 + ^ = $ebp $T0 ^ = $esp $T0 8 + = $L $T0 .cbSavedRegs - = $P $T0 8 + .cbParams + =
STACK WIN 4 87b3 135 7 0 0 0 1c 0 1 $T0 $ebp = $eip $T0 4 + ^ = $ebp $T0 ^ = $esp $T0 8 + = $L $T0 .cbSavedRegs - = $P $T0 8 + .cbParams + =
STACK WIN 4 87ba 12c 0 0 0 4 1c 0 1 $T0 $ebp = $eip $T0 4 + ^ = $ebp $T0 ^ = $esp $T0 8 + = $L $T0 .cbSavedRegs - = $P $T0 8 + .cbParams + =
STACK WIN 4 87da 10b 0 0 0 8 1c 0 1 $T0 $ebp = $eip $T0 4 + ^ = $ebp $T0 ^ = $esp $T0 8 + = $L $T0 .cbSavedRegs - = $P $T0 8 + .cbParams + =
STACK WIN 4 88e8 cda 21 0 10 8 2e4 0 1 $T0 $ebp 104 + = $eip $T0 4 + ^ = $ebp $T0 ^ = $esp $T0 8 + = $L $T0 .cbSavedRegs - = $P $T0 8 + .cbParams + =
STACK WIN 4 8901 cc1 8 0 10 c 2e4 0 1 $T0 $ebp 104 + = $eip $T0 4 + ^ = $ebp $T0 ^ = $esp $T0 8 + = $L $T0 .cbSavedRegs - = $P $T0 8 + .cbParams + = $ebx $T0 744 - ^ =
STACK WIN 4 95c2 365 e 0 10 0 48 0 1 $T0 $ebp = $eip $T0 4 + ^ = $ebp $T0 ^ = $esp $T0 8 + = $L $T0 .cbSavedRegs - = $P $T0 8 + .cbParams + =
STACK WIN 4 95c9 32b 7 0 10 4 48 0 1 $T0 $ebp = $eip $T0 4 + ^ = $ebp $T0 ^ = $esp $T0 8 + = $L $T0 .cbSavedRegs - = $P $T0 8 + .cbParams + = $ebx $T0 76 - ^ =
STACK WIN 4 95cf 321 1 0 10 8 48 0 1 $T0 $ebp = $eip $T0 4 + ^ = $ebp $T0 ^ = $esp $T0 8 + = $L $T0 .cbSavedRegs - = $P $T0 8 + .cbParams + = $ebx $T0 76 - ^ =
STACK WIN 4 95d0 31f 0 0 10 c 48 0 1 $T0 $ebp = $eip $T0 4 + ^ = $ebp $T0 ^ = $esp $T0 8 + = $L $T0 .cbSavedRegs - = $P $T0 8 + .cbParams + = $ebx $T0 76 - ^ =
STACK WIN 4 9927 55 9 0 4 0 8 0 1 $T0 $ebp = $eip $T0 4 + ^ = $ebp $T0 ^ = $esp $T0 8 + = $L $T0 .cbSavedRegs - = $P $T0 8 + .cbParams + =
STACK WIN 4 992d 4b 3 0 4 4 8 0 1 $T0 $ebp = $eip $T0 4 + ^ = $ebp $T0 ^ = $esp $T0 8 + = $L $T0 .cbSavedRegs - = $P $T0 8 + .cbParams + =
STACK WIN 4 992e 49 2 0 4 8 8 0 1 $T0 $ebp = $eip $T0 4 + ^ = $ebp $T0 ^ = $esp $T0 8 + = $L $T0 .cbSavedRegs - = $P $T0 8 + .cbParams + =
STACK WIN 4 997c 20f 18 0 4 0 2ec 0 1 $T0 $ebp = $eip $T0 4 + ^ = $ebp $T0 ^ = $esp $T0 8 + = $L $T0 .cbSavedRegs - = $P $T0 8 + .cbParams + =
STACK WIN 4 9990 1f4 4 0 4 4 2ec 0 1 $T0 $ebp = $eip $T0 4 + ^ = $ebp $T0 ^ = $esp $T0 8 + = $L $T0 .cbSavedRegs - = $P $T0 8 + .cbParams + = $ebx $T0 752 - ^ =
STACK WIN 4 9994 1ed 0 0 4 8 2ec 0 1 $T0 $ebp = $eip $T0 4 + ^ = $ebp $T0 ^ = $esp $T0 8 + = $L $T0 .cbSavedRegs - = $P $T0 8 + .cbParams + = $ebx $T0 752 - ^ =
STACK WIN 4 9b8b 9a 17 0 4 0 8c 0 1 $T0 $ebp 116 + = $eip $T0 4 + ^ = $ebp $T0 ^ = $esp $T0 8 + = $L $T0 .cbSavedRegs - = $P $T0 8 + .cbParams + =
STACK WIN 4 9ba1 78 1 0 4 4 8c 0 1 $T0 $ebp 116 + = $eip $T0 4 + ^ = $ebp $T0 ^ = $esp $T0 8 + = $L $T0 .cbSavedRegs - = $P $T0 8 + .cbParams + = $ebx $T0 144 - ^ =
STACK WIN 4 9ba2 74 0 0 4 8 8c 0 1 $T0 $ebp 116 + = $eip $T0 4 + ^ = $ebp $T0 ^ = $esp $T0 8 + = $L $T0 .cbSavedRegs - = $P $T0 8 + .cbParams + = $ebx $T0 144 - ^ =
STACK WIN 4 9bd6 3c 0 0 4 c 8c 0 1 $T0 $ebp 116 + = $eip $T0 4 + ^ = $ebp $T0 ^ = $esp $T0 8 + = $L $T0 .cbSavedRegs - = $P $T0 8 + .cbParams + = $ebx $T0 144 - ^ =
STACK WIN 4 9c25 28 6 0 0 0 10 0 1 $T0 $ebp = $eip $T0 4 + ^ = $ebp $T0 ^ = $esp $T0 8 + = $L $T0 .cbSavedRegs - = $P $T0 8 + .cbParams + =
STACK WIN 4 9c4d 2e 0 0 8 0 0 0 1 $T2 $esp .cbLocals + .cbSavedRegs + = $T0 .raSearchStart = $eip $T0 ^ = $esp $T0 4 + =
STACK WIN 4 9c7b 4a 9 0 4 0 0 0 1 $T0 $ebp = $eip $T0 4 + ^ = $ebp $T0 ^ = $esp $T0 8 + = $L $T0 .cbSavedRegs - = $P $T0 8 + .cbParams + =
STACK WIN 4 9c7f 42 5 0 4 4 0 0 1 $T0 $ebp = $eip $T0 4 + ^ = $ebp $T0 ^ = $esp $T0 8 + = $L $T0 .cbSavedRegs - = $P $T0 8 + .cbParams + =
STACK WIN 4 9cc5 6a 9 0 4 0 0 0 1 $T0 $ebp = $eip $T0 4 + ^ = $ebp $T0 ^ = $esp $T0 8 + = $L $T0 .cbSavedRegs - = $P $T0 8 + .cbParams + =
STACK WIN 4 9ccc 5f 2 0 4 4 0 0 1 $T0 $ebp = $eip $T0 4 + ^ = $ebp $T0 ^ = $esp $T0 8 + = $L $T0 .cbSavedRegs - = $P $T0 8 + .cbParams + =
STACK WIN 4 9cf0 3a 0 0 4 8 0 0 1 $T0 $ebp = $eip $T0 4 + ^ = $ebp $T0 ^ = $esp $T0 8 + = $L $T0 .cbSavedRegs - = $P $T0 8 + .cbParams + = $ebx $T0 8 - ^ =
STACK WIN 4 9cf1 38 0 0 4 c 0 0 1 $T0 $ebp = $eip $T0 4 + ^ = $ebp $T0 ^ = $esp $T0 8 + = $L $T0 .cbSavedRegs - = $P $T0 8 + .cbParams + = $ebx $T0 8 - ^ =
STACK WIN 4 9d2f 87 a 0 10 0 20 0 1 $T0 $ebp = $eip $T0 4 + ^ = $ebp $T0 ^ = $esp $T0 8 + = $L $T0 .cbSavedRegs - = $P $T0 8 + .cbParams + =
STACK WIN 4 9d36 7c 3 0 10 4 20 0 1 $T0 $ebp = $eip $T0 4 + ^ = $ebp $T0 ^ = $esp $T0 8 + = $L $T0 .cbSavedRegs - = $P $T0 8 + .cbParams + =
STACK WIN 4 9d37 7a 2 0 10 8 20 0 1 $T0 $ebp = $eip $T0 4 + ^ = $ebp $T0 ^ = $esp $T0 8 + = $L $T0 .cbSavedRegs - = $P $T0 8 + .cbParams + =
STACK WIN 4 9d5c 3a 0 0 10 c 20 0 1 $T0 $ebp = $eip $T0 4 + ^ = $ebp $T0 ^ = $esp $T0 8 + = $L $T0 .cbSavedRegs - = $P $T0 8 + .cbParams + = $ebx $T0 44 - ^ =
STACK WIN 4 9db6 5f 19 0 4 0 5c 0 1 $T0 $ebp = $eip $T0 4 + ^ = $ebp $T0 ^ = $esp $T0 8 + = $L $T0 .cbSavedRegs - = $P $T0 8 + .cbParams + =
STACK WIN 4 9dc7 47 8 0 4 4 5c 0 1 $T0 $ebp = $eip $T0 4 + ^ = $ebp $T0 ^ = $esp $T0 8 + = $L $T0 .cbSavedRegs - = $P $T0 8 + .cbParams + = $ebx $T0 96 - ^ =
STACK WIN 4 9dc8 43 7 0 4 8 5c 0 1 $T0 $ebp = $eip $T0 4 + ^ = $ebp $T0 ^ = $esp $T0 8 + = $L $T0 .cbSavedRegs - = $P $T0 8 + .cbParams + = $ebx $T0 96 - ^ =
STACK WIN 4 9dcf 3b 0 0 4 c 5c 0 1 $T0 $ebp = $eip $T0 4 + ^ = $ebp $T0 ^ = $esp $T0 8 + = $L $T0 .cbSavedRegs - = $P $T0 8 + .cbParams + = $ebx $T0 96 - ^ =
STACK WIN 4 9e15 25 6 0 8 0 0 0 1 $T2 $esp .cbLocals + .cbSavedRegs + = $T0 .raSearchStart = $eip $T0 ^ = $esp $T0 4 + =
STACK WIN 4 9e16 23 5 0 8 4 0 0 1 $T2 $esp .cbLocals + .cbSavedRegs + = $T0 .raSearchStart = $eip $T0 ^ = $esp $T0 4 + =
STACK WIN 4 9e1b 1b 0 0 8 8 0 0 1 $T2 $esp .cbLocals + .cbSavedRegs + = $T0 .raSearchStart = $eip $T0 ^ = $esp $T0 4 + =
STACK WIN 4 9e3a d4 15 0 8 0 30 0 1 $T0 $ebp = $eip $T0 4 + ^ = $ebp $T0 ^ = $esp $T0 8 + = $L $T0 .cbSavedRegs - = $P $T0 8 + .cbParams + =
STACK WIN 4 9e4b bc 4 0 8 4 30 0 1 $T0 $ebp = $eip $T0 4 + ^ = $ebp $T0 ^ = $esp $T0 8 + = $L $T0 .cbSavedRegs - = $P $T0 8 + .cbParams + =
STACK WIN 4 9e4f b5 0 0 8 8 30 0 1 $T0 $ebp = $eip $T0 4 + ^ = $ebp $T0 ^ = $esp $T0 8 + = $L $T0 .cbSavedRegs - = $P $T0 8 + .cbParams + =
STACK WIN 4 9e80 80 0 0 8 c 30 0 1 $T0 $ebp = $eip $T0 4 + ^ = $ebp $T0 ^ = $esp $T0 8 + = $L $T0 .cbSavedRegs - = $P $T0 8 + .cbParams + = $ebx $T0 60 - ^ =
STACK WIN 4 9f0e d0 15 0 8 0 30 0 1 $T0 $ebp = $eip $T0 4 + ^ = $ebp $T0 ^ = $esp $T0 8 + = $L $T0 .cbSavedRegs - = $P $T0 8 + .cbParams + =
STACK WIN 4 9f1f b8 4 0 8 4 30 0 1 $T0 $ebp = $eip $T0 4 + ^ = $ebp $T0 ^ = $esp $T0 8 + = $L $T0 .cbSavedRegs - = $P $T0 8 + .cbParams + =
STACK WIN 4 9f23 b1 0 0 8 8 30 0 1 $T0 $ebp = $eip $T0 4 + ^ = $ebp $T0 ^ = $esp $T0 8 + = $L $T0 .cbSavedRegs - = $P $T0 8 + .cbParams + =
STACK WIN 4 9f54 7c 0 0 8 c 30 0 1 $T0 $ebp = $eip $T0 4 + ^ = $ebp $T0 ^ = $esp $T0 8 + = $L $T0 .cbSavedRegs - = $P $T0 8 + .cbParams + = $ebx $T0 60 - ^ =
STACK WIN 4 9fde 1a 0 0 0 0 0 0 1 $T2 $esp .cbLocals + .cbSavedRegs + = $T0 .raSearchStart = $eip $T0 ^ = $esp $T0 4 + =
STACK WIN 4 9ff8 26 3 0 4 0 0 0 1 $T2 $esp .cbLocals + .cbSavedRegs + = $T0 .raSearchStart = $eip $T0 ^ = $esp $T0 4 + =
STACK WIN 4 9ff9 22 2 0 4 4 0 0 1 $T2 $esp .cbLocals + .cbSavedRegs + = $T0 .raSearchStart = $eip $T0 ^ = $esp $T0 4 + =
STACK WIN 4 a01e 34 a 0 4 0 0 0 1 $T2 $esp .cbLocals + .cbSavedRegs + = $T0 .raSearchStart = $eip $T0 ^ = $esp $T0 4 + =
STACK WIN 4 a01f 30 9 0 4 4 0 0 1 $T2 $esp .cbLocals + .cbSavedRegs + = $T0 .raSearchStart = $eip $T0 ^ = $esp $T0 4 + = $ebx $T0 4 - ^ =
STACK WIN 4 a026 28 2 0 4 8 0 0 1 $T2 $esp .cbLocals + .cbSavedRegs + = $T0 .raSearchStart = $eip $T0 ^ = $esp $T0 4 + = $ebx $T0 4 - ^ =
STACK WIN 4 a02c 1f 0 0 4 c 0 0 1 $T2 $esp .cbLocals + .cbSavedRegs + = $T0 .raSearchStart = $eip $T0 ^ = $esp $T0 4 + = $ebx $T0 4 - ^ =
STACK WIN 4 a052 28 f 0 18 0 0 0 1 $T2 $esp .cbLocals + .cbSavedRegs + = $T0 .raSearchStart = $eip $T0 ^ = $esp $T0 4 + =
STACK WIN 4 a061 18 0 0 18 4 0 0 1 $T2 $esp .cbLocals + .cbSavedRegs + = $T0 .raSearchStart = $eip $T0 ^ = $esp $T0 4 + =
STACK WIN 4 a07a 27 9 0 18 0 0 0 1 $T2 $esp .cbLocals + .cbSavedRegs + = $T0 .raSearchStart = $eip $T0 ^ = $esp $T0 4 + =
STACK WIN 4 a083 1d 0 0 18 4 0 0 1 $T2 $esp .cbLocals + .cbSavedRegs + = $T0 .raSearchStart = $eip $T0 ^ = $esp $T0 4 + =
STACK WIN 4 a0a1 26 d 0 18 0 0 0 1 $T2 $esp .cbLocals + .cbSavedRegs + = $T0 .raSearchStart = $eip $T0 ^ = $esp $T0 4 + =
STACK WIN 4 a0ae 18 0 0 18 4 0 0 1 $T2 $esp .cbLocals + .cbSavedRegs + = $T0 .raSearchStart = $eip $T0 ^ = $esp $T0 4 + =
STACK WIN 4 a0c7 1f 3 0 10 0 0 0 1 $T0 $ebp = $eip $T0 4 + ^ = $ebp $T0 ^ = $esp $T0 8 + = $L $T0 .cbSavedRegs - = $P $T0 8 + .cbParams + =
STACK WIN 4 a0e6 3e c 0 4 0 0 0 1 $T2 $esp .cbLocals + .cbSavedRegs + = $T0 .raSearchStart = $eip $T0 ^ = $esp $T0 4 + =
STACK WIN 4 a0e7 3a b 0 4 4 0 0 1 $T2 $esp .cbLocals + .cbSavedRegs + = $T0 .raSearchStart = $eip $T0 ^ = $esp $T0 4 + =
STACK WIN 4 a0ea 36 8 0 4 8 0 0 1 $T2 $esp .cbLocals + .cbSavedRegs + = $T0 .raSearchStart = $eip $T0 ^ = $esp $T0 4 + =
STACK WIN 4 a124 28 5 0 18 0 4 0 1 $T0 $ebp = $eip $T0 4 + ^ = $ebp $T0 ^ = $esp $T0 8 + = $L $T0 .cbSavedRegs - = $P $T0 8 + .cbParams + =
STACK WIN 4 a129 21 0 0 18 4 4 0 1 $T0 $ebp = $eip $T0 4 + ^ = $ebp $T0 ^ = $esp $T0 8 + = $L $T0 .cbSavedRegs - = $P $T0 8 + .cbParams + =
STACK WIN 4 a14c 28 5 0 10 0 4 0 1 $T0 $ebp = $eip $T0 4 + ^ = $ebp $T0 ^ = $esp $T0 8 + = $L $T0 .cbSavedRegs - = $P $T0 8 + .cbParams + =
STACK WIN 4 a151 21 0 0 10 4 4 0 1 $T0 $ebp = $eip $T0 4 + ^ = $ebp $T0 ^ = $esp $T0 8 + = $L $T0 .cbSavedRegs - = $P $T0 8 + .cbParams + =
STACK WIN 4 a174 22 5 0 14 0 4 0 1 $T0 $ebp = $eip $T0 4 + ^ = $ebp $T0 ^ = $esp $T0 8 + = $L $T0 .cbSavedRegs - = $P $T0 8 + .cbParams + =
STACK WIN 4 a179 1b 0 0 14 4 4 0 1 $T0 $ebp = $eip $T0 4 + ^ = $ebp $T0 ^ = $esp $T0 8 + = $L $T0 .cbSavedRegs - = $P $T0 8 + .cbParams + =
STACK WIN 4 a196 2d 5 0 8 0 8 0 1 $T0 $ebp = $eip $T0 4 + ^ = $ebp $T0 ^ = $esp $T0 8 + = $L $T0 .cbSavedRegs - = $P $T0 8 + .cbParams + =
STACK WIN 4 a1c3 28 5 0 c 0 4 0 1 $T0 $ebp = $eip $T0 4 + ^ = $ebp $T0 ^ = $esp $T0 8 + = $L $T0 .cbSavedRegs - = $P $T0 8 + .cbParams + =
STACK WIN 4 a1c8 21 0 0 c 4 4 0 1 $T0 $ebp = $eip $T0 4 + ^ = $ebp $T0 ^ = $esp $T0 8 + = $L $T0 .cbSavedRegs - = $P $T0 8 + .cbParams + =
STACK WIN 4 a1eb 28 5 0 c 0 4 0 1 $T0 $ebp = $eip $T0 4 + ^ = $ebp $T0 ^ = $esp $T0 8 + = $L $T0 .cbSavedRegs - = $P $T0 8 + .cbParams + =
STACK WIN 4 a1f0 21 0 0 c 4 4 0 1 $T0 $ebp = $eip $T0 4 + ^ = $ebp $T0 ^ = $esp $T0 8 + = $L $T0 .cbSavedRegs - = $P $T0 8 + .cbParams + =
STACK WIN 4 a213 25 5 0 c 0 4 0 1 $T0 $ebp = $eip $T0 4 + ^ = $ebp $T0 ^ = $esp $T0 8 + = $L $T0 .cbSavedRegs - = $P $T0 8 + .cbParams + =
STACK WIN 4 a218 1e 0 0 c 4 4 0 1 $T0 $ebp = $eip $T0 4 + ^ = $ebp $T0 ^ = $esp $T0 8 + = $L $T0 .cbSavedRegs - = $P $T0 8 + .cbParams + =
STACK WIN 4 a238 98 f 0 4 0 10 0 1 $T0 $ebp = $eip $T0 4 + ^ = $ebp $T0 ^ = $esp $T0 8 + = $L $T0 .cbSavedRegs - = $P $T0 8 + .cbParams + =
STACK WIN 4 a23f 8b 8 0 4 4 10 0 1 $T0 $ebp = $eip $T0 4 + ^ = $ebp $T0 ^ = $esp $T0 8 + = $L $T0 .cbSavedRegs - = $P $T0 8 + .cbParams + = $ebx $T0 20 - ^ =
STACK WIN 4 a246 83 1 0 4 8 10 0 1 $T0 $ebp = $eip $T0 4 + ^ = $ebp $T0 ^ = $esp $T0 8 + = $L $T0 .cbSavedRegs - = $P $T0 8 + .cbParams + = $ebx $T0 20 - ^ =
STACK WIN 4 a247 81 0 0 4 c 10 0 1 $T0 $ebp = $eip $T0 4 + ^ = $ebp $T0 ^ = $esp $T0 8 + = $L $T0 .cbSavedRegs - = $P $T0 8 + .cbParams + = $ebx $T0 20 - ^ =
STACK WIN 4 a2d0 27 3 0 0 0 0 0 1 $T2 $esp .cbLocals + .cbSavedRegs + = $T0 .raSearchStart = $eip $T0 ^ = $esp $T0 4 + =
STACK WIN 4 a2d1 25 2 0 0 4 0 0 1 $T2 $esp .cbLocals + .cbSavedRegs + = $T0 .raSearchStart = $eip $T0 ^ = $esp $T0 4 + =
STACK WIN 4 a2f7 3d a 0 14 0 0 0 1 $T0 $ebp = $eip $T0 4 + ^ = $ebp $T0 ^ = $esp $T0 8 + = $L $T0 .cbSavedRegs - = $P $T0 8 + .cbParams + =
STACK WIN 4 a2fb 35 6 0 14 4 0 0 1 $T0 $ebp = $eip $T0 4 + ^ = $ebp $T0 ^ = $esp $T0 8 + = $L $T0 .cbSavedRegs - = $P $T0 8 + .cbParams + =
STACK WIN 4 a2fc 31 5 0 14 8 0 0 1 $T0 $ebp = $eip $T0 4 + ^ = $ebp $T0 ^ = $esp $T0 8 + = $L $T0 .cbSavedRegs - = $P $T0 8 + .cbParams + =
STACK WIN 4 a334 18 0 0 c 0 0 0 1 $T2 $esp .cbLocals + .cbSavedRegs + = $T0 .raSearchStart = $eip $T0 ^ = $esp $T0 4 + =
STACK WIN 4 a34c 20 6 0 c 0 0 0 1 $T2 $esp .cbLocals + .cbSavedRegs + = $T0 .raSearchStart = $eip $T0 ^ = $esp $T0 4 + =
STACK WIN 4 a34d 1c 5 0 c 4 0 0 1 $T2 $esp .cbLocals + .cbSavedRegs + = $T0 .raSearchStart = $eip $T0 ^ = $esp $T0 4 + =
STACK WIN 4 a352 16 0 0 c 8 0 0 1 $T2 $esp .cbLocals + .cbSavedRegs + = $T0 .raSearchStart = $eip $T0 ^ = $esp $T0 4 + =
STACK WIN 4 a36c 52 11 0 8 c 14 0 1 $T0 $ebp = $eip $T0 4 + ^ = $ebp $T0 ^ = $esp $T0 8 + = $L $T0 .cbSavedRegs - = $P $T0 8 + .cbParams + =
STACK WIN 4 a3be 1dd 11 0 10 c 1c 0 1 $T0 $ebp = $eip $T0 4 + ^ = $ebp $T0 ^ = $esp $T0 8 + = $L $T0 .cbSavedRegs - = $P $T0 8 + .cbParams + =
STACK WIN 4 a59b 1e e 0 4 0 4 0 1 $T0 $ebp = $eip $T0 4 + ^ = $ebp $T0 ^ = $esp $T0 8 + = $L $T0 .cbSavedRegs - = $P $T0 8 + .cbParams + =
STACK WIN 4 a5a0 15 9 0 4 4 4 0 1 $T0 $ebp = $eip $T0 4 + ^ = $ebp $T0 ^ = $esp $T0 8 + = $L $T0 .cbSavedRegs - = $P $T0 8 + .cbParams + =
STACK WIN 4 a5b9 a0 a 0 8 0 18 0 1 $T0 $ebp = $eip $T0 4 + ^ = $ebp $T0 ^ = $esp $T0 8 + = $L $T0 .cbSavedRegs - = $P $T0 8 + .cbParams + =
STACK WIN 4 a5c0 95 3 0 8 4 18 0 1 $T0 $ebp = $eip $T0 4 + ^ = $ebp $T0 ^ = $esp $T0 8 + = $L $T0 .cbSavedRegs - = $P $T0 8 + .cbParams + = $ebx $T0 28 - ^ =
STACK WIN 4 a5c1 93 2 0 8 8 18 0 1 $T0 $ebp = $eip $T0 4 + ^ = $ebp $T0 ^ = $esp $T0 8 + = $L $T0 .cbSavedRegs - = $P $T0 8 + .cbParams + = $ebx $T0 28 - ^ =
STACK WIN 4 a5dd 2c 0 0 8 c 18 0 1 $T0 $ebp = $eip $T0 4 + ^ = $ebp $T0 ^ = $esp $T0 8 + = $L $T0 .cbSavedRegs - = $P $T0 8 + .cbParams + = $ebx $T0 28 - ^ =
STACK WIN 4 a659 148 1d 0 8 0 9c 0 1 $T0 $ebp 112 + = $eip $T0 4 + ^ = $ebp $T0 ^ = $esp $T0 8 + = $L $T0 .cbSavedRegs - = $P $T0 8 + .cbParams + =
STACK WIN 4 a672 125 4 0 8 4 9c 0 1 $T0 $ebp 112 + = $eip $T0 4 + ^ = $ebp $T0 ^ = $esp $T0 8 + = $L $T0 .cbSavedRegs - = $P $T0 8 + .cbParams + = $ebx $T0 160 - ^ =
STACK WIN 4 a673 121 3 0 8 8 9c 0 1 $T0 $ebp 112 + = $eip $T0 4 + ^ = $ebp $T0 ^ = $esp $T0 8 + = $L $T0 .cbSavedRegs - = $P $T0 8 + .cbParams + = $ebx $T0 160 - ^ =
STACK WIN 4 a676 11d 0 0 8 c 9c 0 1 $T0 $ebp 112 + = $eip $T0 4 + ^ = $ebp $T0 ^ = $esp $T0 8 + = $L $T0 .cbSavedRegs - = $P $T0 8 + .cbParams + = $ebx $T0 160 - ^ =
STACK WIN 4 a7a1 a6 b 0 8 0 a4 0 1 $T0 $ebp 112 + = $eip $T0 4 + ^ = $ebp $T0 ^ = $esp $T0 8 + = $L $T0 .cbSavedRegs - = $P $T0 8 + .cbParams + =
STACK WIN 4 a7c9 79 0 0 8 4 a4 0 1 $T0 $ebp 112 + = $eip $T0 4 + ^ = $ebp $T0 ^ = $esp $T0 8 + = $L $T0 .cbSavedRegs - = $P $T0 8 + .cbParams + = $ebx $T0 168 - ^ =
STACK WIN 4 a7df 57 0 0 8 8 a4 0 1 $T0 $ebp 112 + = $eip $T0 4 + ^ = $ebp $T0 ^ = $esp $T0 8 + = $L $T0 .cbSavedRegs - = $P $T0 8 + .cbParams + = $ebx $T0 168 - ^ =
STACK WIN 4 a847 39d 21 0 14 0 134 0 1 $T0 $ebp 100 + = $eip $T0 4 + ^ = $ebp $T0 ^ = $esp $T0 8 + = $L $T0 .cbSavedRegs - = $P $T0 8 + .cbParams + =
STACK WIN 4 a863 3e 5 0 14 4 134 0 1 $T0 $ebp 100 + = $eip $T0 4 + ^ = $ebp $T0 ^ = $esp $T0 8 + = $L $T0 .cbSavedRegs - = $P $T0 8 + .cbParams + = $ebx $T0 312 - ^ =
STACK WIN 4 a864 3a 4 0 14 8 134 0 1 $T0 $ebp 100 + = $eip $T0 4 + ^ = $ebp $T0 ^ = $esp $T0 8 + = $L $T0 .cbSavedRegs - = $P $T0 8 + .cbParams + = $ebx $T0 312 - ^ =
STACK WIN 4 a868 35 0 0 14 c 134 0 1 $T0 $ebp 100 + = $eip $T0 4 + ^ = $ebp $T0 ^ = $esp $T0 8 + = $L $T0 .cbSavedRegs - = $P $T0 8 + .cbParams + = $ebx $T0 312 - ^ =
STACK WIN 4 abe4 32e 4a 0 1c 0 4e4 0 1 $T0 $ebp 1124 + = $eip $T0 4 + ^ = $ebp $T0 ^ = $esp $T0 8 + = $L $T0 .cbSavedRegs - = $P $T0 8 + .cbParams + =
STACK WIN 4 ac27 253 7 0 1c 4 4e4 0 1 $T0 $ebp 1124 + = $eip $T0 4 + ^ = $ebp $T0 ^ = $esp $T0 8 + = $L $T0 .cbSavedRegs - = $P $T0 8 + .cbParams + =
STACK WIN 4 ac2e 249 0 0 1c 8 4e4 0 1 $T0 $ebp 1124 + = $eip $T0 4 + ^ = $ebp $T0 ^ = $esp $T0 8 + = $L $T0 .cbSavedRegs - = $P $T0 8 + .cbParams + =
STACK WIN 4 ac55 21b 0 0 1c c 4e4 0 1 $T0 $ebp 1124 + = $eip $T0 4 + ^ = $ebp $T0 ^ = $esp $T0 8 + = $L $T0 .cbSavedRegs - = $P $T0 8 + .cbParams + = $ebx $T0 1264 - ^ =
STACK WIN 4 af12 5 0 0 4 0 0 0 1 $T2 $esp .cbLocals + .cbSavedRegs + = $T0 .raSearchStart = $eip $T0 ^ = $esp $T0 4 + =
STACK WIN 4 af17 49 b 0 4 0 0 0 1 $T2 $esp .cbLocals + .cbSavedRegs + = $T0 .raSearchStart = $eip $T0 ^ = $esp $T0 4 + =
STACK WIN 4 af18 45 a 0 4 4 0 0 1 $T2 $esp .cbLocals + .cbSavedRegs + = $T0 .raSearchStart = $eip $T0 ^ = $esp $T0 4 + = $ebx $T0 4 - ^ =
STACK WIN 4 af20 3c 2 0 4 8 0 0 1 $T2 $esp .cbLocals + .cbSavedRegs + = $T0 .raSearchStart = $eip $T0 ^ = $esp $T0 4 + = $ebx $T0 4 - ^ =
STACK WIN 4 af25 21 0 0 4 c 0 0 1 $T2 $esp .cbLocals + .cbSavedRegs + = $T0 .raSearchStart = $eip $T0 ^ = $esp $T0 4 + = $ebx $T0 4 - ^ =
STACK WIN 4 af6c f 0 0 0 0 0 0 1 $T2 $esp .cbLocals + .cbSavedRegs + = $T0 .raSearchStart = $eip $T0 ^ = $esp $T0 4 + =
STACK WIN 4 af94 36 0 0 4 0 0 0 1 $T2 $esp .cbLocals + .cbSavedRegs + = $T0 .raSearchStart = $eip $T0 ^ = $esp $T0 4 + =
STACK WIN 4 afca 39 0 0 4 0 0 0 1 $T2 $esp .cbLocals + .cbSavedRegs + = $T0 .raSearchStart = $eip $T0 ^ = $esp $T0 4 + =
STACK WIN 4 b003 14 0 0 0 0 0 0 1 $T2 $esp .cbLocals + .cbSavedRegs + = $T0 .raSearchStart = $eip $T0 ^ = $esp $T0 4 + =
STACK WIN 4 b017 f 0 0 0 0 0 0 1 $T2 $esp .cbLocals + .cbSavedRegs + = $T0 .raSearchStart = $eip $T0 ^ = $esp $T0 4 + =
STACK WIN 4 b06e a5 c 0 4 c 24 0 1 $T0 $ebp = $eip $T0 4 + ^ = $ebp $T0 ^ = $esp $T0 8 + = $L $T0 .cbSavedRegs - = $P $T0 8 + .cbParams + =
STACK WIN 4 b10a 8 0 0 4 c 24 0 1 $T0 $ebp = $T2 $esp = $T1 .raSearchStart = $eip $T1 ^ = $ebp $T0 = $esp $T1 4 + = $L $T0 .cbSavedRegs - = $P $T1 4 + .cbParams + =
STACK WIN 4 b113 12 0 0 4 0 0 0 1 $T2 $esp .cbLocals + .cbSavedRegs + = $T0 .raSearchStart = $eip $T0 ^ = $esp $T0 4 + =
STACK WIN 4 b202 4b 0 0 0 0 0 0 1 $T2 $esp .cbLocals + .cbSavedRegs + = $T0 .raSearchStart = $eip $T0 ^ = $esp $T0 4 + =
STACK WIN 4 b24d 1de c 0 0 c 6c 0 1 $T0 $ebp = $eip $T0 4 + ^ = $ebp $T0 ^ = $esp $T0 8 + = $L $T0 .cbSavedRegs - = $P $T0 8 + .cbParams + =
STACK WIN 4 b3c6 14 0 0 0 c 6c 0 1 $T0 $ebp = $T2 $esp = $T1 .raSearchStart = $eip $T1 ^ = $ebp $T0 = $esp $T1 4 + = $L $T0 .cbSavedRegs - = $P $T1 4 + .cbParams + =
STACK WIN 4 b412 4 0 0 0 c 6c 0 1 $T0 $ebp = $T2 $esp = $T1 .raSearchStart = $eip $T1 ^ = $ebp $T0 = $esp $T1 4 + = $L $T0 .cbSavedRegs - = $P $T1 4 + .cbParams + =
STACK WIN 4 b42b e2 0 0 0 0 0 0 1 $T2 $esp .cbLocals + .cbSavedRegs + = $T0 .raSearchStart = $eip $T0 ^ = $esp $T0 4 + =
STACK WIN 4 b50d a 0 0 0 0 0 0 1 $T2 $esp .cbLocals + .cbSavedRegs + = $T0 .raSearchStart = $eip $T0 ^ = $esp $T0 4 + =
STACK WIN 4 b517 5e c 0 10 c 24 0 1 $T0 $ebp = $eip $T0 4 + ^ = $ebp $T0 ^ = $esp $T0 8 + = $L $T0 .cbSavedRegs - = $P $T0 8 + .cbParams + =
STACK WIN 4 b53a 23 0 0 10 c 24 0 1 $T0 $ebp = $T2 $esp = $T1 .raSearchStart = $eip $T1 ^ = $ebp $T0 = $esp $T1 4 + = $L $T0 .cbSavedRegs - = $P $T1 4 + .cbParams + =
STACK WIN 4 b575 63 c 0 10 c 1c 0 1 $T0 $ebp = $eip $T0 4 + ^ = $ebp $T0 ^ = $esp $T0 8 + = $L $T0 .cbSavedRegs - = $P $T0 8 + .cbParams + =
STACK WIN 4 b5c0 17 0 0 10 c 1c 0 1 $T0 $ebp = $T2 $esp = $T1 .raSearchStart = $eip $T1 ^ = $ebp $T0 = $esp $T1 4 + = $L $T0 .cbSavedRegs - = $P $T1 4 + .cbParams + =
STACK WIN 4 b5d8 104 9 0 0 0 328 0 1 $T0 $ebp = $eip $T0 4 + ^ = $ebp $T0 ^ = $esp $T0 8 + = $L $T0 .cbSavedRegs - = $P $T0 8 + .cbParams + =
STACK WIN 4 b749 23 0 0 10 0 0 0 1 $T2 $esp .cbLocals + .cbSavedRegs + = $T0 .raSearchStart = $eip $T0 ^ = $esp $T0 4 + =
STACK WIN 4 b76c 50 c 0 0 c 1c 0 1 $T0 $ebp = $eip $T0 4 + ^ = $ebp $T0 ^ = $esp $T0 8 + = $L $T0 .cbSavedRegs - = $P $T0 8 + .cbParams + =
STACK WIN 4 b789 1c 0 0 0 c 1c 0 1 $T0 $ebp = $T2 $esp = $T1 .raSearchStart = $eip $T1 ^ = $ebp $T0 = $esp $T1 4 + = $L $T0 .cbSavedRegs - = $P $T1 4 + .cbParams + =
STACK WIN 4 b7bc 60 9 0 0 0 18 0 1 $T0 $ebp = $eip $T0 4 + ^ = $ebp $T0 ^ = $esp $T0 8 + = $L $T0 .cbSavedRegs - = $P $T0 8 + .cbParams + =
STACK WIN 4 b7c5 57 0 0 0 4 18 0 1 $T0 $ebp = $eip $T0 4 + ^ = $ebp $T0 ^ = $esp $T0 8 + = $L $T0 .cbSavedRegs - = $P $T0 8 + .cbParams + = $ebx $T0 28 - ^ =
STACK WIN 4 b81c d 0 0 0 0 0 0 1 $T2 $esp .cbLocals + .cbSavedRegs + = $T0 .raSearchStart = $eip $T0 ^ = $esp $T0 4 + =
STACK WIN 4 b829 3d 0 0 4 0 0 0 1 $T2 $esp .cbLocals + .cbSavedRegs + = $T0 .raSearchStart = $eip $T0 ^ = $esp $T0 4 + =
STACK WIN 4 b866 e 0 0 0 0 0 0 1 $T2 $esp .cbLocals + .cbSavedRegs + = $T0 .raSearchStart = $eip $T0 ^ = $esp $T0 4 + =
STACK WIN 4 b87a 24 2 0 0 0 0 0 1 $T2 $esp .cbLocals + .cbSavedRegs + = $T0 .raSearchStart = $eip $T0 ^ = $esp $T0 4 + =
STACK WIN 4 b87b 22 1 0 0 4 0 0 1 $T2 $esp .cbLocals + .cbSavedRegs + = $T0 .raSearchStart = $eip $T0 ^ = $esp $T0 4 + =
STACK WIN 4 b87c 20 0 0 0 8 0 0 1 $T2 $esp .cbLocals + .cbSavedRegs + = $T0 .raSearchStart = $eip $T0 ^ = $esp $T0 4 + =
STACK WIN 4 b89e 24 2 0 0 0 0 0 1 $T2 $esp .cbLocals + .cbSavedRegs + = $T0 .raSearchStart = $eip $T0 ^ = $esp $T0 4 + =
STACK WIN 4 b89f 22 1 0 0 4 0 0 1 $T2 $esp .cbLocals + .cbSavedRegs + = $T0 .raSearchStart = $eip $T0 ^ = $esp $T0 4 + =
STACK WIN 4 b8a0 20 0 0 0 8 0 0 1 $T2 $esp .cbLocals + .cbSavedRegs + = $T0 .raSearchStart = $eip $T0 ^ = $esp $T0 4 + =
STACK WIN 4 b8d0 29 0 0 4 0 0 0 1 $T2 $esp .cbLocals + .cbSavedRegs + = $T0 .raSearchStart = $eip $T0 ^ = $esp $T0 4 + =
STACK WIN 4 b900 42 18 0 8 0 0 0 1 $T2 $esp .cbLocals + .cbSavedRegs + = $T0 .raSearchStart = $eip $T0 ^ = $esp $T0 4 + =
STACK WIN 4 b90e 33 a 0 8 4 0 0 1 $T2 $esp .cbLocals + .cbSavedRegs + = $T0 .raSearchStart = $eip $T0 ^ = $esp $T0 4 + = $ebx $T0 4 - ^ =
STACK WIN 4 b90f 31 9 0 8 8 0 0 1 $T2 $esp .cbLocals + .cbSavedRegs + = $T0 .raSearchStart = $eip $T0 ^ = $esp $T0 4 + = $ebx $T0 4 - ^ =
STACK WIN 4 b918 27 0 0 8 c 0 0 1 $T2 $esp .cbLocals + .cbSavedRegs + = $T0 .raSearchStart = $eip $T0 ^ = $esp $T0 4 + = $ebx $T0 4 - ^ =
STACK WIN 4 b950 bb 33 0 4 c 18 0 1 $T0 $ebp = $eip $T0 4 + ^ = $ebp $T0 ^ = $esp $T0 8 + = $L $T0 .cbSavedRegs - = $P $T0 8 + .cbParams + =
STACK WIN 4 b96a a1 19 0 4 10 18 0 1 $T0 $ebp = $eip $T0 4 + ^ = $ebp $T0 ^ = $esp $T0 8 + = $L $T0 .cbSavedRegs - = $P $T0 8 + .cbParams + = $ebx $T0 28 - ^ =
STACK WIN 4 b9d9 14 0 0 4 c 18 0 1 $T0 $ebp = $T2 $esp = $T1 .raSearchStart = $eip $T1 ^ = $ebp $T0 = $esp $T1 4 + = $L $T0 .cbSavedRegs - = $P $T1 4 + .cbParams + = $ebx $T0 28 - ^ =
STACK WIN 4 ba18 29 1 0 0 0 0 0 1 $T2 $esp .cbLocals + .cbSavedRegs + = $T0 .raSearchStart = $eip $T0 ^ = $esp $T0 4 + =
STACK WIN 4 ba19 27 0 0 0 4 0 0 1 $T2 $esp .cbLocals + .cbSavedRegs + = $T0 .raSearchStart = $eip $T0 ^ = $esp $T0 4 + =
STACK WIN 4 ba41 3 0 0 4 0 0 0 1 $T2 $esp .cbLocals + .cbSavedRegs + = $T0 .raSearchStart = $eip $T0 ^ = $esp $T0 4 + =
STACK WIN 4 ba44 94 15 0 0 0 10 0 1 $T0 $ebp = $eip $T0 4 + ^ = $ebp $T0 ^ = $esp $T0 8 + = $L $T0 .cbSavedRegs - = $P $T0 8 + .cbParams + =
STACK WIN 4 ba58 7e 1 0 0 4 10 0 1 $T0 $ebp = $eip $T0 4 + ^ = $ebp $T0 ^ = $esp $T0 8 + = $L $T0 .cbSavedRegs - = $P $T0 8 + .cbParams + = $ebx $T0 20 - ^ =
STACK WIN 4 ba59 7c 0 0 0 8 10 0 1 $T0 $ebp = $eip $T0 4 + ^ = $ebp $T0 ^ = $esp $T0 8 + = $L $T0 .cbSavedRegs - = $P $T0 8 + .cbParams + = $ebx $T0 20 - ^ =
STACK WIN 4 ba75 5f 0 0 0 c 10 0 1 $T0 $ebp = $eip $T0 4 + ^ = $ebp $T0 ^ = $esp $T0 8 + = $L $T0 .cbSavedRegs - = $P $T0 8 + .cbParams + = $ebx $T0 20 - ^ =
STACK WIN 4 bce5 16 0 0 0 0 0 0 1 $T2 $esp .cbLocals + .cbSavedRegs + = $T0 .raSearchStart = $eip $T0 ^ = $esp $T0 4 + =
STACK WIN 4 bcfb 17 0 0 0 0 0 0 1 $T2 $esp .cbLocals + .cbSavedRegs + = $T0 .raSearchStart = $eip $T0 ^ = $esp $T0 4 + =
STACK WIN 4 bd12 c 0 0 0 0 0 0 1 $T2 $esp .cbLocals + .cbSavedRegs + = $T0 .raSearchStart = $eip $T0 ^ = $esp $T0 4 + =
STACK WIN 4 bd1e 17 0 0 0 0 0 0 1 $T2 $esp .cbLocals + .cbSavedRegs + = $T0 .raSearchStart = $eip $T0 ^ = $esp $T0 4 + =
STACK WIN 4 bd35 17 0 0 0 0 0 0 1 $T2 $esp .cbLocals + .cbSavedRegs + = $T0 .raSearchStart = $eip $T0 ^ = $esp $T0 4 + =
STACK WIN 4 bd4c 1c 0 0 0 0 0 0 1 $T2 $esp .cbLocals + .cbSavedRegs + = $T0 .raSearchStart = $eip $T0 ^ = $esp $T0 4 + =
STACK WIN 4 bd68 37 0 0 0 0 0 0 1 $T2 $esp .cbLocals + .cbSavedRegs + = $T0 .raSearchStart = $eip $T0 ^ = $esp $T0 4 + =
STACK WIN 4 bd9f c 0 0 0 0 0 0 1 $T2 $esp .cbLocals + .cbSavedRegs + = $T0 .raSearchStart = $eip $T0 ^ = $esp $T0 4 + =
STACK WIN 4 bdab 16 0 0 0 0 0 0 1 $T2 $esp .cbLocals + .cbSavedRegs + = $T0 .raSearchStart = $eip $T0 ^ = $esp $T0 4 + =
STACK WIN 4 bdc1 1c 0 0 0 0 0 0 1 $T2 $esp .cbLocals + .cbSavedRegs + = $T0 .raSearchStart = $eip $T0 ^ = $esp $T0 4 + =
STACK WIN 4 bddd 17 0 0 0 0 0 0 1 $T2 $esp .cbLocals + .cbSavedRegs + = $T0 .raSearchStart = $eip $T0 ^ = $esp $T0 4 + =
STACK WIN 4 bdf4 16 0 0 0 0 0 0 1 $T2 $esp .cbLocals + .cbSavedRegs + = $T0 .raSearchStart = $eip $T0 ^ = $esp $T0 4 + =
STACK WIN 4 be0a b 0 0 0 0 0 0 1 $T2 $esp .cbLocals + .cbSavedRegs + = $T0 .raSearchStart = $eip $T0 ^ = $esp $T0 4 + =
STACK WIN 4 be15 b 0 0 0 0 0 0 1 $T2 $esp .cbLocals + .cbSavedRegs + = $T0 .raSearchStart = $eip $T0 ^ = $esp $T0 4 + =
STACK WIN 4 be20 b 0 0 0 0 0 0 1 $T2 $esp .cbLocals + .cbSavedRegs + = $T0 .raSearchStart = $eip $T0 ^ = $esp $T0 4 + =
STACK WIN 4 be2b b 0 0 0 0 0 0 1 $T2 $esp .cbLocals + .cbSavedRegs + = $T0 .raSearchStart = $eip $T0 ^ = $esp $T0 4 + =
STACK WIN 4 be36 17 0 0 0 0 0 0 1 $T2 $esp .cbLocals + .cbSavedRegs + = $T0 .raSearchStart = $eip $T0 ^ = $esp $T0 4 + =
STACK WIN 4 be4d a 0 0 0 0 0 0 1 $T2 $esp .cbLocals + .cbSavedRegs + = $T0 .raSearchStart = $eip $T0 ^ = $esp $T0 4 + =
STACK WIN 4 be57 b 0 0 0 0 0 0 1 $T2 $esp .cbLocals + .cbSavedRegs + = $T0 .raSearchStart = $eip $T0 ^ = $esp $T0 4 + =
STACK WIN 4 be62 b 0 0 0 0 0 0 1 $T2 $esp .cbLocals + .cbSavedRegs + = $T0 .raSearchStart = $eip $T0 ^ = $esp $T0 4 + =
STACK WIN 4 be6d a 0 0 0 0 0 0 1 $T2 $esp .cbLocals + .cbSavedRegs + = $T0 .raSearchStart = $eip $T0 ^ = $esp $T0 4 + =
STACK WIN 4 be77 a 0 0 0 0 0 0 1 $T2 $esp .cbLocals + .cbSavedRegs + = $T0 .raSearchStart = $eip $T0 ^ = $esp $T0 4 + =
STACK WIN 4 be81 a 0 0 0 0 0 0 1 $T2 $esp .cbLocals + .cbSavedRegs + = $T0 .raSearchStart = $eip $T0 ^ = $esp $T0 4 + =
STACK WIN 4 be8b a 0 0 0 0 0 0 1 $T2 $esp .cbLocals + .cbSavedRegs + = $T0 .raSearchStart = $eip $T0 ^ = $esp $T0 4 + =
STACK WIN 0 b10a 9 0 0 0 0 0 0 0 0
STACK WIN 0 b3c6 14 0 0 0 0 0 0 0 0
STACK WIN 0 b412 4 0 0 0 0 0 0 0 0
STACK WIN 0 b53a 24 0 0 0 0 0 0 0 0
STACK WIN 0 b5c0 18 0 0 0 0 0 0 0 0
STACK WIN 0 b789 1c 0 0 0 0 0 0 0 0
STACK WIN 0 b9d9 14 0 0 0 0 0 0 0 0
